<abi-corpus version='2.4' soname='libvtkParallelCore-6.1.so.1'>
  <elf-needed>
    <dependency name='libvtkIOLegacy-6.1.so.1'/>
    <dependency name='libvtkIOCore-6.1.so.1'/>
    <dependency name='libvtkCommonExecutionModel-6.1.so.1'/>
    <dependency name='libvtkCommonDataModel-6.1.so.1'/>
    <dependency name='libvtkCommonMisc-6.1.so.1'/>
    <dependency name='libvtkCommonSystem-6.1.so.1'/>
    <dependency name='libvtksys-6.1.so.1'/>
    <dependency name='libvtkCommonTransforms-6.1.so.1'/>
    <dependency name='libvtkCommonMath-6.1.so.1'/>
    <dependency name='libvtkCommonCore-6.1.so.1'/>
    <dependency name='libdl.so.2'/>
    <dependency name='libstdc++.so.6'/>
    <dependency name='libm.so.6'/>
    <dependency name='libc.so.6'/>
    <dependency name='libgcc_s.so.1'/>
  </elf-needed>
  <elf-function-symbols>
    <!-- vtkProcess::GetController() -->
    <elf-symbol name='_ZN10vtkProcess13GetControllerEv' type='func-type' binding='global-binding' visibility='default-visibility' is-defined='yes'/>
    <!-- vtkProcess::SetController(vtkMultiProcessController*) -->
    <elf-symbol name='_ZN10vtkProcess13SetControllerEP25vtkMultiProcessController' type='func-type' binding='global-binding' visibility='default-visibility' is-defined='yes'/>
    <!-- vtkProcess::GetReturnValue() -->
    <elf-symbol name='_ZN10vtkProcess14GetReturnValueEv' type='func-type' binding='global-binding' visibility='default-visibility' is-defined='yes'/>
    <!-- vtkProcess::PrintSelf(std::ostream&, vtkIndent) -->
    <elf-symbol name='_ZN10vtkProcess9PrintSelfERSo9vtkIndent' type='func-type' binding='global-binding' visibility='default-visibility' is-defined='yes'/>
    <!-- vtkProcess::vtkProcess() -->
    <elf-symbol name='_ZN10vtkProcessC1Ev' type='func-type' binding='global-binding' visibility='default-visibility' alias='_ZN10vtkProcessC2Ev' is-defined='yes'/>
    <!-- vtkProcess::vtkProcess() -->
    <elf-symbol name='_ZN10vtkProcessC2Ev' type='func-type' binding='global-binding' visibility='default-visibility' is-defined='yes'/>
    <!-- vtkSubGroup::Initialize(int, int, int, int, vtkCommunicator*) -->
    <elf-symbol name='_ZN11vtkSubGroup10InitializeEiiiiP15vtkCommunicator' type='func-type' binding='global-binding' visibility='default-visibility' is-defined='yes'/>
    <!-- vtkSubGroup::restoreRoot(int) -->
    <elf-symbol name='_ZN11vtkSubGroup11restoreRootEi' type='func-type' binding='global-binding' visibility='default-visibility' is-defined='yes'/>
    <!-- vtkSubGroup::getLocalRank(int) -->
    <elf-symbol name='_ZN11vtkSubGroup12getLocalRankEi' type='func-type' binding='global-binding' visibility='default-visibility' is-defined='yes'/>
    <!-- vtkSubGroup::MakeSortedUnique(int*, int, int**) -->
    <elf-symbol name='_ZN11vtkSubGroup16MakeSortedUniqueEPiiPS0_' type='func-type' binding='global-binding' visibility='default-visibility' is-defined='yes'/>
    <!-- vtkSubGroup::setGatherPattern(int, int) -->
    <elf-symbol name='_ZN11vtkSubGroup16setGatherPatternEii' type='func-type' binding='global-binding' visibility='default-visibility' is-defined='yes'/>
    <!-- vtkSubGroup::MergeSortedUnique(int*, int, int*, int, int**) -->
    <elf-symbol name='_ZN11vtkSubGroup17MergeSortedUniqueEPiiS0_iPS0_' type='func-type' binding='global-binding' visibility='default-visibility' is-defined='yes'/>
    <!-- vtkSubGroup::AllReduceUniqueList(int*, int, int**) -->
    <elf-symbol name='_ZN11vtkSubGroup19AllReduceUniqueListEPiiPS0_' type='func-type' binding='global-binding' visibility='default-visibility' is-defined='yes'/>
    <!-- vtkSubGroup::computeFanInTargets() -->
    <elf-symbol name='_ZN11vtkSubGroup19computeFanInTargetsEv' type='func-type' binding='global-binding' visibility='default-visibility' is-defined='yes'/>
    <!-- vtkSubGroup::New() -->
    <elf-symbol name='_ZN11vtkSubGroup3NewEv' type='func-type' binding='global-binding' visibility='default-visibility' is-defined='yes'/>
    <!-- vtkSubGroup::Gather(char*, char*, int, int) -->
    <elf-symbol name='_ZN11vtkSubGroup6GatherEPcS0_ii' type='func-type' binding='global-binding' visibility='default-visibility' is-defined='yes'/>
    <!-- vtkSubGroup::Gather(float*, float*, int, int) -->
    <elf-symbol name='_ZN11vtkSubGroup6GatherEPfS0_ii' type='func-type' binding='global-binding' visibility='default-visibility' is-defined='yes'/>
    <!-- vtkSubGroup::Gather(int*, int*, int, int) -->
    <elf-symbol name='_ZN11vtkSubGroup6GatherEPiS0_ii' type='func-type' binding='global-binding' visibility='default-visibility' is-defined='yes'/>
    <!-- vtkSubGroup::Gather(long long*, long long*, int, int) -->
    <elf-symbol name='_ZN11vtkSubGroup6GatherEPxS0_ii' type='func-type' binding='global-binding' visibility='default-visibility' is-defined='yes'/>
    <!-- vtkSubGroup::Barrier() -->
    <elf-symbol name='_ZN11vtkSubGroup7BarrierEv' type='func-type' binding='global-binding' visibility='default-visibility' is-defined='yes'/>
    <!-- vtkSubGroup::moveRoot(int) -->
    <elf-symbol name='_ZN11vtkSubGroup8moveRootEi' type='func-type' binding='global-binding' visibility='default-visibility' is-defined='yes'/>
    <!-- vtkSubGroup::Broadcast(char*, int, int) -->
    <elf-symbol name='_ZN11vtkSubGroup9BroadcastEPcii' type='func-type' binding='global-binding' visibility='default-visibility' is-defined='yes'/>
    <!-- vtkSubGroup::Broadcast(double*, int, int) -->
    <elf-symbol name='_ZN11vtkSubGroup9BroadcastEPdii' type='func-type' binding='global-binding' visibility='default-visibility' is-defined='yes'/>
    <!-- vtkSubGroup::Broadcast(float*, int, int) -->
    <elf-symbol name='_ZN11vtkSubGroup9BroadcastEPfii' type='func-type' binding='global-binding' visibility='default-visibility' is-defined='yes'/>
    <!-- vtkSubGroup::Broadcast(int*, int, int) -->
    <elf-symbol name='_ZN11vtkSubGroup9BroadcastEPiii' type='func-type' binding='global-binding' visibility='default-visibility' is-defined='yes'/>
    <!-- vtkSubGroup::Broadcast(long long*, int, int) -->
    <elf-symbol name='_ZN11vtkSubGroup9BroadcastEPxii' type='func-type' binding='global-binding' visibility='default-visibility' is-defined='yes'/>
    <!-- vtkSubGroup::PrintSelf(std::ostream&, vtkIndent) -->
    <elf-symbol name='_ZN11vtkSubGroup9PrintSelfERSo9vtkIndent' type='func-type' binding='global-binding' visibility='default-visibility' is-defined='yes'/>
    <!-- vtkSubGroup::ReduceMax(double*, double*, int, int) -->
    <elf-symbol name='_ZN11vtkSubGroup9ReduceMaxEPdS0_ii' type='func-type' binding='global-binding' visibility='default-visibility' is-defined='yes'/>
    <!-- vtkSubGroup::ReduceMax(float*, float*, int, int) -->
    <elf-symbol name='_ZN11vtkSubGroup9ReduceMaxEPfS0_ii' type='func-type' binding='global-binding' visibility='default-visibility' is-defined='yes'/>
    <!-- vtkSubGroup::ReduceMax(int*, int*, int, int) -->
    <elf-symbol name='_ZN11vtkSubGroup9ReduceMaxEPiS0_ii' type='func-type' binding='global-binding' visibility='default-visibility' is-defined='yes'/>
    <!-- vtkSubGroup::ReduceMin(double*, double*, int, int) -->
    <elf-symbol name='_ZN11vtkSubGroup9ReduceMinEPdS0_ii' type='func-type' binding='global-binding' visibility='default-visibility' is-defined='yes'/>
    <!-- vtkSubGroup::ReduceMin(float*, float*, int, int) -->
    <elf-symbol name='_ZN11vtkSubGroup9ReduceMinEPfS0_ii' type='func-type' binding='global-binding' visibility='default-visibility' is-defined='yes'/>
    <!-- vtkSubGroup::ReduceMin(int*, int*, int, int) -->
    <elf-symbol name='_ZN11vtkSubGroup9ReduceMinEPiS0_ii' type='func-type' binding='global-binding' visibility='default-visibility' is-defined='yes'/>
    <!-- vtkSubGroup::ReduceSum(int*, int*, int, int) -->
    <elf-symbol name='_ZN11vtkSubGroup9ReduceSumEPiS0_ii' type='func-type' binding='global-binding' visibility='default-visibility' is-defined='yes'/>
    <!-- vtkSubGroup::setUpRoot(int) -->
    <elf-symbol name='_ZN11vtkSubGroup9setUpRootEi' type='func-type' binding='global-binding' visibility='default-visibility' is-defined='yes'/>
    <!-- vtkSubGroup::vtkSubGroup() -->
    <elf-symbol name='_ZN11vtkSubGroupC1Ev' type='func-type' binding='global-binding' visibility='default-visibility' alias='_ZN11vtkSubGroupC2Ev' is-defined='yes'/>
    <!-- vtkSubGroup::vtkSubGroup() -->
    <elf-symbol name='_ZN11vtkSubGroupC2Ev' type='func-type' binding='global-binding' visibility='default-visibility' is-defined='yes'/>
    <!-- vtkSubGroup::~vtkSubGroup() -->
    <elf-symbol name='_ZN11vtkSubGroupD0Ev' type='func-type' binding='global-binding' visibility='default-visibility' is-defined='yes'/>
    <!-- vtkSubGroup::~vtkSubGroup() -->
    <elf-symbol name='_ZN11vtkSubGroupD1Ev' type='func-type' binding='global-binding' visibility='default-visibility' alias='_ZN11vtkSubGroupD2Ev' is-defined='yes'/>
    <!-- vtkSubGroup::~vtkSubGroup() -->
    <elf-symbol name='_ZN11vtkSubGroupD2Ev' type='func-type' binding='global-binding' visibility='default-visibility' is-defined='yes'/>
    <!-- vtkCommunicator::AllGatherV(vtkDataArray*, vtkDataArray*) -->
    <elf-symbol name='_ZN15vtkCommunicator10AllGatherVEP12vtkDataArrayS1_' type='func-type' binding='global-binding' visibility='default-visibility' is-defined='yes'/>
    <!-- vtkCommunicator::AllGatherV(vtkDataArray*, vtkDataArray*, long long*, long long*) -->
    <elf-symbol name='_ZN15vtkCommunicator10AllGatherVEP12vtkDataArrayS1_PxS2_' type='func-type' binding='global-binding' visibility='default-visibility' is-defined='yes'/>
    <!-- vtkCommunicator::SetUseCopy(int) -->
    <elf-symbol name='_ZN15vtkCommunicator10SetUseCopyEi' type='func-type' binding='global-binding' visibility='default-visibility' is-defined='yes'/>
    <!-- vtkCommunicator::GatherVoidArray(void const*, void*, long long, int, int) -->
    <elf-symbol name='_ZN15vtkCommunicator15GatherVoidArrayEPKvPvxii' type='func-type' binding='global-binding' visibility='default-visibility' is-defined='yes'/>
    <!-- vtkCommunicator::ReduceVoidArray(void const*, void*, long long, int, vtkCommunicator::Operation*, int) -->
    <elf-symbol name='_ZN15vtkCommunicator15ReduceVoidArrayEPKvPvxiPNS_9OperationEi' type='func-type' binding='global-binding' visibility='default-visibility' is-defined='yes'/>
    <!-- vtkCommunicator::ReduceVoidArray(void const*, void*, long long, int, int, int) -->
    <elf-symbol name='_ZN15vtkCommunicator15ReduceVoidArrayEPKvPvxiii' type='func-type' binding='global-binding' visibility='default-visibility' is-defined='yes'/>
    <!-- vtkCommunicator::GatherVVoidArray(void const*, void*, long long, long long*, long long*, int, int) -->
    <elf-symbol name='_ZN15vtkCommunicator16GatherVVoidArrayEPKvPvxPxS3_ii' type='func-type' binding='global-binding' visibility='default-visibility' is-defined='yes'/>
    <!-- vtkCommunicator::ScatterVoidArray(void const*, void*, long long, int, int) -->
    <elf-symbol name='_ZN15vtkCommunicator16ScatterVoidArrayEPKvPvxii' type='func-type' binding='global-binding' visibility='default-visibility' is-defined='yes'/>
    <!-- vtkCommunicator::MarshalDataObject(vtkDataObject*, vtkCharArray*) -->
    <elf-symbol name='_ZN15vtkCommunicator17MarshalDataObjectEP13vtkDataObjectP12vtkCharArray' type='func-type' binding='global-binding' visibility='default-visibility' is-defined='yes'/>
    <!-- vtkCommunicator::ReceiveDataObject(vtkDataObject*, int, int, int) -->
    <elf-symbol name='_ZN15vtkCommunicator17ReceiveDataObjectEP13vtkDataObjectiii' type='func-type' binding='global-binding' visibility='default-visibility' is-defined='yes'/>
    <!-- vtkCommunicator::ReceiveDataObject(int, int) -->
    <elf-symbol name='_ZN15vtkCommunicator17ReceiveDataObjectEii' type='func-type' binding='global-binding' visibility='default-visibility' is-defined='yes'/>
    <!-- vtkCommunicator::ScatterVVoidArray(void const*, void*, long long*, long long*, long long, int, int) -->
    <elf-symbol name='_ZN15vtkCommunicator17ScatterVVoidArrayEPKvPvPxS3_xii' type='func-type' binding='global-binding' visibility='default-visibility' is-defined='yes'/>
    <!-- vtkCommunicator::AllGatherVoidArray(void const*, void*, long long, int) -->
    <elf-symbol name='_ZN15vtkCommunicator18AllGatherVoidArrayEPKvPvxi' type='func-type' binding='global-binding' visibility='default-visibility' is-defined='yes'/>
    <!-- vtkCommunicator::AllReduceVoidArray(void const*, void*, long long, int, vtkCommunicator::Operation*) -->
    <elf-symbol name='_ZN15vtkCommunicator18AllReduceVoidArrayEPKvPvxiPNS_9OperationE' type='func-type' binding='global-binding' visibility='default-visibility' is-defined='yes'/>
    <!-- vtkCommunicator::AllReduceVoidArray(void const*, void*, long long, int, int) -->
    <elf-symbol name='_ZN15vtkCommunicator18AllReduceVoidArrayEPKvPvxii' type='func-type' binding='global-binding' visibility='default-visibility' is-defined='yes'/>
    <!-- vtkCommunicator::BroadcastVoidArray(void*, long long, int, int) -->
    <elf-symbol name='_ZN15vtkCommunicator18BroadcastVoidArrayEPvxii' type='func-type' binding='global-binding' visibility='default-visibility' is-defined='yes'/>
    <!-- vtkCommunicator::GetParentProcessor(int) -->
    <elf-symbol name='_ZN15vtkCommunicator18GetParentProcessorEi' type='func-type' binding='global-binding' visibility='default-visibility' is-defined='yes'/>
    <!-- vtkCommunicator::AllGatherVVoidArray(void const*, void*, long long, long long*, long long*, int) -->
    <elf-symbol name='_ZN15vtkCommunicator19AllGatherVVoidArrayEPKvPvxPxS3_i' type='func-type' binding='global-binding' visibility='default-visibility' is-defined='yes'/>
    <!-- vtkCommunicator::ComputeGlobalBounds(int, int, vtkBoundingBox*, int*, int*, int, int, int) -->
    <elf-symbol name='_ZN15vtkCommunicator19ComputeGlobalBoundsEiiP14vtkBoundingBoxPiS2_iii' type='func-type' binding='global-binding' visibility='default-visibility' is-defined='yes'/>
    <!-- vtkCommunicator::UnMarshalDataObject(vtkCharArray*, vtkDataObject*) -->
    <elf-symbol name='_ZN15vtkCommunicator19UnMarshalDataObjectEP12vtkCharArrayP13vtkDataObject' type='func-type' binding='global-binding' visibility='default-visibility' is-defined='yes'/>
    <!-- vtkCommunicator::SetNumberOfProcesses(int) -->
    <elf-symbol name='_ZN15vtkCommunicator20SetNumberOfProcessesEi' type='func-type' binding='global-binding' visibility='default-visibility' is-defined='yes'/>
    <!-- vtkCommunicator::GetLeftChildProcessor(int) -->
    <elf-symbol name='_ZN15vtkCommunicator21GetLeftChildProcessorEi' type='func-type' binding='global-binding' visibility='default-visibility' is-defined='yes'/>
    <!-- vtkCommunicator::SendElementalDataObject(vtkDataObject*, int, int) -->
    <elf-symbol name='_ZN15vtkCommunicator23SendElementalDataObjectEP13vtkDataObjectii' type='func-type' binding='global-binding' visibility='default-visibility' is-defined='yes'/>
    <!-- vtkCommunicator::ReceiveElementalDataObject(vtkDataObject*, int, int) -->
    <elf-symbol name='_ZN15vtkCommunicator26ReceiveElementalDataObjectEP13vtkDataObjectii' type='func-type' binding='global-binding' visibility='default-visibility' is-defined='yes'/>
    <!-- vtkCommunicator::Send(vtkDataArray*, int, int) -->
    <elf-symbol name='_ZN15vtkCommunicator4SendEP12vtkDataArrayii' type='func-type' binding='global-binding' visibility='default-visibility' is-defined='yes'/>
    <!-- vtkCommunicator::Send(vtkDataObject*, int, int) -->
    <elf-symbol name='_ZN15vtkCommunicator4SendEP13vtkDataObjectii' type='func-type' binding='global-binding' visibility='default-visibility' is-defined='yes'/>
    <!-- vtkCommunicator::Send(vtkMultiProcessStream const&, int, int) -->
    <elf-symbol name='_ZN15vtkCommunicator4SendERK21vtkMultiProcessStreamii' type='func-type' binding='global-binding' visibility='default-visibility' is-defined='yes'/>
    <!-- vtkCommunicator::Gather(vtkDataArray*, vtkDataArray*, int) -->
    <elf-symbol name='_ZN15vtkCommunicator6GatherEP12vtkDataArrayS1_i' type='func-type' binding='global-binding' visibility='default-visibility' is-defined='yes'/>
    <!-- vtkCommunicator::Reduce(vtkDataArray*, vtkDataArray*, vtkCommunicator::Operation*, int) -->
    <elf-symbol name='_ZN15vtkCommunicator6ReduceEP12vtkDataArrayS1_PNS_9OperationEi' type='func-type' binding='global-binding' visibility='default-visibility' is-defined='yes'/>
    <!-- vtkCommunicator::Reduce(vtkDataArray*, vtkDataArray*, int, int) -->
    <elf-symbol name='_ZN15vtkCommunicator6ReduceEP12vtkDataArrayS1_ii' type='func-type' binding='global-binding' visibility='default-visibility' is-defined='yes'/>
    <!-- vtkCommunicator::Barrier() -->
    <elf-symbol name='_ZN15vtkCommunicator7BarrierEv' type='func-type' binding='global-binding' visibility='default-visibility' is-defined='yes'/>
    <!-- vtkCommunicator::GatherV(vtkDataArray*, vtkDataArray*, long long*, long long*, int) -->
    <elf-symbol name='_ZN15vtkCommunicator7GatherVEP12vtkDataArrayS1_PxS2_i' type='func-type' binding='global-binding' visibility='default-visibility' is-defined='yes'/>
    <!-- vtkCommunicator::GatherV(vtkDataArray*, vtkDataArray*, int) -->
    <elf-symbol name='_ZN15vtkCommunicator7GatherVEP12vtkDataArrayS1_i' type='func-type' binding='global-binding' visibility='default-visibility' is-defined='yes'/>
    <!-- vtkCommunicator::Receive(vtkDataArray*, int, int) -->
    <elf-symbol name='_ZN15vtkCommunicator7ReceiveEP12vtkDataArrayii' type='func-type' binding='global-binding' visibility='default-visibility' is-defined='yes'/>
    <!-- vtkCommunicator::Receive(vtkDataObject*, int, int) -->
    <elf-symbol name='_ZN15vtkCommunicator7ReceiveEP13vtkDataObjectii' type='func-type' binding='global-binding' visibility='default-visibility' is-defined='yes'/>
    <!-- vtkCommunicator::Receive(vtkMultiProcessStream&, int, int) -->
    <elf-symbol name='_ZN15vtkCommunicator7ReceiveER21vtkMultiProcessStreamii' type='func-type' binding='global-binding' visibility='default-visibility' is-defined='yes'/>
    <!-- vtkCommunicator::Scatter(vtkDataArray*, vtkDataArray*, int) -->
    <elf-symbol name='_ZN15vtkCommunicator7ScatterEP12vtkDataArrayS1_i' type='func-type' binding='global-binding' visibility='default-visibility' is-defined='yes'/>
    <!-- vtkCommunicator::AllGather(vtkDataArray*, vtkDataArray*) -->
    <elf-symbol name='_ZN15vtkCommunicator9AllGatherEP12vtkDataArrayS1_' type='func-type' binding='global-binding' visibility='default-visibility' is-defined='yes'/>
    <!-- vtkCommunicator::AllReduce(vtkDataArray*, vtkDataArray*, vtkCommunicator::Operation*) -->
    <elf-symbol name='_ZN15vtkCommunicator9AllReduceEP12vtkDataArrayS1_PNS_9OperationE' type='func-type' binding='global-binding' visibility='default-visibility' is-defined='yes'/>
    <!-- vtkCommunicator::AllReduce(vtkDataArray*, vtkDataArray*, int) -->
    <elf-symbol name='_ZN15vtkCommunicator9AllReduceEP12vtkDataArrayS1_i' type='func-type' binding='global-binding' visibility='default-visibility' is-defined='yes'/>
    <!-- vtkCommunicator::Broadcast(vtkDataArray*, int) -->
    <elf-symbol name='_ZN15vtkCommunicator9BroadcastEP12vtkDataArrayi' type='func-type' binding='global-binding' visibility='default-visibility' is-defined='yes'/>
    <!-- vtkCommunicator::Broadcast(vtkDataObject*, int) -->
    <elf-symbol name='_ZN15vtkCommunicator9BroadcastEP13vtkDataObjecti' type='func-type' binding='global-binding' visibility='default-visibility' is-defined='yes'/>
    <!-- vtkCommunicator::Broadcast(vtkMultiProcessStream&, int) -->
    <elf-symbol name='_ZN15vtkCommunicator9BroadcastER21vtkMultiProcessStreami' type='func-type' binding='global-binding' visibility='default-visibility' is-defined='yes'/>
    <!-- vtkCommunicator::PrintSelf(std::ostream&, vtkIndent) -->
    <elf-symbol name='_ZN15vtkCommunicator9PrintSelfERSo9vtkIndent' type='func-type' binding='global-binding' visibility='default-visibility' is-defined='yes'/>
    <!-- vtkCommunicator::vtkCommunicator() -->
    <elf-symbol name='_ZN15vtkCommunicatorC1Ev' type='func-type' binding='global-binding' visibility='default-visibility' is-defined='yes'/>
    <!-- vtkCommunicator::vtkCommunicator() -->
    <elf-symbol name='_ZN15vtkCommunicatorC2Ev' type='func-type' binding='global-binding' visibility='default-visibility' alias='_ZN15vtkCommunicatorC1Ev' is-defined='yes'/>
    <!-- vtkCommunicator::~vtkCommunicator() -->
    <elf-symbol name='_ZN15vtkCommunicatorD0Ev' type='func-type' binding='global-binding' visibility='default-visibility' is-defined='yes'/>
    <!-- vtkCommunicator::~vtkCommunicator() -->
    <elf-symbol name='_ZN15vtkCommunicatorD1Ev' type='func-type' binding='global-binding' visibility='default-visibility' alias='_ZN15vtkCommunicatorD2Ev' is-defined='yes'/>
    <!-- vtkCommunicator::~vtkCommunicator() -->
    <elf-symbol name='_ZN15vtkCommunicatorD2Ev' type='func-type' binding='global-binding' visibility='default-visibility' is-defined='yes'/>
    <!-- vtkProcessGroup::Initialize(vtkCommunicator*) -->
    <elf-symbol name='_ZN15vtkProcessGroup10InitializeEP15vtkCommunicator' type='func-type' binding='global-binding' visibility='default-visibility' is-defined='yes'/>
    <!-- vtkProcessGroup::Initialize(vtkMultiProcessController*) -->
    <elf-symbol name='_ZN15vtkProcessGroup10InitializeEP25vtkMultiProcessController' type='func-type' binding='global-binding' visibility='default-visibility' is-defined='yes'/>
    <!-- vtkProcessGroup::AddProcessId(int) -->
    <elf-symbol name='_ZN15vtkProcessGroup12AddProcessIdEi' type='func-type' binding='global-binding' visibility='default-visibility' is-defined='yes'/>
    <!-- vtkProcessGroup::FindProcessId(int) -->
    <elf-symbol name='_ZN15vtkProcessGroup13FindProcessIdEi' type='func-type' binding='global-binding' visibility='default-visibility' is-defined='yes'/>
    <!-- vtkProcessGroup::RemoveProcessId(int) -->
    <elf-symbol name='_ZN15vtkProcessGroup15RemoveProcessIdEi' type='func-type' binding='global-binding' visibility='default-visibility' is-defined='yes'/>
    <!-- vtkProcessGroup::SetCommunicator(vtkCommunicator*) -->
    <elf-symbol name='_ZN15vtkProcessGroup15SetCommunicatorEP15vtkCommunicator' type='func-type' binding='global-binding' visibility='default-visibility' is-defined='yes'/>
    <!-- vtkProcessGroup::GetLocalProcessId() -->
    <elf-symbol name='_ZN15vtkProcessGroup17GetLocalProcessIdEv' type='func-type' binding='global-binding' visibility='default-visibility' is-defined='yes'/>
    <!-- vtkProcessGroup::RemoveAllProcessIds() -->
    <elf-symbol name='_ZN15vtkProcessGroup19RemoveAllProcessIdsEv' type='func-type' binding='global-binding' visibility='default-visibility' is-defined='yes'/>
    <!-- vtkProcessGroup::New() -->
    <elf-symbol name='_ZN15vtkProcessGroup3NewEv' type='func-type' binding='global-binding' visibility='default-visibility' is-defined='yes'/>
    <!-- vtkProcessGroup::Copy(vtkProcessGroup*) -->
    <elf-symbol name='_ZN15vtkProcessGroup4CopyEPS_' type='func-type' binding='global-binding' visibility='default-visibility' is-defined='yes'/>
    <!-- vtkProcessGroup::PrintSelf(std::ostream&, vtkIndent) -->
    <elf-symbol name='_ZN15vtkProcessGroup9PrintSelfERSo9vtkIndent' type='func-type' binding='global-binding' visibility='default-visibility' is-defined='yes'/>
    <!-- vtkProcessGroup::vtkProcessGroup() -->
    <elf-symbol name='_ZN15vtkProcessGroupC1Ev' type='func-type' binding='global-binding' visibility='default-visibility' alias='_ZN15vtkProcessGroupC2Ev' is-defined='yes'/>
    <!-- vtkProcessGroup::vtkProcessGroup() -->
    <elf-symbol name='_ZN15vtkProcessGroupC2Ev' type='func-type' binding='global-binding' visibility='default-visibility' is-defined='yes'/>
    <!-- vtkProcessGroup::~vtkProcessGroup() -->
    <elf-symbol name='_ZN15vtkProcessGroupD0Ev' type='func-type' binding='global-binding' visibility='default-visibility' is-defined='yes'/>
    <!-- vtkProcessGroup::~vtkProcessGroup() -->
    <elf-symbol name='_ZN15vtkProcessGroupD1Ev' type='func-type' binding='global-binding' visibility='default-visibility' alias='_ZN15vtkProcessGroupD2Ev' is-defined='yes'/>
    <!-- vtkProcessGroup::~vtkProcessGroup() -->
    <elf-symbol name='_ZN15vtkProcessGroupD2Ev' type='func-type' binding='global-binding' visibility='default-visibility' is-defined='yes'/>
    <!-- vtkDummyController::SetCommunicator(vtkCommunicator*) -->
    <elf-symbol name='_ZN18vtkDummyController15SetCommunicatorEP15vtkCommunicator' type='func-type' binding='global-binding' visibility='default-visibility' is-defined='yes'/>
    <!-- vtkDummyController::SetRMICommunicator(vtkCommunicator*) -->
    <elf-symbol name='_ZN18vtkDummyController18SetRMICommunicatorEP15vtkCommunicator' type='func-type' binding='global-binding' visibility='default-visibility' is-defined='yes'/>
    <!-- vtkDummyController::SingleMethodExecute() -->
    <elf-symbol name='_ZN18vtkDummyController19SingleMethodExecuteEv' type='func-type' binding='global-binding' visibility='default-visibility' is-defined='yes'/>
    <!-- vtkDummyController::MultipleMethodExecute() -->
    <elf-symbol name='_ZN18vtkDummyController21MultipleMethodExecuteEv' type='func-type' binding='global-binding' visibility='default-visibility' is-defined='yes'/>
    <!-- vtkDummyController::New() -->
    <elf-symbol name='_ZN18vtkDummyController3NewEv' type='func-type' binding='global-binding' visibility='default-visibility' is-defined='yes'/>
    <!-- vtkDummyController::PrintSelf(std::ostream&, vtkIndent) -->
    <elf-symbol name='_ZN18vtkDummyController9PrintSelfERSo9vtkIndent' type='func-type' binding='global-binding' visibility='default-visibility' is-defined='yes'/>
    <!-- vtkDummyController::vtkDummyController() -->
    <elf-symbol name='_ZN18vtkDummyControllerC1Ev' type='func-type' binding='global-binding' visibility='default-visibility' is-defined='yes'/>
    <!-- vtkDummyController::vtkDummyController() -->
    <elf-symbol name='_ZN18vtkDummyControllerC2Ev' type='func-type' binding='global-binding' visibility='default-visibility' alias='_ZN18vtkDummyControllerC1Ev' is-defined='yes'/>
    <!-- vtkDummyController::~vtkDummyController() -->
    <elf-symbol name='_ZN18vtkDummyControllerD0Ev' type='func-type' binding='global-binding' visibility='default-visibility' is-defined='yes'/>
    <!-- vtkDummyController::~vtkDummyController() -->
    <elf-symbol name='_ZN18vtkDummyControllerD1Ev' type='func-type' binding='global-binding' visibility='default-visibility' alias='_ZN18vtkDummyControllerD2Ev' is-defined='yes'/>
    <!-- vtkDummyController::~vtkDummyController() -->
    <elf-symbol name='_ZN18vtkDummyControllerD2Ev' type='func-type' binding='global-binding' visibility='default-visibility' is-defined='yes'/>
    <!-- vtkSubCommunicator::SendVoidArray(void const*, long long, int, int, int) -->
    <elf-symbol name='_ZN18vtkSubCommunicator13SendVoidArrayEPKvxiii' type='func-type' binding='global-binding' visibility='default-visibility' is-defined='yes'/>
    <!-- vtkSubCommunicator::ReceiveVoidArray(void*, long long, int, int, int) -->
    <elf-symbol name='_ZN18vtkSubCommunicator16ReceiveVoidArrayEPvxiii' type='func-type' binding='global-binding' visibility='default-visibility' is-defined='yes'/>
    <!-- vtkSubCommunicator::New() -->
    <elf-symbol name='_ZN18vtkSubCommunicator3NewEv' type='func-type' binding='global-binding' visibility='default-visibility' is-defined='yes'/>
    <!-- vtkSubCommunicator::SetGroup(vtkProcessGroup*) -->
    <elf-symbol name='_ZN18vtkSubCommunicator8SetGroupEP15vtkProcessGroup' type='func-type' binding='global-binding' visibility='default-visibility' is-defined='yes'/>
    <!-- vtkSubCommunicator::PrintSelf(std::ostream&, vtkIndent) -->
    <elf-symbol name='_ZN18vtkSubCommunicator9PrintSelfERSo9vtkIndent' type='func-type' binding='global-binding' visibility='default-visibility' is-defined='yes'/>
    <!-- vtkSubCommunicator::vtkSubCommunicator() -->
    <elf-symbol name='_ZN18vtkSubCommunicatorC1Ev' type='func-type' binding='global-binding' visibility='default-visibility' alias='_ZN18vtkSubCommunicatorC2Ev' is-defined='yes'/>
    <!-- vtkSubCommunicator::vtkSubCommunicator() -->
    <elf-symbol name='_ZN18vtkSubCommunicatorC2Ev' type='func-type' binding='global-binding' visibility='default-visibility' is-defined='yes'/>
    <!-- vtkSubCommunicator::~vtkSubCommunicator() -->
    <elf-symbol name='_ZN18vtkSubCommunicatorD0Ev' type='func-type' binding='global-binding' visibility='default-visibility' is-defined='yes'/>
    <!-- vtkSubCommunicator::~vtkSubCommunicator() -->
    <elf-symbol name='_ZN18vtkSubCommunicatorD1Ev' type='func-type' binding='global-binding' visibility='default-visibility' alias='_ZN18vtkSubCommunicatorD2Ev' is-defined='yes'/>
    <!-- vtkSubCommunicator::~vtkSubCommunicator() -->
    <elf-symbol name='_ZN18vtkSubCommunicatorD2Ev' type='func-type' binding='global-binding' visibility='default-visibility' is-defined='yes'/>
    <!-- vtkSocketController::Initialize(int*, char***) -->
    <elf-symbol name='_ZN19vtkSocketController10InitializeEPiPPPc' type='func-type' binding='global-binding' visibility='default-visibility' is-defined='yes'/>
    <!-- vtkSocketController::CloseConnection() -->
    <elf-symbol name='_ZN19vtkSocketController15CloseConnectionEv' type='func-type' binding='global-binding' visibility='default-visibility' is-defined='yes'/>
    <!-- vtkSocketController::SetCommunicator(vtkSocketCommunicator*) -->
    <elf-symbol name='_ZN19vtkSocketController15SetCommunicatorEP21vtkSocketCommunicator' type='func-type' binding='global-binding' visibility='default-visibility' is-defined='yes'/>
    <!-- vtkSocketController::WaitForConnection(int) -->
    <elf-symbol name='_ZN19vtkSocketController17WaitForConnectionEi' type='func-type' binding='global-binding' visibility='default-visibility' is-defined='yes'/>
    <!-- vtkSocketController::CreateCompliantController() -->
    <elf-symbol name='_ZN19vtkSocketController25CreateCompliantControllerEv' type='func-type' binding='global-binding' visibility='default-visibility' is-defined='yes'/>
    <!-- vtkSocketController::GetSwapBytesInReceivedData() -->
    <elf-symbol name='_ZN19vtkSocketController26GetSwapBytesInReceivedDataEv' type='func-type' binding='global-binding' visibility='default-visibility' is-defined='yes'/>
    <!-- vtkSocketController::New() -->
    <elf-symbol name='_ZN19vtkSocketController3NewEv' type='func-type' binding='global-binding' visibility='default-visibility' is-defined='yes'/>
    <!-- vtkSocketController::ConnectTo(char const*, int) -->
    <elf-symbol name='_ZN19vtkSocketController9ConnectToEPKci' type='func-type' binding='global-binding' visibility='default-visibility' is-defined='yes'/>
    <!-- vtkSocketController::PrintSelf(std::ostream&, vtkIndent) -->
    <elf-symbol name='_ZN19vtkSocketController9PrintSelfERSo9vtkIndent' type='func-type' binding='global-binding' visibility='default-visibility' is-defined='yes'/>
    <!-- vtkSocketController::vtkSocketController() -->
    <elf-symbol name='_ZN19vtkSocketControllerC1Ev' type='func-type' binding='global-binding' visibility='default-visibility' is-defined='yes'/>
    <!-- vtkSocketController::vtkSocketController() -->
    <elf-symbol name='_ZN19vtkSocketControllerC2Ev' type='func-type' binding='global-binding' visibility='default-visibility' alias='_ZN19vtkSocketControllerC1Ev' is-defined='yes'/>
    <!-- vtkSocketController::~vtkSocketController() -->
    <elf-symbol name='_ZN19vtkSocketControllerD0Ev' type='func-type' binding='global-binding' visibility='default-visibility' is-defined='yes'/>
    <!-- vtkSocketController::~vtkSocketController() -->
    <elf-symbol name='_ZN19vtkSocketControllerD1Ev' type='func-type' binding='global-binding' visibility='default-visibility' alias='_ZN19vtkSocketControllerD2Ev' is-defined='yes'/>
    <!-- vtkSocketController::~vtkSocketController() -->
    <elf-symbol name='_ZN19vtkSocketControllerD2Ev' type='func-type' binding='global-binding' visibility='default-visibility' is-defined='yes'/>
    <!-- vtkDummyCommunicator::New() -->
    <elf-symbol name='_ZN20vtkDummyCommunicator3NewEv' type='func-type' binding='global-binding' visibility='default-visibility' is-defined='yes'/>
    <!-- vtkDummyCommunicator::PrintSelf(std::ostream&, vtkIndent) -->
    <elf-symbol name='_ZN20vtkDummyCommunicator9PrintSelfERSo9vtkIndent' type='func-type' binding='global-binding' visibility='default-visibility' is-defined='yes'/>
    <!-- vtkDummyCommunicator::vtkDummyCommunicator() -->
    <elf-symbol name='_ZN20vtkDummyCommunicatorC1Ev' type='func-type' binding='global-binding' visibility='default-visibility' alias='_ZN20vtkDummyCommunicatorC2Ev' is-defined='yes'/>
    <!-- vtkDummyCommunicator::vtkDummyCommunicator() -->
    <elf-symbol name='_ZN20vtkDummyCommunicatorC2Ev' type='func-type' binding='global-binding' visibility='default-visibility' is-defined='yes'/>
    <!-- vtkDummyCommunicator::~vtkDummyCommunicator() -->
    <elf-symbol name='_ZN20vtkDummyCommunicatorD0Ev' type='func-type' binding='global-binding' visibility='default-visibility' is-defined='yes'/>
    <!-- vtkDummyCommunicator::~vtkDummyCommunicator() -->
    <elf-symbol name='_ZN20vtkDummyCommunicatorD1Ev' type='func-type' binding='global-binding' visibility='default-visibility' alias='_ZN20vtkDummyCommunicatorD2Ev' is-defined='yes'/>
    <!-- vtkDummyCommunicator::~vtkDummyCommunicator() -->
    <elf-symbol name='_ZN20vtkDummyCommunicatorD2Ev' type='func-type' binding='global-binding' visibility='default-visibility' is-defined='yes'/>
    <!-- vtkMultiProcessStream::GetRawData(unsigned char*&, unsigned int&) -->
    <elf-symbol name='_ZN21vtkMultiProcessStream10GetRawDataERPhRj' type='func-type' binding='global-binding' visibility='default-visibility' is-defined='yes'/>
    <!-- vtkMultiProcessStream::SetRawData(unsigned char const*, unsigned int) -->
    <elf-symbol name='_ZN21vtkMultiProcessStream10SetRawDataEPKhj' type='func-type' binding='global-binding' visibility='default-visibility' is-defined='yes'/>
    <!-- vtkMultiProcessStream::SetRawData(std::vector<unsigned char, std::allocator<unsigned char> > const&) -->
    <elf-symbol name='_ZN21vtkMultiProcessStream10SetRawDataERKSt6vectorIhSaIhEE' type='func-type' binding='global-binding' visibility='default-visibility' is-defined='yes'/>
    <!-- vtkMultiProcessStream::Pop(char*&, unsigned int&) -->
    <elf-symbol name='_ZN21vtkMultiProcessStream3PopERPcRj' type='func-type' binding='global-binding' visibility='default-visibility' is-defined='yes'/>
    <!-- vtkMultiProcessStream::Pop(double*&, unsigned int&) -->
    <elf-symbol name='_ZN21vtkMultiProcessStream3PopERPdRj' type='func-type' binding='global-binding' visibility='default-visibility' is-defined='yes'/>
    <!-- vtkMultiProcessStream::Pop(float*&, unsigned int&) -->
    <elf-symbol name='_ZN21vtkMultiProcessStream3PopERPfRj' type='func-type' binding='global-binding' visibility='default-visibility' is-defined='yes'/>
    <!-- vtkMultiProcessStream::Pop(unsigned char*&, unsigned int&) -->
    <elf-symbol name='_ZN21vtkMultiProcessStream3PopERPhRj' type='func-type' binding='global-binding' visibility='default-visibility' is-defined='yes'/>
    <!-- vtkMultiProcessStream::Pop(int*&, unsigned int&) -->
    <elf-symbol name='_ZN21vtkMultiProcessStream3PopERPiRj' type='func-type' binding='global-binding' visibility='default-visibility' is-defined='yes'/>
    <!-- vtkMultiProcessStream::Pop(unsigned int*&, unsigned int&) -->
    <elf-symbol name='_ZN21vtkMultiProcessStream3PopERPjRj' type='func-type' binding='global-binding' visibility='default-visibility' is-defined='yes'/>
    <!-- vtkMultiProcessStream::Pop(long long*&, unsigned int&) -->
    <elf-symbol name='_ZN21vtkMultiProcessStream3PopERPxRj' type='func-type' binding='global-binding' visibility='default-visibility' is-defined='yes'/>
    <!-- vtkMultiProcessStream::Pop(unsigned long long*&, unsigned int&) -->
    <elf-symbol name='_ZN21vtkMultiProcessStream3PopERPyRj' type='func-type' binding='global-binding' visibility='default-visibility' is-defined='yes'/>
    <!-- vtkMultiProcessStream::Push(char*, unsigned int) -->
    <elf-symbol name='_ZN21vtkMultiProcessStream4PushEPcj' type='func-type' binding='global-binding' visibility='default-visibility' is-defined='yes'/>
    <!-- vtkMultiProcessStream::Push(double*, unsigned int) -->
    <elf-symbol name='_ZN21vtkMultiProcessStream4PushEPdj' type='func-type' binding='global-binding' visibility='default-visibility' is-defined='yes'/>
    <!-- vtkMultiProcessStream::Push(float*, unsigned int) -->
    <elf-symbol name='_ZN21vtkMultiProcessStream4PushEPfj' type='func-type' binding='global-binding' visibility='default-visibility' is-defined='yes'/>
    <!-- vtkMultiProcessStream::Push(unsigned char*, unsigned int) -->
    <elf-symbol name='_ZN21vtkMultiProcessStream4PushEPhj' type='func-type' binding='global-binding' visibility='default-visibility' is-defined='yes'/>
    <!-- vtkMultiProcessStream::Push(int*, unsigned int) -->
    <elf-symbol name='_ZN21vtkMultiProcessStream4PushEPij' type='func-type' binding='global-binding' visibility='default-visibility' is-defined='yes'/>
    <!-- vtkMultiProcessStream::Push(unsigned int*, unsigned int) -->
    <elf-symbol name='_ZN21vtkMultiProcessStream4PushEPjj' type='func-type' binding='global-binding' visibility='default-visibility' is-defined='yes'/>
    <!-- vtkMultiProcessStream::Push(long long*, unsigned int) -->
    <elf-symbol name='_ZN21vtkMultiProcessStream4PushEPxj' type='func-type' binding='global-binding' visibility='default-visibility' is-defined='yes'/>
    <!-- vtkMultiProcessStream::Push(unsigned long long*, unsigned int) -->
    <elf-symbol name='_ZN21vtkMultiProcessStream4PushEPyj' type='func-type' binding='global-binding' visibility='default-visibility' is-defined='yes'/>
    <!-- vtkMultiProcessStream::Size() -->
    <elf-symbol name='_ZN21vtkMultiProcessStream4SizeEv' type='func-type' binding='global-binding' visibility='default-visibility' is-defined='yes'/>
    <!-- vtkMultiProcessStream::Empty() -->
    <elf-symbol name='_ZN21vtkMultiProcessStream5EmptyEv' type='func-type' binding='global-binding' visibility='default-visibility' is-defined='yes'/>
    <!-- vtkMultiProcessStream::Reset() -->
    <elf-symbol name='_ZN21vtkMultiProcessStream5ResetEv' type='func-type' binding='global-binding' visibility='default-visibility' is-defined='yes'/>
    <!-- vtkMultiProcessStream::vtkMultiProcessStream(vtkMultiProcessStream const&) -->
    <elf-symbol name='_ZN21vtkMultiProcessStreamC1ERKS_' type='func-type' binding='global-binding' visibility='default-visibility' is-defined='yes'/>
    <!-- vtkMultiProcessStream::vtkMultiProcessStream() -->
    <elf-symbol name='_ZN21vtkMultiProcessStreamC1Ev' type='func-type' binding='global-binding' visibility='default-visibility' alias='_ZN21vtkMultiProcessStreamC2Ev' is-defined='yes'/>
    <!-- vtkMultiProcessStream::vtkMultiProcessStream(vtkMultiProcessStream const&) -->
    <elf-symbol name='_ZN21vtkMultiProcessStreamC2ERKS_' type='func-type' binding='global-binding' visibility='default-visibility' alias='_ZN21vtkMultiProcessStreamC1ERKS_' is-defined='yes'/>
    <!-- vtkMultiProcessStream::vtkMultiProcessStream() -->
    <elf-symbol name='_ZN21vtkMultiProcessStreamC2Ev' type='func-type' binding='global-binding' visibility='default-visibility' is-defined='yes'/>
    <!-- vtkMultiProcessStream::~vtkMultiProcessStream() -->
    <elf-symbol name='_ZN21vtkMultiProcessStreamD1Ev' type='func-type' binding='global-binding' visibility='default-visibility' alias='_ZN21vtkMultiProcessStreamD2Ev' is-defined='yes'/>
    <!-- vtkMultiProcessStream::~vtkMultiProcessStream() -->
    <elf-symbol name='_ZN21vtkMultiProcessStreamD2Ev' type='func-type' binding='global-binding' visibility='default-visibility' is-defined='yes'/>
    <!-- vtkMultiProcessStream::operator=(vtkMultiProcessStream const&) -->
    <elf-symbol name='_ZN21vtkMultiProcessStreamaSERKS_' type='func-type' binding='global-binding' visibility='default-visibility' is-defined='yes'/>
    <!-- vtkMultiProcessStream::operator<<(vtkMultiProcessStream const&) -->
    <elf-symbol name='_ZN21vtkMultiProcessStreamlsERKS_' type='func-type' binding='global-binding' visibility='default-visibility' is-defined='yes'/>
    <!-- vtkMultiProcessStream::operator<<(std::string const&) -->
    <elf-symbol name='_ZN21vtkMultiProcessStreamlsERKSs' type='func-type' binding='global-binding' visibility='default-visibility' is-defined='yes'/>
    <!-- vtkMultiProcessStream::operator<<(char) -->
    <elf-symbol name='_ZN21vtkMultiProcessStreamlsEc' type='func-type' binding='global-binding' visibility='default-visibility' is-defined='yes'/>
    <!-- vtkMultiProcessStream::operator<<(double) -->
    <elf-symbol name='_ZN21vtkMultiProcessStreamlsEd' type='func-type' binding='global-binding' visibility='default-visibility' is-defined='yes'/>
    <!-- vtkMultiProcessStream::operator<<(float) -->
    <elf-symbol name='_ZN21vtkMultiProcessStreamlsEf' type='func-type' binding='global-binding' visibility='default-visibility' is-defined='yes'/>
    <!-- vtkMultiProcessStream::operator<<(unsigned char) -->
    <elf-symbol name='_ZN21vtkMultiProcessStreamlsEh' type='func-type' binding='global-binding' visibility='default-visibility' is-defined='yes'/>
    <!-- vtkMultiProcessStream::operator<<(int) -->
    <elf-symbol name='_ZN21vtkMultiProcessStreamlsEi' type='func-type' binding='global-binding' visibility='default-visibility' is-defined='yes'/>
    <!-- vtkMultiProcessStream::operator<<(unsigned int) -->
    <elf-symbol name='_ZN21vtkMultiProcessStreamlsEj' type='func-type' binding='global-binding' visibility='default-visibility' is-defined='yes'/>
    <!-- vtkMultiProcessStream::operator<<(long long) -->
    <elf-symbol name='_ZN21vtkMultiProcessStreamlsEx' type='func-type' binding='global-binding' visibility='default-visibility' is-defined='yes'/>
    <!-- vtkMultiProcessStream::operator<<(unsigned long long) -->
    <elf-symbol name='_ZN21vtkMultiProcessStreamlsEy' type='func-type' binding='global-binding' visibility='default-visibility' is-defined='yes'/>
    <!-- vtkMultiProcessStream::operator>>(vtkMultiProcessStream&) -->
    <elf-symbol name='_ZN21vtkMultiProcessStreamrsERS_' type='func-type' binding='global-binding' visibility='default-visibility' is-defined='yes'/>
    <!-- vtkMultiProcessStream::operator>>(std::string&) -->
    <elf-symbol name='_ZN21vtkMultiProcessStreamrsERSs' type='func-type' binding='global-binding' visibility='default-visibility' is-defined='yes'/>
    <!-- vtkMultiProcessStream::operator>>(char&) -->
    <elf-symbol name='_ZN21vtkMultiProcessStreamrsERc' type='func-type' binding='global-binding' visibility='default-visibility' is-defined='yes'/>
    <!-- vtkMultiProcessStream::operator>>(double&) -->
    <elf-symbol name='_ZN21vtkMultiProcessStreamrsERd' type='func-type' binding='global-binding' visibility='default-visibility' is-defined='yes'/>
    <!-- vtkMultiProcessStream::operator>>(float&) -->
    <elf-symbol name='_ZN21vtkMultiProcessStreamrsERf' type='func-type' binding='global-binding' visibility='default-visibility' is-defined='yes'/>
    <!-- vtkMultiProcessStream::operator>>(unsigned char&) -->
    <elf-symbol name='_ZN21vtkMultiProcessStreamrsERh' type='func-type' binding='global-binding' visibility='default-visibility' is-defined='yes'/>
    <!-- vtkMultiProcessStream::operator>>(int&) -->
    <elf-symbol name='_ZN21vtkMultiProcessStreamrsERi' type='func-type' binding='global-binding' visibility='default-visibility' is-defined='yes'/>
    <!-- vtkMultiProcessStream::operator>>(unsigned int&) -->
    <elf-symbol name='_ZN21vtkMultiProcessStreamrsERj' type='func-type' binding='global-binding' visibility='default-visibility' is-defined='yes'/>
    <!-- vtkMultiProcessStream::operator>>(long long&) -->
    <elf-symbol name='_ZN21vtkMultiProcessStreamrsERx' type='func-type' binding='global-binding' visibility='default-visibility' is-defined='yes'/>
    <!-- vtkMultiProcessStream::operator>>(unsigned long long&) -->
    <elf-symbol name='_ZN21vtkMultiProcessStreamrsERy' type='func-type' binding='global-binding' visibility='default-visibility' is-defined='yes'/>
    <!-- vtkSocketCommunicator::GetVersion() -->
    <elf-symbol name='_ZN21vtkSocketCommunicator10GetVersionEv' type='func-type' binding='global-binding' visibility='default-visibility' is-defined='yes'/>
    <!-- vtkSocketCommunicator::SendTagged(void const*, int, int, int, char const*) -->
    <elf-symbol name='_ZN21vtkSocketCommunicator10SendTaggedEPKviiiPKc' type='func-type' binding='global-binding' visibility='default-visibility' is-defined='yes'/>
    <!-- vtkSocketCommunicator::FixByteOrder(void*, int, int) -->
    <elf-symbol name='_ZN21vtkSocketCommunicator12FixByteOrderEPvii' type='func-type' binding='global-binding' visibility='default-visibility' is-defined='yes'/>
    <!-- vtkSocketCommunicator::GetLogStream() -->
    <elf-symbol name='_ZN21vtkSocketCommunicator12GetLogStreamEv' type='func-type' binding='global-binding' visibility='default-visibility' is-defined='yes'/>
    <!-- vtkSocketCommunicator::SetLogStream(std::ostream*) -->
    <elf-symbol name='_ZN21vtkSocketCommunicator12SetLogStreamEPSo' type='func-type' binding='global-binding' visibility='default-visibility' is-defined='yes'/>
    <!-- vtkSocketCommunicator::ReceiveTagged(void*, int, int, int, char const*) -->
    <elf-symbol name='_ZN21vtkSocketCommunicator13ReceiveTaggedEPviiiPKc' type='func-type' binding='global-binding' visibility='default-visibility' is-defined='yes'/>
    <!-- vtkSocketCommunicator::SendVoidArray(void const*, long long, int, int, int) -->
    <elf-symbol name='_ZN21vtkSocketCommunicator13SendVoidArrayEPKvxiii' type='func-type' binding='global-binding' visibility='default-visibility' is-defined='yes'/>
    <!-- vtkSocketCommunicator::GetIsConnected() -->
    <elf-symbol name='_ZN21vtkSocketCommunicator14GetIsConnectedEv' type='func-type' binding='global-binding' visibility='default-visibility' is-defined='yes'/>
    <!-- vtkSocketCommunicator::CloseConnection() -->
    <elf-symbol name='_ZN21vtkSocketCommunicator15CloseConnectionEv' type='func-type' binding='global-binding' visibility='default-visibility' is-defined='yes'/>
    <!-- vtkSocketCommunicator::GatherVoidArray(void const*, void*, long long, int, int) -->
    <elf-symbol name='_ZN21vtkSocketCommunicator15GatherVoidArrayEPKvPvxii' type='func-type' binding='global-binding' visibility='default-visibility' is-defined='yes'/>
    <!-- vtkSocketCommunicator::ReduceVoidArray(void const*, void*, long long, int, vtkCommunicator::Operation*, int) -->
    <elf-symbol name='_ZN21vtkSocketCommunicator15ReduceVoidArrayEPKvPvxiPN15vtkCommunicator9OperationEi' type='func-type' binding='global-binding' visibility='default-visibility' is-defined='yes'/>
    <!-- vtkSocketCommunicator::ReduceVoidArray(void const*, void*, long long, int, int, int) -->
    <elf-symbol name='_ZN21vtkSocketCommunicator15ReduceVoidArrayEPKvPvxiii' type='func-type' binding='global-binding' visibility='default-visibility' is-defined='yes'/>
    <!-- vtkSocketCommunicator::GatherVVoidArray(void const*, void*, long long, long long*, long long*, int, int) -->
    <elf-symbol name='_ZN21vtkSocketCommunicator16GatherVVoidArrayEPKvPvxPxS3_ii' type='func-type' binding='global-binding' visibility='default-visibility' is-defined='yes'/>
    <!-- vtkSocketCommunicator::ReceiveVoidArray(void*, long long, int, int, int) -->
    <elf-symbol name='_ZN21vtkSocketCommunicator16ReceiveVoidArrayEPvxiii' type='func-type' binding='global-binding' visibility='default-visibility' is-defined='yes'/>
    <!-- vtkSocketCommunicator::ScatterVoidArray(void const*, void*, long long, int, int) -->
    <elf-symbol name='_ZN21vtkSocketCommunicator16ScatterVoidArrayEPKvPvxii' type='func-type' binding='global-binding' visibility='default-visibility' is-defined='yes'/>
    <!-- vtkSocketCommunicator::ScatterVVoidArray(void const*, void*, long long*, long long*, long long, int, int) -->
    <elf-symbol name='_ZN21vtkSocketCommunicator17ScatterVVoidArrayEPKvPvPxS3_xii' type='func-type' binding='global-binding' visibility='default-visibility' is-defined='yes'/>
    <!-- vtkSocketCommunicator::WaitForConnection(vtkServerSocket*, unsigned long) -->
    <elf-symbol name='_ZN21vtkSocketCommunicator17WaitForConnectionEP15vtkServerSocketm' type='func-type' binding='global-binding' visibility='default-visibility' is-defined='yes'/>
    <!-- vtkSocketCommunicator::WaitForConnection(int) -->
    <elf-symbol name='_ZN21vtkSocketCommunicator17WaitForConnectionEi' type='func-type' binding='global-binding' visibility='default-visibility' is-defined='yes'/>
    <!-- vtkSocketCommunicator::AllGatherVoidArray(void const*, void*, long long, int) -->
    <elf-symbol name='_ZN21vtkSocketCommunicator18AllGatherVoidArrayEPKvPvxi' type='func-type' binding='global-binding' visibility='default-visibility' is-defined='yes'/>
    <!-- vtkSocketCommunicator::AllReduceVoidArray(void const*, void*, long long, int, vtkCommunicator::Operation*) -->
    <elf-symbol name='_ZN21vtkSocketCommunicator18AllReduceVoidArrayEPKvPvxiPN15vtkCommunicator9OperationE' type='func-type' binding='global-binding' visibility='default-visibility' is-defined='yes'/>
    <!-- vtkSocketCommunicator::AllReduceVoidArray(void const*, void*, long long, int, int) -->
    <elf-symbol name='_ZN21vtkSocketCommunicator18AllReduceVoidArrayEPKvPvxii' type='func-type' binding='global-binding' visibility='default-visibility' is-defined='yes'/>
    <!-- vtkSocketCommunicator::BroadcastVoidArray(void*, long long, int, int) -->
    <elf-symbol name='_ZN21vtkSocketCommunicator18BroadcastVoidArrayEPvxii' type='func-type' binding='global-binding' visibility='default-visibility' is-defined='yes'/>
    <!-- vtkSocketCommunicator::AllGatherVVoidArray(void const*, void*, long long, long long*, long long*, int) -->
    <elf-symbol name='_ZN21vtkSocketCommunicator19AllGatherVVoidArrayEPKvPvxPxS3_i' type='func-type' binding='global-binding' visibility='default-visibility' is-defined='yes'/>
    <!-- vtkSocketCommunicator::ClientSideHandshake() -->
    <elf-symbol name='_ZN21vtkSocketCommunicator19ClientSideHandshakeEv' type='func-type' binding='global-binding' visibility='default-visibility' is-defined='yes'/>
    <!-- vtkSocketCommunicator::ServerSideHandshake() -->
    <elf-symbol name='_ZN21vtkSocketCommunicator19ServerSideHandshakeEv' type='func-type' binding='global-binding' visibility='default-visibility' is-defined='yes'/>
    <!-- vtkSocketCommunicator::HasBufferredMessages() -->
    <elf-symbol name='_ZN21vtkSocketCommunicator20HasBufferredMessagesEv' type='func-type' binding='global-binding' visibility='default-visibility' is-defined='yes'/>
    <!-- vtkSocketCommunicator::ReceivePartialTagged(void*, int, int, int, char const*) -->
    <elf-symbol name='_ZN21vtkSocketCommunicator20ReceivePartialTaggedEPviiiPKc' type='func-type' binding='global-binding' visibility='default-visibility' is-defined='yes'/>
    <!-- vtkSocketCommunicator::SetNumberOfProcesses(int) -->
    <elf-symbol name='_ZN21vtkSocketCommunicator20SetNumberOfProcessesEi' type='func-type' binding='global-binding' visibility='default-visibility' is-defined='yes'/>
    <!-- vtkSocketCommunicator::CheckForErrorInternal(int) -->
    <elf-symbol name='_ZN21vtkSocketCommunicator21CheckForErrorInternalEi' type='func-type' binding='global-binding' visibility='default-visibility' is-defined='yes'/>
    <!-- vtkSocketCommunicator::ReceivedTaggedFromBuffer(void*, int, int, int, char const*) -->
    <elf-symbol name='_ZN21vtkSocketCommunicator24ReceivedTaggedFromBufferEPviiiPKc' type='func-type' binding='global-binding' visibility='default-visibility' is-defined='yes'/>
    <!-- vtkSocketCommunicator::New() -->
    <elf-symbol name='_ZN21vtkSocketCommunicator3NewEv' type='func-type' binding='global-binding' visibility='default-visibility' is-defined='yes'/>
    <!-- vtkSocketCommunicator::Barrier() -->
    <elf-symbol name='_ZN21vtkSocketCommunicator7BarrierEv' type='func-type' binding='global-binding' visibility='default-visibility' is-defined='yes'/>
    <!-- vtkSocketCommunicator::ConnectTo(char const*, int) -->
    <elf-symbol name='_ZN21vtkSocketCommunicator9ConnectToEPKci' type='func-type' binding='global-binding' visibility='default-visibility' is-defined='yes'/>
    <!-- vtkSocketCommunicator::Handshake() -->
    <elf-symbol name='_ZN21vtkSocketCommunicator9HandshakeEv' type='func-type' binding='global-binding' visibility='default-visibility' is-defined='yes'/>
    <!-- vtkSocketCommunicator::LogTagged(char const*, void const*, int, int, int, char const*) -->
    <elf-symbol name='_ZN21vtkSocketCommunicator9LogTaggedEPKcPKviiiS1_' type='func-type' binding='global-binding' visibility='default-visibility' is-defined='yes'/>
    <!-- vtkSocketCommunicator::LogToFile(char const*) -->
    <elf-symbol name='_ZN21vtkSocketCommunicator9LogToFileEPKc' type='func-type' binding='global-binding' visibility='default-visibility' is-defined='yes'/>
    <!-- vtkSocketCommunicator::LogToFile(char const*, int) -->
    <elf-symbol name='_ZN21vtkSocketCommunicator9LogToFileEPKci' type='func-type' binding='global-binding' visibility='default-visibility' is-defined='yes'/>
    <!-- vtkSocketCommunicator::PrintSelf(std::ostream&, vtkIndent) -->
    <elf-symbol name='_ZN21vtkSocketCommunicator9PrintSelfERSo9vtkIndent' type='func-type' binding='global-binding' visibility='default-visibility' is-defined='yes'/>
    <!-- vtkSocketCommunicator::SetSocket(vtkClientSocket*) -->
    <elf-symbol name='_ZN21vtkSocketCommunicator9SetSocketEP15vtkClientSocket' type='func-type' binding='global-binding' visibility='default-visibility' is-defined='yes'/>
    <!-- vtkSocketCommunicator::vtkSocketCommunicator() -->
    <elf-symbol name='_ZN21vtkSocketCommunicatorC1Ev' type='func-type' binding='global-binding' visibility='default-visibility' alias='_ZN21vtkSocketCommunicatorC2Ev' is-defined='yes'/>
    <!-- vtkSocketCommunicator::vtkSocketCommunicator() -->
    <elf-symbol name='_ZN21vtkSocketCommunicatorC2Ev' type='func-type' binding='global-binding' visibility='default-visibility' is-defined='yes'/>
    <!-- vtkSocketCommunicator::~vtkSocketCommunicator() -->
    <elf-symbol name='_ZN21vtkSocketCommunicatorD0Ev' type='func-type' binding='global-binding' visibility='default-visibility' is-defined='yes'/>
    <!-- vtkSocketCommunicator::~vtkSocketCommunicator() -->
    <elf-symbol name='_ZN21vtkSocketCommunicatorD1Ev' type='func-type' binding='global-binding' visibility='default-visibility' alias='_ZN21vtkSocketCommunicatorD2Ev' is-defined='yes'/>
    <!-- vtkSocketCommunicator::~vtkSocketCommunicator() -->
    <elf-symbol name='_ZN21vtkSocketCommunicatorD2Ev' type='func-type' binding='global-binding' visibility='default-visibility' is-defined='yes'/>
    <!-- vtkFieldDataSerializer::Deserialize(vtkMultiProcessStream&, vtkFieldData*) -->
    <elf-symbol name='_ZN22vtkFieldDataSerializer11DeserializeER21vtkMultiProcessStreamP12vtkFieldData' type='func-type' binding='global-binding' visibility='default-visibility' is-defined='yes'/>
    <!-- vtkFieldDataSerializer::SerializeTuples(vtkIdList*, vtkFieldData*, vtkMultiProcessStream&) -->
    <elf-symbol name='_ZN22vtkFieldDataSerializer15SerializeTuplesEP9vtkIdListP12vtkFieldDataR21vtkMultiProcessStream' type='func-type' binding='global-binding' visibility='default-visibility' is-defined='yes'/>
    <!-- vtkFieldDataSerializer::SerializeMetaData(vtkFieldData*, vtkMultiProcessStream&) -->
    <elf-symbol name='_ZN22vtkFieldDataSerializer17SerializeMetaDataEP12vtkFieldDataR21vtkMultiProcessStream' type='func-type' binding='global-binding' visibility='default-visibility' is-defined='yes'/>
    <!-- vtkFieldDataSerializer::SerializeDataArray(vtkDataArray*, vtkMultiProcessStream&) -->
    <elf-symbol name='_ZN22vtkFieldDataSerializer18SerializeDataArrayEP12vtkDataArrayR21vtkMultiProcessStream' type='func-type' binding='global-binding' visibility='default-visibility' is-defined='yes'/>
    <!-- vtkFieldDataSerializer::SerializeSubExtent(int*, int*, vtkFieldData*, vtkMultiProcessStream&) -->
    <elf-symbol name='_ZN22vtkFieldDataSerializer18SerializeSubExtentEPiS0_P12vtkFieldDataR21vtkMultiProcessStream' type='func-type' binding='global-binding' visibility='default-visibility' is-defined='yes'/>
    <!-- vtkFieldDataSerializer::DeserializeMetaData(vtkMultiProcessStream&, vtkStringArray*, vtkIntArray*, vtkIntArray*) -->
    <elf-symbol name='_ZN22vtkFieldDataSerializer19DeserializeMetaDataER21vtkMultiProcessStreamP14vtkStringArrayP11vtkIntArrayS5_' type='func-type' binding='global-binding' visibility='default-visibility' is-defined='yes'/>
    <!-- vtkFieldDataSerializer::DeserializeDataArray(vtkMultiProcessStream&, vtkDataArray*&) -->
    <elf-symbol name='_ZN22vtkFieldDataSerializer20DeserializeDataArrayER21vtkMultiProcessStreamRP12vtkDataArray' type='func-type' binding='global-binding' visibility='default-visibility' is-defined='yes'/>
    <!-- vtkFieldDataSerializer::ExtractSubExtentData(int*, int*, vtkDataArray*) -->
    <elf-symbol name='_ZN22vtkFieldDataSerializer20ExtractSubExtentDataEPiS0_P12vtkDataArray' type='func-type' binding='global-binding' visibility='default-visibility' is-defined='yes'/>
    <!-- vtkFieldDataSerializer::ExtractSelectedTuples(vtkIdList*, vtkDataArray*) -->
    <elf-symbol name='_ZN22vtkFieldDataSerializer21ExtractSelectedTuplesEP9vtkIdListP12vtkDataArray' type='func-type' binding='global-binding' visibility='default-visibility' is-defined='yes'/>
    <!-- vtkFieldDataSerializer::New() -->
    <elf-symbol name='_ZN22vtkFieldDataSerializer3NewEv' type='func-type' binding='global-binding' visibility='default-visibility' is-defined='yes'/>
    <!-- vtkFieldDataSerializer::PrintSelf(std::ostream&, vtkIndent) -->
    <elf-symbol name='_ZN22vtkFieldDataSerializer9PrintSelfERSo9vtkIndent' type='func-type' binding='global-binding' visibility='default-visibility' is-defined='yes'/>
    <!-- vtkFieldDataSerializer::Serialize(vtkFieldData*, vtkMultiProcessStream&) -->
    <elf-symbol name='_ZN22vtkFieldDataSerializer9SerializeEP12vtkFieldDataR21vtkMultiProcessStream' type='func-type' binding='global-binding' visibility='default-visibility' is-defined='yes'/>
    <!-- vtkFieldDataSerializer::vtkFieldDataSerializer() -->
    <elf-symbol name='_ZN22vtkFieldDataSerializerC1Ev' type='func-type' binding='global-binding' visibility='default-visibility' alias='_ZN22vtkFieldDataSerializerC2Ev' is-defined='yes'/>
    <!-- vtkFieldDataSerializer::vtkFieldDataSerializer() -->
    <elf-symbol name='_ZN22vtkFieldDataSerializerC2Ev' type='func-type' binding='global-binding' visibility='default-visibility' is-defined='yes'/>
    <!-- vtkFieldDataSerializer::~vtkFieldDataSerializer() -->
    <elf-symbol name='_ZN22vtkFieldDataSerializerD0Ev' type='func-type' binding='global-binding' visibility='default-visibility' is-defined='yes'/>
    <!-- vtkFieldDataSerializer::~vtkFieldDataSerializer() -->
    <elf-symbol name='_ZN22vtkFieldDataSerializerD1Ev' type='func-type' binding='global-binding' visibility='default-visibility' alias='_ZN22vtkFieldDataSerializerD2Ev' is-defined='yes'/>
    <!-- vtkFieldDataSerializer::~vtkFieldDataSerializer() -->
    <elf-symbol name='_ZN22vtkFieldDataSerializerD2Ev' type='func-type' binding='global-binding' visibility='default-visibility' is-defined='yes'/>
    <!-- vtkMultiProcessController::ProcessRMI(int, void*, int, int) -->
    <elf-symbol name='_ZN25vtkMultiProcessController10ProcessRMIEiPvii' type='func-type' binding='global-binding' visibility='default-visibility' is-defined='yes'/>
    <!-- vtkMultiProcessController::TriggerRMI(int, void*, int, int) -->
    <elf-symbol name='_ZN25vtkMultiProcessController10TriggerRMIEiPvii' type='func-type' binding='global-binding' visibility='default-visibility' is-defined='yes'/>
    <!-- vtkMultiProcessController::ProcessRMIs(int, int) -->
    <elf-symbol name='_ZN25vtkMultiProcessController11ProcessRMIsEii' type='func-type' binding='global-binding' visibility='default-visibility' is-defined='yes'/>
    <!-- vtkMultiProcessController::ProcessRMIs() -->
    <elf-symbol name='_ZN25vtkMultiProcessController11ProcessRMIsEv' type='func-type' binding='global-binding' visibility='default-visibility' is-defined='yes'/>
    <!-- vtkMultiProcessController::AddRMICallback(void (*)(void*, void*, int, int), void*, int) -->
    <elf-symbol name='_ZN25vtkMultiProcessController14AddRMICallbackEPFvPvS0_iiES0_i' type='func-type' binding='global-binding' visibility='default-visibility' is-defined='yes'/>
    <!-- vtkMultiProcessController::RemoveFirstRMI(int) -->
    <elf-symbol name='_ZN25vtkMultiProcessController14RemoveFirstRMIEi' type='func-type' binding='global-binding' visibility='default-visibility' is-defined='yes'/>
    <!-- vtkMultiProcessController::SetSingleMethod(void (*)(vtkMultiProcessController*, void*), void*) -->
    <elf-symbol name='_ZN25vtkMultiProcessController15SetSingleMethodEPFvPS_PvES1_' type='func-type' binding='global-binding' visibility='default-visibility' is-defined='yes'/>
    <!-- vtkMultiProcessController::TriggerBreakRMIs() -->
    <elf-symbol name='_ZN25vtkMultiProcessController16TriggerBreakRMIsEv' type='func-type' binding='global-binding' visibility='default-visibility' is-defined='yes'/>
    <!-- vtkMultiProcessController::GetLocalProcessId() -->
    <elf-symbol name='_ZN25vtkMultiProcessController17GetLocalProcessIdEv' type='func-type' binding='global-binding' visibility='default-visibility' is-defined='yes'/>
    <!-- vtkMultiProcessController::GetMultipleMethod(int, void (*&)(vtkMultiProcessController*, void*), void*&) -->
    <elf-symbol name='_ZN25vtkMultiProcessController17GetMultipleMethodEiRPFvPS_PvERS1_' type='func-type' binding='global-binding' visibility='default-visibility' is-defined='yes'/>
    <!-- vtkMultiProcessController::RemoveRMICallback(unsigned long) -->
    <elf-symbol name='_ZN25vtkMultiProcessController17RemoveRMICallbackEm' type='func-type' binding='global-binding' visibility='default-visibility' is-defined='yes'/>
    <!-- vtkMultiProcessController::SetMultipleMethod(int, void (*)(vtkMultiProcessController*, void*), void*) -->
    <elf-symbol name='_ZN25vtkMultiProcessController17SetMultipleMethodEiPFvPS_PvES1_' type='func-type' binding='global-binding' visibility='default-visibility' is-defined='yes'/>
    <!-- vtkMultiProcessController::GetLocalController() -->
    <elf-symbol name='_ZN25vtkMultiProcessController18GetLocalControllerEv' type='func-type' binding='global-binding' visibility='default-visibility' is-defined='yes'/>
    <!-- vtkMultiProcessController::TriggerRMIInternal(int, void*, int, int, bool) -->
    <elf-symbol name='_ZN25vtkMultiProcessController18TriggerRMIInternalEiPviib' type='func-type' binding='global-binding' visibility='default-visibility' is-defined='yes'/>
    <!-- vtkMultiProcessController::CreateSubController(vtkProcessGroup*) -->
    <elf-symbol name='_ZN25vtkMultiProcessController19CreateSubControllerEP15vtkProcessGroup' type='func-type' binding='global-binding' visibility='default-visibility' is-defined='yes'/>
    <!-- vtkMultiProcessController::GetGlobalController() -->
    <elf-symbol name='_ZN25vtkMultiProcessController19GetGlobalControllerEv' type='func-type' binding='global-binding' visibility='default-visibility' is-defined='yes'/>
    <!-- vtkMultiProcessController::PartitionController(int, int) -->
    <elf-symbol name='_ZN25vtkMultiProcessController19PartitionControllerEii' type='func-type' binding='global-binding' visibility='default-visibility' is-defined='yes'/>
    <!-- vtkMultiProcessController::SetGlobalController(vtkMultiProcessController*) -->
    <elf-symbol name='_ZN25vtkMultiProcessController19SetGlobalControllerEPS_' type='func-type' binding='global-binding' visibility='default-visibility' is-defined='yes'/>
    <!-- vtkMultiProcessController::GetNumberOfProcesses() -->
    <elf-symbol name='_ZN25vtkMultiProcessController20GetNumberOfProcessesEv' type='func-type' binding='global-binding' visibility='default-visibility' is-defined='yes'/>
    <!-- vtkMultiProcessController::SetNumberOfProcesses(int) -->
    <elf-symbol name='_ZN25vtkMultiProcessController20SetNumberOfProcessesEi' type='func-type' binding='global-binding' visibility='default-visibility' is-defined='yes'/>
    <!-- vtkMultiProcessController::RemoveAllRMICallbacks(int) -->
    <elf-symbol name='_ZN25vtkMultiProcessController21RemoveAllRMICallbacksEi' type='func-type' binding='global-binding' visibility='default-visibility' is-defined='yes'/>
    <!-- vtkMultiProcessController::SetSingleProcessObject(vtkProcess*) -->
    <elf-symbol name='_ZN25vtkMultiProcessController22SetSingleProcessObjectEP10vtkProcess' type='func-type' binding='global-binding' visibility='default-visibility' is-defined='yes'/>
    <!-- vtkMultiProcessController::TriggerRMIOnAllChildren(void*, int, int) -->
    <elf-symbol name='_ZN25vtkMultiProcessController23TriggerRMIOnAllChildrenEPvii' type='func-type' binding='global-binding' visibility='default-visibility' is-defined='yes'/>
    <!-- vtkMultiProcessController::AddRMI(void (*)(void*, void*, int, int), void*, int) -->
    <elf-symbol name='_ZN25vtkMultiProcessController6AddRMIEPFvPvS0_iiES0_i' type='func-type' binding='global-binding' visibility='default-visibility' is-defined='yes'/>
    <!-- vtkMultiProcessController::PrintSelf(std::ostream&, vtkIndent) -->
    <elf-symbol name='_ZN25vtkMultiProcessController9PrintSelfERSo9vtkIndent' type='func-type' binding='global-binding' visibility='default-visibility' is-defined='yes'/>
    <!-- vtkMultiProcessController::RemoveRMI(unsigned long) -->
    <elf-symbol name='_ZN25vtkMultiProcessController9RemoveRMIEm' type='func-type' binding='global-binding' visibility='default-visibility' is-defined='yes'/>
    <!-- vtkMultiProcessController::vtkMultiProcessController() -->
    <elf-symbol name='_ZN25vtkMultiProcessControllerC1Ev' type='func-type' binding='global-binding' visibility='default-visibility' is-defined='yes'/>
    <!-- vtkMultiProcessController::vtkMultiProcessController() -->
    <elf-symbol name='_ZN25vtkMultiProcessControllerC2Ev' type='func-type' binding='global-binding' visibility='default-visibility' alias='_ZN25vtkMultiProcessControllerC1Ev' is-defined='yes'/>
    <!-- vtkMultiProcessController::~vtkMultiProcessController() -->
    <elf-symbol name='_ZN25vtkMultiProcessControllerD0Ev' type='func-type' binding='global-binding' visibility='default-visibility' is-defined='yes'/>
    <!-- vtkMultiProcessController::~vtkMultiProcessController() -->
    <elf-symbol name='_ZN25vtkMultiProcessControllerD1Ev' type='func-type' binding='global-binding' visibility='default-visibility' alias='_ZN25vtkMultiProcessControllerD2Ev' is-defined='yes'/>
    <!-- vtkMultiProcessController::~vtkMultiProcessController() -->
    <elf-symbol name='_ZN25vtkMultiProcessControllerD2Ev' type='func-type' binding='global-binding' visibility='default-visibility' is-defined='yes'/>
    <!-- vtkSubGroup::PrintSubGroup() const -->
    <elf-symbol name='_ZNK11vtkSubGroup13PrintSubGroupEv' type='func-type' binding='global-binding' visibility='default-visibility' is-defined='yes'/>
    <!-- vtkMultiProcessStream::GetRawData(std::vector<unsigned char, std::allocator<unsigned char> >&) const -->
    <elf-symbol name='_ZNK21vtkMultiProcessStream10GetRawDataERSt6vectorIhSaIhEE' type='func-type' binding='global-binding' visibility='default-visibility' is-defined='yes'/>
    <!-- std::_List_base<std::vector<char, std::allocator<char> >, std::allocator<std::vector<char, std::allocator<char> > > >::~_List_base() -->
    <elf-symbol name='_ZNSt10_List_baseISt6vectorIcSaIcEESaIS2_EED1Ev' type='func-type' binding='weak-binding' visibility='default-visibility' alias='_ZNSt10_List_baseISt6vectorIcSaIcEESaIS2_EED2Ev' is-defined='yes'/>
    <!-- std::_List_base<std::vector<char, std::allocator<char> >, std::allocator<std::vector<char, std::allocator<char> > > >::~_List_base() -->
    <elf-symbol name='_ZNSt10_List_baseISt6vectorIcSaIcEESaIS2_EED2Ev' type='func-type' binding='weak-binding' visibility='default-visibility' is-defined='yes'/>
    <!-- std::_Deque_base<unsigned char, std::allocator<unsigned char> >::_M_initialize_map(unsigned long) -->
    <elf-symbol name='_ZNSt11_Deque_baseIhSaIhEE17_M_initialize_mapEm' type='func-type' binding='weak-binding' visibility='default-visibility' is-defined='yes'/>
    <!-- std::deque<unsigned char, std::allocator<unsigned char> >::_M_insert_aux(std::_Deque_iterator<unsigned char, unsigned char&, unsigned char*>, unsigned long, unsigned char const&) -->
    <elf-symbol name='_ZNSt5dequeIhSaIhEE13_M_insert_auxESt15_Deque_iteratorIhRhPhEmRKh' type='func-type' binding='weak-binding' visibility='default-visibility' is-defined='yes'/>
    <!-- void std::deque<unsigned char, std::allocator<unsigned char> >::_M_insert_aux<std::_Deque_iterator<unsigned char, unsigned char const&, unsigned char const*> >(std::_Deque_iterator<unsigned char, unsigned char&, unsigned char*>, std::_Deque_iterator<unsigned char, unsigned char const&, unsigned char const*>, std::_Deque_iterator<unsigned char, unsigned char const&, unsigned char const*>, unsigned long) -->
    <elf-symbol name='_ZNSt5dequeIhSaIhEE13_M_insert_auxISt15_Deque_iteratorIhRKhPS4_EEEvS3_IhRhPhET_SB_m' type='func-type' binding='weak-binding' visibility='default-visibility' is-defined='yes'/>
    <!-- void std::deque<unsigned char, std::allocator<unsigned char> >::_M_insert_aux<std::_Deque_iterator<unsigned char, unsigned char&, unsigned char*> >(std::_Deque_iterator<unsigned char, unsigned char&, unsigned char*>, std::_Deque_iterator<unsigned char, unsigned char&, unsigned char*>, std::_Deque_iterator<unsigned char, unsigned char&, unsigned char*>, unsigned long) -->
    <elf-symbol name='_ZNSt5dequeIhSaIhEE13_M_insert_auxISt15_Deque_iteratorIhRhPhEEEvS6_T_S7_m' type='func-type' binding='weak-binding' visibility='default-visibility' is-defined='yes'/>
    <!-- std::deque<unsigned char, std::allocator<unsigned char> >::_M_reallocate_map(unsigned long, bool) -->
    <elf-symbol name='_ZNSt5dequeIhSaIhEE17_M_reallocate_mapEmb' type='func-type' binding='weak-binding' visibility='default-visibility' is-defined='yes'/>
    <!-- void std::deque<unsigned char, std::allocator<unsigned char> >::_M_range_insert_aux<std::_Deque_iterator<unsigned char, unsigned char const&, unsigned char const*> >(std::_Deque_iterator<unsigned char, unsigned char&, unsigned char*>, std::_Deque_iterator<unsigned char, unsigned char const&, unsigned char const*>, std::_Deque_iterator<unsigned char, unsigned char const&, unsigned char const*>, std::forward_iterator_tag) -->
    <elf-symbol name='_ZNSt5dequeIhSaIhEE19_M_range_insert_auxISt15_Deque_iteratorIhRKhPS4_EEEvS3_IhRhPhET_SB_St20forward_iterator_tag' type='func-type' binding='weak-binding' visibility='default-visibility' is-defined='yes'/>
    <!-- void std::deque<unsigned char, std::allocator<unsigned char> >::_M_range_insert_aux<std::_Deque_iterator<unsigned char, unsigned char&, unsigned char*> >(std::_Deque_iterator<unsigned char, unsigned char&, unsigned char*>, std::_Deque_iterator<unsigned char, unsigned char&, unsigned char*>, std::_Deque_iterator<unsigned char, unsigned char&, unsigned char*>, std::forward_iterator_tag) -->
    <elf-symbol name='_ZNSt5dequeIhSaIhEE19_M_range_insert_auxISt15_Deque_iteratorIhRhPhEEEvS6_T_S7_St20forward_iterator_tag' type='func-type' binding='weak-binding' visibility='default-visibility' is-defined='yes'/>
    <!-- std::deque<unsigned char, std::allocator<unsigned char> >::_M_reserve_map_at_back(unsigned long) -->
    <elf-symbol name='_ZNSt5dequeIhSaIhEE22_M_reserve_map_at_backEm' type='func-type' binding='weak-binding' visibility='default-visibility' is-defined='yes'/>
    <!-- std::deque<unsigned char, std::allocator<unsigned char> >::_M_new_elements_at_back(unsigned long) -->
    <elf-symbol name='_ZNSt5dequeIhSaIhEE23_M_new_elements_at_backEm' type='func-type' binding='weak-binding' visibility='default-visibility' is-defined='yes'/>
    <!-- std::deque<unsigned char, std::allocator<unsigned char> >::_M_new_elements_at_front(unsigned long) -->
    <elf-symbol name='_ZNSt5dequeIhSaIhEE24_M_new_elements_at_frontEm' type='func-type' binding='weak-binding' visibility='default-visibility' is-defined='yes'/>
    <!-- std::deque<unsigned char, std::allocator<unsigned char> >::_M_reserve_elements_at_front(unsigned long) -->
    <elf-symbol name='_ZNSt5dequeIhSaIhEE28_M_reserve_elements_at_frontEm' type='func-type' binding='weak-binding' visibility='default-visibility' is-defined='yes'/>
    <!-- std::deque<unsigned char, std::allocator<unsigned char> >::operator=(std::deque<unsigned char, std::allocator<unsigned char> > const&) -->
    <elf-symbol name='_ZNSt5dequeIhSaIhEEaSERKS1_' type='func-type' binding='weak-binding' visibility='default-visibility' is-defined='yes'/>
    <!-- std::vector<vtkMultiProcessController::vtkInternal::vtkRMICallback, std::allocator<vtkMultiProcessController::vtkInternal::vtkRMICallback> >::_M_insert_aux(__gnu_cxx::__normal_iterator<vtkMultiProcessController::vtkInternal::vtkRMICallback*, std::vector<vtkMultiProcessController::vtkInternal::vtkRMICallback, std::allocator<vtkMultiProcessController::vtkInternal::vtkRMICallback> > >, vtkMultiProcessController::vtkInternal::vtkRMICallback const&) -->
    <elf-symbol name='_ZNSt6vectorIN25vtkMultiProcessController11vtkInternal14vtkRMICallbackESaIS2_EE13_M_insert_auxEN9__gnu_cxx17__normal_iteratorIPS2_S4_EERKS2_' type='func-type' binding='weak-binding' visibility='default-visibility' is-defined='yes'/>
    <!-- std::vector<vtksys::_Hashtable_node<std::pair<int const, void (*)(vtkMultiProcessController*, void*)> >*, std::allocator<vtksys::_Hashtable_node<std::pair<int const, void (*)(vtkMultiProcessController*, void*)> >*> >::_M_fill_insert(__gnu_cxx::__normal_iterator<vtksys::_Hashtable_node<std::pair<int const, void (*)(vtkMultiProcessController*, void*)> >**, std::vector<vtksys::_Hashtable_node<std::pair<int const, void (*)(vtkMultiProcessController*, void*)> >*, std::allocator<vtksys::_Hashtable_node<std::pair<int const, void (*)(vtkMultiProcessController*, void*)> >*> > >, unsigned long, vtksys::_Hashtable_node<std::pair<int const, void (*)(vtkMultiProcessController*, void*)> >* const&) -->
    <elf-symbol name='_ZNSt6vectorIPN6vtksys15_Hashtable_nodeISt4pairIKiPFvP25vtkMultiProcessControllerPvEEEESaISB_EE14_M_fill_insertEN9__gnu_cxx17__normal_iteratorIPSB_SD_EEmRKSB_' type='func-type' binding='weak-binding' visibility='default-visibility' is-defined='yes'/>
    <!-- std::vector<vtksys::_Hashtable_node<std::pair<int const, void (*)(vtkMultiProcessController*, void*)> >*, std::allocator<vtksys::_Hashtable_node<std::pair<int const, void (*)(vtkMultiProcessController*, void*)> >*> >::reserve(unsigned long) -->
    <elf-symbol name='_ZNSt6vectorIPN6vtksys15_Hashtable_nodeISt4pairIKiPFvP25vtkMultiProcessControllerPvEEEESaISB_EE7reserveEm' type='func-type' binding='weak-binding' visibility='default-visibility' is-defined='yes'/>
    <!-- std::vector<vtksys::_Hashtable_node<std::pair<int const, void*> >*, std::allocator<vtksys::_Hashtable_node<std::pair<int const, void*> >*> >::_M_fill_insert(__gnu_cxx::__normal_iterator<vtksys::_Hashtable_node<std::pair<int const, void*> >**, std::vector<vtksys::_Hashtable_node<std::pair<int const, void*> >*, std::allocator<vtksys::_Hashtable_node<std::pair<int const, void*> >*> > >, unsigned long, vtksys::_Hashtable_node<std::pair<int const, void*> >* const&) -->
    <elf-symbol name='_ZNSt6vectorIPN6vtksys15_Hashtable_nodeISt4pairIKiPvEEESaIS7_EE14_M_fill_insertEN9__gnu_cxx17__normal_iteratorIPS7_S9_EEmRKS7_' type='func-type' binding='weak-binding' visibility='default-visibility' is-defined='yes'/>
    <!-- std::vector<vtksys::_Hashtable_node<std::pair<int const, void*> >*, std::allocator<vtksys::_Hashtable_node<std::pair<int const, void*> >*> >::reserve(unsigned long) -->
    <elf-symbol name='_ZNSt6vectorIPN6vtksys15_Hashtable_nodeISt4pairIKiPvEEESaIS7_EE7reserveEm' type='func-type' binding='weak-binding' visibility='default-visibility' is-defined='yes'/>
    <!-- std::vector<vtksys::_Hashtable_node<std::pair<int const, std::vector<vtkMultiProcessController::vtkInternal::vtkRMICallback, std::allocator<vtkMultiProcessController::vtkInternal::vtkRMICallback> > > >*, std::allocator<vtksys::_Hashtable_node<std::pair<int const, std::vector<vtkMultiProcessController::vtkInternal::vtkRMICallback, std::allocator<vtkMultiProcessController::vtkInternal::vtkRMICallback> > > >*> >::_M_fill_insert(__gnu_cxx::__normal_iterator<vtksys::_Hashtable_node<std::pair<int const, std::vector<vtkMultiProcessController::vtkInternal::vtkRMICallback, std::allocator<vtkMultiProcessController::vtkInternal::vtkRMICallback> > > >**, std::vector<vtksys::_Hashtable_node<std::pair<int const, std::vector<vtkMultiProcessController::vtkInternal::vtkRMICallback, std::allocator<vtkMultiProcessController::vtkInternal::vtkRMICallback> > > >*, std::allocator<vtksys::_Hashtable_node<std::pair<int const, std::vector<vtkMultiProcessController::vtkInternal::vtkRMICallback, std::allocator<vtkMultiProcessController::vtkInternal::vtkRMICallback> > > >*> > >, unsigned long, vtksys::_Hashtable_node<std::pair<int const, std::vector<vtkMultiProcessController::vtkInternal::vtkRMICallback, std::allocator<vtkMultiProcessController::vtkInternal::vtkRMICallback> > > >* const&) -->
    <elf-symbol name='_ZNSt6vectorIPN6vtksys15_Hashtable_nodeISt4pairIKiS_IN25vtkMultiProcessController11vtkInternal14vtkRMICallbackESaIS6_EEEEESaISB_EE14_M_fill_insertEN9__gnu_cxx17__normal_iteratorIPSB_SD_EEmRKSB_' type='func-type' binding='weak-binding' visibility='default-visibility' is-defined='yes'/>
    <!-- std::vector<vtksys::_Hashtable_node<std::pair<int const, std::vector<vtkMultiProcessController::vtkInternal::vtkRMICallback, std::allocator<vtkMultiProcessController::vtkInternal::vtkRMICallback> > > >*, std::allocator<vtksys::_Hashtable_node<std::pair<int const, std::vector<vtkMultiProcessController::vtkInternal::vtkRMICallback, std::allocator<vtkMultiProcessController::vtkInternal::vtkRMICallback> > > >*> >::reserve(unsigned long) -->
    <elf-symbol name='_ZNSt6vectorIPN6vtksys15_Hashtable_nodeISt4pairIKiS_IN25vtkMultiProcessController11vtkInternal14vtkRMICallbackESaIS6_EEEEESaISB_EE7reserveEm' type='func-type' binding='weak-binding' visibility='default-visibility' is-defined='yes'/>
    <!-- std::vector<bool, std::allocator<bool> >::_M_fill_insert(std::_Bit_iterator, unsigned long, bool) -->
    <elf-symbol name='_ZNSt6vectorIbSaIbEE14_M_fill_insertESt13_Bit_iteratormb' type='func-type' binding='weak-binding' visibility='default-visibility' is-defined='yes'/>
    <!-- void std::vector<char, std::allocator<char> >::_M_range_insert<char*>(__gnu_cxx::__normal_iterator<char*, std::vector<char, std::allocator<char> > >, char*, char*, std::forward_iterator_tag) -->
    <elf-symbol name='_ZNSt6vectorIcSaIcEE15_M_range_insertIPcEEvN9__gnu_cxx17__normal_iteratorIS3_S1_EET_S7_St20forward_iterator_tag' type='func-type' binding='weak-binding' visibility='default-visibility' is-defined='yes'/>
    <!-- std::vector<unsigned char, std::allocator<unsigned char> >::_M_insert_aux(__gnu_cxx::__normal_iterator<unsigned char*, std::vector<unsigned char, std::allocator<unsigned char> > >, unsigned char const&) -->
    <elf-symbol name='_ZNSt6vectorIhSaIhEE13_M_insert_auxEN9__gnu_cxx17__normal_iteratorIPhS1_EERKh' type='func-type' binding='weak-binding' visibility='default-visibility' is-defined='yes'/>
    <!-- std::vector<unsigned char, std::allocator<unsigned char> >::_M_fill_insert(__gnu_cxx::__normal_iterator<unsigned char*, std::vector<unsigned char, std::allocator<unsigned char> > >, unsigned long, unsigned char const&) -->
    <elf-symbol name='_ZNSt6vectorIhSaIhEE14_M_fill_insertEN9__gnu_cxx17__normal_iteratorIPhS1_EEmRKh' type='func-type' binding='weak-binding' visibility='default-visibility' is-defined='yes'/>
    <!-- std::vector<int, std::allocator<int> >::_M_fill_insert(__gnu_cxx::__normal_iterator<int*, std::vector<int, std::allocator<int> > >, unsigned long, int const&) -->
    <elf-symbol name='_ZNSt6vectorIiSaIiEE14_M_fill_insertEN9__gnu_cxx17__normal_iteratorIPiS1_EEmRKi' type='func-type' binding='weak-binding' visibility='default-visibility' is-defined='yes'/>
    <!-- std::vector<int, std::allocator<int> >::resize(unsigned long, int) -->
    <elf-symbol name='_ZNSt6vectorIiSaIiEE6resizeEmi' type='func-type' binding='weak-binding' visibility='default-visibility' is-defined='yes'/>
    <!-- std::_Rb_tree<int, std::pair<int const, std::list<std::vector<char, std::allocator<char> >, std::allocator<std::vector<char, std::allocator<char> > > > >, std::_Select1st<std::pair<int const, std::list<std::vector<char, std::allocator<char> >, std::allocator<std::vector<char, std::allocator<char> > > > > >, std::less<int>, std::allocator<std::pair<int const, std::list<std::vector<char, std::allocator<char> >, std::allocator<std::vector<char, std::allocator<char> > > > > > >::_M_insert_(std::_Rb_tree_node_base const*, std::_Rb_tree_node_base const*, std::pair<int const, std::list<std::vector<char, std::allocator<char> >, std::allocator<std::vector<char, std::allocator<char> > > > > const&) -->
    <elf-symbol name='_ZNSt8_Rb_treeIiSt4pairIKiSt4listISt6vectorIcSaIcEESaIS5_EEESt10_Select1stIS8_ESt4lessIiESaIS8_EE10_M_insert_EPKSt18_Rb_tree_node_baseSH_RKS8_' type='func-type' binding='weak-binding' visibility='default-visibility' is-defined='yes'/>
    <!-- std::_Rb_tree<int, std::pair<int const, std::list<std::vector<char, std::allocator<char> >, std::allocator<std::vector<char, std::allocator<char> > > > >, std::_Select1st<std::pair<int const, std::list<std::vector<char, std::allocator<char> >, std::allocator<std::vector<char, std::allocator<char> > > > > >, std::less<int>, std::allocator<std::pair<int const, std::list<std::vector<char, std::allocator<char> >, std::allocator<std::vector<char, std::allocator<char> > > > > > >::_M_insert_unique(std::pair<int const, std::list<std::vector<char, std::allocator<char> >, std::allocator<std::vector<char, std::allocator<char> > > > > const&) -->
    <elf-symbol name='_ZNSt8_Rb_treeIiSt4pairIKiSt4listISt6vectorIcSaIcEESaIS5_EEESt10_Select1stIS8_ESt4lessIiESaIS8_EE16_M_insert_uniqueERKS8_' type='func-type' binding='weak-binding' visibility='default-visibility' is-defined='yes'/>
    <!-- std::_Rb_tree<int, std::pair<int const, std::list<std::vector<char, std::allocator<char> >, std::allocator<std::vector<char, std::allocator<char> > > > >, std::_Select1st<std::pair<int const, std::list<std::vector<char, std::allocator<char> >, std::allocator<std::vector<char, std::allocator<char> > > > > >, std::less<int>, std::allocator<std::pair<int const, std::list<std::vector<char, std::allocator<char> >, std::allocator<std::vector<char, std::allocator<char> > > > > > >::_M_insert_unique_(std::_Rb_tree_const_iterator<std::pair<int const, std::list<std::vector<char, std::allocator<char> >, std::allocator<std::vector<char, std::allocator<char> > > > > >, std::pair<int const, std::list<std::vector<char, std::allocator<char> >, std::allocator<std::vector<char, std::allocator<char> > > > > const&) -->
    <elf-symbol name='_ZNSt8_Rb_treeIiSt4pairIKiSt4listISt6vectorIcSaIcEESaIS5_EEESt10_Select1stIS8_ESt4lessIiESaIS8_EE17_M_insert_unique_ESt23_Rb_tree_const_iteratorIS8_ERKS8_' type='func-type' binding='weak-binding' visibility='default-visibility' is-defined='yes'/>
    <!-- std::_Rb_tree<int, std::pair<int const, std::list<std::vector<char, std::allocator<char> >, std::allocator<std::vector<char, std::allocator<char> > > > >, std::_Select1st<std::pair<int const, std::list<std::vector<char, std::allocator<char> >, std::allocator<std::vector<char, std::allocator<char> > > > > >, std::less<int>, std::allocator<std::pair<int const, std::list<std::vector<char, std::allocator<char> >, std::allocator<std::vector<char, std::allocator<char> > > > > > >::_M_erase(std::_Rb_tree_node<std::pair<int const, std::list<std::vector<char, std::allocator<char> >, std::allocator<std::vector<char, std::allocator<char> > > > > >*) -->
    <elf-symbol name='_ZNSt8_Rb_treeIiSt4pairIKiSt4listISt6vectorIcSaIcEESaIS5_EEESt10_Select1stIS8_ESt4lessIiESaIS8_EE8_M_eraseEPSt13_Rb_tree_nodeIS8_E' type='func-type' binding='weak-binding' visibility='default-visibility' is-defined='yes'/>
    <!-- void std::__adjust_heap<int*, long, int>(int*, long, long, int) -->
    <elf-symbol name='_ZSt13__adjust_heapIPiliEvT_T0_S2_T1_' type='func-type' binding='weak-binding' visibility='default-visibility' is-defined='yes'/>
    <!-- void std::__insertion_sort<int*>(int*, int*) -->
    <elf-symbol name='_ZSt16__insertion_sortIPiEvT_S1_' type='func-type' binding='weak-binding' visibility='default-visibility' is-defined='yes'/>
    <!-- void std::__introsort_loop<int*, long>(int*, int*, long) -->
    <elf-symbol name='_ZSt16__introsort_loopIPilEvT_S1_T0_' type='func-type' binding='weak-binding' visibility='default-visibility' is-defined='yes'/>
    <!-- long long* std::copy<long long const*, long long*>(long long const*, long long const*, long long*) -->
    <elf-symbol name='_ZSt4copyIPKxPxET0_T_S4_S3_' type='func-type' binding='weak-binding' visibility='default-visibility' is-defined='yes'/>
    <!-- void std::fill<unsigned char>(std::_Deque_iterator<unsigned char, unsigned char&, unsigned char*> const&, std::_Deque_iterator<unsigned char, unsigned char&, unsigned char*> const&, unsigned char const&) -->
    <elf-symbol name='_ZSt4fillIhEvRKSt15_Deque_iteratorIT_RS1_PS1_ES6_RKS1_' type='func-type' binding='weak-binding' visibility='default-visibility' is-defined='yes'/>
    <!-- _fini -->
    <elf-symbol name='_fini' type='func-type' binding='global-binding' visibility='default-visibility' is-defined='yes'/>
    <!-- _init -->
    <elf-symbol name='_init' type='func-type' binding='global-binding' visibility='default-visibility' is-defined='yes'/>
  </elf-function-symbols>
  <elf-variable-symbols>
    <!-- vtkCommunicator::UseCopy -->
    <elf-symbol name='_ZN15vtkCommunicator7UseCopyE' size='4' type='object-type' binding='global-binding' visibility='default-visibility' is-defined='yes'/>
    <!-- vtkSocketController::Initialized -->
    <elf-symbol name='_ZN19vtkSocketController11InitializedE' size='4' type='object-type' binding='global-binding' visibility='default-visibility' is-defined='yes'/>
    <!-- typeinfo for vtkProcess -->
    <elf-symbol name='_ZTI10vtkProcess' size='24' type='object-type' binding='weak-binding' visibility='default-visibility' is-defined='yes'/>
    <!-- typeinfo for vtkSubGroup -->
    <elf-symbol name='_ZTI11vtkSubGroup' size='24' type='object-type' binding='weak-binding' visibility='default-visibility' is-defined='yes'/>
    <!-- typeinfo for vtkCommunicator -->
    <elf-symbol name='_ZTI15vtkCommunicator' size='24' type='object-type' binding='weak-binding' visibility='default-visibility' is-defined='yes'/>
    <!-- typeinfo for vtkProcessGroup -->
    <elf-symbol name='_ZTI15vtkProcessGroup' size='24' type='object-type' binding='weak-binding' visibility='default-visibility' is-defined='yes'/>
    <!-- typeinfo for vtkDummyController -->
    <elf-symbol name='_ZTI18vtkDummyController' size='24' type='object-type' binding='weak-binding' visibility='default-visibility' is-defined='yes'/>
    <!-- typeinfo for vtkSubCommunicator -->
    <elf-symbol name='_ZTI18vtkSubCommunicator' size='24' type='object-type' binding='weak-binding' visibility='default-visibility' is-defined='yes'/>
    <!-- typeinfo for vtkSocketController -->
    <elf-symbol name='_ZTI19vtkSocketController' size='24' type='object-type' binding='weak-binding' visibility='default-visibility' is-defined='yes'/>
    <!-- typeinfo for vtkDummyCommunicator -->
    <elf-symbol name='_ZTI20vtkDummyCommunicator' size='24' type='object-type' binding='weak-binding' visibility='default-visibility' is-defined='yes'/>
    <!-- typeinfo for vtkSocketCommunicator -->
    <elf-symbol name='_ZTI21vtkSocketCommunicator' size='24' type='object-type' binding='weak-binding' visibility='default-visibility' is-defined='yes'/>
    <!-- typeinfo for vtkFieldDataSerializer -->
    <elf-symbol name='_ZTI22vtkFieldDataSerializer' size='24' type='object-type' binding='weak-binding' visibility='default-visibility' is-defined='yes'/>
    <!-- typeinfo for vtkMultiProcessController -->
    <elf-symbol name='_ZTI25vtkMultiProcessController' size='24' type='object-type' binding='weak-binding' visibility='default-visibility' is-defined='yes'/>
    <!-- typeinfo for vtkCommunicator::Operation -->
    <elf-symbol name='_ZTIN15vtkCommunicator9OperationE' size='16' type='object-type' binding='weak-binding' visibility='default-visibility' is-defined='yes'/>
    <!-- typeinfo name for vtkProcess -->
    <elf-symbol name='_ZTS10vtkProcess' size='13' type='object-type' binding='weak-binding' visibility='default-visibility' is-defined='yes'/>
    <!-- typeinfo name for vtkSubGroup -->
    <elf-symbol name='_ZTS11vtkSubGroup' size='14' type='object-type' binding='weak-binding' visibility='default-visibility' is-defined='yes'/>
    <!-- typeinfo name for vtkCommunicator -->
    <elf-symbol name='_ZTS15vtkCommunicator' size='18' type='object-type' binding='weak-binding' visibility='default-visibility' is-defined='yes'/>
    <!-- typeinfo name for vtkProcessGroup -->
    <elf-symbol name='_ZTS15vtkProcessGroup' size='18' type='object-type' binding='weak-binding' visibility='default-visibility' is-defined='yes'/>
    <!-- typeinfo name for vtkDummyController -->
    <elf-symbol name='_ZTS18vtkDummyController' size='21' type='object-type' binding='weak-binding' visibility='default-visibility' is-defined='yes'/>
    <!-- typeinfo name for vtkSubCommunicator -->
    <elf-symbol name='_ZTS18vtkSubCommunicator' size='21' type='object-type' binding='weak-binding' visibility='default-visibility' is-defined='yes'/>
    <!-- typeinfo name for vtkSocketController -->
    <elf-symbol name='_ZTS19vtkSocketController' size='22' type='object-type' binding='weak-binding' visibility='default-visibility' is-defined='yes'/>
    <!-- typeinfo name for vtkDummyCommunicator -->
    <elf-symbol name='_ZTS20vtkDummyCommunicator' size='23' type='object-type' binding='weak-binding' visibility='default-visibility' is-defined='yes'/>
    <!-- typeinfo name for vtkSocketCommunicator -->
    <elf-symbol name='_ZTS21vtkSocketCommunicator' size='24' type='object-type' binding='weak-binding' visibility='default-visibility' is-defined='yes'/>
    <!-- typeinfo name for vtkFieldDataSerializer -->
    <elf-symbol name='_ZTS22vtkFieldDataSerializer' size='25' type='object-type' binding='weak-binding' visibility='default-visibility' is-defined='yes'/>
    <!-- typeinfo name for vtkMultiProcessController -->
    <elf-symbol name='_ZTS25vtkMultiProcessController' size='28' type='object-type' binding='weak-binding' visibility='default-visibility' is-defined='yes'/>
    <!-- typeinfo name for vtkCommunicator::Operation -->
    <elf-symbol name='_ZTSN15vtkCommunicator9OperationE' size='30' type='object-type' binding='weak-binding' visibility='default-visibility' is-defined='yes'/>
    <!-- vtable for vtkProcess -->
    <elf-symbol name='_ZTV10vtkProcess' size='184' type='object-type' binding='weak-binding' visibility='default-visibility' is-defined='yes'/>
    <!-- vtable for vtkSubGroup -->
    <elf-symbol name='_ZTV11vtkSubGroup' size='176' type='object-type' binding='weak-binding' visibility='default-visibility' is-defined='yes'/>
    <!-- vtable for vtkCommunicator -->
    <elf-symbol name='_ZTV15vtkCommunicator' size='328' type='object-type' binding='weak-binding' visibility='default-visibility' is-defined='yes'/>
    <!-- vtable for vtkProcessGroup -->
    <elf-symbol name='_ZTV15vtkProcessGroup' size='192' type='object-type' binding='weak-binding' visibility='default-visibility' is-defined='yes'/>
    <!-- vtable for vtkDummyController -->
    <elf-symbol name='_ZTV18vtkDummyController' size='368' type='object-type' binding='weak-binding' visibility='default-visibility' is-defined='yes'/>
    <!-- vtable for vtkSubCommunicator -->
    <elf-symbol name='_ZTV18vtkSubCommunicator' size='344' type='object-type' binding='weak-binding' visibility='default-visibility' is-defined='yes'/>
    <!-- vtable for vtkSocketController -->
    <elf-symbol name='_ZTV19vtkSocketController' size='376' type='object-type' binding='weak-binding' visibility='default-visibility' is-defined='yes'/>
    <!-- vtable for vtkDummyCommunicator -->
    <elf-symbol name='_ZTV20vtkDummyCommunicator' size='328' type='object-type' binding='weak-binding' visibility='default-visibility' is-defined='yes'/>
    <!-- vtable for vtkSocketCommunicator -->
    <elf-symbol name='_ZTV21vtkSocketCommunicator' size='480' type='object-type' binding='weak-binding' visibility='default-visibility' is-defined='yes'/>
    <!-- vtable for vtkFieldDataSerializer -->
    <elf-symbol name='_ZTV22vtkFieldDataSerializer' size='176' type='object-type' binding='weak-binding' visibility='default-visibility' is-defined='yes'/>
    <!-- vtable for vtkMultiProcessController -->
    <elf-symbol name='_ZTV25vtkMultiProcessController' size='344' type='object-type' binding='weak-binding' visibility='default-visibility' is-defined='yes'/>
    <!-- vtable for vtkCommunicator::Operation -->
    <elf-symbol name='_ZTVN15vtkCommunicator9OperationE' size='48' type='object-type' binding='weak-binding' visibility='default-visibility' is-defined='yes'/>
  </elf-variable-symbols>
  <abi-instr address-size='64' path='/tmp/legendre/spack-stage/spack-stage-R_crTC/VTK-6.1.0/Parallel/Core/vtkCommunicator.cxx' comp-dir-path='/tmp/legendre/spack-stage/spack-stage-R_crTC/VTK-6.1.0/spack-build/Parallel/Core' language='LANG_C_plus_plus'>
    <!-- bool -->
    <type-decl name='bool' size-in-bits='8' hash='5ba96bb22f4237fb' id='type-id-1'/>
    <!-- char -->
    <type-decl name='char' size-in-bits='8' hash='65b2d157027b431a' id='type-id-2'/>
    <!-- char[1] -->
    <array-type-def dimensions='1' type-id='type-id-2' size-in-bits='8' hash='f7aed1c6cc6e7b3c' id='type-id-3'>
      <!-- <anonymous range>[1] -->
      <subrange length='1' lower-bound='0' upper-bound='0' type-id='type-id-4' size-in-bits='64' is-anonymous='yes' hash='eba0a2b392137dcb' id='type-id-5'/>
    </array-type-def>
    <!-- char[20] -->
    <array-type-def dimensions='1' type-id='type-id-2' size-in-bits='160' hash='99641d293d1da856' id='type-id-6'>
      <!-- <anonymous range>[20] -->
      <subrange length='20' lower-bound='0' upper-bound='19' type-id='type-id-4' size-in-bits='64' is-anonymous='yes' hash='1ca9e41140ea49be' id='type-id-7'/>
    </array-type-def>
    <!-- char[4] -->
    <array-type-def dimensions='1' type-id='type-id-2' size-in-bits='32' hash='932523ac2c3bfb84' id='type-id-8'>
      <!-- <anonymous range>[4] -->
      <subrange length='4' lower-bound='0' upper-bound='3' type-id='type-id-4' size-in-bits='64' is-anonymous='yes' hash='cee611f4a73e486c' id='type-id-9'/>
    </array-type-def>
    <!-- class vtkBoundingBox -->
    <class-decl name='vtkBoundingBox' visibility='default' size-in-bits='384' filepath='/tmp/legendre/spack-stage/spack-stage-R_crTC/VTK-6.1.0/Common/DataModel/vtkBoundingBox.h' line='30' column='1' hash='27e0cdef2c026cf0' id='type-id-10'>
      <data-member access='protected' layout-offset-in-bits='0'>
        <!-- double vtkBoundingBox::MinPnt[3] -->
        <var-decl name='MinPnt' type-id='type-id-11' visibility='default' filepath='/tmp/legendre/spack-stage/spack-stage-R_crTC/VTK-6.1.0/Common/DataModel/vtkBoundingBox.h' line='185' column='1'/>
      </data-member>
      <data-member access='protected' layout-offset-in-bits='192'>
        <!-- double vtkBoundingBox::MaxPnt[3] -->
        <var-decl name='MaxPnt' type-id='type-id-11' visibility='default' filepath='/tmp/legendre/spack-stage/spack-stage-R_crTC/VTK-6.1.0/Common/DataModel/vtkBoundingBox.h' line='185' column='1'/>
      </data-member>
      <member-function access='private'>
        <!-- void vtkBoundingBox::AddBounds(const double*) -->
        <function-decl name='AddBounds' mangled-name='_ZN14vtkBoundingBox9AddBoundsEPKd' filepath='/tmp/legendre/spack-stage/spack-stage-R_crTC/VTK-6.1.0/Common/DataModel/vtkBoundingBox.h' line='87' column='1' visibility='default' binding='global' size-in-bits='64' hash='11a95453ebfe22b9'>
          <!-- implicit parameter of type 'vtkBoundingBox*' -->
          <parameter type-id='type-id-12' is-artificial='yes'/>
          <!-- parameter of type 'const double*' -->
          <parameter type-id='type-id-13'/>
          <!-- void -->
          <return type-id='type-id-14'/>
        </function-decl>
      </member-function>
    </class-decl>
    <!-- class vtkCommunicator -->
    <class-decl name='vtkCommunicator' visibility='default' size-in-bits='576' filepath='/tmp/legendre/spack-stage/spack-stage-R_crTC/VTK-6.1.0/Parallel/Core/vtkCommunicator.h' line='45' column='1' hash='afc862c05f7b0fd1' id='type-id-15'>
      <!-- class vtkObject -->
      <base-class access='public' layout-offset-in-bits='0' type-id='type-id-16'/>
      <member-type access='private'>
        <!-- class vtkCommunicator::Operation -->
        <class-decl name='Operation' visibility='default' size-in-bits='64' filepath='/tmp/legendre/spack-stage/spack-stage-R_crTC/VTK-6.1.0/Parallel/Core/vtkCommunicator.h' line='94' column='1' hash='250d0c637e8d5233' id='type-id-17'>
          <member-function access='private' destructor='yes' vtable-offset='-1'>
            <!-- vtkCommunicator::Operation::~Operation(int) -->
            <function-decl name='~Operation' filepath='/tmp/legendre/spack-stage/spack-stage-R_crTC/VTK-6.1.0/Parallel/Core/vtkCommunicator.h' line='113' column='1' visibility='default' binding='global' size-in-bits='64' hash='388da3fa973fde78'>
              <!-- implicit parameter of type 'vtkCommunicator::Operation*' -->
              <parameter type-id='type-id-18' is-artificial='yes'/>
              <!-- artificial parameter of type 'int' -->
              <parameter type-id='type-id-19' is-artificial='yes'/>
              <!-- void -->
              <return type-id='type-id-14'/>
            </function-decl>
          </member-function>
          <member-function access='private' vtable-offset='0'>
            <!-- void vtkCommunicator::Operation::Function(void*, void*, vtkIdType, int) -->
            <function-decl name='Function' mangled-name='_ZN15vtkCommunicator9Operation8FunctionEPKvPvxi' filepath='/tmp/legendre/spack-stage/spack-stage-R_crTC/VTK-6.1.0/Parallel/Core/vtkCommunicator.h' line='105' column='1' visibility='default' binding='global' size-in-bits='64' hash='27d51c5c93237148'>
              <!-- implicit parameter of type 'vtkCommunicator::Operation*' -->
              <parameter type-id='type-id-18' is-artificial='yes'/>
              <!-- parameter of type 'void*' -->
              <parameter type-id='type-id-20'/>
              <!-- parameter of type 'void*' -->
              <parameter type-id='type-id-20'/>
              <!-- parameter of type 'typedef vtkIdType' -->
              <parameter type-id='type-id-21'/>
              <!-- parameter of type 'int' -->
              <parameter type-id='type-id-19'/>
              <!-- void -->
              <return type-id='type-id-14'/>
            </function-decl>
          </member-function>
          <member-function access='private' vtable-offset='1'>
            <!-- int vtkCommunicator::Operation::Commutative() -->
            <function-decl name='Commutative' mangled-name='_ZN15vtkCommunicator9Operation11CommutativeEv' filepath='/tmp/legendre/spack-stage/spack-stage-R_crTC/VTK-6.1.0/Parallel/Core/vtkCommunicator.h' line='111' column='1' visibility='default' binding='global' size-in-bits='64' hash='388da3fa973fde78'>
              <!-- implicit parameter of type 'vtkCommunicator::Operation*' -->
              <parameter type-id='type-id-18' is-artificial='yes'/>
              <!-- int -->
              <return type-id='type-id-19'/>
            </function-decl>
          </member-function>
        </class-decl>
      </member-type>
      <member-type access='private'>
        <!-- enum vtkCommunicator::StandardOperations -->
        <enum-decl name='StandardOperations' size-in-bits='32' alignment-in-bits='32' filepath='/tmp/legendre/spack-stage/spack-stage-R_crTC/VTK-6.1.0/Parallel/Core/vtkCommunicator.h' line='76' column='1' hash='0d434ecda8f92499' id='type-id-22'>
          <underlying-type type-id='type-id-23'/>
          <enumerator name='MAX_OP' value='0'/>
          <enumerator name='MIN_OP' value='1'/>
          <enumerator name='SUM_OP' value='2'/>
          <enumerator name='PRODUCT_OP' value='3'/>
          <enumerator name='LOGICAL_AND_OP' value='4'/>
          <enumerator name='BITWISE_AND_OP' value='5'/>
          <enumerator name='LOGICAL_OR_OP' value='6'/>
          <enumerator name='BITWISE_OR_OP' value='7'/>
          <enumerator name='LOGICAL_XOR_OP' value='8'/>
          <enumerator name='BITWISE_XOR_OP' value='9'/>
        </enum-decl>
      </member-type>
      <member-type access='private'>
        <!-- enum vtkCommunicator::Tags -->
        <enum-decl name='Tags' size-in-bits='32' alignment-in-bits='32' filepath='/tmp/legendre/spack-stage/spack-stage-R_crTC/VTK-6.1.0/Parallel/Core/vtkCommunicator.h' line='65' column='1' hash='771e845ed6a0423c' id='type-id-24'>
          <underlying-type type-id='type-id-23'/>
          <enumerator name='BROADCAST_TAG' value='10'/>
          <enumerator name='GATHER_TAG' value='11'/>
          <enumerator name='GATHERV_TAG' value='12'/>
          <enumerator name='SCATTER_TAG' value='13'/>
          <enumerator name='SCATTERV_TAG' value='14'/>
          <enumerator name='REDUCE_TAG' value='15'/>
          <enumerator name='BARRIER_TAG' value='16'/>
        </enum-decl>
      </member-type>
      <data-member access='public' static='yes'>
        <!-- static int vtkCommunicator::UseCopy -->
        <var-decl name='UseCopy' type-id='type-id-19' mangled-name='_ZN15vtkCommunicator7UseCopyE' visibility='default' filepath='/tmp/legendre/spack-stage/spack-stage-R_crTC/VTK-6.1.0/Parallel/Core/vtkCommunicator.cxx' line='117' column='1' elf-symbol-id='_ZN15vtkCommunicator7UseCopyE'/>
      </data-member>
      <data-member access='protected' layout-offset-in-bits='384'>
        <!-- int vtkCommunicator::MaximumNumberOfProcesses -->
        <var-decl name='MaximumNumberOfProcesses' type-id='type-id-19' visibility='default' filepath='/tmp/legendre/spack-stage/spack-stage-R_crTC/VTK-6.1.0/Parallel/Core/vtkCommunicator.h' line='855' column='1'/>
      </data-member>
      <data-member access='protected' layout-offset-in-bits='416'>
        <!-- int vtkCommunicator::NumberOfProcesses -->
        <var-decl name='NumberOfProcesses' type-id='type-id-19' visibility='default' filepath='/tmp/legendre/spack-stage/spack-stage-R_crTC/VTK-6.1.0/Parallel/Core/vtkCommunicator.h' line='856' column='1'/>
      </data-member>
      <data-member access='protected' layout-offset-in-bits='448'>
        <!-- int vtkCommunicator::LocalProcessId -->
        <var-decl name='LocalProcessId' type-id='type-id-19' visibility='default' filepath='/tmp/legendre/spack-stage/spack-stage-R_crTC/VTK-6.1.0/Parallel/Core/vtkCommunicator.h' line='858' column='1'/>
      </data-member>
      <data-member access='protected' layout-offset-in-bits='512'>
        <!-- vtkIdType vtkCommunicator::Count -->
        <var-decl name='Count' type-id='type-id-21' visibility='default' filepath='/tmp/legendre/spack-stage/spack-stage-R_crTC/VTK-6.1.0/Parallel/Core/vtkCommunicator.h' line='862' column='1'/>
      </data-member>
      <member-function access='private' static='yes'>
        <!-- void vtkCommunicator::SetUseCopy() -->
        <function-decl name='SetUseCopy' mangled-name='_ZN15vtkCommunicator10SetUseCopyEi' filepath='/tmp/legendre/spack-stage/spack-stage-R_crTC/VTK-6.1.0/Parallel/Core/vtkCommunicator.cxx' line='118' column='1' visibility='default' binding='global' size-in-bits='64' elf-symbol-id='_ZN15vtkCommunicator10SetUseCopyEi' hash='388da3fa973fde78#2'>
          <!-- parameter of type 'int' -->
          <parameter type-id='type-id-19'/>
          <!-- void -->
          <return type-id='type-id-14'/>
        </function-decl>
      </member-function>
      <member-function access='private' static='yes'>
        <!-- int vtkCommunicator::GetParentProcessor() -->
        <function-decl name='GetParentProcessor' mangled-name='_ZN15vtkCommunicator18GetParentProcessorEi' filepath='/tmp/legendre/spack-stage/spack-stage-R_crTC/VTK-6.1.0/Parallel/Core/vtkCommunicator.cxx' line='654' column='1' visibility='default' binding='global' size-in-bits='64' elf-symbol-id='_ZN15vtkCommunicator18GetParentProcessorEi' hash='d628501fd2223339'>
          <!-- parameter of type 'int' -->
          <parameter type-id='type-id-19'/>
          <!-- int -->
          <return type-id='type-id-19'/>
        </function-decl>
      </member-function>
      <member-function access='private' static='yes'>
        <!-- int vtkCommunicator::GetLeftChildProcessor() -->
        <function-decl name='GetLeftChildProcessor' mangled-name='_ZN15vtkCommunicator21GetLeftChildProcessorEi' filepath='/tmp/legendre/spack-stage/spack-stage-R_crTC/VTK-6.1.0/Parallel/Core/vtkCommunicator.cxx' line='668' column='1' visibility='default' binding='global' size-in-bits='64' elf-symbol-id='_ZN15vtkCommunicator21GetLeftChildProcessorEi' hash='d628501fd2223339'>
          <!-- parameter of type 'int' -->
          <parameter type-id='type-id-19'/>
          <!-- int -->
          <return type-id='type-id-19'/>
        </function-decl>
      </member-function>
      <member-function access='private'>
        <!-- int vtkCommunicator::AllReduce(vtkDataArray*, vtkDataArray*, vtkCommunicator::Operation*) -->
        <function-decl name='AllReduce' mangled-name='_ZN15vtkCommunicator9AllReduceEP12vtkDataArrayS1_PNS_9OperationE' filepath='/tmp/legendre/spack-stage/spack-stage-R_crTC/VTK-6.1.0/Parallel/Core/vtkCommunicator.cxx' line='1447' column='1' visibility='default' binding='global' size-in-bits='64' elf-symbol-id='_ZN15vtkCommunicator9AllReduceEP12vtkDataArrayS1_PNS_9OperationE' hash='e07bc37c3c6c2e59'>
          <!-- implicit parameter of type 'vtkCommunicator*' -->
          <parameter type-id='type-id-25' is-artificial='yes'/>
          <!-- parameter of type 'vtkDataArray*' -->
          <parameter type-id='type-id-26'/>
          <!-- parameter of type 'vtkDataArray*' -->
          <parameter type-id='type-id-26'/>
          <!-- parameter of type 'vtkCommunicator::Operation*' -->
          <parameter type-id='type-id-18'/>
          <!-- int -->
          <return type-id='type-id-19'/>
        </function-decl>
      </member-function>
      <member-function access='private'>
        <!-- int vtkCommunicator::AllReduce(vtkDataArray*, vtkDataArray*, int) -->
        <function-decl name='AllReduce' mangled-name='_ZN15vtkCommunicator9AllReduceEP12vtkDataArrayS1_i' filepath='/tmp/legendre/spack-stage/spack-stage-R_crTC/VTK-6.1.0/Parallel/Core/vtkCommunicator.cxx' line='1425' column='1' visibility='default' binding='global' size-in-bits='64' elf-symbol-id='_ZN15vtkCommunicator9AllReduceEP12vtkDataArrayS1_i' hash='d628501fd2223339'>
          <!-- implicit parameter of type 'vtkCommunicator*' -->
          <parameter type-id='type-id-25' is-artificial='yes'/>
          <!-- parameter of type 'vtkDataArray*' -->
          <parameter type-id='type-id-26'/>
          <!-- parameter of type 'vtkDataArray*' -->
          <parameter type-id='type-id-26'/>
          <!-- parameter of type 'int' -->
          <parameter type-id='type-id-19'/>
          <!-- int -->
          <return type-id='type-id-19'/>
        </function-decl>
      </member-function>
      <member-function access='private'>
        <!-- int vtkCommunicator::Reduce(vtkDataArray*, vtkDataArray*, vtkCommunicator::Operation*, int) -->
        <function-decl name='Reduce' mangled-name='_ZN15vtkCommunicator6ReduceEP12vtkDataArrayS1_PNS_9OperationEi' filepath='/tmp/legendre/spack-stage/spack-stage-R_crTC/VTK-6.1.0/Parallel/Core/vtkCommunicator.cxx' line='1376' column='1' visibility='default' binding='global' size-in-bits='64' elf-symbol-id='_ZN15vtkCommunicator6ReduceEP12vtkDataArrayS1_PNS_9OperationEi' hash='d2c69a468c54baf4'>
          <!-- implicit parameter of type 'vtkCommunicator*' -->
          <parameter type-id='type-id-25' is-artificial='yes'/>
          <!-- parameter of type 'vtkDataArray*' -->
          <parameter type-id='type-id-26'/>
          <!-- parameter of type 'vtkDataArray*' -->
          <parameter type-id='type-id-26'/>
          <!-- parameter of type 'vtkCommunicator::Operation*' -->
          <parameter type-id='type-id-18'/>
          <!-- parameter of type 'int' -->
          <parameter type-id='type-id-19'/>
          <!-- int -->
          <return type-id='type-id-19'/>
        </function-decl>
      </member-function>
      <member-function access='private'>
        <!-- int vtkCommunicator::Reduce(vtkDataArray*, vtkDataArray*, int, int) -->
        <function-decl name='Reduce' mangled-name='_ZN15vtkCommunicator6ReduceEP12vtkDataArrayS1_ii' filepath='/tmp/legendre/spack-stage/spack-stage-R_crTC/VTK-6.1.0/Parallel/Core/vtkCommunicator.cxx' line='1353' column='1' visibility='default' binding='global' size-in-bits='64' elf-symbol-id='_ZN15vtkCommunicator6ReduceEP12vtkDataArrayS1_ii' hash='a9fd86e6e981c3b5'>
          <!-- implicit parameter of type 'vtkCommunicator*' -->
          <parameter type-id='type-id-25' is-artificial='yes'/>
          <!-- parameter of type 'vtkDataArray*' -->
          <parameter type-id='type-id-26'/>
          <!-- parameter of type 'vtkDataArray*' -->
          <parameter type-id='type-id-26'/>
          <!-- parameter of type 'int' -->
          <parameter type-id='type-id-19'/>
          <!-- parameter of type 'int' -->
          <parameter type-id='type-id-19'/>
          <!-- int -->
          <return type-id='type-id-19'/>
        </function-decl>
      </member-function>
      <member-function access='private'>
        <!-- int vtkCommunicator::AllGatherV(vtkDataArray*, vtkDataArray*, vtkIdType*, vtkIdType*) -->
        <function-decl name='AllGatherV' mangled-name='_ZN15vtkCommunicator10AllGatherVEP12vtkDataArrayS1_PxS2_' filepath='/tmp/legendre/spack-stage/spack-stage-R_crTC/VTK-6.1.0/Parallel/Core/vtkCommunicator.cxx' line='1220' column='1' visibility='default' binding='global' size-in-bits='64' elf-symbol-id='_ZN15vtkCommunicator10AllGatherVEP12vtkDataArrayS1_PxS2_' hash='d1a34e9cb610b5c7'>
          <!-- implicit parameter of type 'vtkCommunicator*' -->
          <parameter type-id='type-id-25' is-artificial='yes'/>
          <!-- parameter of type 'vtkDataArray*' -->
          <parameter type-id='type-id-26'/>
          <!-- parameter of type 'vtkDataArray*' -->
          <parameter type-id='type-id-26'/>
          <!-- parameter of type 'vtkIdType*' -->
          <parameter type-id='type-id-27'/>
          <!-- parameter of type 'vtkIdType*' -->
          <parameter type-id='type-id-27'/>
          <!-- int -->
          <return type-id='type-id-19'/>
        </function-decl>
      </member-function>
      <member-function access='private'>
        <!-- int vtkCommunicator::AllGather(vtkDataArray*, vtkDataArray*) -->
        <function-decl name='AllGather' mangled-name='_ZN15vtkCommunicator9AllGatherEP12vtkDataArrayS1_' filepath='/tmp/legendre/spack-stage/spack-stage-R_crTC/VTK-6.1.0/Parallel/Core/vtkCommunicator.cxx' line='1180' column='1' visibility='default' binding='global' size-in-bits='64' elf-symbol-id='_ZN15vtkCommunicator9AllGatherEP12vtkDataArrayS1_' hash='388da3fa973fde78'>
          <!-- implicit parameter of type 'vtkCommunicator*' -->
          <parameter type-id='type-id-25' is-artificial='yes'/>
          <!-- parameter of type 'vtkDataArray*' -->
          <parameter type-id='type-id-26'/>
          <!-- parameter of type 'vtkDataArray*' -->
          <parameter type-id='type-id-26'/>
          <!-- int -->
          <return type-id='type-id-19'/>
        </function-decl>
      </member-function>
      <member-function access='private'>
        <!-- int vtkCommunicator::Scatter(vtkDataArray*, vtkDataArray*, int) -->
        <function-decl name='Scatter' mangled-name='_ZN15vtkCommunicator7ScatterEP12vtkDataArrayS1_i' filepath='/tmp/legendre/spack-stage/spack-stage-R_crTC/VTK-6.1.0/Parallel/Core/vtkCommunicator.cxx' line='1100' column='1' visibility='default' binding='global' size-in-bits='64' elf-symbol-id='_ZN15vtkCommunicator7ScatterEP12vtkDataArrayS1_i' hash='d628501fd2223339'>
          <!-- implicit parameter of type 'vtkCommunicator*' -->
          <parameter type-id='type-id-25' is-artificial='yes'/>
          <!-- parameter of type 'vtkDataArray*' -->
          <parameter type-id='type-id-26'/>
          <!-- parameter of type 'vtkDataArray*' -->
          <parameter type-id='type-id-26'/>
          <!-- parameter of type 'int' -->
          <parameter type-id='type-id-19'/>
          <!-- int -->
          <return type-id='type-id-19'/>
        </function-decl>
      </member-function>
      <member-function access='private'>
        <!-- int vtkCommunicator::GatherV(vtkDataArray*, vtkDataArray*, vtkIdType*, vtkIdType*, int) -->
        <function-decl name='GatherV' mangled-name='_ZN15vtkCommunicator7GatherVEP12vtkDataArrayS1_PxS2_i' filepath='/tmp/legendre/spack-stage/spack-stage-R_crTC/VTK-6.1.0/Parallel/Core/vtkCommunicator.cxx' line='1009' column='1' visibility='default' binding='global' size-in-bits='64' elf-symbol-id='_ZN15vtkCommunicator7GatherVEP12vtkDataArrayS1_PxS2_i' hash='1c5aeaa7715d24b2'>
          <!-- implicit parameter of type 'vtkCommunicator*' -->
          <parameter type-id='type-id-25' is-artificial='yes'/>
          <!-- parameter of type 'vtkDataArray*' -->
          <parameter type-id='type-id-26'/>
          <!-- parameter of type 'vtkDataArray*' -->
          <parameter type-id='type-id-26'/>
          <!-- parameter of type 'vtkIdType*' -->
          <parameter type-id='type-id-27'/>
          <!-- parameter of type 'vtkIdType*' -->
          <parameter type-id='type-id-27'/>
          <!-- parameter of type 'int' -->
          <parameter type-id='type-id-19'/>
          <!-- int -->
          <return type-id='type-id-19'/>
        </function-decl>
      </member-function>
      <member-function access='private'>
        <!-- int vtkCommunicator::Gather(vtkDataArray*, vtkDataArray*, int) -->
        <function-decl name='Gather' mangled-name='_ZN15vtkCommunicator6GatherEP12vtkDataArrayS1_i' filepath='/tmp/legendre/spack-stage/spack-stage-R_crTC/VTK-6.1.0/Parallel/Core/vtkCommunicator.cxx' line='944' column='1' visibility='default' binding='global' size-in-bits='64' elf-symbol-id='_ZN15vtkCommunicator6GatherEP12vtkDataArrayS1_i' hash='d628501fd2223339'>
          <!-- implicit parameter of type 'vtkCommunicator*' -->
          <parameter type-id='type-id-25' is-artificial='yes'/>
          <!-- parameter of type 'vtkDataArray*' -->
          <parameter type-id='type-id-26'/>
          <!-- parameter of type 'vtkDataArray*' -->
          <parameter type-id='type-id-26'/>
          <!-- parameter of type 'int' -->
          <parameter type-id='type-id-19'/>
          <!-- int -->
          <return type-id='type-id-19'/>
        </function-decl>
      </member-function>
      <member-function access='private'>
        <!-- int vtkCommunicator::Send(vtkDataArray*, int, int) -->
        <function-decl name='Send' mangled-name='_ZN15vtkCommunicator4SendEP12vtkDataArrayii' filepath='/tmp/legendre/spack-stage/spack-stage-R_crTC/VTK-6.1.0/Parallel/Core/vtkCommunicator.cxx' line='229' column='1' visibility='default' binding='global' size-in-bits='64' elf-symbol-id='_ZN15vtkCommunicator4SendEP12vtkDataArrayii' hash='a9fd86e6e981c3b5'>
          <!-- implicit parameter of type 'vtkCommunicator*' -->
          <parameter type-id='type-id-25' is-artificial='yes'/>
          <!-- parameter of type 'vtkDataArray*' -->
          <parameter type-id='type-id-26'/>
          <!-- parameter of type 'int' -->
          <parameter type-id='type-id-19'/>
          <!-- parameter of type 'int' -->
          <parameter type-id='type-id-19'/>
          <!-- int -->
          <return type-id='type-id-19'/>
        </function-decl>
      </member-function>
      <member-function access='private'>
        <!-- int vtkCommunicator::Broadcast(vtkDataArray*, int) -->
        <function-decl name='Broadcast' mangled-name='_ZN15vtkCommunicator9BroadcastEP12vtkDataArrayi' filepath='/tmp/legendre/spack-stage/spack-stage-R_crTC/VTK-6.1.0/Parallel/Core/vtkCommunicator.cxx' line='842' column='1' visibility='default' binding='global' size-in-bits='64' elf-symbol-id='_ZN15vtkCommunicator9BroadcastEP12vtkDataArrayi' hash='d628501fd2223339'>
          <!-- implicit parameter of type 'vtkCommunicator*' -->
          <parameter type-id='type-id-25' is-artificial='yes'/>
          <!-- parameter of type 'vtkDataArray*' -->
          <parameter type-id='type-id-26'/>
          <!-- parameter of type 'int' -->
          <parameter type-id='type-id-19'/>
          <!-- int -->
          <return type-id='type-id-19'/>
        </function-decl>
      </member-function>
      <member-function access='private' static='yes'>
        <!-- int vtkCommunicator::UnMarshalDataObject(vtkDataObject*) -->
        <function-decl name='UnMarshalDataObject' mangled-name='_ZN15vtkCommunicator19UnMarshalDataObjectEP12vtkCharArrayP13vtkDataObject' filepath='/tmp/legendre/spack-stage/spack-stage-R_crTC/VTK-6.1.0/Parallel/Core/vtkCommunicator.cxx' line='589' column='1' visibility='default' binding='global' size-in-bits='64' elf-symbol-id='_ZN15vtkCommunicator19UnMarshalDataObjectEP12vtkCharArrayP13vtkDataObject' hash='388da3fa973fde78'>
          <!-- parameter of type 'vtkCharArray*' -->
          <parameter type-id='type-id-28'/>
          <!-- parameter of type 'vtkDataObject*' -->
          <parameter type-id='type-id-29'/>
          <!-- int -->
          <return type-id='type-id-19'/>
        </function-decl>
      </member-function>
      <member-function access='private' static='yes'>
        <!-- int vtkCommunicator::MarshalDataObject(vtkCharArray*) -->
        <function-decl name='MarshalDataObject' mangled-name='_ZN15vtkCommunicator17MarshalDataObjectEP13vtkDataObjectP12vtkCharArray' filepath='/tmp/legendre/spack-stage/spack-stage-R_crTC/VTK-6.1.0/Parallel/Core/vtkCommunicator.cxx' line='511' column='1' visibility='default' binding='global' size-in-bits='64' elf-symbol-id='_ZN15vtkCommunicator17MarshalDataObjectEP13vtkDataObjectP12vtkCharArray' hash='388da3fa973fde78'>
          <!-- parameter of type 'vtkDataObject*' -->
          <parameter type-id='type-id-29'/>
          <!-- parameter of type 'vtkCharArray*' -->
          <parameter type-id='type-id-28'/>
          <!-- int -->
          <return type-id='type-id-19'/>
        </function-decl>
      </member-function>
      <member-function access='protected' constructor='yes'>
        <!-- vtkCommunicator::vtkCommunicator() -->
        <function-decl name='vtkCommunicator' mangled-name='_ZN15vtkCommunicatorC2Ev' filepath='/tmp/legendre/spack-stage/spack-stage-R_crTC/VTK-6.1.0/Parallel/Core/vtkCommunicator.cxx' line='103' column='1' visibility='default' binding='global' size-in-bits='64' elf-symbol-id='_ZN15vtkCommunicatorC2Ev' hash='7f32ffea222edbe7'>
          <!-- implicit parameter of type 'vtkCommunicator*' -->
          <parameter type-id='type-id-25' is-artificial='yes'/>
          <!-- void -->
          <return type-id='type-id-14'/>
        </function-decl>
      </member-function>
      <member-function access='private'>
        <!-- int vtkCommunicator::Receive(vtkMultiProcessStream&, int, int) -->
        <function-decl name='Receive' mangled-name='_ZN15vtkCommunicator7ReceiveER21vtkMultiProcessStreamii' filepath='/tmp/legendre/spack-stage/spack-stage-R_crTC/VTK-6.1.0/Parallel/Core/vtkCommunicator.cxx' line='1526' column='1' visibility='default' binding='global' size-in-bits='64' elf-symbol-id='_ZN15vtkCommunicator7ReceiveER21vtkMultiProcessStreamii' hash='dddc43e22f387aaa'>
          <!-- implicit parameter of type 'vtkCommunicator*' -->
          <parameter type-id='type-id-25' is-artificial='yes'/>
          <!-- parameter of type 'vtkMultiProcessStream&' -->
          <parameter type-id='type-id-30'/>
          <!-- parameter of type 'int' -->
          <parameter type-id='type-id-19'/>
          <!-- parameter of type 'int' -->
          <parameter type-id='type-id-19'/>
          <!-- int -->
          <return type-id='type-id-19'/>
        </function-decl>
      </member-function>
      <member-function access='private'>
        <!-- int vtkCommunicator::Broadcast(vtkDataObject*, int) -->
        <function-decl name='Broadcast' mangled-name='_ZN15vtkCommunicator9BroadcastEP13vtkDataObjecti' filepath='/tmp/legendre/spack-stage/spack-stage-R_crTC/VTK-6.1.0/Parallel/Core/vtkCommunicator.cxx' line='814' column='1' visibility='default' binding='global' size-in-bits='64' elf-symbol-id='_ZN15vtkCommunicator9BroadcastEP13vtkDataObjecti' hash='d628501fd2223339'>
          <!-- implicit parameter of type 'vtkCommunicator*' -->
          <parameter type-id='type-id-25' is-artificial='yes'/>
          <!-- parameter of type 'vtkDataObject*' -->
          <parameter type-id='type-id-29'/>
          <!-- parameter of type 'int' -->
          <parameter type-id='type-id-19'/>
          <!-- int -->
          <return type-id='type-id-19'/>
        </function-decl>
      </member-function>
      <member-function access='protected'>
        <!-- int vtkCommunicator::SendElementalDataObject(vtkDataObject*, int, int) -->
        <function-decl name='SendElementalDataObject' mangled-name='_ZN15vtkCommunicator23SendElementalDataObjectEP13vtkDataObjectii' filepath='/tmp/legendre/spack-stage/spack-stage-R_crTC/VTK-6.1.0/Parallel/Core/vtkCommunicator.cxx' line='216' column='1' visibility='default' binding='global' size-in-bits='64' elf-symbol-id='_ZN15vtkCommunicator23SendElementalDataObjectEP13vtkDataObjectii' hash='a9fd86e6e981c3b5'>
          <!-- implicit parameter of type 'vtkCommunicator*' -->
          <parameter type-id='type-id-25' is-artificial='yes'/>
          <!-- parameter of type 'vtkDataObject*' -->
          <parameter type-id='type-id-29'/>
          <!-- parameter of type 'int' -->
          <parameter type-id='type-id-19'/>
          <!-- parameter of type 'int' -->
          <parameter type-id='type-id-19'/>
          <!-- int -->
          <return type-id='type-id-19'/>
        </function-decl>
      </member-function>
      <member-function access='private'>
        <!-- int vtkCommunicator::Send(vtkDataObject*, int, int) -->
        <function-decl name='Send' mangled-name='_ZN15vtkCommunicator4SendEP13vtkDataObjectii' filepath='/tmp/legendre/spack-stage/spack-stage-R_crTC/VTK-6.1.0/Parallel/Core/vtkCommunicator.cxx' line='157' column='1' visibility='default' binding='global' size-in-bits='64' elf-symbol-id='_ZN15vtkCommunicator4SendEP13vtkDataObjectii' hash='a9fd86e6e981c3b5'>
          <!-- implicit parameter of type 'vtkCommunicator*' -->
          <parameter type-id='type-id-25' is-artificial='yes'/>
          <!-- parameter of type 'vtkDataObject*' -->
          <parameter type-id='type-id-29'/>
          <!-- parameter of type 'int' -->
          <parameter type-id='type-id-19'/>
          <!-- parameter of type 'int' -->
          <parameter type-id='type-id-19'/>
          <!-- int -->
          <return type-id='type-id-19'/>
        </function-decl>
      </member-function>
      <member-function access='private'>
        <!-- int vtkCommunicator::Receive(vtkDataArray*, int, int) -->
        <function-decl name='Receive' mangled-name='_ZN15vtkCommunicator7ReceiveEP12vtkDataArrayii' filepath='/tmp/legendre/spack-stage/spack-stage-R_crTC/VTK-6.1.0/Parallel/Core/vtkCommunicator.cxx' line='423' column='1' visibility='default' binding='global' size-in-bits='64' elf-symbol-id='_ZN15vtkCommunicator7ReceiveEP12vtkDataArrayii' hash='a9fd86e6e981c3b5'>
          <!-- implicit parameter of type 'vtkCommunicator*' -->
          <parameter type-id='type-id-25' is-artificial='yes'/>
          <!-- parameter of type 'vtkDataArray*' -->
          <parameter type-id='type-id-26'/>
          <!-- parameter of type 'int' -->
          <parameter type-id='type-id-19'/>
          <!-- parameter of type 'int' -->
          <parameter type-id='type-id-19'/>
          <!-- int -->
          <return type-id='type-id-19'/>
        </function-decl>
      </member-function>
      <member-function access='protected'>
        <!-- int vtkCommunicator::ReceiveElementalDataObject(vtkDataObject*, int, int) -->
        <function-decl name='ReceiveElementalDataObject' mangled-name='_ZN15vtkCommunicator26ReceiveElementalDataObjectEP13vtkDataObjectii' filepath='/tmp/legendre/spack-stage/spack-stage-R_crTC/VTK-6.1.0/Parallel/Core/vtkCommunicator.cxx' line='410' column='1' visibility='default' binding='global' size-in-bits='64' elf-symbol-id='_ZN15vtkCommunicator26ReceiveElementalDataObjectEP13vtkDataObjectii' hash='a9fd86e6e981c3b5'>
          <!-- implicit parameter of type 'vtkCommunicator*' -->
          <parameter type-id='type-id-25' is-artificial='yes'/>
          <!-- parameter of type 'vtkDataObject*' -->
          <parameter type-id='type-id-29'/>
          <!-- parameter of type 'int' -->
          <parameter type-id='type-id-19'/>
          <!-- parameter of type 'int' -->
          <parameter type-id='type-id-19'/>
          <!-- int -->
          <return type-id='type-id-19'/>
        </function-decl>
      </member-function>
      <member-function access='protected'>
        <!-- int vtkCommunicator::ReceiveDataObject(vtkDataObject*, int, int, int) -->
        <function-decl name='ReceiveDataObject' mangled-name='_ZN15vtkCommunicator17ReceiveDataObjectEP13vtkDataObjectiii' filepath='/tmp/legendre/spack-stage/spack-stage-R_crTC/VTK-6.1.0/Parallel/Core/vtkCommunicator.cxx' line='342' column='1' visibility='default' binding='global' size-in-bits='64' elf-symbol-id='_ZN15vtkCommunicator17ReceiveDataObjectEP13vtkDataObjectiii' hash='a3e40634f2a60824'>
          <!-- implicit parameter of type 'vtkCommunicator*' -->
          <parameter type-id='type-id-25' is-artificial='yes'/>
          <!-- parameter of type 'vtkDataObject*' -->
          <parameter type-id='type-id-29'/>
          <!-- parameter of type 'int' -->
          <parameter type-id='type-id-19'/>
          <!-- parameter of type 'int' -->
          <parameter type-id='type-id-19'/>
          <!-- parameter of type 'int' -->
          <parameter type-id='type-id-19'/>
          <!-- int -->
          <return type-id='type-id-19'/>
        </function-decl>
      </member-function>
      <member-function access='private'>
        <!-- int vtkCommunicator::Receive(vtkDataObject*, int, int) -->
        <function-decl name='Receive' mangled-name='_ZN15vtkCommunicator7ReceiveEP13vtkDataObjectii' filepath='/tmp/legendre/spack-stage/spack-stage-R_crTC/VTK-6.1.0/Parallel/Core/vtkCommunicator.cxx' line='293' column='1' visibility='default' binding='global' size-in-bits='64' elf-symbol-id='_ZN15vtkCommunicator7ReceiveEP13vtkDataObjectii' hash='a9fd86e6e981c3b5'>
          <!-- implicit parameter of type 'vtkCommunicator*' -->
          <parameter type-id='type-id-25' is-artificial='yes'/>
          <!-- parameter of type 'vtkDataObject*' -->
          <parameter type-id='type-id-29'/>
          <!-- parameter of type 'int' -->
          <parameter type-id='type-id-19'/>
          <!-- parameter of type 'int' -->
          <parameter type-id='type-id-19'/>
          <!-- int -->
          <return type-id='type-id-19'/>
        </function-decl>
      </member-function>
      <member-function access='private'>
        <!-- vtkDataObject* vtkCommunicator::ReceiveDataObject(int, int) -->
        <function-decl name='ReceiveDataObject' mangled-name='_ZN15vtkCommunicator17ReceiveDataObjectEii' filepath='/tmp/legendre/spack-stage/spack-stage-R_crTC/VTK-6.1.0/Parallel/Core/vtkCommunicator.cxx' line='301' column='1' visibility='default' binding='global' size-in-bits='64' elf-symbol-id='_ZN15vtkCommunicator17ReceiveDataObjectEii' hash='d628501fd2223339'>
          <!-- implicit parameter of type 'vtkCommunicator*' -->
          <parameter type-id='type-id-25' is-artificial='yes'/>
          <!-- parameter of type 'int' -->
          <parameter type-id='type-id-19'/>
          <!-- parameter of type 'int' -->
          <parameter type-id='type-id-19'/>
          <!-- vtkDataObject* -->
          <return type-id='type-id-29'/>
        </function-decl>
      </member-function>
      <member-function access='private'>
        <!-- int vtkCommunicator::AllGatherV(vtkDataArray*, vtkDataArray*) -->
        <function-decl name='AllGatherV' mangled-name='_ZN15vtkCommunicator10AllGatherVEP12vtkDataArrayS1_' filepath='/tmp/legendre/spack-stage/spack-stage-R_crTC/VTK-6.1.0/Parallel/Core/vtkCommunicator.cxx' line='1239' column='1' visibility='default' binding='global' size-in-bits='64' elf-symbol-id='_ZN15vtkCommunicator10AllGatherVEP12vtkDataArrayS1_' hash='388da3fa973fde78'>
          <!-- implicit parameter of type 'vtkCommunicator*' -->
          <parameter type-id='type-id-25' is-artificial='yes'/>
          <!-- parameter of type 'vtkDataArray*' -->
          <parameter type-id='type-id-26'/>
          <!-- parameter of type 'vtkDataArray*' -->
          <parameter type-id='type-id-26'/>
          <!-- int -->
          <return type-id='type-id-19'/>
        </function-decl>
      </member-function>
      <member-function access='private'>
        <!-- int vtkCommunicator::GatherV(vtkDataArray*, vtkDataArray*, int) -->
        <function-decl name='GatherV' mangled-name='_ZN15vtkCommunicator7GatherVEP12vtkDataArrayS1_i' filepath='/tmp/legendre/spack-stage/spack-stage-R_crTC/VTK-6.1.0/Parallel/Core/vtkCommunicator.cxx' line='1029' column='1' visibility='default' binding='global' size-in-bits='64' elf-symbol-id='_ZN15vtkCommunicator7GatherVEP12vtkDataArrayS1_i' hash='d628501fd2223339'>
          <!-- implicit parameter of type 'vtkCommunicator*' -->
          <parameter type-id='type-id-25' is-artificial='yes'/>
          <!-- parameter of type 'vtkDataArray*' -->
          <parameter type-id='type-id-26'/>
          <!-- parameter of type 'vtkDataArray*' -->
          <parameter type-id='type-id-26'/>
          <!-- parameter of type 'int' -->
          <parameter type-id='type-id-19'/>
          <!-- int -->
          <return type-id='type-id-19'/>
        </function-decl>
      </member-function>
      <member-function access='private'>
        <!-- int vtkCommunicator::Send(const vtkMultiProcessStream&, int, int) -->
        <function-decl name='Send' mangled-name='_ZN15vtkCommunicator4SendERK21vtkMultiProcessStreamii' filepath='/tmp/legendre/spack-stage/spack-stage-R_crTC/VTK-6.1.0/Parallel/Core/vtkCommunicator.cxx' line='1509' column='1' visibility='default' binding='global' size-in-bits='64' elf-symbol-id='_ZN15vtkCommunicator4SendERK21vtkMultiProcessStreamii' hash='00e30b436742064d'>
          <!-- implicit parameter of type 'vtkCommunicator*' -->
          <parameter type-id='type-id-25' is-artificial='yes'/>
          <!-- parameter of type 'const vtkMultiProcessStream&' -->
          <parameter type-id='type-id-31'/>
          <!-- parameter of type 'int' -->
          <parameter type-id='type-id-19'/>
          <!-- parameter of type 'int' -->
          <parameter type-id='type-id-19'/>
          <!-- int -->
          <return type-id='type-id-19'/>
        </function-decl>
      </member-function>
      <member-function access='private'>
        <!-- int vtkCommunicator::Broadcast(vtkMultiProcessStream&, int) -->
        <function-decl name='Broadcast' mangled-name='_ZN15vtkCommunicator9BroadcastER21vtkMultiProcessStreami' filepath='/tmp/legendre/spack-stage/spack-stage-R_crTC/VTK-6.1.0/Parallel/Core/vtkCommunicator.cxx' line='1469' column='1' visibility='default' binding='global' size-in-bits='64' elf-symbol-id='_ZN15vtkCommunicator9BroadcastER21vtkMultiProcessStreami' hash='680de64e68d79ee1'>
          <!-- implicit parameter of type 'vtkCommunicator*' -->
          <parameter type-id='type-id-25' is-artificial='yes'/>
          <!-- parameter of type 'vtkMultiProcessStream&' -->
          <parameter type-id='type-id-30'/>
          <!-- parameter of type 'int' -->
          <parameter type-id='type-id-19'/>
          <!-- int -->
          <return type-id='type-id-19'/>
        </function-decl>
      </member-function>
      <member-function access='protected' destructor='yes' vtable-offset='-1'>
        <!-- vtkCommunicator::~vtkCommunicator(int) -->
        <function-decl name='~vtkCommunicator' filepath='/tmp/legendre/spack-stage/spack-stage-R_crTC/VTK-6.1.0/Parallel/Core/vtkCommunicator.cxx' line='112' column='1' visibility='default' binding='global' size-in-bits='64' hash='388da3fa973fde78'>
          <!-- implicit parameter of type 'vtkCommunicator*' -->
          <parameter type-id='type-id-25' is-artificial='yes'/>
          <!-- parameter of type 'int' -->
          <parameter type-id='type-id-19'/>
          <!-- void -->
          <return type-id='type-id-14'/>
        </function-decl>
      </member-function>
      <member-function access='protected' destructor='yes' vtable-offset='-1'>
        <!-- vtkCommunicator::~vtkCommunicator() -->
        <function-decl name='~vtkCommunicator' mangled-name='_ZN15vtkCommunicatorD0Ev' filepath='/tmp/legendre/spack-stage/spack-stage-R_crTC/VTK-6.1.0/Parallel/Core/vtkCommunicator.cxx' line='112' column='1' visibility='default' binding='global' size-in-bits='64' elf-symbol-id='_ZN15vtkCommunicatorD0Ev' hash='7f32ffea222edbe7'>
          <!-- implicit parameter of type 'vtkCommunicator*' -->
          <parameter type-id='type-id-25' is-artificial='yes'/>
          <!-- void -->
          <return type-id='type-id-14'/>
        </function-decl>
      </member-function>
      <member-function access='protected' destructor='yes' vtable-offset='-1'>
        <!-- vtkCommunicator::~vtkCommunicator() -->
        <function-decl name='~vtkCommunicator' mangled-name='_ZN15vtkCommunicatorD1Ev' filepath='/tmp/legendre/spack-stage/spack-stage-R_crTC/VTK-6.1.0/Parallel/Core/vtkCommunicator.cxx' line='112' column='1' visibility='default' binding='global' size-in-bits='64' elf-symbol-id='_ZN15vtkCommunicatorD1Ev' hash='7f32ffea222edbe7'>
          <!-- implicit parameter of type 'vtkCommunicator*' -->
          <parameter type-id='type-id-25' is-artificial='yes'/>
          <!-- void -->
          <return type-id='type-id-14'/>
        </function-decl>
      </member-function>
      <member-function access='private' const='yes' vtable-offset='0'>
        <!-- const char* vtkCommunicator::GetClassNameInternal() -->
        <function-decl name='GetClassNameInternal' mangled-name='_ZNK15vtkCommunicator20GetClassNameInternalEv' filepath='/tmp/legendre/spack-stage/spack-stage-R_crTC/VTK-6.1.0/Parallel/Core/vtkCommunicator.h' line='49' column='1' visibility='default' binding='global' size-in-bits='64' hash='53885bde0aa65efe'>
          <!-- implicit parameter of type 'const vtkCommunicator*' -->
          <parameter type-id='type-id-32' is-artificial='yes'/>
          <!-- const char* -->
          <return type-id='type-id-33'/>
        </function-decl>
      </member-function>
      <member-function access='private' vtable-offset='1'>
        <!-- int vtkCommunicator::IsA(const char*) -->
        <function-decl name='IsA' mangled-name='_ZN15vtkCommunicator3IsAEPKc' filepath='/tmp/legendre/spack-stage/spack-stage-R_crTC/VTK-6.1.0/Parallel/Core/vtkCommunicator.h' line='49' column='1' visibility='default' binding='global' size-in-bits='64' hash='e9ea91a7eab8302c'>
          <!-- implicit parameter of type 'vtkCommunicator*' -->
          <parameter type-id='type-id-25' is-artificial='yes'/>
          <!-- parameter of type 'const char*' -->
          <parameter type-id='type-id-33'/>
          <!-- int -->
          <return type-id='type-id-19'/>
        </function-decl>
      </member-function>
      <member-function access='private' vtable-offset='4'>
        <!-- void vtkCommunicator::PrintSelf(std::ostream&, vtkIndent) -->
        <function-decl name='PrintSelf' mangled-name='_ZN15vtkCommunicator9PrintSelfERSo9vtkIndent' filepath='/tmp/legendre/spack-stage/spack-stage-R_crTC/VTK-6.1.0/Parallel/Core/vtkCommunicator.cxx' line='124' column='1' visibility='default' binding='global' size-in-bits='64' elf-symbol-id='_ZN15vtkCommunicator9PrintSelfERSo9vtkIndent' hash='7f32ffea222edbe7'>
          <!-- implicit parameter of type 'vtkCommunicator*' -->
          <parameter type-id='type-id-25' is-artificial='yes'/>
          <!-- parameter of type 'std::ostream&' -->
          <parameter type-id='type-id-34'/>
          <!-- parameter of type 'class vtkIndent' -->
          <parameter type-id='type-id-35'/>
          <!-- void -->
          <return type-id='type-id-14'/>
        </function-decl>
      </member-function>
      <member-function access='protected' const='yes' vtable-offset='15'>
        <!-- vtkObjectBase* vtkCommunicator::NewInstanceInternal() -->
        <function-decl name='NewInstanceInternal' mangled-name='_ZNK15vtkCommunicator19NewInstanceInternalEv' filepath='/tmp/legendre/spack-stage/spack-stage-R_crTC/VTK-6.1.0/Parallel/Core/vtkCommunicator.h' line='49' column='1' visibility='default' binding='global' size-in-bits='64' hash='7f32ffea222edbe7'>
          <!-- implicit parameter of type 'const vtkCommunicator*' -->
          <parameter type-id='type-id-32' is-artificial='yes'/>
          <!-- vtkObjectBase* -->
          <return type-id='type-id-36'/>
        </function-decl>
      </member-function>
      <member-function access='private' vtable-offset='20'>
        <!-- void vtkCommunicator::SetNumberOfProcesses(int) -->
        <function-decl name='SetNumberOfProcesses' mangled-name='_ZN15vtkCommunicator20SetNumberOfProcessesEi' filepath='/tmp/legendre/spack-stage/spack-stage-R_crTC/VTK-6.1.0/Parallel/Core/vtkCommunicator.cxx' line='136' column='1' visibility='default' binding='global' size-in-bits='64' elf-symbol-id='_ZN15vtkCommunicator20SetNumberOfProcessesEi' hash='388da3fa973fde78'>
          <!-- implicit parameter of type 'vtkCommunicator*' -->
          <parameter type-id='type-id-25' is-artificial='yes'/>
          <!-- parameter of type 'int' -->
          <parameter type-id='type-id-19'/>
          <!-- void -->
          <return type-id='type-id-14'/>
        </function-decl>
      </member-function>
      <member-function access='private' vtable-offset='21'>
        <!-- int vtkCommunicator::GetNumberOfProcesses() -->
        <function-decl name='GetNumberOfProcesses' mangled-name='_ZN15vtkCommunicator20GetNumberOfProcessesEv' filepath='/tmp/legendre/spack-stage/spack-stage-R_crTC/VTK-6.1.0/Parallel/Core/vtkCommunicator.h' line='57' column='1' visibility='default' binding='global' size-in-bits='64' hash='388da3fa973fde78'>
          <!-- implicit parameter of type 'vtkCommunicator*' -->
          <parameter type-id='type-id-25' is-artificial='yes'/>
          <!-- int -->
          <return type-id='type-id-19'/>
        </function-decl>
      </member-function>
      <member-function access='private' vtable-offset='22'>
        <!-- int vtkCommunicator::GetLocalProcessId() -->
        <function-decl name='GetLocalProcessId' mangled-name='_ZN15vtkCommunicator17GetLocalProcessIdEv' filepath='/tmp/legendre/spack-stage/spack-stage-R_crTC/VTK-6.1.0/Parallel/Core/vtkCommunicator.h' line='61' column='1' visibility='default' binding='global' size-in-bits='64' hash='388da3fa973fde78'>
          <!-- implicit parameter of type 'vtkCommunicator*' -->
          <parameter type-id='type-id-25' is-artificial='yes'/>
          <!-- int -->
          <return type-id='type-id-19'/>
        </function-decl>
      </member-function>
      <member-function access='private' vtable-offset='23'>
        <!-- int vtkCommunicator::SendVoidArray(void*, vtkIdType, int, int, int) -->
        <function-decl name='SendVoidArray' mangled-name='_ZN15vtkCommunicator13SendVoidArrayEPKvxiii' filepath='/tmp/legendre/spack-stage/spack-stage-R_crTC/VTK-6.1.0/Parallel/Core/vtkCommunicator.h' line='135' column='1' visibility='default' binding='global' size-in-bits='64' hash='dd087474275e2caa'>
          <!-- implicit parameter of type 'vtkCommunicator*' -->
          <parameter type-id='type-id-25' is-artificial='yes'/>
          <!-- parameter of type 'void*' -->
          <parameter type-id='type-id-20'/>
          <!-- parameter of type 'typedef vtkIdType' -->
          <parameter type-id='type-id-21'/>
          <!-- parameter of type 'int' -->
          <parameter type-id='type-id-19'/>
          <!-- parameter of type 'int' -->
          <parameter type-id='type-id-19'/>
          <!-- parameter of type 'int' -->
          <parameter type-id='type-id-19'/>
          <!-- int -->
          <return type-id='type-id-19'/>
        </function-decl>
      </member-function>
      <member-function access='private' vtable-offset='24'>
        <!-- int vtkCommunicator::ReceiveVoidArray(void*, vtkIdType, int, int, int) -->
        <function-decl name='ReceiveVoidArray' mangled-name='_ZN15vtkCommunicator16ReceiveVoidArrayEPvxiii' filepath='/tmp/legendre/spack-stage/spack-stage-R_crTC/VTK-6.1.0/Parallel/Core/vtkCommunicator.h' line='197' column='1' visibility='default' binding='global' size-in-bits='64' hash='dd087474275e2caa'>
          <!-- implicit parameter of type 'vtkCommunicator*' -->
          <parameter type-id='type-id-25' is-artificial='yes'/>
          <!-- parameter of type 'void*' -->
          <parameter type-id='type-id-20'/>
          <!-- parameter of type 'typedef vtkIdType' -->
          <parameter type-id='type-id-21'/>
          <!-- parameter of type 'int' -->
          <parameter type-id='type-id-19'/>
          <!-- parameter of type 'int' -->
          <parameter type-id='type-id-19'/>
          <!-- parameter of type 'int' -->
          <parameter type-id='type-id-19'/>
          <!-- int -->
          <return type-id='type-id-19'/>
        </function-decl>
      </member-function>
      <member-function access='private' vtable-offset='25'>
        <!-- vtkIdType vtkCommunicator::GetCount() -->
        <function-decl name='GetCount' mangled-name='_ZN15vtkCommunicator8GetCountEv' filepath='/tmp/legendre/spack-stage/spack-stage-R_crTC/VTK-6.1.0/Parallel/Core/vtkCommunicator.h' line='241' column='1' visibility='default' binding='global' size-in-bits='64' hash='ae3f07f228a16377'>
          <!-- implicit parameter of type 'vtkCommunicator*' -->
          <parameter type-id='type-id-25' is-artificial='yes'/>
          <!-- typedef vtkIdType -->
          <return type-id='type-id-21'/>
        </function-decl>
      </member-function>
      <member-function access='private' vtable-offset='26'>
        <!-- void vtkCommunicator::Barrier() -->
        <function-decl name='Barrier' mangled-name='_ZN15vtkCommunicator7BarrierEv' filepath='/tmp/legendre/spack-stage/spack-stage-R_crTC/VTK-6.1.0/Parallel/Core/vtkCommunicator.cxx' line='773' column='1' visibility='default' binding='global' size-in-bits='64' elf-symbol-id='_ZN15vtkCommunicator7BarrierEv' hash='7f32ffea222edbe7'>
          <!-- implicit parameter of type 'vtkCommunicator*' -->
          <parameter type-id='type-id-25' is-artificial='yes'/>
          <!-- void -->
          <return type-id='type-id-14'/>
        </function-decl>
      </member-function>
      <member-function access='private' vtable-offset='27'>
        <!-- int vtkCommunicator::BroadcastVoidArray(void*, vtkIdType, int, int) -->
        <function-decl name='BroadcastVoidArray' mangled-name='_ZN15vtkCommunicator18BroadcastVoidArrayEPvxii' filepath='/tmp/legendre/spack-stage/spack-stage-R_crTC/VTK-6.1.0/Parallel/Core/vtkCommunicator.cxx' line='791' column='1' visibility='default' binding='global' size-in-bits='64' elf-symbol-id='_ZN15vtkCommunicator18BroadcastVoidArrayEPvxii' hash='6c2c4044e69a83f9'>
          <!-- implicit parameter of type 'vtkCommunicator*' -->
          <parameter type-id='type-id-25' is-artificial='yes'/>
          <!-- parameter of type 'void*' -->
          <parameter type-id='type-id-20'/>
          <!-- parameter of type 'typedef vtkIdType' -->
          <parameter type-id='type-id-21'/>
          <!-- parameter of type 'int' -->
          <parameter type-id='type-id-19'/>
          <!-- parameter of type 'int' -->
          <parameter type-id='type-id-19'/>
          <!-- int -->
          <return type-id='type-id-19'/>
        </function-decl>
      </member-function>
      <member-function access='private' vtable-offset='28'>
        <!-- int vtkCommunicator::GatherVoidArray(void*, void*, vtkIdType, int, int) -->
        <function-decl name='GatherVoidArray' mangled-name='_ZN15vtkCommunicator15GatherVoidArrayEPKvPvxii' filepath='/tmp/legendre/spack-stage/spack-stage-R_crTC/VTK-6.1.0/Parallel/Core/vtkCommunicator.cxx' line='906' column='1' visibility='default' binding='global' size-in-bits='64' elf-symbol-id='_ZN15vtkCommunicator15GatherVoidArrayEPKvPvxii' hash='6c2c4044e69a83f9'>
          <!-- implicit parameter of type 'vtkCommunicator*' -->
          <parameter type-id='type-id-25' is-artificial='yes'/>
          <!-- parameter of type 'void*' -->
          <parameter type-id='type-id-20'/>
          <!-- parameter of type 'void*' -->
          <parameter type-id='type-id-20'/>
          <!-- parameter of type 'typedef vtkIdType' -->
          <parameter type-id='type-id-21'/>
          <!-- parameter of type 'int' -->
          <parameter type-id='type-id-19'/>
          <!-- parameter of type 'int' -->
          <parameter type-id='type-id-19'/>
          <!-- int -->
          <return type-id='type-id-19'/>
        </function-decl>
      </member-function>
      <member-function access='private' vtable-offset='29'>
        <!-- int vtkCommunicator::GatherVVoidArray(void*, void*, vtkIdType, vtkIdType*, vtkIdType*, int, int) -->
        <function-decl name='GatherVVoidArray' mangled-name='_ZN15vtkCommunicator16GatherVVoidArrayEPKvPvxPxS3_ii' filepath='/tmp/legendre/spack-stage/spack-stage-R_crTC/VTK-6.1.0/Parallel/Core/vtkCommunicator.cxx' line='969' column='1' visibility='default' binding='global' size-in-bits='64' elf-symbol-id='_ZN15vtkCommunicator16GatherVVoidArrayEPKvPvxPxS3_ii' hash='395c07f419729096'>
          <!-- implicit parameter of type 'vtkCommunicator*' -->
          <parameter type-id='type-id-25' is-artificial='yes'/>
          <!-- parameter of type 'void*' -->
          <parameter type-id='type-id-20'/>
          <!-- parameter of type 'void*' -->
          <parameter type-id='type-id-20'/>
          <!-- parameter of type 'typedef vtkIdType' -->
          <parameter type-id='type-id-21'/>
          <!-- parameter of type 'vtkIdType*' -->
          <parameter type-id='type-id-27'/>
          <!-- parameter of type 'vtkIdType*' -->
          <parameter type-id='type-id-27'/>
          <!-- parameter of type 'int' -->
          <parameter type-id='type-id-19'/>
          <!-- parameter of type 'int' -->
          <parameter type-id='type-id-19'/>
          <!-- int -->
          <return type-id='type-id-19'/>
        </function-decl>
      </member-function>
      <member-function access='private' vtable-offset='30'>
        <!-- int vtkCommunicator::ScatterVoidArray(void*, void*, vtkIdType, int, int) -->
        <function-decl name='ScatterVoidArray' mangled-name='_ZN15vtkCommunicator16ScatterVoidArrayEPKvPvxii' filepath='/tmp/legendre/spack-stage/spack-stage-R_crTC/VTK-6.1.0/Parallel/Core/vtkCommunicator.cxx' line='1061' column='1' visibility='default' binding='global' size-in-bits='64' elf-symbol-id='_ZN15vtkCommunicator16ScatterVoidArrayEPKvPvxii' hash='6c2c4044e69a83f9'>
          <!-- implicit parameter of type 'vtkCommunicator*' -->
          <parameter type-id='type-id-25' is-artificial='yes'/>
          <!-- parameter of type 'void*' -->
          <parameter type-id='type-id-20'/>
          <!-- parameter of type 'void*' -->
          <parameter type-id='type-id-20'/>
          <!-- parameter of type 'typedef vtkIdType' -->
          <parameter type-id='type-id-21'/>
          <!-- parameter of type 'int' -->
          <parameter type-id='type-id-19'/>
          <!-- parameter of type 'int' -->
          <parameter type-id='type-id-19'/>
          <!-- int -->
          <return type-id='type-id-19'/>
        </function-decl>
      </member-function>
      <member-function access='private' vtable-offset='31'>
        <!-- int vtkCommunicator::ScatterVVoidArray(void*, void*, vtkIdType*, vtkIdType*, vtkIdType, int, int) -->
        <function-decl name='ScatterVVoidArray' mangled-name='_ZN15vtkCommunicator17ScatterVVoidArrayEPKvPvPxS3_xii' filepath='/tmp/legendre/spack-stage/spack-stage-R_crTC/VTK-6.1.0/Parallel/Core/vtkCommunicator.cxx' line='1129' column='1' visibility='default' binding='global' size-in-bits='64' elf-symbol-id='_ZN15vtkCommunicator17ScatterVVoidArrayEPKvPvPxS3_xii' hash='8c6286c4e28fd126'>
          <!-- implicit parameter of type 'vtkCommunicator*' -->
          <parameter type-id='type-id-25' is-artificial='yes'/>
          <!-- parameter of type 'void*' -->
          <parameter type-id='type-id-20'/>
          <!-- parameter of type 'void*' -->
          <parameter type-id='type-id-20'/>
          <!-- parameter of type 'vtkIdType*' -->
          <parameter type-id='type-id-27'/>
          <!-- parameter of type 'vtkIdType*' -->
          <parameter type-id='type-id-27'/>
          <!-- parameter of type 'typedef vtkIdType' -->
          <parameter type-id='type-id-21'/>
          <!-- parameter of type 'int' -->
          <parameter type-id='type-id-19'/>
          <!-- parameter of type 'int' -->
          <parameter type-id='type-id-19'/>
          <!-- int -->
          <return type-id='type-id-19'/>
        </function-decl>
      </member-function>
      <member-function access='private' vtable-offset='32'>
        <!-- int vtkCommunicator::AllGatherVoidArray(void*, void*, vtkIdType, int) -->
        <function-decl name='AllGatherVoidArray' mangled-name='_ZN15vtkCommunicator18AllGatherVoidArrayEPKvPvxi' filepath='/tmp/legendre/spack-stage/spack-stage-R_crTC/VTK-6.1.0/Parallel/Core/vtkCommunicator.cxx' line='1168' column='1' visibility='default' binding='global' size-in-bits='64' elf-symbol-id='_ZN15vtkCommunicator18AllGatherVoidArrayEPKvPvxi' hash='75ae38693d4ae6ee'>
          <!-- implicit parameter of type 'vtkCommunicator*' -->
          <parameter type-id='type-id-25' is-artificial='yes'/>
          <!-- parameter of type 'void*' -->
          <parameter type-id='type-id-20'/>
          <!-- parameter of type 'void*' -->
          <parameter type-id='type-id-20'/>
          <!-- parameter of type 'typedef vtkIdType' -->
          <parameter type-id='type-id-21'/>
          <!-- parameter of type 'int' -->
          <parameter type-id='type-id-19'/>
          <!-- int -->
          <return type-id='type-id-19'/>
        </function-decl>
      </member-function>
      <member-function access='private' vtable-offset='33'>
        <!-- int vtkCommunicator::AllGatherVVoidArray(void*, void*, vtkIdType, vtkIdType*, vtkIdType*, int) -->
        <function-decl name='AllGatherVVoidArray' mangled-name='_ZN15vtkCommunicator19AllGatherVVoidArrayEPKvPvxPxS3_i' filepath='/tmp/legendre/spack-stage/spack-stage-R_crTC/VTK-6.1.0/Parallel/Core/vtkCommunicator.cxx' line='1199' column='1' visibility='default' binding='global' size-in-bits='64' elf-symbol-id='_ZN15vtkCommunicator19AllGatherVVoidArrayEPKvPvxPxS3_i' hash='5c2da5732f4d4e74'>
          <!-- implicit parameter of type 'vtkCommunicator*' -->
          <parameter type-id='type-id-25' is-artificial='yes'/>
          <!-- parameter of type 'void*' -->
          <parameter type-id='type-id-20'/>
          <!-- parameter of type 'void*' -->
          <parameter type-id='type-id-20'/>
          <!-- parameter of type 'typedef vtkIdType' -->
          <parameter type-id='type-id-21'/>
          <!-- parameter of type 'vtkIdType*' -->
          <parameter type-id='type-id-27'/>
          <!-- parameter of type 'vtkIdType*' -->
          <parameter type-id='type-id-27'/>
          <!-- parameter of type 'int' -->
          <parameter type-id='type-id-19'/>
          <!-- int -->
          <return type-id='type-id-19'/>
        </function-decl>
      </member-function>
      <member-function access='private' vtable-offset='34'>
        <!-- int vtkCommunicator::ReduceVoidArray(void*, void*, vtkIdType, int, int, int) -->
        <function-decl name='ReduceVoidArray' mangled-name='_ZN15vtkCommunicator15ReduceVoidArrayEPKvPvxiii' filepath='/tmp/legendre/spack-stage/spack-stage-R_crTC/VTK-6.1.0/Parallel/Core/vtkCommunicator.cxx' line='1267' column='1' visibility='default' binding='global' size-in-bits='64' elf-symbol-id='_ZN15vtkCommunicator15ReduceVoidArrayEPKvPvxiii' hash='dd087474275e2caa'>
          <!-- implicit parameter of type 'vtkCommunicator*' -->
          <parameter type-id='type-id-25' is-artificial='yes'/>
          <!-- parameter of type 'void*' -->
          <parameter type-id='type-id-20'/>
          <!-- parameter of type 'void*' -->
          <parameter type-id='type-id-20'/>
          <!-- parameter of type 'typedef vtkIdType' -->
          <parameter type-id='type-id-21'/>
          <!-- parameter of type 'int' -->
          <parameter type-id='type-id-19'/>
          <!-- parameter of type 'int' -->
          <parameter type-id='type-id-19'/>
          <!-- parameter of type 'int' -->
          <parameter type-id='type-id-19'/>
          <!-- int -->
          <return type-id='type-id-19'/>
        </function-decl>
      </member-function>
      <member-function access='private' vtable-offset='35'>
        <!-- int vtkCommunicator::ReduceVoidArray(void*, void*, vtkIdType, int, vtkCommunicator::Operation*, int) -->
        <function-decl name='ReduceVoidArray' mangled-name='_ZN15vtkCommunicator15ReduceVoidArrayEPKvPvxiPNS_9OperationEi' filepath='/tmp/legendre/spack-stage/spack-stage-R_crTC/VTK-6.1.0/Parallel/Core/vtkCommunicator.cxx' line='1307' column='1' visibility='default' binding='global' size-in-bits='64' elf-symbol-id='_ZN15vtkCommunicator15ReduceVoidArrayEPKvPvxiPNS_9OperationEi' hash='e15dfdce9092063a'>
          <!-- implicit parameter of type 'vtkCommunicator*' -->
          <parameter type-id='type-id-25' is-artificial='yes'/>
          <!-- parameter of type 'void*' -->
          <parameter type-id='type-id-20'/>
          <!-- parameter of type 'void*' -->
          <parameter type-id='type-id-20'/>
          <!-- parameter of type 'typedef vtkIdType' -->
          <parameter type-id='type-id-21'/>
          <!-- parameter of type 'int' -->
          <parameter type-id='type-id-19'/>
          <!-- parameter of type 'vtkCommunicator::Operation*' -->
          <parameter type-id='type-id-18'/>
          <!-- parameter of type 'int' -->
          <parameter type-id='type-id-19'/>
          <!-- int -->
          <return type-id='type-id-19'/>
        </function-decl>
      </member-function>
      <member-function access='private' vtable-offset='36'>
        <!-- int vtkCommunicator::AllReduceVoidArray(void*, void*, vtkIdType, int, int) -->
        <function-decl name='AllReduceVoidArray' mangled-name='_ZN15vtkCommunicator18AllReduceVoidArrayEPKvPvxii' filepath='/tmp/legendre/spack-stage/spack-stage-R_crTC/VTK-6.1.0/Parallel/Core/vtkCommunicator.cxx' line='1399' column='1' visibility='default' binding='global' size-in-bits='64' elf-symbol-id='_ZN15vtkCommunicator18AllReduceVoidArrayEPKvPvxii' hash='6c2c4044e69a83f9'>
          <!-- implicit parameter of type 'vtkCommunicator*' -->
          <parameter type-id='type-id-25' is-artificial='yes'/>
          <!-- parameter of type 'void*' -->
          <parameter type-id='type-id-20'/>
          <!-- parameter of type 'void*' -->
          <parameter type-id='type-id-20'/>
          <!-- parameter of type 'typedef vtkIdType' -->
          <parameter type-id='type-id-21'/>
          <!-- parameter of type 'int' -->
          <parameter type-id='type-id-19'/>
          <!-- parameter of type 'int' -->
          <parameter type-id='type-id-19'/>
          <!-- int -->
          <return type-id='type-id-19'/>
        </function-decl>
      </member-function>
      <member-function access='private' vtable-offset='37'>
        <!-- int vtkCommunicator::AllReduceVoidArray(void*, void*, vtkIdType, int, vtkCommunicator::Operation*) -->
        <function-decl name='AllReduceVoidArray' mangled-name='_ZN15vtkCommunicator18AllReduceVoidArrayEPKvPvxiPNS_9OperationE' filepath='/tmp/legendre/spack-stage/spack-stage-R_crTC/VTK-6.1.0/Parallel/Core/vtkCommunicator.cxx' line='1412' column='1' visibility='default' binding='global' size-in-bits='64' elf-symbol-id='_ZN15vtkCommunicator18AllReduceVoidArrayEPKvPvxiPNS_9OperationE' hash='47be5c92d6c604e0'>
          <!-- implicit parameter of type 'vtkCommunicator*' -->
          <parameter type-id='type-id-25' is-artificial='yes'/>
          <!-- parameter of type 'void*' -->
          <parameter type-id='type-id-20'/>
          <!-- parameter of type 'void*' -->
          <parameter type-id='type-id-20'/>
          <!-- parameter of type 'typedef vtkIdType' -->
          <parameter type-id='type-id-21'/>
          <!-- parameter of type 'int' -->
          <parameter type-id='type-id-19'/>
          <!-- parameter of type 'vtkCommunicator::Operation*' -->
          <parameter type-id='type-id-18'/>
          <!-- int -->
          <return type-id='type-id-19'/>
        </function-decl>
      </member-function>
      <member-function access='private' vtable-offset='38'>
        <!-- int vtkCommunicator::ComputeGlobalBounds(int, int, vtkBoundingBox*, int*, int*, int, int, int) -->
        <function-decl name='ComputeGlobalBounds' mangled-name='_ZN15vtkCommunicator19ComputeGlobalBoundsEiiP14vtkBoundingBoxPiS2_iii' filepath='/tmp/legendre/spack-stage/spack-stage-R_crTC/VTK-6.1.0/Parallel/Core/vtkCommunicator.cxx' line='673' column='1' visibility='default' binding='global' size-in-bits='64' elf-symbol-id='_ZN15vtkCommunicator19ComputeGlobalBoundsEiiP14vtkBoundingBoxPiS2_iii' hash='46747a6e735d2c08'>
          <!-- implicit parameter of type 'vtkCommunicator*' -->
          <parameter type-id='type-id-25' is-artificial='yes'/>
          <!-- parameter of type 'int' -->
          <parameter type-id='type-id-19'/>
          <!-- parameter of type 'int' -->
          <parameter type-id='type-id-19'/>
          <!-- parameter of type 'vtkBoundingBox*' -->
          <parameter type-id='type-id-12'/>
          <!-- parameter of type 'int*' -->
          <parameter type-id='type-id-37'/>
          <!-- parameter of type 'int*' -->
          <parameter type-id='type-id-37'/>
          <!-- parameter of type 'int' -->
          <parameter type-id='type-id-19'/>
          <!-- parameter of type 'int' -->
          <parameter type-id='type-id-19'/>
          <!-- parameter of type 'int' -->
          <parameter type-id='type-id-19'/>
          <!-- int -->
          <return type-id='type-id-19'/>
        </function-decl>
      </member-function>
    </class-decl>
    <!-- class vtkCommunicatorBitwiseAndClass -->
    <class-decl name='vtkCommunicatorBitwiseAndClass' visibility='default' size-in-bits='64' filepath='/tmp/legendre/spack-stage/spack-stage-R_crTC/VTK-6.1.0/Parallel/Core/vtkCommunicator.cxx' line='92' column='1' hash='9c81fb35459a5ed2' id='type-id-38'>
      <!-- class vtkCommunicator::Operation -->
      <base-class access='public' layout-offset-in-bits='0' type-id='type-id-17'/>
      <member-function access='private' vtable-offset='0'>
        <!-- void vtkCommunicatorBitwiseAndClass::Function(void*, void*, vtkIdType, int) -->
        <function-decl name='Function' mangled-name='_ZN30vtkCommunicatorBitwiseAndClass8FunctionEPKvPvxi' filepath='/tmp/legendre/spack-stage/spack-stage-R_crTC/VTK-6.1.0/Parallel/Core/vtkCommunicator.cxx' line='92' column='1' visibility='default' binding='global' size-in-bits='64' hash='27d51c5c93237148'>
          <!-- implicit parameter of type 'vtkCommunicatorBitwiseAndClass*' -->
          <parameter type-id='type-id-39' is-artificial='yes'/>
          <!-- parameter of type 'void*' -->
          <parameter type-id='type-id-20'/>
          <!-- parameter of type 'void*' -->
          <parameter type-id='type-id-20'/>
          <!-- parameter of type 'typedef vtkIdType' -->
          <parameter type-id='type-id-21'/>
          <!-- parameter of type 'int' -->
          <parameter type-id='type-id-19'/>
          <!-- void -->
          <return type-id='type-id-14'/>
        </function-decl>
      </member-function>
      <member-function access='private' vtable-offset='1'>
        <!-- int vtkCommunicatorBitwiseAndClass::Commutative() -->
        <function-decl name='Commutative' mangled-name='_ZN30vtkCommunicatorBitwiseAndClass11CommutativeEv' filepath='/tmp/legendre/spack-stage/spack-stage-R_crTC/VTK-6.1.0/Parallel/Core/vtkCommunicator.cxx' line='92' column='1' visibility='default' binding='global' size-in-bits='64' hash='388da3fa973fde78'>
          <!-- implicit parameter of type 'vtkCommunicatorBitwiseAndClass*' -->
          <parameter type-id='type-id-39' is-artificial='yes'/>
          <!-- int -->
          <return type-id='type-id-19'/>
        </function-decl>
      </member-function>
    </class-decl>
    <!-- class vtkCommunicatorBitwiseOrClass -->
    <class-decl name='vtkCommunicatorBitwiseOrClass' visibility='default' size-in-bits='64' filepath='/tmp/legendre/spack-stage/spack-stage-R_crTC/VTK-6.1.0/Parallel/Core/vtkCommunicator.cxx' line='96' column='1' hash='dbe5f1a6803e4898' id='type-id-40'>
      <!-- class vtkCommunicator::Operation -->
      <base-class access='public' layout-offset-in-bits='0' type-id='type-id-17'/>
      <member-function access='private' vtable-offset='0'>
        <!-- void vtkCommunicatorBitwiseOrClass::Function(void*, void*, vtkIdType, int) -->
        <function-decl name='Function' mangled-name='_ZN29vtkCommunicatorBitwiseOrClass8FunctionEPKvPvxi' filepath='/tmp/legendre/spack-stage/spack-stage-R_crTC/VTK-6.1.0/Parallel/Core/vtkCommunicator.cxx' line='96' column='1' visibility='default' binding='global' size-in-bits='64' hash='27d51c5c93237148'>
          <!-- implicit parameter of type 'vtkCommunicatorBitwiseOrClass*' -->
          <parameter type-id='type-id-41' is-artificial='yes'/>
          <!-- parameter of type 'void*' -->
          <parameter type-id='type-id-20'/>
          <!-- parameter of type 'void*' -->
          <parameter type-id='type-id-20'/>
          <!-- parameter of type 'typedef vtkIdType' -->
          <parameter type-id='type-id-21'/>
          <!-- parameter of type 'int' -->
          <parameter type-id='type-id-19'/>
          <!-- void -->
          <return type-id='type-id-14'/>
        </function-decl>
      </member-function>
      <member-function access='private' vtable-offset='1'>
        <!-- int vtkCommunicatorBitwiseOrClass::Commutative() -->
        <function-decl name='Commutative' mangled-name='_ZN29vtkCommunicatorBitwiseOrClass11CommutativeEv' filepath='/tmp/legendre/spack-stage/spack-stage-R_crTC/VTK-6.1.0/Parallel/Core/vtkCommunicator.cxx' line='96' column='1' visibility='default' binding='global' size-in-bits='64' hash='388da3fa973fde78'>
          <!-- implicit parameter of type 'vtkCommunicatorBitwiseOrClass*' -->
          <parameter type-id='type-id-41' is-artificial='yes'/>
          <!-- int -->
          <return type-id='type-id-19'/>
        </function-decl>
      </member-function>
    </class-decl>
    <!-- class vtkCommunicatorBitwiseXorClass -->
    <class-decl name='vtkCommunicatorBitwiseXorClass' visibility='default' size-in-bits='64' filepath='/tmp/legendre/spack-stage/spack-stage-R_crTC/VTK-6.1.0/Parallel/Core/vtkCommunicator.cxx' line='100' column='1' hash='52dbf76c09ed339f' id='type-id-42'>
      <!-- class vtkCommunicator::Operation -->
      <base-class access='public' layout-offset-in-bits='0' type-id='type-id-17'/>
      <member-function access='private' vtable-offset='0'>
        <!-- void vtkCommunicatorBitwiseXorClass::Function(void*, void*, vtkIdType, int) -->
        <function-decl name='Function' mangled-name='_ZN30vtkCommunicatorBitwiseXorClass8FunctionEPKvPvxi' filepath='/tmp/legendre/spack-stage/spack-stage-R_crTC/VTK-6.1.0/Parallel/Core/vtkCommunicator.cxx' line='100' column='1' visibility='default' binding='global' size-in-bits='64' hash='27d51c5c93237148'>
          <!-- implicit parameter of type 'vtkCommunicatorBitwiseXorClass*' -->
          <parameter type-id='type-id-43' is-artificial='yes'/>
          <!-- parameter of type 'void*' -->
          <parameter type-id='type-id-20'/>
          <!-- parameter of type 'void*' -->
          <parameter type-id='type-id-20'/>
          <!-- parameter of type 'typedef vtkIdType' -->
          <parameter type-id='type-id-21'/>
          <!-- parameter of type 'int' -->
          <parameter type-id='type-id-19'/>
          <!-- void -->
          <return type-id='type-id-14'/>
        </function-decl>
      </member-function>
      <member-function access='private' vtable-offset='1'>
        <!-- int vtkCommunicatorBitwiseXorClass::Commutative() -->
        <function-decl name='Commutative' mangled-name='_ZN30vtkCommunicatorBitwiseXorClass11CommutativeEv' filepath='/tmp/legendre/spack-stage/spack-stage-R_crTC/VTK-6.1.0/Parallel/Core/vtkCommunicator.cxx' line='100' column='1' visibility='default' binding='global' size-in-bits='64' hash='388da3fa973fde78'>
          <!-- implicit parameter of type 'vtkCommunicatorBitwiseXorClass*' -->
          <parameter type-id='type-id-43' is-artificial='yes'/>
          <!-- int -->
          <return type-id='type-id-19'/>
        </function-decl>
      </member-function>
    </class-decl>
    <!-- class vtkCommunicatorLogicalAndClass -->
    <class-decl name='vtkCommunicatorLogicalAndClass' visibility='default' size-in-bits='64' filepath='/tmp/legendre/spack-stage/spack-stage-R_crTC/VTK-6.1.0/Parallel/Core/vtkCommunicator.cxx' line='90' column='1' hash='8662e0826cdc6388' id='type-id-44'>
      <!-- class vtkCommunicator::Operation -->
      <base-class access='public' layout-offset-in-bits='0' type-id='type-id-17'/>
      <member-function access='private' vtable-offset='0'>
        <!-- void vtkCommunicatorLogicalAndClass::Function(void*, void*, vtkIdType, int) -->
        <function-decl name='Function' mangled-name='_ZN30vtkCommunicatorLogicalAndClass8FunctionEPKvPvxi' filepath='/tmp/legendre/spack-stage/spack-stage-R_crTC/VTK-6.1.0/Parallel/Core/vtkCommunicator.cxx' line='90' column='1' visibility='default' binding='global' size-in-bits='64' hash='27d51c5c93237148'>
          <!-- implicit parameter of type 'vtkCommunicatorLogicalAndClass*' -->
          <parameter type-id='type-id-45' is-artificial='yes'/>
          <!-- parameter of type 'void*' -->
          <parameter type-id='type-id-20'/>
          <!-- parameter of type 'void*' -->
          <parameter type-id='type-id-20'/>
          <!-- parameter of type 'typedef vtkIdType' -->
          <parameter type-id='type-id-21'/>
          <!-- parameter of type 'int' -->
          <parameter type-id='type-id-19'/>
          <!-- void -->
          <return type-id='type-id-14'/>
        </function-decl>
      </member-function>
      <member-function access='private' vtable-offset='1'>
        <!-- int vtkCommunicatorLogicalAndClass::Commutative() -->
        <function-decl name='Commutative' mangled-name='_ZN30vtkCommunicatorLogicalAndClass11CommutativeEv' filepath='/tmp/legendre/spack-stage/spack-stage-R_crTC/VTK-6.1.0/Parallel/Core/vtkCommunicator.cxx' line='90' column='1' visibility='default' binding='global' size-in-bits='64' hash='388da3fa973fde78'>
          <!-- implicit parameter of type 'vtkCommunicatorLogicalAndClass*' -->
          <parameter type-id='type-id-45' is-artificial='yes'/>
          <!-- int -->
          <return type-id='type-id-19'/>
        </function-decl>
      </member-function>
    </class-decl>
    <!-- class vtkCommunicatorLogicalOrClass -->
    <class-decl name='vtkCommunicatorLogicalOrClass' visibility='default' size-in-bits='64' filepath='/tmp/legendre/spack-stage/spack-stage-R_crTC/VTK-6.1.0/Parallel/Core/vtkCommunicator.cxx' line='94' column='1' hash='05145d6747f6b47a' id='type-id-46'>
      <!-- class vtkCommunicator::Operation -->
      <base-class access='public' layout-offset-in-bits='0' type-id='type-id-17'/>
      <member-function access='private' vtable-offset='0'>
        <!-- void vtkCommunicatorLogicalOrClass::Function(void*, void*, vtkIdType, int) -->
        <function-decl name='Function' mangled-name='_ZN29vtkCommunicatorLogicalOrClass8FunctionEPKvPvxi' filepath='/tmp/legendre/spack-stage/spack-stage-R_crTC/VTK-6.1.0/Parallel/Core/vtkCommunicator.cxx' line='94' column='1' visibility='default' binding='global' size-in-bits='64' hash='27d51c5c93237148'>
          <!-- implicit parameter of type 'vtkCommunicatorLogicalOrClass*' -->
          <parameter type-id='type-id-47' is-artificial='yes'/>
          <!-- parameter of type 'void*' -->
          <parameter type-id='type-id-20'/>
          <!-- parameter of type 'void*' -->
          <parameter type-id='type-id-20'/>
          <!-- parameter of type 'typedef vtkIdType' -->
          <parameter type-id='type-id-21'/>
          <!-- parameter of type 'int' -->
          <parameter type-id='type-id-19'/>
          <!-- void -->
          <return type-id='type-id-14'/>
        </function-decl>
      </member-function>
      <member-function access='private' vtable-offset='1'>
        <!-- int vtkCommunicatorLogicalOrClass::Commutative() -->
        <function-decl name='Commutative' mangled-name='_ZN29vtkCommunicatorLogicalOrClass11CommutativeEv' filepath='/tmp/legendre/spack-stage/spack-stage-R_crTC/VTK-6.1.0/Parallel/Core/vtkCommunicator.cxx' line='94' column='1' visibility='default' binding='global' size-in-bits='64' hash='388da3fa973fde78'>
          <!-- implicit parameter of type 'vtkCommunicatorLogicalOrClass*' -->
          <parameter type-id='type-id-47' is-artificial='yes'/>
          <!-- int -->
          <return type-id='type-id-19'/>
        </function-decl>
      </member-function>
    </class-decl>
    <!-- class vtkCommunicatorLogicalXorClass -->
    <class-decl name='vtkCommunicatorLogicalXorClass' visibility='default' size-in-bits='64' filepath='/tmp/legendre/spack-stage/spack-stage-R_crTC/VTK-6.1.0/Parallel/Core/vtkCommunicator.cxx' line='98' column='1' hash='f0c97494858d160d' id='type-id-48'>
      <!-- class vtkCommunicator::Operation -->
      <base-class access='public' layout-offset-in-bits='0' type-id='type-id-17'/>
      <member-function access='private' vtable-offset='0'>
        <!-- void vtkCommunicatorLogicalXorClass::Function(void*, void*, vtkIdType, int) -->
        <function-decl name='Function' mangled-name='_ZN30vtkCommunicatorLogicalXorClass8FunctionEPKvPvxi' filepath='/tmp/legendre/spack-stage/spack-stage-R_crTC/VTK-6.1.0/Parallel/Core/vtkCommunicator.cxx' line='98' column='1' visibility='default' binding='global' size-in-bits='64' hash='27d51c5c93237148'>
          <!-- implicit parameter of type 'vtkCommunicatorLogicalXorClass*' -->
          <parameter type-id='type-id-49' is-artificial='yes'/>
          <!-- parameter of type 'void*' -->
          <parameter type-id='type-id-20'/>
          <!-- parameter of type 'void*' -->
          <parameter type-id='type-id-20'/>
          <!-- parameter of type 'typedef vtkIdType' -->
          <parameter type-id='type-id-21'/>
          <!-- parameter of type 'int' -->
          <parameter type-id='type-id-19'/>
          <!-- void -->
          <return type-id='type-id-14'/>
        </function-decl>
      </member-function>
      <member-function access='private' vtable-offset='1'>
        <!-- int vtkCommunicatorLogicalXorClass::Commutative() -->
        <function-decl name='Commutative' mangled-name='_ZN30vtkCommunicatorLogicalXorClass11CommutativeEv' filepath='/tmp/legendre/spack-stage/spack-stage-R_crTC/VTK-6.1.0/Parallel/Core/vtkCommunicator.cxx' line='98' column='1' visibility='default' binding='global' size-in-bits='64' hash='388da3fa973fde78'>
          <!-- implicit parameter of type 'vtkCommunicatorLogicalXorClass*' -->
          <parameter type-id='type-id-49' is-artificial='yes'/>
          <!-- int -->
          <return type-id='type-id-19'/>
        </function-decl>
      </member-function>
    </class-decl>
    <!-- class vtkCommunicatorMaxClass -->
    <class-decl name='vtkCommunicatorMaxClass' visibility='default' size-in-bits='64' filepath='/tmp/legendre/spack-stage/spack-stage-R_crTC/VTK-6.1.0/Parallel/Core/vtkCommunicator.cxx' line='85' column='1' hash='ccba61ec2e86d5ff' id='type-id-50'>
      <!-- class vtkCommunicator::Operation -->
      <base-class access='public' layout-offset-in-bits='0' type-id='type-id-17'/>
      <member-function access='private' vtable-offset='0'>
        <!-- void vtkCommunicatorMaxClass::Function(void*, void*, vtkIdType, int) -->
        <function-decl name='Function' mangled-name='_ZN23vtkCommunicatorMaxClass8FunctionEPKvPvxi' filepath='/tmp/legendre/spack-stage/spack-stage-R_crTC/VTK-6.1.0/Parallel/Core/vtkCommunicator.cxx' line='85' column='1' visibility='default' binding='global' size-in-bits='64' hash='27d51c5c93237148'>
          <!-- implicit parameter of type 'vtkCommunicatorMaxClass*' -->
          <parameter type-id='type-id-51' is-artificial='yes'/>
          <!-- parameter of type 'void*' -->
          <parameter type-id='type-id-20'/>
          <!-- parameter of type 'void*' -->
          <parameter type-id='type-id-20'/>
          <!-- parameter of type 'typedef vtkIdType' -->
          <parameter type-id='type-id-21'/>
          <!-- parameter of type 'int' -->
          <parameter type-id='type-id-19'/>
          <!-- void -->
          <return type-id='type-id-14'/>
        </function-decl>
      </member-function>
      <member-function access='private' vtable-offset='1'>
        <!-- int vtkCommunicatorMaxClass::Commutative() -->
        <function-decl name='Commutative' mangled-name='_ZN23vtkCommunicatorMaxClass11CommutativeEv' filepath='/tmp/legendre/spack-stage/spack-stage-R_crTC/VTK-6.1.0/Parallel/Core/vtkCommunicator.cxx' line='85' column='1' visibility='default' binding='global' size-in-bits='64' hash='388da3fa973fde78'>
          <!-- implicit parameter of type 'vtkCommunicatorMaxClass*' -->
          <parameter type-id='type-id-51' is-artificial='yes'/>
          <!-- int -->
          <return type-id='type-id-19'/>
        </function-decl>
      </member-function>
    </class-decl>
    <!-- class vtkCommunicatorMinClass -->
    <class-decl name='vtkCommunicatorMinClass' visibility='default' size-in-bits='64' filepath='/tmp/legendre/spack-stage/spack-stage-R_crTC/VTK-6.1.0/Parallel/Core/vtkCommunicator.cxx' line='86' column='1' hash='eb25d09488a2641b' id='type-id-52'>
      <!-- class vtkCommunicator::Operation -->
      <base-class access='public' layout-offset-in-bits='0' type-id='type-id-17'/>
      <member-function access='private' vtable-offset='0'>
        <!-- void vtkCommunicatorMinClass::Function(void*, void*, vtkIdType, int) -->
        <function-decl name='Function' mangled-name='_ZN23vtkCommunicatorMinClass8FunctionEPKvPvxi' filepath='/tmp/legendre/spack-stage/spack-stage-R_crTC/VTK-6.1.0/Parallel/Core/vtkCommunicator.cxx' line='86' column='1' visibility='default' binding='global' size-in-bits='64' hash='27d51c5c93237148'>
          <!-- implicit parameter of type 'vtkCommunicatorMinClass*' -->
          <parameter type-id='type-id-53' is-artificial='yes'/>
          <!-- parameter of type 'void*' -->
          <parameter type-id='type-id-20'/>
          <!-- parameter of type 'void*' -->
          <parameter type-id='type-id-20'/>
          <!-- parameter of type 'typedef vtkIdType' -->
          <parameter type-id='type-id-21'/>
          <!-- parameter of type 'int' -->
          <parameter type-id='type-id-19'/>
          <!-- void -->
          <return type-id='type-id-14'/>
        </function-decl>
      </member-function>
      <member-function access='private' vtable-offset='1'>
        <!-- int vtkCommunicatorMinClass::Commutative() -->
        <function-decl name='Commutative' mangled-name='_ZN23vtkCommunicatorMinClass11CommutativeEv' filepath='/tmp/legendre/spack-stage/spack-stage-R_crTC/VTK-6.1.0/Parallel/Core/vtkCommunicator.cxx' line='86' column='1' visibility='default' binding='global' size-in-bits='64' hash='388da3fa973fde78'>
          <!-- implicit parameter of type 'vtkCommunicatorMinClass*' -->
          <parameter type-id='type-id-53' is-artificial='yes'/>
          <!-- int -->
          <return type-id='type-id-19'/>
        </function-decl>
      </member-function>
    </class-decl>
    <!-- class vtkCommunicatorProductClass -->
    <class-decl name='vtkCommunicatorProductClass' visibility='default' size-in-bits='64' filepath='/tmp/legendre/spack-stage/spack-stage-R_crTC/VTK-6.1.0/Parallel/Core/vtkCommunicator.cxx' line='88' column='1' hash='027f9af610e3f977' id='type-id-54'>
      <!-- class vtkCommunicator::Operation -->
      <base-class access='public' layout-offset-in-bits='0' type-id='type-id-17'/>
      <member-function access='private' vtable-offset='0'>
        <!-- void vtkCommunicatorProductClass::Function(void*, void*, vtkIdType, int) -->
        <function-decl name='Function' mangled-name='_ZN27vtkCommunicatorProductClass8FunctionEPKvPvxi' filepath='/tmp/legendre/spack-stage/spack-stage-R_crTC/VTK-6.1.0/Parallel/Core/vtkCommunicator.cxx' line='88' column='1' visibility='default' binding='global' size-in-bits='64' hash='27d51c5c93237148'>
          <!-- implicit parameter of type 'vtkCommunicatorProductClass*' -->
          <parameter type-id='type-id-55' is-artificial='yes'/>
          <!-- parameter of type 'void*' -->
          <parameter type-id='type-id-20'/>
          <!-- parameter of type 'void*' -->
          <parameter type-id='type-id-20'/>
          <!-- parameter of type 'typedef vtkIdType' -->
          <parameter type-id='type-id-21'/>
          <!-- parameter of type 'int' -->
          <parameter type-id='type-id-19'/>
          <!-- void -->
          <return type-id='type-id-14'/>
        </function-decl>
      </member-function>
      <member-function access='private' vtable-offset='1'>
        <!-- int vtkCommunicatorProductClass::Commutative() -->
        <function-decl name='Commutative' mangled-name='_ZN27vtkCommunicatorProductClass11CommutativeEv' filepath='/tmp/legendre/spack-stage/spack-stage-R_crTC/VTK-6.1.0/Parallel/Core/vtkCommunicator.cxx' line='88' column='1' visibility='default' binding='global' size-in-bits='64' hash='388da3fa973fde78'>
          <!-- implicit parameter of type 'vtkCommunicatorProductClass*' -->
          <parameter type-id='type-id-55' is-artificial='yes'/>
          <!-- int -->
          <return type-id='type-id-19'/>
        </function-decl>
      </member-function>
    </class-decl>
    <!-- class vtkCommunicatorSumClass -->
    <class-decl name='vtkCommunicatorSumClass' visibility='default' size-in-bits='64' filepath='/tmp/legendre/spack-stage/spack-stage-R_crTC/VTK-6.1.0/Parallel/Core/vtkCommunicator.cxx' line='87' column='1' hash='73523000c81545d3' id='type-id-56'>
      <!-- class vtkCommunicator::Operation -->
      <base-class access='public' layout-offset-in-bits='0' type-id='type-id-17'/>
      <member-function access='private' vtable-offset='0'>
        <!-- void vtkCommunicatorSumClass::Function(void*, void*, vtkIdType, int) -->
        <function-decl name='Function' mangled-name='_ZN23vtkCommunicatorSumClass8FunctionEPKvPvxi' filepath='/tmp/legendre/spack-stage/spack-stage-R_crTC/VTK-6.1.0/Parallel/Core/vtkCommunicator.cxx' line='87' column='1' visibility='default' binding='global' size-in-bits='64' hash='27d51c5c93237148'>
          <!-- implicit parameter of type 'vtkCommunicatorSumClass*' -->
          <parameter type-id='type-id-57' is-artificial='yes'/>
          <!-- parameter of type 'void*' -->
          <parameter type-id='type-id-20'/>
          <!-- parameter of type 'void*' -->
          <parameter type-id='type-id-20'/>
          <!-- parameter of type 'typedef vtkIdType' -->
          <parameter type-id='type-id-21'/>
          <!-- parameter of type 'int' -->
          <parameter type-id='type-id-19'/>
          <!-- void -->
          <return type-id='type-id-14'/>
        </function-decl>
      </member-function>
      <member-function access='private' vtable-offset='1'>
        <!-- int vtkCommunicatorSumClass::Commutative() -->
        <function-decl name='Commutative' mangled-name='_ZN23vtkCommunicatorSumClass11CommutativeEv' filepath='/tmp/legendre/spack-stage/spack-stage-R_crTC/VTK-6.1.0/Parallel/Core/vtkCommunicator.cxx' line='87' column='1' visibility='default' binding='global' size-in-bits='64' hash='388da3fa973fde78'>
          <!-- implicit parameter of type 'vtkCommunicatorSumClass*' -->
          <parameter type-id='type-id-57' is-artificial='yes'/>
          <!-- int -->
          <return type-id='type-id-19'/>
        </function-decl>
      </member-function>
    </class-decl>
    <!-- class vtkIndent -->
    <class-decl name='vtkIndent' visibility='default' size-in-bits='32' filepath='/tmp/legendre/spack-stage/spack-stage-R_crTC/VTK-6.1.0/Common/Core/vtkIndent.h' line='31' column='1' hash='ef414bfa043d4b24' id='type-id-35'>
      <data-member access='protected' layout-offset-in-bits='0'>
        <!-- int vtkIndent::Indent -->
        <var-decl name='Indent' type-id='type-id-19' visibility='default' filepath='/tmp/legendre/spack-stage/spack-stage-R_crTC/VTK-6.1.0/Common/Core/vtkIndent.h' line='49' column='1'/>
      </data-member>
      <member-function access='private'>
        <!-- vtkIndent vtkIndent::GetNextIndent() -->
        <function-decl name='GetNextIndent' mangled-name='_ZN9vtkIndent13GetNextIndentEv' filepath='/tmp/legendre/spack-stage/spack-stage-R_crTC/VTK-6.1.0/Common/Core/vtkIndent.h' line='40' column='1' visibility='default' binding='global' size-in-bits='64' hash='7f32ffea222edbe7'>
          <!-- implicit parameter of type 'vtkIndent*' -->
          <parameter type-id='type-id-58' is-artificial='yes'/>
          <!-- class vtkIndent -->
          <return type-id='type-id-35'/>
        </function-decl>
      </member-function>
    </class-decl>
    <!-- class vtkMultiProcessStream -->
    <class-decl name='vtkMultiProcessStream' visibility='default' size-in-bits='128' filepath='/tmp/legendre/spack-stage/spack-stage-R_crTC/VTK-6.1.0/Parallel/Core/vtkMultiProcessStream.h' line='35' column='1' hash='326cf6fdcd7078db' id='type-id-59'>
      <member-type access='private'>
        <!-- struct vtkMultiProcessStream::vtkInternals -->
        <class-decl name='vtkInternals' is-struct='yes' visibility='default' size-in-bits='640' filepath='/tmp/legendre/spack-stage/spack-stage-R_crTC/VTK-6.1.0/Parallel/Core/vtkMultiProcessStream.cxx' line='23' column='1' hash='ce440ff9f65a0522' id='type-id-60'>
          <member-type access='public'>
            <!-- typedef std::deque<unsigned char, std::allocator<unsigned char> > vtkMultiProcessStream::vtkInternals::DataType -->
            <typedef-decl name='DataType' type-id='type-id-62' size-in-bits='640' filepath='/tmp/legendre/spack-stage/spack-stage-R_crTC/VTK-6.1.0/Parallel/Core/vtkMultiProcessStream.cxx' line='25' column='1' id='type-id-61'/>
          </member-type>
          <data-member access='private' layout-offset-in-bits='0'>
            <!-- vtkMultiProcessStream::vtkInternals::DataType vtkMultiProcessStream::vtkInternals::Data -->
            <var-decl name='Data' type-id='type-id-61' visibility='default' filepath='/tmp/legendre/spack-stage/spack-stage-R_crTC/VTK-6.1.0/Parallel/Core/vtkMultiProcessStream.cxx' line='26' column='1'/>
          </data-member>
        </class-decl>
      </member-type>
      <data-member access='private' layout-offset-in-bits='0'>
        <!-- vtkMultiProcessStream::vtkInternals* vtkMultiProcessStream::Internals -->
        <var-decl name='Internals' type-id='type-id-63' visibility='default' filepath='/tmp/legendre/spack-stage/spack-stage-R_crTC/VTK-6.1.0/Parallel/Core/vtkMultiProcessStream.h' line='123' column='1'/>
      </data-member>
      <data-member access='private' layout-offset-in-bits='64'>
        <!-- unsigned char vtkMultiProcessStream::Endianness -->
        <var-decl name='Endianness' type-id='type-id-64' visibility='default' filepath='/tmp/legendre/spack-stage/spack-stage-R_crTC/VTK-6.1.0/Parallel/Core/vtkMultiProcessStream.h' line='124' column='1'/>
      </data-member>
      <member-function access='private'>
        <!-- bool vtkMultiProcessStream::Empty() -->
        <function-decl name='Empty' mangled-name='_ZN21vtkMultiProcessStream5EmptyEv' filepath='/tmp/legendre/spack-stage/spack-stage-R_crTC/VTK-6.1.0/Parallel/Core/vtkMultiProcessStream.cxx' line='171' column='1' visibility='default' binding='global' size-in-bits='64' elf-symbol-id='_ZN21vtkMultiProcessStream5EmptyEv' hash='c7c710e908194b91'>
          <!-- implicit parameter of type 'vtkMultiProcessStream*' -->
          <parameter type-id='type-id-65' is-artificial='yes'/>
          <!-- bool -->
          <return type-id='type-id-1'/>
        </function-decl>
      </member-function>
      <member-function access='private' destructor='yes'>
        <!-- vtkMultiProcessStream::~vtkMultiProcessStream() -->
        <function-decl name='~vtkMultiProcessStream' mangled-name='_ZN21vtkMultiProcessStreamD1Ev' filepath='/tmp/legendre/spack-stage/spack-stage-R_crTC/VTK-6.1.0/Parallel/Core/vtkMultiProcessStream.cxx' line='138' column='1' visibility='default' binding='global' size-in-bits='64' elf-symbol-id='_ZN21vtkMultiProcessStreamD1Ev' hash='7f32ffea222edbe7'>
          <!-- implicit parameter of type 'vtkMultiProcessStream*' -->
          <parameter type-id='type-id-65' is-artificial='yes'/>
          <!-- void -->
          <return type-id='type-id-14'/>
        </function-decl>
      </member-function>
      <member-function access='private'>
        <!-- void vtkMultiProcessStream::Reset() -->
        <function-decl name='Reset' mangled-name='_ZN21vtkMultiProcessStream5ResetEv' filepath='/tmp/legendre/spack-stage/spack-stage-R_crTC/VTK-6.1.0/Parallel/Core/vtkMultiProcessStream.cxx' line='159' column='1' visibility='default' binding='global' size-in-bits='64' elf-symbol-id='_ZN21vtkMultiProcessStream5ResetEv' hash='7f32ffea222edbe7'>
          <!-- implicit parameter of type 'vtkMultiProcessStream*' -->
          <parameter type-id='type-id-65' is-artificial='yes'/>
          <!-- void -->
          <return type-id='type-id-14'/>
        </function-decl>
      </member-function>
      <member-function access='private'>
        <!-- int vtkMultiProcessStream::Size() -->
        <function-decl name='Size' mangled-name='_ZN21vtkMultiProcessStream4SizeEv' filepath='/tmp/legendre/spack-stage/spack-stage-R_crTC/VTK-6.1.0/Parallel/Core/vtkMultiProcessStream.cxx' line='165' column='1' visibility='default' binding='global' size-in-bits='64' elf-symbol-id='_ZN21vtkMultiProcessStream4SizeEv' hash='388da3fa973fde78'>
          <!-- implicit parameter of type 'vtkMultiProcessStream*' -->
          <parameter type-id='type-id-65' is-artificial='yes'/>
          <!-- int -->
          <return type-id='type-id-19'/>
        </function-decl>
      </member-function>
      <member-function access='private'>
        <!-- void vtkMultiProcessStream::GetRawData(unsigned char*&, unsigned int&) -->
        <function-decl name='GetRawData' mangled-name='_ZN21vtkMultiProcessStream10GetRawDataERPhRj' filepath='/tmp/legendre/spack-stage/spack-stage-R_crTC/VTK-6.1.0/Parallel/Core/vtkMultiProcessStream.cxx' line='796' column='1' visibility='default' binding='global' size-in-bits='64' elf-symbol-id='_ZN21vtkMultiProcessStream10GetRawDataERPhRj' hash='b97818c3b0fc3301'>
          <!-- implicit parameter of type 'vtkMultiProcessStream*' -->
          <parameter type-id='type-id-65' is-artificial='yes'/>
          <!-- parameter of type 'unsigned char*&' -->
          <parameter type-id='type-id-66'/>
          <!-- parameter of type 'unsigned int&' -->
          <parameter type-id='type-id-67'/>
          <!-- void -->
          <return type-id='type-id-14'/>
        </function-decl>
      </member-function>
      <member-function access='private'>
        <!-- void vtkMultiProcessStream::GetRawData(std::vector<unsigned char, std::allocator<unsigned char> >&) -->
        <function-decl name='GetRawData' mangled-name='_ZNK21vtkMultiProcessStream10GetRawDataERSt6vectorIhSaIhEE' filepath='/tmp/legendre/spack-stage/spack-stage-R_crTC/VTK-6.1.0/Parallel/Core/vtkMultiProcessStream.cxx' line='762' column='1' visibility='default' binding='global' size-in-bits='64' elf-symbol-id='_ZNK21vtkMultiProcessStream10GetRawDataERSt6vectorIhSaIhEE' hash='3607bed8639828d1'>
          <!-- implicit parameter of type 'const vtkMultiProcessStream*' -->
          <parameter type-id='type-id-68' is-artificial='yes'/>
          <!-- parameter of type 'std::vector<unsigned char, std::allocator<unsigned char> >&' -->
          <parameter type-id='type-id-69'/>
          <!-- void -->
          <return type-id='type-id-14'/>
        </function-decl>
      </member-function>
      <member-function access='private' constructor='yes'>
        <!-- vtkMultiProcessStream::vtkMultiProcessStream() -->
        <function-decl name='vtkMultiProcessStream' mangled-name='_ZN21vtkMultiProcessStreamC1Ev' filepath='/tmp/legendre/spack-stage/spack-stage-R_crTC/VTK-6.1.0/Parallel/Core/vtkMultiProcessStream.cxx' line='127' column='1' visibility='default' binding='global' size-in-bits='64' elf-symbol-id='_ZN21vtkMultiProcessStreamC1Ev' hash='7f32ffea222edbe7'>
          <!-- implicit parameter of type 'vtkMultiProcessStream*' -->
          <parameter type-id='type-id-65' is-artificial='yes'/>
          <!-- void -->
          <return type-id='type-id-14'/>
        </function-decl>
      </member-function>
      <member-function access='private'>
        <!-- vtkMultiProcessStream& vtkMultiProcessStream::operator>>(unsigned int&) -->
        <function-decl name='operator&gt;&gt;' mangled-name='_ZN21vtkMultiProcessStreamrsERj' filepath='/tmp/legendre/spack-stage/spack-stage-R_crTC/VTK-6.1.0/Parallel/Core/vtkMultiProcessStream.cxx' line='698' column='1' visibility='default' binding='global' size-in-bits='64' elf-symbol-id='_ZN21vtkMultiProcessStreamrsERj' hash='19d7c5ad82a6b1e9'>
          <!-- implicit parameter of type 'vtkMultiProcessStream*' -->
          <parameter type-id='type-id-65' is-artificial='yes'/>
          <!-- parameter of type 'unsigned int&' -->
          <parameter type-id='type-id-67'/>
          <!-- vtkMultiProcessStream& -->
          <return type-id='type-id-30'/>
        </function-decl>
      </member-function>
      <member-function access='private'>
        <!-- vtkMultiProcessStream& vtkMultiProcessStream::operator>>(char&) -->
        <function-decl name='operator&gt;&gt;' mangled-name='_ZN21vtkMultiProcessStreamrsERc' filepath='/tmp/legendre/spack-stage/spack-stage-R_crTC/VTK-6.1.0/Parallel/Core/vtkMultiProcessStream.cxx' line='689' column='1' visibility='default' binding='global' size-in-bits='64' elf-symbol-id='_ZN21vtkMultiProcessStreamrsERc' hash='410d4f60ef71538f'>
          <!-- implicit parameter of type 'vtkMultiProcessStream*' -->
          <parameter type-id='type-id-65' is-artificial='yes'/>
          <!-- parameter of type 'char&' -->
          <parameter type-id='type-id-70'/>
          <!-- vtkMultiProcessStream& -->
          <return type-id='type-id-30'/>
        </function-decl>
      </member-function>
      <member-function access='private'>
        <!-- vtkMultiProcessStream& vtkMultiProcessStream::operator>>(vtkTypeUInt64&) -->
        <function-decl name='operator&gt;&gt;' mangled-name='_ZN21vtkMultiProcessStreamrsERy' filepath='/tmp/legendre/spack-stage/spack-stage-R_crTC/VTK-6.1.0/Parallel/Core/vtkMultiProcessStream.cxx' line='734' column='1' visibility='default' binding='global' size-in-bits='64' elf-symbol-id='_ZN21vtkMultiProcessStreamrsERy' hash='9db25c9c3954643f'>
          <!-- implicit parameter of type 'vtkMultiProcessStream*' -->
          <parameter type-id='type-id-65' is-artificial='yes'/>
          <!-- parameter of type 'vtkTypeUInt64&' -->
          <parameter type-id='type-id-71'/>
          <!-- vtkMultiProcessStream& -->
          <return type-id='type-id-30'/>
        </function-decl>
      </member-function>
      <member-function access='private'>
        <!-- vtkMultiProcessStream& vtkMultiProcessStream::operator>>(float&) -->
        <function-decl name='operator&gt;&gt;' mangled-name='_ZN21vtkMultiProcessStreamrsERf' filepath='/tmp/legendre/spack-stage/spack-stage-R_crTC/VTK-6.1.0/Parallel/Core/vtkMultiProcessStream.cxx' line='662' column='1' visibility='default' binding='global' size-in-bits='64' elf-symbol-id='_ZN21vtkMultiProcessStreamrsERf' hash='da84662d649cfa6f'>
          <!-- implicit parameter of type 'vtkMultiProcessStream*' -->
          <parameter type-id='type-id-65' is-artificial='yes'/>
          <!-- parameter of type 'float&' -->
          <parameter type-id='type-id-72'/>
          <!-- vtkMultiProcessStream& -->
          <return type-id='type-id-30'/>
        </function-decl>
      </member-function>
      <member-function access='private'>
        <!-- vtkMultiProcessStream& vtkMultiProcessStream::operator>>(unsigned char&) -->
        <function-decl name='operator&gt;&gt;' mangled-name='_ZN21vtkMultiProcessStreamrsERh' filepath='/tmp/legendre/spack-stage/spack-stage-R_crTC/VTK-6.1.0/Parallel/Core/vtkMultiProcessStream.cxx' line='707' column='1' visibility='default' binding='global' size-in-bits='64' elf-symbol-id='_ZN21vtkMultiProcessStreamrsERh' hash='6fffe8a77bf94c16'>
          <!-- implicit parameter of type 'vtkMultiProcessStream*' -->
          <parameter type-id='type-id-65' is-artificial='yes'/>
          <!-- parameter of type 'unsigned char&' -->
          <parameter type-id='type-id-73'/>
          <!-- vtkMultiProcessStream& -->
          <return type-id='type-id-30'/>
        </function-decl>
      </member-function>
      <member-function access='private'>
        <!-- vtkMultiProcessStream& vtkMultiProcessStream::operator>>(std::string&) -->
        <function-decl name='operator&gt;&gt;' mangled-name='_ZN21vtkMultiProcessStreamrsERSs' filepath='/tmp/legendre/spack-stage/spack-stage-R_crTC/VTK-6.1.0/Parallel/Core/vtkMultiProcessStream.cxx' line='743' column='1' visibility='default' binding='global' size-in-bits='64' elf-symbol-id='_ZN21vtkMultiProcessStreamrsERSs' hash='4cdfb6e605f5a5ae'>
          <!-- implicit parameter of type 'vtkMultiProcessStream*' -->
          <parameter type-id='type-id-65' is-artificial='yes'/>
          <!-- parameter of type 'std::string&' -->
          <parameter type-id='type-id-74'/>
          <!-- vtkMultiProcessStream& -->
          <return type-id='type-id-30'/>
        </function-decl>
      </member-function>
      <member-function access='private'>
        <!-- vtkMultiProcessStream& vtkMultiProcessStream::operator>>(double&) -->
        <function-decl name='operator&gt;&gt;' mangled-name='_ZN21vtkMultiProcessStreamrsERd' filepath='/tmp/legendre/spack-stage/spack-stage-R_crTC/VTK-6.1.0/Parallel/Core/vtkMultiProcessStream.cxx' line='653' column='1' visibility='default' binding='global' size-in-bits='64' elf-symbol-id='_ZN21vtkMultiProcessStreamrsERd' hash='c95316b1c9f3e694'>
          <!-- implicit parameter of type 'vtkMultiProcessStream*' -->
          <parameter type-id='type-id-65' is-artificial='yes'/>
          <!-- parameter of type 'double&' -->
          <parameter type-id='type-id-75'/>
          <!-- vtkMultiProcessStream& -->
          <return type-id='type-id-30'/>
        </function-decl>
      </member-function>
      <member-function access='private'>
        <!-- void vtkMultiProcessStream::Pop(int*&, unsigned int&) -->
        <function-decl name='Pop' mangled-name='_ZN21vtkMultiProcessStream3PopERPiRj' filepath='/tmp/legendre/spack-stage/spack-stage-R_crTC/VTK-6.1.0/Parallel/Core/vtkMultiProcessStream.cxx' line='334' column='1' visibility='default' binding='global' size-in-bits='64' elf-symbol-id='_ZN21vtkMultiProcessStream3PopERPiRj' hash='f2e749ef4add82d2'>
          <!-- implicit parameter of type 'vtkMultiProcessStream*' -->
          <parameter type-id='type-id-65' is-artificial='yes'/>
          <!-- parameter of type 'int*&' -->
          <parameter type-id='type-id-76'/>
          <!-- parameter of type 'unsigned int&' -->
          <parameter type-id='type-id-67'/>
          <!-- void -->
          <return type-id='type-id-14'/>
        </function-decl>
      </member-function>
      <member-function access='private'>
        <!-- void vtkMultiProcessStream::Pop(vtkTypeInt64*&, unsigned int&) -->
        <function-decl name='Pop' mangled-name='_ZN21vtkMultiProcessStream3PopERPxRj' filepath='/tmp/legendre/spack-stage/spack-stage-R_crTC/VTK-6.1.0/Parallel/Core/vtkMultiProcessStream.cxx' line='465' column='1' visibility='default' binding='global' size-in-bits='64' elf-symbol-id='_ZN21vtkMultiProcessStream3PopERPxRj' hash='966d7d8a2da60053'>
          <!-- implicit parameter of type 'vtkMultiProcessStream*' -->
          <parameter type-id='type-id-65' is-artificial='yes'/>
          <!-- parameter of type 'vtkTypeInt64*&' -->
          <parameter type-id='type-id-77'/>
          <!-- parameter of type 'unsigned int&' -->
          <parameter type-id='type-id-67'/>
          <!-- void -->
          <return type-id='type-id-14'/>
        </function-decl>
      </member-function>
      <member-function access='private'>
        <!-- vtkMultiProcessStream& vtkMultiProcessStream::operator>>(vtkTypeInt64&) -->
        <function-decl name='operator&gt;&gt;' mangled-name='_ZN21vtkMultiProcessStreamrsERx' filepath='/tmp/legendre/spack-stage/spack-stage-R_crTC/VTK-6.1.0/Parallel/Core/vtkMultiProcessStream.cxx' line='716' column='1' visibility='default' binding='global' size-in-bits='64' elf-symbol-id='_ZN21vtkMultiProcessStreamrsERx' hash='da01644e6b9e85a6'>
          <!-- implicit parameter of type 'vtkMultiProcessStream*' -->
          <parameter type-id='type-id-65' is-artificial='yes'/>
          <!-- parameter of type 'vtkTypeInt64&' -->
          <parameter type-id='type-id-78'/>
          <!-- vtkMultiProcessStream& -->
          <return type-id='type-id-30'/>
        </function-decl>
      </member-function>
      <member-function access='private'>
        <!-- vtkMultiProcessStream& vtkMultiProcessStream::operator>>(int&) -->
        <function-decl name='operator&gt;&gt;' mangled-name='_ZN21vtkMultiProcessStreamrsERi' filepath='/tmp/legendre/spack-stage/spack-stage-R_crTC/VTK-6.1.0/Parallel/Core/vtkMultiProcessStream.cxx' line='671' column='1' visibility='default' binding='global' size-in-bits='64' elf-symbol-id='_ZN21vtkMultiProcessStreamrsERi' hash='417fea6ad7d8eced'>
          <!-- implicit parameter of type 'vtkMultiProcessStream*' -->
          <parameter type-id='type-id-65' is-artificial='yes'/>
          <!-- parameter of type 'int&' -->
          <parameter type-id='type-id-79'/>
          <!-- vtkMultiProcessStream& -->
          <return type-id='type-id-30'/>
        </function-decl>
      </member-function>
      <member-function access='private'>
        <!-- void vtkMultiProcessStream::Pop(float*&, unsigned int&) -->
        <function-decl name='Pop' mangled-name='_ZN21vtkMultiProcessStream3PopERPfRj' filepath='/tmp/legendre/spack-stage/spack-stage-R_crTC/VTK-6.1.0/Parallel/Core/vtkMultiProcessStream.cxx' line='301' column='1' visibility='default' binding='global' size-in-bits='64' elf-symbol-id='_ZN21vtkMultiProcessStream3PopERPfRj' hash='8b68f47c05e0a883'>
          <!-- implicit parameter of type 'vtkMultiProcessStream*' -->
          <parameter type-id='type-id-65' is-artificial='yes'/>
          <!-- parameter of type 'float*&' -->
          <parameter type-id='type-id-80'/>
          <!-- parameter of type 'unsigned int&' -->
          <parameter type-id='type-id-67'/>
          <!-- void -->
          <return type-id='type-id-14'/>
        </function-decl>
      </member-function>
      <member-function access='private'>
        <!-- void vtkMultiProcessStream::Pop(vtkTypeUInt64*&, unsigned int&) -->
        <function-decl name='Pop' mangled-name='_ZN21vtkMultiProcessStream3PopERPyRj' filepath='/tmp/legendre/spack-stage/spack-stage-R_crTC/VTK-6.1.0/Parallel/Core/vtkMultiProcessStream.cxx' line='498' column='1' visibility='default' binding='global' size-in-bits='64' elf-symbol-id='_ZN21vtkMultiProcessStream3PopERPyRj' hash='8365df74cad70fdd'>
          <!-- implicit parameter of type 'vtkMultiProcessStream*' -->
          <parameter type-id='type-id-65' is-artificial='yes'/>
          <!-- parameter of type 'vtkTypeUInt64*&' -->
          <parameter type-id='type-id-81'/>
          <!-- parameter of type 'unsigned int&' -->
          <parameter type-id='type-id-67'/>
          <!-- void -->
          <return type-id='type-id-14'/>
        </function-decl>
      </member-function>
      <member-function access='private'>
        <!-- void vtkMultiProcessStream::Pop(double*&, unsigned int&) -->
        <function-decl name='Pop' mangled-name='_ZN21vtkMultiProcessStream3PopERPdRj' filepath='/tmp/legendre/spack-stage/spack-stage-R_crTC/VTK-6.1.0/Parallel/Core/vtkMultiProcessStream.cxx' line='268' column='1' visibility='default' binding='global' size-in-bits='64' elf-symbol-id='_ZN21vtkMultiProcessStream3PopERPdRj' hash='917fb42065297f44'>
          <!-- implicit parameter of type 'vtkMultiProcessStream*' -->
          <parameter type-id='type-id-65' is-artificial='yes'/>
          <!-- parameter of type 'double*&' -->
          <parameter type-id='type-id-82'/>
          <!-- parameter of type 'unsigned int&' -->
          <parameter type-id='type-id-67'/>
          <!-- void -->
          <return type-id='type-id-14'/>
        </function-decl>
      </member-function>
      <member-function access='private'>
        <!-- void vtkMultiProcessStream::Pop(unsigned char*&, unsigned int&) -->
        <function-decl name='Pop' mangled-name='_ZN21vtkMultiProcessStream3PopERPhRj' filepath='/tmp/legendre/spack-stage/spack-stage-R_crTC/VTK-6.1.0/Parallel/Core/vtkMultiProcessStream.cxx' line='433' column='1' visibility='default' binding='global' size-in-bits='64' elf-symbol-id='_ZN21vtkMultiProcessStream3PopERPhRj' hash='b97818c3b0fc3301'>
          <!-- implicit parameter of type 'vtkMultiProcessStream*' -->
          <parameter type-id='type-id-65' is-artificial='yes'/>
          <!-- parameter of type 'unsigned char*&' -->
          <parameter type-id='type-id-66'/>
          <!-- parameter of type 'unsigned int&' -->
          <parameter type-id='type-id-67'/>
          <!-- void -->
          <return type-id='type-id-14'/>
        </function-decl>
      </member-function>
      <member-function access='private'>
        <!-- void vtkMultiProcessStream::Pop(char*&, unsigned int&) -->
        <function-decl name='Pop' mangled-name='_ZN21vtkMultiProcessStream3PopERPcRj' filepath='/tmp/legendre/spack-stage/spack-stage-R_crTC/VTK-6.1.0/Parallel/Core/vtkMultiProcessStream.cxx' line='367' column='1' visibility='default' binding='global' size-in-bits='64' elf-symbol-id='_ZN21vtkMultiProcessStream3PopERPcRj' hash='288b22e0337db69f'>
          <!-- implicit parameter of type 'vtkMultiProcessStream*' -->
          <parameter type-id='type-id-65' is-artificial='yes'/>
          <!-- parameter of type 'char*&' -->
          <parameter type-id='type-id-83'/>
          <!-- parameter of type 'unsigned int&' -->
          <parameter type-id='type-id-67'/>
          <!-- void -->
          <return type-id='type-id-14'/>
        </function-decl>
      </member-function>
      <member-function access='private'>
        <!-- void vtkMultiProcessStream::Pop(unsigned int*&, unsigned int&) -->
        <function-decl name='Pop' mangled-name='_ZN21vtkMultiProcessStream3PopERPjRj' filepath='/tmp/legendre/spack-stage/spack-stage-R_crTC/VTK-6.1.0/Parallel/Core/vtkMultiProcessStream.cxx' line='400' column='1' visibility='default' binding='global' size-in-bits='64' elf-symbol-id='_ZN21vtkMultiProcessStream3PopERPjRj' hash='395b6b165e71e88e'>
          <!-- implicit parameter of type 'vtkMultiProcessStream*' -->
          <parameter type-id='type-id-65' is-artificial='yes'/>
          <!-- parameter of type 'unsigned int*&' -->
          <parameter type-id='type-id-84'/>
          <!-- parameter of type 'unsigned int&' -->
          <parameter type-id='type-id-67'/>
          <!-- void -->
          <return type-id='type-id-14'/>
        </function-decl>
      </member-function>
      <member-function access='private'>
        <!-- vtkMultiProcessStream& vtkMultiProcessStream::operator<<(const std::string&) -->
        <function-decl name='operator&lt;&lt;' mangled-name='_ZN21vtkMultiProcessStreamlsERKSs' filepath='/tmp/legendre/spack-stage/spack-stage-R_crTC/VTK-6.1.0/Parallel/Core/vtkMultiProcessStream.cxx' line='597' column='1' visibility='default' binding='global' size-in-bits='64' elf-symbol-id='_ZN21vtkMultiProcessStreamlsERKSs' hash='8ace89dade7e565e'>
          <!-- implicit parameter of type 'vtkMultiProcessStream*' -->
          <parameter type-id='type-id-65' is-artificial='yes'/>
          <!-- parameter of type 'const std::string&' -->
          <parameter type-id='type-id-85'/>
          <!-- vtkMultiProcessStream& -->
          <return type-id='type-id-30'/>
        </function-decl>
      </member-function>
      <member-function access='private'>
        <!-- vtkMultiProcessStream& vtkMultiProcessStream::operator<<(float) -->
        <function-decl name='operator&lt;&lt;' mangled-name='_ZN21vtkMultiProcessStreamlsEf' filepath='/tmp/legendre/spack-stage/spack-stage-R_crTC/VTK-6.1.0/Parallel/Core/vtkMultiProcessStream.cxx' line='539' column='1' visibility='default' binding='global' size-in-bits='64' elf-symbol-id='_ZN21vtkMultiProcessStreamlsEf' hash='eddfd6c42f195b29'>
          <!-- implicit parameter of type 'vtkMultiProcessStream*' -->
          <parameter type-id='type-id-65' is-artificial='yes'/>
          <!-- parameter of type 'float' -->
          <parameter type-id='type-id-86'/>
          <!-- vtkMultiProcessStream& -->
          <return type-id='type-id-30'/>
        </function-decl>
      </member-function>
      <member-function access='private'>
        <!-- vtkMultiProcessStream& vtkMultiProcessStream::operator<<(unsigned char) -->
        <function-decl name='operator&lt;&lt;' mangled-name='_ZN21vtkMultiProcessStreamlsEh' filepath='/tmp/legendre/spack-stage/spack-stage-R_crTC/VTK-6.1.0/Parallel/Core/vtkMultiProcessStream.cxx' line='571' column='1' visibility='default' binding='global' size-in-bits='64' elf-symbol-id='_ZN21vtkMultiProcessStreamlsEh' hash='ae19e5e3d9c235d0'>
          <!-- implicit parameter of type 'vtkMultiProcessStream*' -->
          <parameter type-id='type-id-65' is-artificial='yes'/>
          <!-- parameter of type 'unsigned char' -->
          <parameter type-id='type-id-64'/>
          <!-- vtkMultiProcessStream& -->
          <return type-id='type-id-30'/>
        </function-decl>
      </member-function>
      <member-function access='private'>
        <!-- vtkMultiProcessStream& vtkMultiProcessStream::operator<<(const vtkMultiProcessStream&) -->
        <function-decl name='operator&lt;&lt;' mangled-name='_ZN21vtkMultiProcessStreamlsERKS_' filepath='/tmp/legendre/spack-stage/spack-stage-R_crTC/VTK-6.1.0/Parallel/Core/vtkMultiProcessStream.cxx' line='619' column='1' visibility='default' binding='global' size-in-bits='64' elf-symbol-id='_ZN21vtkMultiProcessStreamlsERKS_' hash='ac639b222003ed26'>
          <!-- implicit parameter of type 'vtkMultiProcessStream*' -->
          <parameter type-id='type-id-65' is-artificial='yes'/>
          <!-- parameter of type 'const vtkMultiProcessStream&' -->
          <parameter type-id='type-id-31'/>
          <!-- vtkMultiProcessStream& -->
          <return type-id='type-id-30'/>
        </function-decl>
      </member-function>
      <member-function access='private'>
        <!-- void vtkMultiProcessStream::Push(double*, unsigned int) -->
        <function-decl name='Push' mangled-name='_ZN21vtkMultiProcessStream4PushEPdj' filepath='/tmp/legendre/spack-stage/spack-stage-R_crTC/VTK-6.1.0/Parallel/Core/vtkMultiProcessStream.cxx' line='177' column='1' visibility='default' binding='global' size-in-bits='64' elf-symbol-id='_ZN21vtkMultiProcessStream4PushEPdj' hash='8316563d46e77a30'>
          <!-- implicit parameter of type 'vtkMultiProcessStream*' -->
          <parameter type-id='type-id-65' is-artificial='yes'/>
          <!-- parameter of type 'double*' -->
          <parameter type-id='type-id-87'/>
          <!-- parameter of type 'unsigned int' -->
          <parameter type-id='type-id-88'/>
          <!-- void -->
          <return type-id='type-id-14'/>
        </function-decl>
      </member-function>
      <member-function access='private'>
        <!-- vtkMultiProcessStream& vtkMultiProcessStream::operator<<(vtkTypeUInt64) -->
        <function-decl name='operator&lt;&lt;' mangled-name='_ZN21vtkMultiProcessStreamlsEy' filepath='/tmp/legendre/spack-stage/spack-stage-R_crTC/VTK-6.1.0/Parallel/Core/vtkMultiProcessStream.cxx' line='588' column='1' visibility='default' binding='global' size-in-bits='64' elf-symbol-id='_ZN21vtkMultiProcessStreamlsEy' hash='a93a57e5fe7498b5'>
          <!-- implicit parameter of type 'vtkMultiProcessStream*' -->
          <parameter type-id='type-id-65' is-artificial='yes'/>
          <!-- parameter of type 'typedef vtkTypeUInt64' -->
          <parameter type-id='type-id-89'/>
          <!-- vtkMultiProcessStream& -->
          <return type-id='type-id-30'/>
        </function-decl>
      </member-function>
      <member-function access='private'>
        <!-- void vtkMultiProcessStream::SetRawData(const unsigned char*, unsigned int) -->
        <function-decl name='SetRawData' mangled-name='_ZN21vtkMultiProcessStream10SetRawDataEPKhj' filepath='/tmp/legendre/spack-stage/spack-stage-R_crTC/VTK-6.1.0/Parallel/Core/vtkMultiProcessStream.cxx' line='818' column='1' visibility='default' binding='global' size-in-bits='64' elf-symbol-id='_ZN21vtkMultiProcessStream10SetRawDataEPKhj' hash='0161790cdb93fe1b'>
          <!-- implicit parameter of type 'vtkMultiProcessStream*' -->
          <parameter type-id='type-id-65' is-artificial='yes'/>
          <!-- parameter of type 'const unsigned char*' -->
          <parameter type-id='type-id-90'/>
          <!-- parameter of type 'unsigned int' -->
          <parameter type-id='type-id-88'/>
          <!-- void -->
          <return type-id='type-id-14'/>
        </function-decl>
      </member-function>
      <member-function access='private'>
        <!-- void vtkMultiProcessStream::SetRawData(const std::vector<unsigned char, std::allocator<unsigned char> >&) -->
        <function-decl name='SetRawData' mangled-name='_ZN21vtkMultiProcessStream10SetRawDataERKSt6vectorIhSaIhEE' filepath='/tmp/legendre/spack-stage/spack-stage-R_crTC/VTK-6.1.0/Parallel/Core/vtkMultiProcessStream.cxx' line='777' column='1' visibility='default' binding='global' size-in-bits='64' elf-symbol-id='_ZN21vtkMultiProcessStream10SetRawDataERKSt6vectorIhSaIhEE' hash='47ab3549fdd4ef05'>
          <!-- implicit parameter of type 'vtkMultiProcessStream*' -->
          <parameter type-id='type-id-65' is-artificial='yes'/>
          <!-- parameter of type 'const std::vector<unsigned char, std::allocator<unsigned char> >&' -->
          <parameter type-id='type-id-91'/>
          <!-- void -->
          <return type-id='type-id-14'/>
        </function-decl>
      </member-function>
      <member-function access='private'>
        <!-- vtkMultiProcessStream& vtkMultiProcessStream::operator=(const vtkMultiProcessStream&) -->
        <function-decl name='operator=' mangled-name='_ZN21vtkMultiProcessStreamaSERKS_' filepath='/tmp/legendre/spack-stage/spack-stage-R_crTC/VTK-6.1.0/Parallel/Core/vtkMultiProcessStream.cxx' line='152' column='1' visibility='default' binding='global' size-in-bits='64' elf-symbol-id='_ZN21vtkMultiProcessStreamaSERKS_' hash='ac639b222003ed26'>
          <!-- implicit parameter of type 'vtkMultiProcessStream*' -->
          <parameter type-id='type-id-65' is-artificial='yes'/>
          <!-- parameter of type 'const vtkMultiProcessStream&' -->
          <parameter type-id='type-id-31'/>
          <!-- vtkMultiProcessStream& -->
          <return type-id='type-id-30'/>
        </function-decl>
      </member-function>
      <member-function access='private' constructor='yes'>
        <!-- vtkMultiProcessStream::vtkMultiProcessStream(const vtkMultiProcessStream&) -->
        <function-decl name='vtkMultiProcessStream' mangled-name='_ZN21vtkMultiProcessStreamC2ERKS_' filepath='/tmp/legendre/spack-stage/spack-stage-R_crTC/VTK-6.1.0/Parallel/Core/vtkMultiProcessStream.cxx' line='145' column='1' visibility='default' binding='global' size-in-bits='64' elf-symbol-id='_ZN21vtkMultiProcessStreamC2ERKS_' hash='8ece74afd5e13ec6'>
          <!-- implicit parameter of type 'vtkMultiProcessStream*' -->
          <parameter type-id='type-id-65' is-artificial='yes'/>
          <!-- parameter of type 'const vtkMultiProcessStream&' -->
          <parameter type-id='type-id-31'/>
          <!-- void -->
          <return type-id='type-id-14'/>
        </function-decl>
      </member-function>
      <member-function access='private'>
        <!-- vtkMultiProcessStream& vtkMultiProcessStream::operator<<(char) -->
        <function-decl name='operator&lt;&lt;' mangled-name='_ZN21vtkMultiProcessStreamlsEc' filepath='/tmp/legendre/spack-stage/spack-stage-R_crTC/VTK-6.1.0/Parallel/Core/vtkMultiProcessStream.cxx' line='555' column='1' visibility='default' binding='global' size-in-bits='64' elf-symbol-id='_ZN21vtkMultiProcessStreamlsEc' hash='9f4739c46a4a69d9'>
          <!-- implicit parameter of type 'vtkMultiProcessStream*' -->
          <parameter type-id='type-id-65' is-artificial='yes'/>
          <!-- parameter of type 'char' -->
          <parameter type-id='type-id-2'/>
          <!-- vtkMultiProcessStream& -->
          <return type-id='type-id-30'/>
        </function-decl>
      </member-function>
      <member-function access='private'>
        <!-- void vtkMultiProcessStream::Push(unsigned int*, unsigned int) -->
        <function-decl name='Push' mangled-name='_ZN21vtkMultiProcessStream4PushEPjj' filepath='/tmp/legendre/spack-stage/spack-stage-R_crTC/VTK-6.1.0/Parallel/Core/vtkMultiProcessStream.cxx' line='221' column='1' visibility='default' binding='global' size-in-bits='64' elf-symbol-id='_ZN21vtkMultiProcessStream4PushEPjj' hash='a2c4b1107a6fb0c8'>
          <!-- implicit parameter of type 'vtkMultiProcessStream*' -->
          <parameter type-id='type-id-65' is-artificial='yes'/>
          <!-- parameter of type 'unsigned int*' -->
          <parameter type-id='type-id-92'/>
          <!-- parameter of type 'unsigned int' -->
          <parameter type-id='type-id-88'/>
          <!-- void -->
          <return type-id='type-id-14'/>
        </function-decl>
      </member-function>
      <member-function access='private'>
        <!-- void vtkMultiProcessStream::Push(unsigned char*, unsigned int) -->
        <function-decl name='Push' mangled-name='_ZN21vtkMultiProcessStream4PushEPhj' filepath='/tmp/legendre/spack-stage/spack-stage-R_crTC/VTK-6.1.0/Parallel/Core/vtkMultiProcessStream.cxx' line='233' column='1' visibility='default' binding='global' size-in-bits='64' elf-symbol-id='_ZN21vtkMultiProcessStream4PushEPhj' hash='569daa8056aeb852'>
          <!-- implicit parameter of type 'vtkMultiProcessStream*' -->
          <parameter type-id='type-id-65' is-artificial='yes'/>
          <!-- parameter of type 'unsigned char*' -->
          <parameter type-id='type-id-93'/>
          <!-- parameter of type 'unsigned int' -->
          <parameter type-id='type-id-88'/>
          <!-- void -->
          <return type-id='type-id-14'/>
        </function-decl>
      </member-function>
      <member-function access='private'>
        <!-- void vtkMultiProcessStream::Push(int*, unsigned int) -->
        <function-decl name='Push' mangled-name='_ZN21vtkMultiProcessStream4PushEPij' filepath='/tmp/legendre/spack-stage/spack-stage-R_crTC/VTK-6.1.0/Parallel/Core/vtkMultiProcessStream.cxx' line='199' column='1' visibility='default' binding='global' size-in-bits='64' elf-symbol-id='_ZN21vtkMultiProcessStream4PushEPij' hash='a1a23fee8f52a603'>
          <!-- implicit parameter of type 'vtkMultiProcessStream*' -->
          <parameter type-id='type-id-65' is-artificial='yes'/>
          <!-- parameter of type 'int*' -->
          <parameter type-id='type-id-37'/>
          <!-- parameter of type 'unsigned int' -->
          <parameter type-id='type-id-88'/>
          <!-- void -->
          <return type-id='type-id-14'/>
        </function-decl>
      </member-function>
      <member-function access='private'>
        <!-- vtkMultiProcessStream& vtkMultiProcessStream::operator<<(vtkTypeInt64) -->
        <function-decl name='operator&lt;&lt;' mangled-name='_ZN21vtkMultiProcessStreamlsEx' filepath='/tmp/legendre/spack-stage/spack-stage-R_crTC/VTK-6.1.0/Parallel/Core/vtkMultiProcessStream.cxx' line='579' column='1' visibility='default' binding='global' size-in-bits='64' elf-symbol-id='_ZN21vtkMultiProcessStreamlsEx' hash='4e979cd2f0c82d02'>
          <!-- implicit parameter of type 'vtkMultiProcessStream*' -->
          <parameter type-id='type-id-65' is-artificial='yes'/>
          <!-- parameter of type 'typedef vtkTypeInt64' -->
          <parameter type-id='type-id-94'/>
          <!-- vtkMultiProcessStream& -->
          <return type-id='type-id-30'/>
        </function-decl>
      </member-function>
      <member-function access='private'>
        <!-- void vtkMultiProcessStream::Push(char*, unsigned int) -->
        <function-decl name='Push' mangled-name='_ZN21vtkMultiProcessStream4PushEPcj' filepath='/tmp/legendre/spack-stage/spack-stage-R_crTC/VTK-6.1.0/Parallel/Core/vtkMultiProcessStream.cxx' line='210' column='1' visibility='default' binding='global' size-in-bits='64' elf-symbol-id='_ZN21vtkMultiProcessStream4PushEPcj' hash='ca127aefa5fdb8b5'>
          <!-- implicit parameter of type 'vtkMultiProcessStream*' -->
          <parameter type-id='type-id-65' is-artificial='yes'/>
          <!-- parameter of type 'char*' -->
          <parameter type-id='type-id-95'/>
          <!-- parameter of type 'unsigned int' -->
          <parameter type-id='type-id-88'/>
          <!-- void -->
          <return type-id='type-id-14'/>
        </function-decl>
      </member-function>
      <member-function access='private'>
        <!-- vtkMultiProcessStream& vtkMultiProcessStream::operator<<(double) -->
        <function-decl name='operator&lt;&lt;' mangled-name='_ZN21vtkMultiProcessStreamlsEd' filepath='/tmp/legendre/spack-stage/spack-stage-R_crTC/VTK-6.1.0/Parallel/Core/vtkMultiProcessStream.cxx' line='531' column='1' visibility='default' binding='global' size-in-bits='64' elf-symbol-id='_ZN21vtkMultiProcessStreamlsEd' hash='cf0308a547ba925a'>
          <!-- implicit parameter of type 'vtkMultiProcessStream*' -->
          <parameter type-id='type-id-65' is-artificial='yes'/>
          <!-- parameter of type 'double' -->
          <parameter type-id='type-id-96'/>
          <!-- vtkMultiProcessStream& -->
          <return type-id='type-id-30'/>
        </function-decl>
      </member-function>
      <member-function access='private'>
        <!-- void vtkMultiProcessStream::Push(float*, unsigned int) -->
        <function-decl name='Push' mangled-name='_ZN21vtkMultiProcessStream4PushEPfj' filepath='/tmp/legendre/spack-stage/spack-stage-R_crTC/VTK-6.1.0/Parallel/Core/vtkMultiProcessStream.cxx' line='188' column='1' visibility='default' binding='global' size-in-bits='64' elf-symbol-id='_ZN21vtkMultiProcessStream4PushEPfj' hash='f770fcb8ef7dca1f'>
          <!-- implicit parameter of type 'vtkMultiProcessStream*' -->
          <parameter type-id='type-id-65' is-artificial='yes'/>
          <!-- parameter of type 'float*' -->
          <parameter type-id='type-id-97'/>
          <!-- parameter of type 'unsigned int' -->
          <parameter type-id='type-id-88'/>
          <!-- void -->
          <return type-id='type-id-14'/>
        </function-decl>
      </member-function>
      <member-function access='private'>
        <!-- vtkMultiProcessStream& vtkMultiProcessStream::operator<<(unsigned int) -->
        <function-decl name='operator&lt;&lt;' mangled-name='_ZN21vtkMultiProcessStreamlsEj' filepath='/tmp/legendre/spack-stage/spack-stage-R_crTC/VTK-6.1.0/Parallel/Core/vtkMultiProcessStream.cxx' line='563' column='1' visibility='default' binding='global' size-in-bits='64' elf-symbol-id='_ZN21vtkMultiProcessStreamlsEj' hash='95dc084296e755d9'>
          <!-- implicit parameter of type 'vtkMultiProcessStream*' -->
          <parameter type-id='type-id-65' is-artificial='yes'/>
          <!-- parameter of type 'unsigned int' -->
          <parameter type-id='type-id-88'/>
          <!-- vtkMultiProcessStream& -->
          <return type-id='type-id-30'/>
        </function-decl>
      </member-function>
      <member-function access='private'>
        <!-- void vtkMultiProcessStream::Push(vtkTypeInt64*, unsigned int) -->
        <function-decl name='Push' mangled-name='_ZN21vtkMultiProcessStream4PushEPxj' filepath='/tmp/legendre/spack-stage/spack-stage-R_crTC/VTK-6.1.0/Parallel/Core/vtkMultiProcessStream.cxx' line='244' column='1' visibility='default' binding='global' size-in-bits='64' elf-symbol-id='_ZN21vtkMultiProcessStream4PushEPxj' hash='e20b0451fd282899'>
          <!-- implicit parameter of type 'vtkMultiProcessStream*' -->
          <parameter type-id='type-id-65' is-artificial='yes'/>
          <!-- parameter of type 'vtkTypeInt64*' -->
          <parameter type-id='type-id-98'/>
          <!-- parameter of type 'unsigned int' -->
          <parameter type-id='type-id-88'/>
          <!-- void -->
          <return type-id='type-id-14'/>
        </function-decl>
      </member-function>
      <member-function access='private'>
        <!-- vtkMultiProcessStream& vtkMultiProcessStream::operator>>(vtkMultiProcessStream&) -->
        <function-decl name='operator&gt;&gt;' mangled-name='_ZN21vtkMultiProcessStreamrsERS_' filepath='/tmp/legendre/spack-stage/spack-stage-R_crTC/VTK-6.1.0/Parallel/Core/vtkMultiProcessStream.cxx' line='634' column='1' visibility='default' binding='global' size-in-bits='64' elf-symbol-id='_ZN21vtkMultiProcessStreamrsERS_' hash='0ccbcd626eeade07'>
          <!-- implicit parameter of type 'vtkMultiProcessStream*' -->
          <parameter type-id='type-id-65' is-artificial='yes'/>
          <!-- parameter of type 'vtkMultiProcessStream&' -->
          <parameter type-id='type-id-30'/>
          <!-- vtkMultiProcessStream& -->
          <return type-id='type-id-30'/>
        </function-decl>
      </member-function>
      <member-function access='private'>
        <!-- vtkMultiProcessStream& vtkMultiProcessStream::operator<<(int) -->
        <function-decl name='operator&lt;&lt;' mangled-name='_ZN21vtkMultiProcessStreamlsEi' filepath='/tmp/legendre/spack-stage/spack-stage-R_crTC/VTK-6.1.0/Parallel/Core/vtkMultiProcessStream.cxx' line='547' column='1' visibility='default' binding='global' size-in-bits='64' elf-symbol-id='_ZN21vtkMultiProcessStreamlsEi' hash='5a50e102cca3b460'>
          <!-- implicit parameter of type 'vtkMultiProcessStream*' -->
          <parameter type-id='type-id-65' is-artificial='yes'/>
          <!-- parameter of type 'int' -->
          <parameter type-id='type-id-19'/>
          <!-- vtkMultiProcessStream& -->
          <return type-id='type-id-30'/>
        </function-decl>
      </member-function>
      <member-function access='private'>
        <!-- void vtkMultiProcessStream::Push(vtkTypeUInt64*, unsigned int) -->
        <function-decl name='Push' mangled-name='_ZN21vtkMultiProcessStream4PushEPyj' filepath='/tmp/legendre/spack-stage/spack-stage-R_crTC/VTK-6.1.0/Parallel/Core/vtkMultiProcessStream.cxx' line='256' column='1' visibility='default' binding='global' size-in-bits='64' elf-symbol-id='_ZN21vtkMultiProcessStream4PushEPyj' hash='80529e8d71767e85'>
          <!-- implicit parameter of type 'vtkMultiProcessStream*' -->
          <parameter type-id='type-id-65' is-artificial='yes'/>
          <!-- parameter of type 'vtkTypeUInt64*' -->
          <parameter type-id='type-id-99'/>
          <!-- parameter of type 'unsigned int' -->
          <parameter type-id='type-id-88'/>
          <!-- void -->
          <return type-id='type-id-14'/>
        </function-decl>
      </member-function>
    </class-decl>
    <!-- class vtkSmartPointer<vtkCharArray> -->
    <class-decl name='vtkSmartPointer&lt;vtkCharArray&gt;' visibility='default' size-in-bits='64' filepath='/tmp/legendre/spack-stage/spack-stage-R_crTC/VTK-6.1.0/Common/Core/vtkSmartPointer.h' line='27' column='1' hash='ab5cf86eba7d31d1' id='type-id-100'>
      <!-- class vtkSmartPointerBase -->
      <base-class access='public' layout-offset-in-bits='0' type-id='type-id-101'/>
    </class-decl>
    <!-- class vtkSmartPointer<vtkDataObject> -->
    <class-decl name='vtkSmartPointer&lt;vtkDataObject&gt;' visibility='default' size-in-bits='64' filepath='/tmp/legendre/spack-stage/spack-stage-R_crTC/VTK-6.1.0/Common/Core/vtkSmartPointer.h' line='27' column='1' hash='5b5e5cc0c7923764' id='type-id-102'>
      <!-- class vtkSmartPointerBase -->
      <base-class access='public' layout-offset-in-bits='0' type-id='type-id-101'/>
    </class-decl>
    <!-- class vtkSmartPointer<vtkGenericDataObjectReader> -->
    <class-decl name='vtkSmartPointer&lt;vtkGenericDataObjectReader&gt;' visibility='default' size-in-bits='64' filepath='/tmp/legendre/spack-stage/spack-stage-R_crTC/VTK-6.1.0/Common/Core/vtkSmartPointer.h' line='27' column='1' hash='11f1baafa4c253c3' id='type-id-103'>
      <!-- class vtkSmartPointerBase -->
      <base-class access='public' layout-offset-in-bits='0' type-id='type-id-101'/>
    </class-decl>
    <!-- class vtkSmartPointer<vtkGenericDataObjectWriter> -->
    <class-decl name='vtkSmartPointer&lt;vtkGenericDataObjectWriter&gt;' visibility='default' size-in-bits='64' filepath='/tmp/legendre/spack-stage/spack-stage-R_crTC/VTK-6.1.0/Common/Core/vtkSmartPointer.h' line='27' column='1' hash='ed45a016ba96e222' id='type-id-104'>
      <!-- class vtkSmartPointerBase -->
      <base-class access='public' layout-offset-in-bits='0' type-id='type-id-101'/>
    </class-decl>
    <!-- class vtkSmartPointerBase -->
    <class-decl name='vtkSmartPointerBase' visibility='default' size-in-bits='64' filepath='/tmp/legendre/spack-stage/spack-stage-R_crTC/VTK-6.1.0/Common/Core/vtkSmartPointerBase.h' line='30' column='1' hash='a5f0a07abf421a10' id='type-id-101'>
      <member-type access='protected'>
        <!-- class vtkSmartPointerBase::NoReference -->
        <class-decl name='NoReference' visibility='default' size-in-bits='8' filepath='/tmp/legendre/spack-stage/spack-stage-R_crTC/VTK-6.1.0/Common/Core/vtkSmartPointerBase.h' line='73' column='1' hash='90e520def287525b' id='type-id-105'/>
      </member-type>
      <data-member access='protected' layout-offset-in-bits='0'>
        <!-- vtkObjectBase* vtkSmartPointerBase::Object -->
        <var-decl name='Object' type-id='type-id-36' visibility='default' filepath='/tmp/legendre/spack-stage/spack-stage-R_crTC/VTK-6.1.0/Common/Core/vtkSmartPointerBase.h' line='77' column='1'/>
      </data-member>
      <member-function access='private'>
        <!-- vtkSmartPointerBase& vtkSmartPointerBase::operator=(const vtkSmartPointerBase&) -->
        <function-decl name='operator=' mangled-name='_ZN19vtkSmartPointerBaseaSERKS_' filepath='/tmp/legendre/spack-stage/spack-stage-R_crTC/VTK-6.1.0/Common/Core/vtkSmartPointerBase.h' line='53' column='1' visibility='default' binding='global' size-in-bits='64' hash='a817333df1d437be'>
          <!-- implicit parameter of type 'vtkSmartPointerBase*' -->
          <parameter type-id='type-id-106' is-artificial='yes'/>
          <!-- parameter of type 'const vtkSmartPointerBase&' -->
          <parameter type-id='type-id-107'/>
          <!-- vtkSmartPointerBase& -->
          <return type-id='type-id-108'/>
        </function-decl>
      </member-function>
    </class-decl>
    <!-- double -->
    <type-decl name='double' size-in-bits='64' hash='e9e9b320886d9aa6' id='type-id-96'/>
    <!-- double[3] -->
    <array-type-def dimensions='1' type-id='type-id-96' size-in-bits='192' hash='61b603a63035cc10' id='type-id-11'>
      <!-- <anonymous range>[3] -->
      <subrange length='3' lower-bound='0' upper-bound='2' type-id='type-id-4' size-in-bits='64' is-anonymous='yes' hash='30d99d19f0f4b2ea' id='type-id-109'/>
    </array-type-def>
    <!-- float -->
    <type-decl name='float' size-in-bits='32' hash='d7ec3bf03d3c5690' id='type-id-86'/>
    <!-- int -->
    <type-decl name='int' size-in-bits='32' hash='09d17c08f594edc7' id='type-id-19'/>
    <!-- long double -->
    <type-decl name='long double' size-in-bits='128' hash='2a9bbfe8bb0475f1#2' id='type-id-110'/>
    <!-- long int -->
    <type-decl name='long int' size-in-bits='64' hash='b119fe0931d2ee10#2' id='type-id-111'/>
    <!-- long long int -->
    <type-decl name='long long int' size-in-bits='64' hash='5ae7f9eec1fc43d6#3' id='type-id-112'/>
    <!-- short int -->
    <type-decl name='short int' size-in-bits='16' hash='6c2352eccdcd3eea#4' id='type-id-113'/>
    <!-- signed char -->
    <type-decl name='signed char' size-in-bits='8' hash='3c595c3350588f18' id='type-id-114'/>
    <!-- struct _G_fpos64_t -->
    <class-decl name='_G_fpos64_t' is-struct='yes' visibility='default' size-in-bits='128' filepath='/usr/include/_G_config.h' line='28' column='1' hash='0f4c884858b44079' id='type-id-115'>
      <data-member access='public' layout-offset-in-bits='0'>
        <!-- __off64_t _G_fpos64_t::__pos -->
        <var-decl name='__pos' type-id='type-id-116' visibility='default' filepath='/usr/include/_G_config.h' line='29' column='1'/>
      </data-member>
      <data-member access='public' layout-offset-in-bits='64'>
        <!-- __mbstate_t _G_fpos64_t::__state -->
        <var-decl name='__state' type-id='type-id-117' visibility='default' filepath='/usr/include/_G_config.h' line='30' column='1'/>
      </data-member>
    </class-decl>
    <!-- struct _IO_FILE -->
    <class-decl name='_IO_FILE' is-struct='yes' visibility='default' size-in-bits='1728' filepath='/usr/include/libio.h' line='271' column='1' hash='29dcdce3af7c2b79' id='type-id-118'>
      <data-member access='public' layout-offset-in-bits='0'>
        <!-- int _IO_FILE::_flags -->
        <var-decl name='_flags' type-id='type-id-19' visibility='default' filepath='/usr/include/libio.h' line='272' column='1'/>
      </data-member>
      <data-member access='public' layout-offset-in-bits='64'>
        <!-- char* _IO_FILE::_IO_read_ptr -->
        <var-decl name='_IO_read_ptr' type-id='type-id-95' visibility='default' filepath='/usr/include/libio.h' line='277' column='1'/>
      </data-member>
      <data-member access='public' layout-offset-in-bits='128'>
        <!-- char* _IO_FILE::_IO_read_end -->
        <var-decl name='_IO_read_end' type-id='type-id-95' visibility='default' filepath='/usr/include/libio.h' line='278' column='1'/>
      </data-member>
      <data-member access='public' layout-offset-in-bits='192'>
        <!-- char* _IO_FILE::_IO_read_base -->
        <var-decl name='_IO_read_base' type-id='type-id-95' visibility='default' filepath='/usr/include/libio.h' line='279' column='1'/>
      </data-member>
      <data-member access='public' layout-offset-in-bits='256'>
        <!-- char* _IO_FILE::_IO_write_base -->
        <var-decl name='_IO_write_base' type-id='type-id-95' visibility='default' filepath='/usr/include/libio.h' line='280' column='1'/>
      </data-member>
      <data-member access='public' layout-offset-in-bits='320'>
        <!-- char* _IO_FILE::_IO_write_ptr -->
        <var-decl name='_IO_write_ptr' type-id='type-id-95' visibility='default' filepath='/usr/include/libio.h' line='281' column='1'/>
      </data-member>
      <data-member access='public' layout-offset-in-bits='384'>
        <!-- char* _IO_FILE::_IO_write_end -->
        <var-decl name='_IO_write_end' type-id='type-id-95' visibility='default' filepath='/usr/include/libio.h' line='282' column='1'/>
      </data-member>
      <data-member access='public' layout-offset-in-bits='448'>
        <!-- char* _IO_FILE::_IO_buf_base -->
        <var-decl name='_IO_buf_base' type-id='type-id-95' visibility='default' filepath='/usr/include/libio.h' line='283' column='1'/>
      </data-member>
      <data-member access='public' layout-offset-in-bits='512'>
        <!-- char* _IO_FILE::_IO_buf_end -->
        <var-decl name='_IO_buf_end' type-id='type-id-95' visibility='default' filepath='/usr/include/libio.h' line='284' column='1'/>
      </data-member>
      <data-member access='public' layout-offset-in-bits='576'>
        <!-- char* _IO_FILE::_IO_save_base -->
        <var-decl name='_IO_save_base' type-id='type-id-95' visibility='default' filepath='/usr/include/libio.h' line='286' column='1'/>
      </data-member>
      <data-member access='public' layout-offset-in-bits='640'>
        <!-- char* _IO_FILE::_IO_backup_base -->
        <var-decl name='_IO_backup_base' type-id='type-id-95' visibility='default' filepath='/usr/include/libio.h' line='287' column='1'/>
      </data-member>
      <data-member access='public' layout-offset-in-bits='704'>
        <!-- char* _IO_FILE::_IO_save_end -->
        <var-decl name='_IO_save_end' type-id='type-id-95' visibility='default' filepath='/usr/include/libio.h' line='288' column='1'/>
      </data-member>
      <data-member access='public' layout-offset-in-bits='768'>
        <!-- _IO_marker* _IO_FILE::_markers -->
        <var-decl name='_markers' type-id='type-id-119' visibility='default' filepath='/usr/include/libio.h' line='290' column='1'/>
      </data-member>
      <data-member access='public' layout-offset-in-bits='832'>
        <!-- _IO_FILE* _IO_FILE::_chain -->
        <var-decl name='_chain' type-id='type-id-120' visibility='default' filepath='/usr/include/libio.h' line='292' column='1'/>
      </data-member>
      <data-member access='public' layout-offset-in-bits='896'>
        <!-- int _IO_FILE::_fileno -->
        <var-decl name='_fileno' type-id='type-id-19' visibility='default' filepath='/usr/include/libio.h' line='294' column='1'/>
      </data-member>
      <data-member access='public' layout-offset-in-bits='928'>
        <!-- int _IO_FILE::_flags2 -->
        <var-decl name='_flags2' type-id='type-id-19' visibility='default' filepath='/usr/include/libio.h' line='298' column='1'/>
      </data-member>
      <data-member access='public' layout-offset-in-bits='960'>
        <!-- __off_t _IO_FILE::_old_offset -->
        <var-decl name='_old_offset' type-id='type-id-121' visibility='default' filepath='/usr/include/libio.h' line='300' column='1'/>
      </data-member>
      <data-member access='public' layout-offset-in-bits='1024'>
        <!-- unsigned short int _IO_FILE::_cur_column -->
        <var-decl name='_cur_column' type-id='type-id-122' visibility='default' filepath='/usr/include/libio.h' line='304' column='1'/>
      </data-member>
      <data-member access='public' layout-offset-in-bits='1040'>
        <!-- signed char _IO_FILE::_vtable_offset -->
        <var-decl name='_vtable_offset' type-id='type-id-114' visibility='default' filepath='/usr/include/libio.h' line='305' column='1'/>
      </data-member>
      <data-member access='public' layout-offset-in-bits='1048'>
        <!-- char _IO_FILE::_shortbuf[1] -->
        <var-decl name='_shortbuf' type-id='type-id-3' visibility='default' filepath='/usr/include/libio.h' line='306' column='1'/>
      </data-member>
      <data-member access='public' layout-offset-in-bits='1088'>
        <!-- _IO_lock_t* _IO_FILE::_lock -->
        <var-decl name='_lock' type-id='type-id-123' visibility='default' filepath='/usr/include/libio.h' line='310' column='1'/>
      </data-member>
      <data-member access='public' layout-offset-in-bits='1152'>
        <!-- __off64_t _IO_FILE::_offset -->
        <var-decl name='_offset' type-id='type-id-116' visibility='default' filepath='/usr/include/libio.h' line='319' column='1'/>
      </data-member>
      <data-member access='public' layout-offset-in-bits='1216'>
        <!-- void* _IO_FILE::__pad1 -->
        <var-decl name='__pad1' type-id='type-id-20' visibility='default' filepath='/usr/include/libio.h' line='328' column='1'/>
      </data-member>
      <data-member access='public' layout-offset-in-bits='1280'>
        <!-- void* _IO_FILE::__pad2 -->
        <var-decl name='__pad2' type-id='type-id-20' visibility='default' filepath='/usr/include/libio.h' line='329' column='1'/>
      </data-member>
      <data-member access='public' layout-offset-in-bits='1344'>
        <!-- void* _IO_FILE::__pad3 -->
        <var-decl name='__pad3' type-id='type-id-20' visibility='default' filepath='/usr/include/libio.h' line='330' column='1'/>
      </data-member>
      <data-member access='public' layout-offset-in-bits='1408'>
        <!-- void* _IO_FILE::__pad4 -->
        <var-decl name='__pad4' type-id='type-id-20' visibility='default' filepath='/usr/include/libio.h' line='331' column='1'/>
      </data-member>
      <data-member access='public' layout-offset-in-bits='1472'>
        <!-- size_t _IO_FILE::__pad5 -->
        <var-decl name='__pad5' type-id='type-id-124' visibility='default' filepath='/usr/include/libio.h' line='332' column='1'/>
      </data-member>
      <data-member access='public' layout-offset-in-bits='1536'>
        <!-- int _IO_FILE::_mode -->
        <var-decl name='_mode' type-id='type-id-19' visibility='default' filepath='/usr/include/libio.h' line='334' column='1'/>
      </data-member>
      <data-member access='public' layout-offset-in-bits='1568'>
        <!-- char _IO_FILE::_unused2[20] -->
        <var-decl name='_unused2' type-id='type-id-6' visibility='default' filepath='/usr/include/libio.h' line='336' column='1'/>
      </data-member>
    </class-decl>
    <!-- struct _IO_marker -->
    <class-decl name='_IO_marker' is-struct='yes' visibility='default' size-in-bits='192' filepath='/usr/include/libio.h' line='186' column='1' hash='263be23b1e79201c' id='type-id-125'>
      <data-member access='public' layout-offset-in-bits='0'>
        <!-- _IO_marker* _IO_marker::_next -->
        <var-decl name='_next' type-id='type-id-119' visibility='default' filepath='/usr/include/libio.h' line='187' column='1'/>
      </data-member>
      <data-member access='public' layout-offset-in-bits='64'>
        <!-- _IO_FILE* _IO_marker::_sbuf -->
        <var-decl name='_sbuf' type-id='type-id-120' visibility='default' filepath='/usr/include/libio.h' line='188' column='1'/>
      </data-member>
      <data-member access='public' layout-offset-in-bits='128'>
        <!-- int _IO_marker::_pos -->
        <var-decl name='_pos' type-id='type-id-19' visibility='default' filepath='/usr/include/libio.h' line='192' column='1'/>
      </data-member>
    </class-decl>
    <!-- struct __mbstate_t -->
    <class-decl name='__mbstate_t' is-struct='yes' visibility='default' size-in-bits='64' filepath='/usr/include/wchar.h' line='84' column='1' hash='e97fe294ce223fec' id='type-id-117'>
      <member-type access='public'>
        <!-- union {unsigned int __wch; char __wchb[4];} -->
        <union-decl name='__anonymous_union__' visibility='default' size-in-bits='32' is-anonymous='yes' filepath='/usr/include/wchar.h' line='87' column='1' hash='db9d16b710a8f305' id='type-id-126'>
          <data-member access='public'>
            <!-- unsigned int __wch -->
            <var-decl name='__wch' type-id='type-id-88' visibility='default' filepath='/usr/include/wchar.h' line='89' column='1'/>
          </data-member>
          <data-member access='public'>
            <!-- char __wchb[4] -->
            <var-decl name='__wchb' type-id='type-id-8' visibility='default' filepath='/usr/include/wchar.h' line='93' column='1'/>
          </data-member>
        </union-decl>
      </member-type>
      <data-member access='public' layout-offset-in-bits='0'>
        <!-- int __mbstate_t::__count -->
        <var-decl name='__count' type-id='type-id-19' visibility='default' filepath='/usr/include/wchar.h' line='85' column='1'/>
      </data-member>
      <data-member access='public' layout-offset-in-bits='32'>
        <!-- union {unsigned int __wch; char __wchb[4];} __mbstate_t::__value -->
        <var-decl name='__value' type-id='type-id-126' visibility='default' filepath='/usr/include/wchar.h' line='94' column='1'/>
      </data-member>
    </class-decl>
    <!-- struct div_t -->
    <class-decl name='div_t' is-struct='yes' visibility='default' size-in-bits='64' filepath='/usr/include/stdlib.h' line='99' column='1' hash='5321a6845884f9ce' id='type-id-127'>
      <data-member access='public' layout-offset-in-bits='0'>
        <!-- int div_t::quot -->
        <var-decl name='quot' type-id='type-id-19' visibility='default' filepath='/usr/include/stdlib.h' line='100' column='1'/>
      </data-member>
      <data-member access='public' layout-offset-in-bits='32'>
        <!-- int div_t::rem -->
        <var-decl name='rem' type-id='type-id-19' visibility='default' filepath='/usr/include/stdlib.h' line='101' column='1'/>
      </data-member>
    </class-decl>
    <!-- struct lconv -->
    <class-decl name='lconv' is-struct='yes' visibility='default' size-in-bits='768' filepath='/usr/include/locale.h' line='55' column='1' hash='91b2fd0786b4df3e' id='type-id-128'>
      <data-member access='public' layout-offset-in-bits='0'>
        <!-- char* lconv::decimal_point -->
        <var-decl name='decimal_point' type-id='type-id-95' visibility='default' filepath='/usr/include/locale.h' line='58' column='1'/>
      </data-member>
      <data-member access='public' layout-offset-in-bits='64'>
        <!-- char* lconv::thousands_sep -->
        <var-decl name='thousands_sep' type-id='type-id-95' visibility='default' filepath='/usr/include/locale.h' line='59' column='1'/>
      </data-member>
      <data-member access='public' layout-offset-in-bits='128'>
        <!-- char* lconv::grouping -->
        <var-decl name='grouping' type-id='type-id-95' visibility='default' filepath='/usr/include/locale.h' line='65' column='1'/>
      </data-member>
      <data-member access='public' layout-offset-in-bits='192'>
        <!-- char* lconv::int_curr_symbol -->
        <var-decl name='int_curr_symbol' type-id='type-id-95' visibility='default' filepath='/usr/include/locale.h' line='71' column='1'/>
      </data-member>
      <data-member access='public' layout-offset-in-bits='256'>
        <!-- char* lconv::currency_symbol -->
        <var-decl name='currency_symbol' type-id='type-id-95' visibility='default' filepath='/usr/include/locale.h' line='72' column='1'/>
      </data-member>
      <data-member access='public' layout-offset-in-bits='320'>
        <!-- char* lconv::mon_decimal_point -->
        <var-decl name='mon_decimal_point' type-id='type-id-95' visibility='default' filepath='/usr/include/locale.h' line='73' column='1'/>
      </data-member>
      <data-member access='public' layout-offset-in-bits='384'>
        <!-- char* lconv::mon_thousands_sep -->
        <var-decl name='mon_thousands_sep' type-id='type-id-95' visibility='default' filepath='/usr/include/locale.h' line='74' column='1'/>
      </data-member>
      <data-member access='public' layout-offset-in-bits='448'>
        <!-- char* lconv::mon_grouping -->
        <var-decl name='mon_grouping' type-id='type-id-95' visibility='default' filepath='/usr/include/locale.h' line='75' column='1'/>
      </data-member>
      <data-member access='public' layout-offset-in-bits='512'>
        <!-- char* lconv::positive_sign -->
        <var-decl name='positive_sign' type-id='type-id-95' visibility='default' filepath='/usr/include/locale.h' line='76' column='1'/>
      </data-member>
      <data-member access='public' layout-offset-in-bits='576'>
        <!-- char* lconv::negative_sign -->
        <var-decl name='negative_sign' type-id='type-id-95' visibility='default' filepath='/usr/include/locale.h' line='77' column='1'/>
      </data-member>
      <data-member access='public' layout-offset-in-bits='640'>
        <!-- char lconv::int_frac_digits -->
        <var-decl name='int_frac_digits' type-id='type-id-2' visibility='default' filepath='/usr/include/locale.h' line='78' column='1'/>
      </data-member>
      <data-member access='public' layout-offset-in-bits='648'>
        <!-- char lconv::frac_digits -->
        <var-decl name='frac_digits' type-id='type-id-2' visibility='default' filepath='/usr/include/locale.h' line='79' column='1'/>
      </data-member>
      <data-member access='public' layout-offset-in-bits='656'>
        <!-- char lconv::p_cs_precedes -->
        <var-decl name='p_cs_precedes' type-id='type-id-2' visibility='default' filepath='/usr/include/locale.h' line='81' column='1'/>
      </data-member>
      <data-member access='public' layout-offset-in-bits='664'>
        <!-- char lconv::p_sep_by_space -->
        <var-decl name='p_sep_by_space' type-id='type-id-2' visibility='default' filepath='/usr/include/locale.h' line='83' column='1'/>
      </data-member>
      <data-member access='public' layout-offset-in-bits='672'>
        <!-- char lconv::n_cs_precedes -->
        <var-decl name='n_cs_precedes' type-id='type-id-2' visibility='default' filepath='/usr/include/locale.h' line='85' column='1'/>
      </data-member>
      <data-member access='public' layout-offset-in-bits='680'>
        <!-- char lconv::n_sep_by_space -->
        <var-decl name='n_sep_by_space' type-id='type-id-2' visibility='default' filepath='/usr/include/locale.h' line='87' column='1'/>
      </data-member>
      <data-member access='public' layout-offset-in-bits='688'>
        <!-- char lconv::p_sign_posn -->
        <var-decl name='p_sign_posn' type-id='type-id-2' visibility='default' filepath='/usr/include/locale.h' line='94' column='1'/>
      </data-member>
      <data-member access='public' layout-offset-in-bits='696'>
        <!-- char lconv::n_sign_posn -->
        <var-decl name='n_sign_posn' type-id='type-id-2' visibility='default' filepath='/usr/include/locale.h' line='95' column='1'/>
      </data-member>
      <data-member access='public' layout-offset-in-bits='704'>
        <!-- char lconv::int_p_cs_precedes -->
        <var-decl name='int_p_cs_precedes' type-id='type-id-2' visibility='default' filepath='/usr/include/locale.h' line='98' column='1'/>
      </data-member>
      <data-member access='public' layout-offset-in-bits='712'>
        <!-- char lconv::int_p_sep_by_space -->
        <var-decl name='int_p_sep_by_space' type-id='type-id-2' visibility='default' filepath='/usr/include/locale.h' line='100' column='1'/>
      </data-member>
      <data-member access='public' layout-offset-in-bits='720'>
        <!-- char lconv::int_n_cs_precedes -->
        <var-decl name='int_n_cs_precedes' type-id='type-id-2' visibility='default' filepath='/usr/include/locale.h' line='102' column='1'/>
      </data-member>
      <data-member access='public' layout-offset-in-bits='728'>
        <!-- char lconv::int_n_sep_by_space -->
        <var-decl name='int_n_sep_by_space' type-id='type-id-2' visibility='default' filepath='/usr/include/locale.h' line='104' column='1'/>
      </data-member>
      <data-member access='public' layout-offset-in-bits='736'>
        <!-- char lconv::int_p_sign_posn -->
        <var-decl name='int_p_sign_posn' type-id='type-id-2' visibility='default' filepath='/usr/include/locale.h' line='111' column='1'/>
      </data-member>
      <data-member access='public' layout-offset-in-bits='744'>
        <!-- char lconv::int_n_sign_posn -->
        <var-decl name='int_n_sign_posn' type-id='type-id-2' visibility='default' filepath='/usr/include/locale.h' line='112' column='1'/>
      </data-member>
    </class-decl>
    <!-- struct ldiv_t -->
    <class-decl name='ldiv_t' is-struct='yes' visibility='default' size-in-bits='128' filepath='/usr/include/stdlib.h' line='107' column='1' hash='f73ee30feb9e9f76' id='type-id-129'>
      <data-member access='public' layout-offset-in-bits='0'>
        <!-- long int ldiv_t::quot -->
        <var-decl name='quot' type-id='type-id-111' visibility='default' filepath='/usr/include/stdlib.h' line='108' column='1'/>
      </data-member>
      <data-member access='public' layout-offset-in-bits='64'>
        <!-- long int ldiv_t::rem -->
        <var-decl name='rem' type-id='type-id-111' visibility='default' filepath='/usr/include/stdlib.h' line='109' column='1'/>
      </data-member>
    </class-decl>
    <!-- struct lldiv_t -->
    <class-decl name='lldiv_t' is-struct='yes' visibility='default' size-in-bits='128' filepath='/usr/include/stdlib.h' line='119' column='1' hash='564e04be97ca0408' id='type-id-130'>
      <data-member access='public' layout-offset-in-bits='0'>
        <!-- long long int lldiv_t::quot -->
        <var-decl name='quot' type-id='type-id-112' visibility='default' filepath='/usr/include/stdlib.h' line='120' column='1'/>
      </data-member>
      <data-member access='public' layout-offset-in-bits='64'>
        <!-- long long int lldiv_t::rem -->
        <var-decl name='rem' type-id='type-id-112' visibility='default' filepath='/usr/include/stdlib.h' line='121' column='1'/>
      </data-member>
    </class-decl>
    <!-- struct tm -->
    <class-decl name='tm' is-struct='yes' visibility='default' size-in-bits='448' filepath='/usr/include/time.h' line='134' column='1' hash='831fa813c3806379' id='type-id-131'>
      <data-member access='public' layout-offset-in-bits='0'>
        <!-- int tm::tm_sec -->
        <var-decl name='tm_sec' type-id='type-id-19' visibility='default' filepath='/usr/include/time.h' line='135' column='1'/>
      </data-member>
      <data-member access='public' layout-offset-in-bits='32'>
        <!-- int tm::tm_min -->
        <var-decl name='tm_min' type-id='type-id-19' visibility='default' filepath='/usr/include/time.h' line='136' column='1'/>
      </data-member>
      <data-member access='public' layout-offset-in-bits='64'>
        <!-- int tm::tm_hour -->
        <var-decl name='tm_hour' type-id='type-id-19' visibility='default' filepath='/usr/include/time.h' line='137' column='1'/>
      </data-member>
      <data-member access='public' layout-offset-in-bits='96'>
        <!-- int tm::tm_mday -->
        <var-decl name='tm_mday' type-id='type-id-19' visibility='default' filepath='/usr/include/time.h' line='138' column='1'/>
      </data-member>
      <data-member access='public' layout-offset-in-bits='128'>
        <!-- int tm::tm_mon -->
        <var-decl name='tm_mon' type-id='type-id-19' visibility='default' filepath='/usr/include/time.h' line='139' column='1'/>
      </data-member>
      <data-member access='public' layout-offset-in-bits='160'>
        <!-- int tm::tm_year -->
        <var-decl name='tm_year' type-id='type-id-19' visibility='default' filepath='/usr/include/time.h' line='140' column='1'/>
      </data-member>
      <data-member access='public' layout-offset-in-bits='192'>
        <!-- int tm::tm_wday -->
        <var-decl name='tm_wday' type-id='type-id-19' visibility='default' filepath='/usr/include/time.h' line='141' column='1'/>
      </data-member>
      <data-member access='public' layout-offset-in-bits='224'>
        <!-- int tm::tm_yday -->
        <var-decl name='tm_yday' type-id='type-id-19' visibility='default' filepath='/usr/include/time.h' line='142' column='1'/>
      </data-member>
      <data-member access='public' layout-offset-in-bits='256'>
        <!-- int tm::tm_isdst -->
        <var-decl name='tm_isdst' type-id='type-id-19' visibility='default' filepath='/usr/include/time.h' line='143' column='1'/>
      </data-member>
      <data-member access='public' layout-offset-in-bits='320'>
        <!-- long int tm::tm_gmtoff -->
        <var-decl name='tm_gmtoff' type-id='type-id-111' visibility='default' filepath='/usr/include/time.h' line='146' column='1'/>
      </data-member>
      <data-member access='public' layout-offset-in-bits='384'>
        <!-- const char* tm::tm_zone -->
        <var-decl name='tm_zone' type-id='type-id-33' visibility='default' filepath='/usr/include/time.h' line='147' column='1'/>
      </data-member>
    </class-decl>
    <!-- struct typedef __va_list_tag __va_list_tag -->
    <class-decl name='typedef __va_list_tag __va_list_tag' is-struct='yes' visibility='default' size-in-bits='192' hash='82aec996f90384a2' id='type-id-132'>
      <data-member access='public' layout-offset-in-bits='0'>
        <!-- unsigned int typedef __va_list_tag __va_list_tag::gp_offset -->
        <var-decl name='gp_offset' type-id='type-id-88' visibility='default'/>
      </data-member>
      <data-member access='public' layout-offset-in-bits='32'>
        <!-- unsigned int typedef __va_list_tag __va_list_tag::fp_offset -->
        <var-decl name='fp_offset' type-id='type-id-88' visibility='default'/>
      </data-member>
      <data-member access='public' layout-offset-in-bits='64'>
        <!-- void* typedef __va_list_tag __va_list_tag::overflow_arg_area -->
        <var-decl name='overflow_arg_area' type-id='type-id-20' visibility='default'/>
      </data-member>
      <data-member access='public' layout-offset-in-bits='128'>
        <!-- void* typedef __va_list_tag __va_list_tag::reg_save_area -->
        <var-decl name='reg_save_area' type-id='type-id-20' visibility='default'/>
      </data-member>
    </class-decl>
    <!-- struct vtkTypeTraits<int> -->
    <class-decl name='vtkTypeTraits&lt;int&gt;' is-struct='yes' visibility='default' size-in-bits='8' filepath='/tmp/legendre/spack-stage/spack-stage-R_crTC/VTK-6.1.0/Common/Core/vtkTypeTraits.h' line='99' column='1' hash='b512d0adb8381332' id='type-id-133'/>
    <!-- typedef _IO_FILE FILE -->
    <typedef-decl name='FILE' type-id='type-id-118' size-in-bits='1728' filepath='/usr/include/stdio.h' line='49' column='1' id='type-id-134'/>
    <!-- typedef void _IO_lock_t -->
    <typedef-decl name='_IO_lock_t' type-id='type-id-14' filepath='/usr/include/libio.h' line='180' column='1' id='type-id-135'/>
    <!-- typedef _IO_FILE __FILE -->
    <typedef-decl name='__FILE' type-id='type-id-118' size-in-bits='1728' filepath='/usr/include/stdio.h' line='65' column='1' id='type-id-136'/>
    <!-- typedef int (*)(void*, void*) __compar_fn_t -->
    <typedef-decl name='__compar_fn_t' type-id='type-id-137' size-in-bits='64' filepath='/usr/include/stdlib.h' line='742' column='1' hash='fd7a63c0c6c822c4' id='type-id-138'/>
    <!-- typedef int __int32_t -->
    <typedef-decl name='__int32_t' type-id='type-id-19' size-in-bits='32' filepath='/usr/include/bits/types.h' line='41' column='1' hash='09d17c08f594edc7' id='type-id-139'/>
    <!-- typedef long int __off64_t -->
    <typedef-decl name='__off64_t' type-id='type-id-111' size-in-bits='64' filepath='/usr/include/bits/types.h' line='142' column='1' hash='b119fe0931d2ee10' id='type-id-116'/>
    <!-- typedef long int __off_t -->
    <typedef-decl name='__off_t' type-id='type-id-111' size-in-bits='64' filepath='/usr/include/bits/types.h' line='141' column='1' hash='b119fe0931d2ee10' id='type-id-121'/>
    <!-- typedef _G_fpos64_t fpos_t -->
    <typedef-decl name='fpos_t' type-id='type-id-115' size-in-bits='128' filepath='/usr/include/stdio.h' line='113' column='1' id='type-id-140'/>
    <!-- typedef __mbstate_t mbstate_t -->
    <typedef-decl name='mbstate_t' type-id='type-id-117' size-in-bits='64' filepath='/usr/include/wchar.h' line='106' column='1' id='type-id-141'/>
    <!-- typedef long int ptrdiff_t -->
    <typedef-decl name='ptrdiff_t' type-id='type-id-111' size-in-bits='64' filepath='/usr/lib/gcc/x86_64-redhat-linux/4.4.7/include/stddef.h' line='149' column='1' hash='b119fe0931d2ee10' id='type-id-142'/>
    <!-- typedef unsigned long int size_t -->
    <typedef-decl name='size_t' type-id='type-id-4' size-in-bits='64' filepath='/usr/lib/gcc/x86_64-redhat-linux/4.4.7/include/stddef.h' line='211' column='1' hash='8fdc5eea2983a729' id='type-id-124'/>
    <!-- typedef long long int vtkIdType -->
    <typedef-decl name='vtkIdType' type-id='type-id-112' size-in-bits='64' filepath='/tmp/legendre/spack-stage/spack-stage-R_crTC/VTK-6.1.0/Common/Core/vtkType.h' line='255' column='1' hash='5ae7f9eec1fc43d6' id='type-id-21'/>
    <!-- typedef long long int vtkTypeInt64 -->
    <typedef-decl name='vtkTypeInt64' type-id='type-id-112' size-in-bits='64' filepath='/tmp/legendre/spack-stage/spack-stage-R_crTC/VTK-6.1.0/Common/Core/vtkType.h' line='212' column='1' hash='5ae7f9eec1fc43d6' id='type-id-94'/>
    <!-- typedef unsigned long long int vtkTypeUInt64 -->
    <typedef-decl name='vtkTypeUInt64' type-id='type-id-143' size-in-bits='64' filepath='/tmp/legendre/spack-stage/spack-stage-R_crTC/VTK-6.1.0/Common/Core/vtkType.h' line='211' column='1' hash='ebdfc4685a1e82df' id='type-id-89'/>
    <!-- typedef const __int32_t* wctrans_t -->
    <typedef-decl name='wctrans_t' type-id='type-id-144' size-in-bits='64' filepath='/usr/include/wctype.h' line='187' column='1' hash='96e1bfcb27b9d6ed' id='type-id-145'/>
    <!-- typedef unsigned long int wctype_t -->
    <typedef-decl name='wctype_t' type-id='type-id-4' size-in-bits='64' filepath='/usr/include/wctype.h' line='53' column='1' hash='8fdc5eea2983a729' id='type-id-146'/>
    <!-- typedef unsigned int wint_t -->
    <typedef-decl name='wint_t' type-id='type-id-88' size-in-bits='32' filepath='/usr/lib/gcc/x86_64-redhat-linux/4.4.7/include/stddef.h' line='352' column='1' hash='e66b43f97c38e87a' id='type-id-147'/>
    <!-- unnamed&#45;enum&#45;underlying&#45;type&#45;32 -->
    <type-decl name='unnamed-enum-underlying-type-32' size-in-bits='32' alignment-in-bits='32' is-anonymous='yes' hash='5181a58e665b3619' id='type-id-23'/>
    <!-- unsigned char -->
    <type-decl name='unsigned char' size-in-bits='8' hash='6ebac62b3366db68' id='type-id-64'/>
    <!-- unsigned int -->
    <type-decl name='unsigned int' size-in-bits='32' hash='e66b43f97c38e87a' id='type-id-88'/>
    <!-- unsigned long int -->
    <type-decl name='unsigned long int' size-in-bits='64' hash='8fdc5eea2983a729#2' id='type-id-4'/>
    <!-- unsigned long long int -->
    <type-decl name='unsigned long long int' size-in-bits='64' hash='ebdfc4685a1e82df#3' id='type-id-143'/>
    <!-- unsigned short int -->
    <type-decl name='unsigned short int' size-in-bits='16' hash='d7723bb93a30b11d#4' id='type-id-122'/>
    <!-- wchar_t -->
    <type-decl name='wchar_t' size-in-bits='32' hash='4b224bc24abb5f1b' id='type-id-148'/>
    <!-- FILE* -->
    <pointer-type-def type-id='type-id-134' size-in-bits='64' hash='4cdc26b379a5c62d' id='type-id-149'/>
    <!-- _IO_FILE* -->
    <pointer-type-def type-id='type-id-118' size-in-bits='64' hash='071f36dcbe00ad00' id='type-id-120'/>
    <!-- _IO_marker* -->
    <pointer-type-def type-id='type-id-125' size-in-bits='64' hash='4265a0e1ed6483b0' id='type-id-119'/>
    <!-- __FILE* -->
    <pointer-type-def type-id='type-id-136' size-in-bits='64' hash='1a16dc71bfc55192' id='type-id-150'/>
    <!-- __gnu_cxx::__normal_iterator<unsigned char*, std::vector<unsigned char, std::allocator<unsigned char> > >& -->
    <reference-type-def kind='lvalue' type-id='type-id-151' size-in-bits='64' hash='d7a5072914ebddeb' id='type-id-152'/>
    <!-- __gnu_cxx::__normal_iterator<unsigned char*, std::vector<unsigned char, std::allocator<unsigned char> > >* -->
    <pointer-type-def type-id='type-id-151' size-in-bits='64' hash='2564e859e037028e' id='type-id-153'/>
    <!-- __gnu_cxx::__normal_iterator<unsigned char*, std::vector<unsigned char, std::allocator<unsigned char> > >* const -->
    <qualified-type-def type-id='type-id-153' const='yes' hash='c6d1b13d773d3015' id='type-id-154'/>
    <!-- __gnu_cxx::new_allocator<char>* -->
    <pointer-type-def type-id='type-id-155' size-in-bits='64' hash='608f46af5d93b320' id='type-id-156'/>
    <!-- __gnu_cxx::new_allocator<long long int>* -->
    <pointer-type-def type-id='type-id-157' size-in-bits='64' hash='52b49662dd37deb3' id='type-id-158'/>
    <!-- __gnu_cxx::new_allocator<long long int>* const -->
    <qualified-type-def type-id='type-id-158' const='yes' hash='7b98196ad414b871' id='type-id-159'/>
    <!-- __gnu_cxx::new_allocator<unsigned char>* -->
    <pointer-type-def type-id='type-id-160' size-in-bits='64' hash='7c12878d9223e991' id='type-id-161'/>
    <!-- __gnu_cxx::new_allocator<unsigned char>* const -->
    <qualified-type-def type-id='type-id-161' const='yes' hash='3d24ceae0e587a51' id='type-id-162'/>
    <!-- char& -->
    <reference-type-def kind='lvalue' type-id='type-id-2' size-in-bits='64' hash='ffc913127619398d' id='type-id-70'/>
    <!-- char* -->
    <pointer-type-def type-id='type-id-2' size-in-bits='64' hash='e533f42d1dd4942c' id='type-id-95'/>
    <!-- char*& -->
    <reference-type-def kind='lvalue' type-id='type-id-95' size-in-bits='64' hash='41930ea09a217155' id='type-id-83'/>
    <!-- char** -->
    <pointer-type-def type-id='type-id-95' size-in-bits='64' hash='a93039fe023ed77b' id='type-id-163'/>
    <!-- const __gnu_cxx::__normal_iterator<unsigned char*, std::vector<unsigned char, std::allocator<unsigned char> > > -->
    <qualified-type-def type-id='type-id-151' const='yes' hash='94ab378104b63372' id='type-id-164'/>
    <!-- const __gnu_cxx::__normal_iterator<unsigned char*, std::vector<unsigned char, std::allocator<unsigned char> > >& -->
    <reference-type-def kind='lvalue' type-id='type-id-164' size-in-bits='64' hash='17b7add7b786b5c1' id='type-id-165'/>
    <!-- const __gnu_cxx::__normal_iterator<unsigned char*, std::vector<unsigned char, std::allocator<unsigned char> > >* -->
    <pointer-type-def type-id='type-id-164' size-in-bits='64' hash='3309fe5809fc4ba3' id='type-id-166'/>
    <!-- const __gnu_cxx::__normal_iterator<unsigned char*, std::vector<unsigned char, std::allocator<unsigned char> > >* const -->
    <qualified-type-def type-id='type-id-166' const='yes' hash='d23c6aefb61850a1' id='type-id-167'/>
    <!-- const __gnu_cxx::new_allocator<char> -->
    <qualified-type-def type-id='type-id-155' const='yes' hash='d0c896a319e39135' id='type-id-168'/>
    <!-- const __gnu_cxx::new_allocator<char>& -->
    <reference-type-def kind='lvalue' type-id='type-id-168' size-in-bits='64' hash='9a4f67b0de72c33d' id='type-id-169'/>
    <!-- const __gnu_cxx::new_allocator<char>* -->
    <pointer-type-def type-id='type-id-168' size-in-bits='64' hash='0481e4c0dbe5485f' id='type-id-170'/>
    <!-- const __gnu_cxx::new_allocator<long long int> -->
    <qualified-type-def type-id='type-id-157' const='yes' hash='afba99a942661be1' id='type-id-171'/>
    <!-- const __gnu_cxx::new_allocator<long long int>& -->
    <reference-type-def kind='lvalue' type-id='type-id-171' size-in-bits='64' hash='6987dc9f907a7c92' id='type-id-172'/>
    <!-- const __gnu_cxx::new_allocator<long long int>* -->
    <pointer-type-def type-id='type-id-171' size-in-bits='64' hash='b36a7435b73eac8a' id='type-id-173'/>
    <!-- const __gnu_cxx::new_allocator<long long int>* const -->
    <qualified-type-def type-id='type-id-173' const='yes' hash='3003ddbf03a9e7c3' id='type-id-174'/>
    <!-- const __gnu_cxx::new_allocator<unsigned char> -->
    <qualified-type-def type-id='type-id-160' const='yes' hash='4f9d03a23cc2da62' id='type-id-175'/>
    <!-- const __gnu_cxx::new_allocator<unsigned char>& -->
    <reference-type-def kind='lvalue' type-id='type-id-175' size-in-bits='64' hash='3d17413bf8b36312' id='type-id-176'/>
    <!-- const __gnu_cxx::new_allocator<unsigned char>* -->
    <pointer-type-def type-id='type-id-175' size-in-bits='64' hash='642a29c004b51d90' id='type-id-177'/>
    <!-- const __gnu_cxx::new_allocator<unsigned char>* const -->
    <qualified-type-def type-id='type-id-177' const='yes' hash='613c3c68e02e0adc' id='type-id-178'/>
    <!-- const __int32_t -->
    <qualified-type-def type-id='type-id-139' const='yes' hash='3aaf0f2479f2834c' id='type-id-179'/>
    <!-- const __int32_t* -->
    <pointer-type-def type-id='type-id-179' size-in-bits='64' hash='96e1bfcb27b9d6ed' id='type-id-144'/>
    <!-- const char -->
    <qualified-type-def type-id='type-id-2' const='yes' hash='3e50fd33f9bb78d9' id='type-id-180'/>
    <!-- const char& -->
    <reference-type-def kind='lvalue' type-id='type-id-180' size-in-bits='64' hash='78bf127c69ae91c1' id='type-id-181'/>
    <!-- const char* -->
    <pointer-type-def type-id='type-id-180' size-in-bits='64' hash='c44743f354f6a443' id='type-id-33'/>
    <!-- const char** -->
    <pointer-type-def type-id='type-id-33' size-in-bits='64' hash='cea1d4b0943594a3' id='type-id-182'/>
    <!-- const double -->
    <qualified-type-def type-id='type-id-96' const='yes' hash='69c7e12064986339' id='type-id-183'/>
    <!-- const double* -->
    <pointer-type-def type-id='type-id-183' size-in-bits='64' hash='f7a173481809f07d' id='type-id-13'/>
    <!-- const float -->
    <qualified-type-def type-id='type-id-86' const='yes' hash='03855f78902f9a2e' id='type-id-184'/>
    <!-- const float* -->
    <pointer-type-def type-id='type-id-184' size-in-bits='64' hash='4f94bb6e36fd449b' id='type-id-185'/>
    <!-- const fpos_t -->
    <qualified-type-def type-id='type-id-140' const='yes' hash='d85759e223fc0d30' id='type-id-186'/>
    <!-- const fpos_t* -->
    <pointer-type-def type-id='type-id-186' size-in-bits='64' hash='f7e9f827001f357b' id='type-id-187'/>
    <!-- const int -->
    <qualified-type-def type-id='type-id-19' const='yes' hash='8cef8df4b6728924' id='type-id-188'/>
    <!-- const int* -->
    <pointer-type-def type-id='type-id-188' size-in-bits='64' hash='15e84cc8db4ed19c' id='type-id-189'/>
    <!-- const long long int -->
    <qualified-type-def type-id='type-id-112' const='yes' hash='41f3638642001aff#2' id='type-id-190'/>
    <!-- const long long int& -->
    <reference-type-def kind='lvalue' type-id='type-id-190' size-in-bits='64' hash='c70e20ca74aa4f90#2' id='type-id-191'/>
    <!-- const long long int* -->
    <pointer-type-def type-id='type-id-190' size-in-bits='64' hash='f847e5f466c92894#2' id='type-id-192'/>
    <!-- const mbstate_t -->
    <qualified-type-def type-id='type-id-141' const='yes' hash='a328f2686e4dcc6e' id='type-id-193'/>
    <!-- const mbstate_t* -->
    <pointer-type-def type-id='type-id-193' size-in-bits='64' hash='965b139f91617649' id='type-id-194'/>
    <!-- const ptrdiff_t -->
    <qualified-type-def type-id='type-id-142' const='yes' hash='db73a2d05abb307a' id='type-id-195'/>
    <!-- const ptrdiff_t& -->
    <reference-type-def kind='lvalue' type-id='type-id-195' size-in-bits='64' hash='bc6440d28416e942' id='type-id-196'/>
    <!-- const size_t -->
    <qualified-type-def type-id='type-id-124' const='yes' hash='86827e66a8bd4e2d' id='type-id-197'/>
    <!-- const size_t& -->
    <reference-type-def kind='lvalue' type-id='type-id-197' size-in-bits='64' hash='59df9380ec284028' id='type-id-198'/>
    <!-- const std::_Vector_base<long long int, std::allocator<long long int> > -->
    <qualified-type-def type-id='type-id-199' const='yes' hash='847bc4c930402b84' id='type-id-200'/>
    <!-- const std::_Vector_base<long long int, std::allocator<long long int> >* -->
    <pointer-type-def type-id='type-id-200' size-in-bits='64' hash='80a47200c38baed2' id='type-id-201'/>
    <!-- const std::_Vector_base<unsigned char, std::allocator<unsigned char> > -->
    <qualified-type-def type-id='type-id-202' const='yes' hash='a34fc2eae6172d32' id='type-id-203'/>
    <!-- const std::_Vector_base<unsigned char, std::allocator<unsigned char> >* -->
    <pointer-type-def type-id='type-id-203' size-in-bits='64' hash='b224f5ad5c2bcc1c' id='type-id-204'/>
    <!-- const std::_Vector_base<unsigned char, std::allocator<unsigned char> >* const -->
    <qualified-type-def type-id='type-id-204' const='yes' hash='d02948677235cb73' id='type-id-205'/>
    <!-- const std::__miter_base<const vtkCommunicator::ReduceVoidArray::VTK_TT*, false>::VTK_TT -->
    <qualified-type-def type-id='type-id-206' const='yes' hash='9ce79e4aa37dc8ec' id='type-id-207'/>
    <!-- const std::__miter_base<const vtkCommunicator::ReduceVoidArray::VTK_TT*, false>::VTK_TT -->
    <qualified-type-def type-id='type-id-208' const='yes' hash='c5e8ec6b5343c67b#2' id='type-id-209'/>
    <!-- const std::__miter_base<const vtkCommunicator::ReduceVoidArray::VTK_TT*, false>::VTK_TT -->
    <qualified-type-def type-id='type-id-210' const='yes' hash='a51f9eec9a91ce6a#3' id='type-id-211'/>
    <!-- const std::__miter_base<const vtkCommunicator::ReduceVoidArray::VTK_TT*, false>::VTK_TT -->
    <qualified-type-def type-id='type-id-212' const='yes' hash='3e7d7303e7f4dd0f#4' id='type-id-213'/>
    <!-- const std::__miter_base<const vtkCommunicator::ReduceVoidArray::VTK_TT*, false>::VTK_TT -->
    <qualified-type-def type-id='type-id-214' const='yes' hash='bfd42193da6c332d#5' id='type-id-215'/>
    <!-- const std::__miter_base<const vtkCommunicator::ReduceVoidArray::VTK_TT*, false>::VTK_TT -->
    <qualified-type-def type-id='type-id-216' const='yes' hash='f02ba537e1d9753f#6' id='type-id-217'/>
    <!-- const std::__miter_base<const vtkCommunicator::ReduceVoidArray::VTK_TT*, false>::VTK_TT -->
    <qualified-type-def type-id='type-id-218' const='yes' hash='887cd5c68b426871#7' id='type-id-219'/>
    <!-- const std::__miter_base<const vtkCommunicator::ReduceVoidArray::VTK_TT*, false>::VTK_TT -->
    <qualified-type-def type-id='type-id-220' const='yes' hash='293b457337d9b187#8' id='type-id-221'/>
    <!-- const std::__miter_base<const vtkCommunicator::ReduceVoidArray::VTK_TT*, false>::VTK_TT -->
    <qualified-type-def type-id='type-id-222' const='yes' hash='c6444fe22074e391#9' id='type-id-223'/>
    <!-- const std::__miter_base<const vtkCommunicator::ReduceVoidArray::VTK_TT*, false>::VTK_TT -->
    <qualified-type-def type-id='type-id-224' const='yes' hash='e25b817ebec5c6fa#10' id='type-id-225'/>
    <!-- const std::__miter_base<const vtkCommunicator::ReduceVoidArray::VTK_TT*, false>::VTK_TT -->
    <qualified-type-def type-id='type-id-226' const='yes' hash='232c0cb6f0b2403a#11' id='type-id-227'/>
    <!-- const std::__miter_base<const vtkCommunicator::ReduceVoidArray::VTK_TT*, false>::VTK_TT -->
    <qualified-type-def type-id='type-id-228' const='yes' hash='a3b8373e0bd2f284#12' id='type-id-229'/>
    <!-- const std::__miter_base<const vtkCommunicator::ReduceVoidArray::VTK_TT*, false>::VTK_TT -->
    <qualified-type-def type-id='type-id-230' const='yes' hash='070a4f29feb60042#13' id='type-id-231'/>
    <!-- const std::__miter_base<const vtkCommunicator::ReduceVoidArray::VTK_TT*, false>::VTK_TT& -->
    <reference-type-def kind='lvalue' type-id='type-id-223' size-in-bits='64' hash='abebbf5b67f13ac6' id='type-id-232'/>
    <!-- const std::__miter_base<const vtkCommunicator::ReduceVoidArray::VTK_TT*, false>::VTK_TT* -->
    <pointer-type-def type-id='type-id-207' size-in-bits='64' hash='3cf8880128dc0348' id='type-id-233'/>
    <!-- const std::__miter_base<const vtkCommunicator::ReduceVoidArray::VTK_TT*, false>::VTK_TT* -->
    <pointer-type-def type-id='type-id-209' size-in-bits='64' hash='fffb5798f790c7b6#2' id='type-id-234'/>
    <!-- const std::__miter_base<const vtkCommunicator::ReduceVoidArray::VTK_TT*, false>::VTK_TT* -->
    <pointer-type-def type-id='type-id-211' size-in-bits='64' hash='661295c7bcd3bd60#3' id='type-id-235'/>
    <!-- const std::__miter_base<const vtkCommunicator::ReduceVoidArray::VTK_TT*, false>::VTK_TT* -->
    <pointer-type-def type-id='type-id-213' size-in-bits='64' hash='ef33751a58dde2ae#4' id='type-id-236'/>
    <!-- const std::__miter_base<const vtkCommunicator::ReduceVoidArray::VTK_TT*, false>::VTK_TT* -->
    <pointer-type-def type-id='type-id-215' size-in-bits='64' hash='4b117b10cdad174c#5' id='type-id-237'/>
    <!-- const std::__miter_base<const vtkCommunicator::ReduceVoidArray::VTK_TT*, false>::VTK_TT* -->
    <pointer-type-def type-id='type-id-217' size-in-bits='64' hash='d709a775ea164185#6' id='type-id-238'/>
    <!-- const std::__miter_base<const vtkCommunicator::ReduceVoidArray::VTK_TT*, false>::VTK_TT* -->
    <pointer-type-def type-id='type-id-219' size-in-bits='64' hash='4912aa192c578185#7' id='type-id-239'/>
    <!-- const std::__miter_base<const vtkCommunicator::ReduceVoidArray::VTK_TT*, false>::VTK_TT* -->
    <pointer-type-def type-id='type-id-221' size-in-bits='64' hash='913fa65bbd3b9c53#8' id='type-id-240'/>
    <!-- const std::__miter_base<const vtkCommunicator::ReduceVoidArray::VTK_TT*, false>::VTK_TT* -->
    <pointer-type-def type-id='type-id-223' size-in-bits='64' hash='5f869c221a30b56e#9' id='type-id-241'/>
    <!-- const std::__miter_base<const vtkCommunicator::ReduceVoidArray::VTK_TT*, false>::VTK_TT* -->
    <pointer-type-def type-id='type-id-225' size-in-bits='64' hash='8444700f28132c0a#10' id='type-id-242'/>
    <!-- const std::__miter_base<const vtkCommunicator::ReduceVoidArray::VTK_TT*, false>::VTK_TT* -->
    <pointer-type-def type-id='type-id-227' size-in-bits='64' hash='ec3d4a181a92e39c#11' id='type-id-243'/>
    <!-- const std::__miter_base<const vtkCommunicator::ReduceVoidArray::VTK_TT*, false>::VTK_TT* -->
    <pointer-type-def type-id='type-id-229' size-in-bits='64' hash='fb20658a61dc7092#12' id='type-id-244'/>
    <!-- const std::__miter_base<const vtkCommunicator::ReduceVoidArray::VTK_TT*, false>::VTK_TT* -->
    <pointer-type-def type-id='type-id-231' size-in-bits='64' hash='bae03f95214f0285#13' id='type-id-245'/>
    <!-- const std::allocator<char> -->
    <qualified-type-def type-id='type-id-246' const='yes' hash='902ffeb42efa2254' id='type-id-247'/>
    <!-- const std::allocator<char>& -->
    <reference-type-def kind='lvalue' type-id='type-id-247' size-in-bits='64' hash='7d4280c016344b59' id='type-id-248'/>
    <!-- const std::allocator<long long int> -->
    <qualified-type-def type-id='type-id-249' const='yes' hash='b6f71dfbc546e7b5' id='type-id-250'/>
    <!-- const std::allocator<long long int>& -->
    <reference-type-def kind='lvalue' type-id='type-id-250' size-in-bits='64' hash='c298e371bcd82df8' id='type-id-251'/>
    <!-- const std::allocator<unsigned char> -->
    <qualified-type-def type-id='type-id-252' const='yes' hash='0140563a8a85f56e' id='type-id-253'/>
    <!-- const std::allocator<unsigned char>& -->
    <reference-type-def kind='lvalue' type-id='type-id-253' size-in-bits='64' hash='b63eb03b0b67f14e' id='type-id-254'/>
    <!-- const std::basic_string<char, std::char_traits<char>, std::allocator<char> > -->
    <qualified-type-def type-id='type-id-255' const='yes' hash='42938116911f2585' id='type-id-256'/>
    <!-- const std::basic_string<char, std::char_traits<char>, std::allocator<char> >& -->
    <reference-type-def kind='lvalue' type-id='type-id-256' size-in-bits='64' hash='ebc94b0648ba0254' id='type-id-257'/>
    <!-- const std::basic_string<char, std::char_traits<char>, std::allocator<char> >* -->
    <pointer-type-def type-id='type-id-256' size-in-bits='64' hash='f14dbace06951209' id='type-id-258'/>
    <!-- const std::char_traits<char>::char_type -->
    <qualified-type-def type-id='type-id-259' const='yes' hash='0d301f00e830e5eb' id='type-id-260'/>
    <!-- const std::char_traits<char>::char_type& -->
    <reference-type-def kind='lvalue' type-id='type-id-260' size-in-bits='64' hash='d98a60be7234f7c8' id='type-id-261'/>
    <!-- const std::char_traits<char>::char_type* -->
    <pointer-type-def type-id='type-id-260' size-in-bits='64' hash='f4903706bce76c85' id='type-id-262'/>
    <!-- const std::char_traits<char>::int_type -->
    <qualified-type-def type-id='type-id-263' const='yes' hash='9c3f1503b45b0328' id='type-id-264'/>
    <!-- const std::char_traits<char>::int_type& -->
    <reference-type-def kind='lvalue' type-id='type-id-264' size-in-bits='64' hash='00b5256d58d8bd92' id='type-id-265'/>
    <!-- const std::string -->
    <qualified-type-def type-id='type-id-266' const='yes' hash='18782c365e5b3732' id='type-id-267'/>
    <!-- const std::string& -->
    <reference-type-def kind='lvalue' type-id='type-id-267' size-in-bits='64' hash='c1a2c2d06c5e591e' id='type-id-85'/>
    <!-- const std::vector<long long int, std::allocator<long long int> > -->
    <qualified-type-def type-id='type-id-268' const='yes' hash='4d55afdd26e9681e' id='type-id-269'/>
    <!-- const std::vector<long long int, std::allocator<long long int> >& -->
    <reference-type-def kind='lvalue' type-id='type-id-269' size-in-bits='64' hash='8e4ee0da10c50f97' id='type-id-270'/>
    <!-- const std::vector<long long int, std::allocator<long long int> >* -->
    <pointer-type-def type-id='type-id-269' size-in-bits='64' hash='5dad3e9119b9e837' id='type-id-271'/>
    <!-- const std::vector<long long int, std::allocator<long long int> >* const -->
    <qualified-type-def type-id='type-id-271' const='yes' hash='c27c0f71d884ab75' id='type-id-272'/>
    <!-- const std::vector<unsigned char, std::allocator<unsigned char> > -->
    <qualified-type-def type-id='type-id-273' const='yes' hash='400955c7311019c5' id='type-id-274'/>
    <!-- const std::vector<unsigned char, std::allocator<unsigned char> >& -->
    <reference-type-def kind='lvalue' type-id='type-id-274' size-in-bits='64' hash='494c6ecc30d198db' id='type-id-91'/>
    <!-- const std::vector<unsigned char, std::allocator<unsigned char> >* -->
    <pointer-type-def type-id='type-id-274' size-in-bits='64' hash='76ca185aac582530' id='type-id-275'/>
    <!-- const std::vector<unsigned char, std::allocator<unsigned char> >* const -->
    <qualified-type-def type-id='type-id-275' const='yes' hash='31229b3bc75bbbea' id='type-id-276'/>
    <!-- const tm -->
    <qualified-type-def type-id='type-id-131' const='yes' hash='6d30d2c0485b21b8' id='type-id-277'/>
    <!-- const tm* -->
    <pointer-type-def type-id='type-id-277' size-in-bits='64' hash='934b82f269d593b3' id='type-id-278'/>
    <!-- const unsigned char -->
    <qualified-type-def type-id='type-id-64' const='yes' hash='645f4d0d44563fc6' id='type-id-279'/>
    <!-- const unsigned char& -->
    <reference-type-def kind='lvalue' type-id='type-id-279' size-in-bits='64' hash='47010cd3818a8f0f' id='type-id-280'/>
    <!-- const unsigned char* -->
    <pointer-type-def type-id='type-id-279' size-in-bits='64' hash='61acb54cba0b002f' id='type-id-90'/>
    <!-- const unsigned int -->
    <qualified-type-def type-id='type-id-88' const='yes' hash='6e5b7fbd041269f4' id='type-id-281'/>
    <!-- const unsigned int* -->
    <pointer-type-def type-id='type-id-281' size-in-bits='64' hash='7b228ce973c39aff' id='type-id-282'/>
    <!-- const unsigned long int -->
    <qualified-type-def type-id='type-id-4' const='yes' hash='d8a94d28da6128a9#2' id='type-id-283'/>
    <!-- const unsigned long int* -->
    <pointer-type-def type-id='type-id-283' size-in-bits='64' hash='3cecca488cd00e0d#2' id='type-id-284'/>
    <!-- const vtkBoundingBox -->
    <qualified-type-def type-id='type-id-10' const='yes' hash='9750548e705c92ea' id='type-id-285'/>
    <!-- const vtkBoundingBox& -->
    <reference-type-def kind='lvalue' type-id='type-id-285' size-in-bits='64' hash='016c86a7b1a50dba' id='type-id-286'/>
    <!-- const vtkBoundingBox* -->
    <pointer-type-def type-id='type-id-285' size-in-bits='64' hash='36d06fbed2d4d3a4' id='type-id-287'/>
    <!-- const vtkBoundingBox* const -->
    <qualified-type-def type-id='type-id-287' const='yes' hash='e796b08bc1d08d5b' id='type-id-288'/>
    <!-- const vtkCommunicator -->
    <qualified-type-def type-id='type-id-15' const='yes' hash='a3caeae2b60ed4a5' id='type-id-289'/>
    <!-- const vtkCommunicator& -->
    <reference-type-def kind='lvalue' type-id='type-id-289' size-in-bits='64' hash='58851f3cded20fd1' id='type-id-290'/>
    <!-- const vtkCommunicator* -->
    <pointer-type-def type-id='type-id-289' size-in-bits='64' hash='957e92be3cea2a05' id='type-id-32'/>
    <!-- const vtkIdType -->
    <qualified-type-def type-id='type-id-21' const='yes' hash='f66b402ddebf9b00' id='type-id-291'/>
    <!-- const vtkIdType* -->
    <pointer-type-def type-id='type-id-291' size-in-bits='64' hash='08eda9e44dc36cda' id='type-id-292'/>
    <!-- const vtkMultiProcessStream -->
    <qualified-type-def type-id='type-id-59' const='yes' hash='94683a0109d4e933' id='type-id-293'/>
    <!-- const vtkMultiProcessStream& -->
    <reference-type-def kind='lvalue' type-id='type-id-293' size-in-bits='64' hash='d74d14749e94a365' id='type-id-31'/>
    <!-- const vtkMultiProcessStream* -->
    <pointer-type-def type-id='type-id-293' size-in-bits='64' hash='1908abec17e4c26a' id='type-id-68'/>
    <!-- const vtkOStreamWrapper::EndlType -->
    <qualified-type-def type-id='type-id-294' const='yes' hash='4631407c6192373d' id='type-id-295'/>
    <!-- const vtkOStreamWrapper::EndlType& -->
    <reference-type-def kind='lvalue' type-id='type-id-295' size-in-bits='64' hash='6efdb6253610fa08' id='type-id-296'/>
    <!-- const vtkSmartPointer<vtkCharArray> -->
    <qualified-type-def type-id='type-id-100' const='yes' hash='0cb9707ccf3a612b' id='type-id-297'/>
    <!-- const vtkSmartPointer<vtkCharArray>* -->
    <pointer-type-def type-id='type-id-297' size-in-bits='64' hash='c88b5939e484caed' id='type-id-298'/>
    <!-- const vtkSmartPointer<vtkCharArray>* const -->
    <qualified-type-def type-id='type-id-298' const='yes' hash='9c539cd2b4662558' id='type-id-299'/>
    <!-- const vtkSmartPointer<vtkDataObject> -->
    <qualified-type-def type-id='type-id-102' const='yes' hash='3468b95eff3c8b90' id='type-id-300'/>
    <!-- const vtkSmartPointer<vtkDataObject>* -->
    <pointer-type-def type-id='type-id-300' size-in-bits='64' hash='2d0ad00fe7583188' id='type-id-301'/>
    <!-- const vtkSmartPointer<vtkDataObject>* const -->
    <qualified-type-def type-id='type-id-301' const='yes' hash='1c627130340b3f86' id='type-id-302'/>
    <!-- const vtkSmartPointer<vtkGenericDataObjectReader> -->
    <qualified-type-def type-id='type-id-103' const='yes' hash='f25b5411fa5c5ea3' id='type-id-303'/>
    <!-- const vtkSmartPointer<vtkGenericDataObjectReader>* -->
    <pointer-type-def type-id='type-id-303' size-in-bits='64' hash='e46f2c8ced5569b2' id='type-id-304'/>
    <!-- const vtkSmartPointer<vtkGenericDataObjectReader>* const -->
    <qualified-type-def type-id='type-id-304' const='yes' hash='456c1e06a4147870' id='type-id-305'/>
    <!-- const vtkSmartPointer<vtkGenericDataObjectWriter> -->
    <qualified-type-def type-id='type-id-104' const='yes' hash='47036949fc4eb067' id='type-id-306'/>
    <!-- const vtkSmartPointer<vtkGenericDataObjectWriter>* -->
    <pointer-type-def type-id='type-id-306' size-in-bits='64' hash='f506f7836a4884e1' id='type-id-307'/>
    <!-- const vtkSmartPointer<vtkGenericDataObjectWriter>* const -->
    <qualified-type-def type-id='type-id-307' const='yes' hash='e819396bcecd3760' id='type-id-308'/>
    <!-- const vtkSmartPointerBase -->
    <qualified-type-def type-id='type-id-101' const='yes' hash='171329cfb49c3634' id='type-id-309'/>
    <!-- const vtkSmartPointerBase& -->
    <reference-type-def kind='lvalue' type-id='type-id-309' size-in-bits='64' hash='4de339d993f84795' id='type-id-107'/>
    <!-- const vtkSmartPointerBase* -->
    <pointer-type-def type-id='type-id-309' size-in-bits='64' hash='34703b10448febf1' id='type-id-310'/>
    <!-- const vtkSmartPointerBase::NoReference -->
    <qualified-type-def type-id='type-id-105' const='yes' hash='cf425e78cd782aea' id='type-id-311'/>
    <!-- const vtkSmartPointerBase::NoReference& -->
    <reference-type-def kind='lvalue' type-id='type-id-311' size-in-bits='64' hash='75954c7682fb8756' id='type-id-312'/>
    <!-- const wchar_t -->
    <qualified-type-def type-id='type-id-148' const='yes' hash='f2fba7dbc42fc9d5' id='type-id-313'/>
    <!-- const wchar_t* -->
    <pointer-type-def type-id='type-id-313' size-in-bits='64' hash='317089067e76910a' id='type-id-314'/>
    <!-- const wchar_t** -->
    <pointer-type-def type-id='type-id-314' size-in-bits='64' hash='535c62eb027026ae' id='type-id-315'/>
    <!-- double& -->
    <reference-type-def kind='lvalue' type-id='type-id-96' size-in-bits='64' hash='b18c4088a3fcc2c2' id='type-id-75'/>
    <!-- double* -->
    <pointer-type-def type-id='type-id-96' size-in-bits='64' hash='dd31f93f4361bc41' id='type-id-87'/>
    <!-- double*& -->
    <reference-type-def kind='lvalue' type-id='type-id-87' size-in-bits='64' hash='e3f49dc3e897fe89' id='type-id-82'/>
    <!-- float& -->
    <reference-type-def kind='lvalue' type-id='type-id-86' size-in-bits='64' hash='2f6f8df305da780b' id='type-id-72'/>
    <!-- float* -->
    <pointer-type-def type-id='type-id-86' size-in-bits='64' hash='5022839615992ac0' id='type-id-97'/>
    <!-- float*& -->
    <reference-type-def kind='lvalue' type-id='type-id-97' size-in-bits='64' hash='68a3e1c07dce1546' id='type-id-80'/>
    <!-- fpos_t* -->
    <pointer-type-def type-id='type-id-140' size-in-bits='64' hash='7d5bf80d5b25efb1' id='type-id-316'/>
    <!-- int (*)(void*, void*) -->
    <pointer-type-def type-id='type-id-317' size-in-bits='64' hash='fd7a63c0c6c822c4' id='type-id-137'/>
    <!-- int& -->
    <reference-type-def kind='lvalue' type-id='type-id-19' size-in-bits='64' hash='5d95c516a5fa5466' id='type-id-79'/>
    <!-- int* -->
    <pointer-type-def type-id='type-id-19' size-in-bits='64' hash='3fd83b2c14ae2f2f' id='type-id-37'/>
    <!-- int*& -->
    <reference-type-def kind='lvalue' type-id='type-id-37' size-in-bits='64' hash='3b9f9ae3d60f790f' id='type-id-76'/>
    <!-- lconv* -->
    <pointer-type-def type-id='type-id-128' size-in-bits='64' hash='6921f81febec828e' id='type-id-318'/>
    <!-- long long int& -->
    <reference-type-def kind='lvalue' type-id='type-id-112' size-in-bits='64' hash='96881567f2703c68#2' id='type-id-319'/>
    <!-- long long int* -->
    <pointer-type-def type-id='type-id-112' size-in-bits='64' hash='77d6ad71d7d08df8#2' id='type-id-320'/>
    <!-- mbstate_t* -->
    <pointer-type-def type-id='type-id-141' size-in-bits='64' hash='18fb85b101e2cd25' id='type-id-321'/>
    <!-- std::_Bit_type* -->
    <pointer-type-def type-id='type-id-322' size-in-bits='64' hash='53408dffb1ec219f' id='type-id-323'/>
    <!-- std::_Vector_base<long long int, std::allocator<long long int> >* -->
    <pointer-type-def type-id='type-id-199' size-in-bits='64' hash='ba288683cbf8b694' id='type-id-324'/>
    <!-- std::_Vector_base<long long int, std::allocator<long long int> >* const -->
    <qualified-type-def type-id='type-id-324' const='yes' hash='9f8cd15e684e769d' id='type-id-325'/>
    <!-- std::_Vector_base<long long int, std::allocator<long long int> >::_Vector_impl* -->
    <pointer-type-def type-id='type-id-326' size-in-bits='64' hash='437509a8ebc56156' id='type-id-327'/>
    <!-- std::_Vector_base<long long int, std::allocator<long long int> >::_Vector_impl* const -->
    <qualified-type-def type-id='type-id-327' const='yes' hash='9b9a9e3e6ead6f78' id='type-id-328'/>
    <!-- std::_Vector_base<unsigned char, std::allocator<unsigned char> >* -->
    <pointer-type-def type-id='type-id-202' size-in-bits='64' hash='833d5c0928af2595' id='type-id-329'/>
    <!-- std::_Vector_base<unsigned char, std::allocator<unsigned char> >* const -->
    <qualified-type-def type-id='type-id-329' const='yes' hash='945337c3da0bf481' id='type-id-330'/>
    <!-- std::_Vector_base<unsigned char, std::allocator<unsigned char> >::_Vector_impl* -->
    <pointer-type-def type-id='type-id-331' size-in-bits='64' hash='437509a8ebc56156' id='type-id-332'/>
    <!-- std::_Vector_base<unsigned char, std::allocator<unsigned char> >::_Vector_impl* const -->
    <qualified-type-def type-id='type-id-332' const='yes' hash='9b9a9e3e6ead6f78' id='type-id-333'/>
    <!-- std::__miter_base<const vtkCommunicator::ReduceVoidArray::VTK_TT*, false>::VTK_TT* -->
    <pointer-type-def type-id='type-id-206' size-in-bits='64' hash='2daee3af9c65627e' id='type-id-334'/>
    <!-- std::__miter_base<const vtkCommunicator::ReduceVoidArray::VTK_TT*, false>::VTK_TT* -->
    <pointer-type-def type-id='type-id-208' size-in-bits='64' hash='5bfbc013477ab1a1#2' id='type-id-335'/>
    <!-- std::__miter_base<const vtkCommunicator::ReduceVoidArray::VTK_TT*, false>::VTK_TT* -->
    <pointer-type-def type-id='type-id-210' size-in-bits='64' hash='1fa09799e8973acb#3' id='type-id-336'/>
    <!-- std::__miter_base<const vtkCommunicator::ReduceVoidArray::VTK_TT*, false>::VTK_TT* -->
    <pointer-type-def type-id='type-id-212' size-in-bits='64' hash='07e0dc7d44a7d7c0#4' id='type-id-337'/>
    <!-- std::__miter_base<const vtkCommunicator::ReduceVoidArray::VTK_TT*, false>::VTK_TT* -->
    <pointer-type-def type-id='type-id-214' size-in-bits='64' hash='560306a70e2974e5#5' id='type-id-338'/>
    <!-- std::__miter_base<const vtkCommunicator::ReduceVoidArray::VTK_TT*, false>::VTK_TT* -->
    <pointer-type-def type-id='type-id-216' size-in-bits='64' hash='ce10f0a7d6f505b2#6' id='type-id-339'/>
    <!-- std::__miter_base<const vtkCommunicator::ReduceVoidArray::VTK_TT*, false>::VTK_TT* -->
    <pointer-type-def type-id='type-id-218' size-in-bits='64' hash='252bd07c86cdadd0#7' id='type-id-340'/>
    <!-- std::__miter_base<const vtkCommunicator::ReduceVoidArray::VTK_TT*, false>::VTK_TT* -->
    <pointer-type-def type-id='type-id-220' size-in-bits='64' hash='83dad959285d22c6#8' id='type-id-341'/>
    <!-- std::__miter_base<const vtkCommunicator::ReduceVoidArray::VTK_TT*, false>::VTK_TT* -->
    <pointer-type-def type-id='type-id-222' size-in-bits='64' hash='cbe32f8080ca924a#9' id='type-id-342'/>
    <!-- std::__miter_base<const vtkCommunicator::ReduceVoidArray::VTK_TT*, false>::VTK_TT* -->
    <pointer-type-def type-id='type-id-224' size-in-bits='64' hash='f548a346bb46b30d#10' id='type-id-343'/>
    <!-- std::__miter_base<const vtkCommunicator::ReduceVoidArray::VTK_TT*, false>::VTK_TT* -->
    <pointer-type-def type-id='type-id-226' size-in-bits='64' hash='b2a6f282aa58a368#11' id='type-id-344'/>
    <!-- std::__miter_base<const vtkCommunicator::ReduceVoidArray::VTK_TT*, false>::VTK_TT* -->
    <pointer-type-def type-id='type-id-228' size-in-bits='64' hash='6fb82d64b43ade61#12' id='type-id-345'/>
    <!-- std::__miter_base<const vtkCommunicator::ReduceVoidArray::VTK_TT*, false>::VTK_TT* -->
    <pointer-type-def type-id='type-id-230' size-in-bits='64' hash='804ecd2b38d67c1c#13' id='type-id-346'/>
    <!-- std::allocator<char>* -->
    <pointer-type-def type-id='type-id-246' size-in-bits='64' hash='e3d0c180eee5d782' id='type-id-347'/>
    <!-- std::allocator<long long int>& -->
    <reference-type-def kind='lvalue' type-id='type-id-249' size-in-bits='64' hash='7ad913b3b0373020' id='type-id-348'/>
    <!-- std::allocator<long long int>* -->
    <pointer-type-def type-id='type-id-249' size-in-bits='64' hash='f347066b9d933c67' id='type-id-349'/>
    <!-- std::allocator<long long int>* const -->
    <qualified-type-def type-id='type-id-349' const='yes' hash='ad49c554d5fdce6d' id='type-id-350'/>
    <!-- std::allocator<unsigned char>& -->
    <reference-type-def kind='lvalue' type-id='type-id-252' size-in-bits='64' hash='45820675da443e46' id='type-id-351'/>
    <!-- std::allocator<unsigned char>* -->
    <pointer-type-def type-id='type-id-252' size-in-bits='64' hash='53d1684d619a159d' id='type-id-352'/>
    <!-- std::allocator<unsigned char>* const -->
    <qualified-type-def type-id='type-id-352' const='yes' hash='ccdf31807c60b7bb' id='type-id-353'/>
    <!-- std::basic_ostream<char, std::char_traits<char> >& (*)(std::basic_ostream<char, std::char_traits<char> >&) -->
    <pointer-type-def type-id='type-id-354' size-in-bits='64' hash='fd7a63c0c6c822c4' id='type-id-355'/>
    <!-- std::basic_string<char, std::char_traits<char>, std::allocator<char> >& -->
    <reference-type-def kind='lvalue' type-id='type-id-255' size-in-bits='64' hash='d8ed513ed2f704b1' id='type-id-356'/>
    <!-- std::basic_string<char, std::char_traits<char>, std::allocator<char> >* -->
    <pointer-type-def type-id='type-id-255' size-in-bits='64' hash='c23efea4cbf2dbe8' id='type-id-357'/>
    <!-- std::basic_string<char, std::char_traits<char>, std::allocator<char> >::_Alloc_hider* -->
    <pointer-type-def type-id='type-id-358' size-in-bits='64' hash='9d029584a1ffef40' id='type-id-359'/>
    <!-- std::basic_string<char, std::char_traits<char>, std::allocator<char> >::_Rep& -->
    <reference-type-def kind='lvalue' type-id='type-id-360' size-in-bits='64' hash='dce7c83b7dca5265' id='type-id-361'/>
    <!-- std::basic_string<char, std::char_traits<char>, std::allocator<char> >::_Rep* -->
    <pointer-type-def type-id='type-id-360' size-in-bits='64' hash='0eeadcf9df869442' id='type-id-362'/>
    <!-- std::char_traits<char>::char_type& -->
    <reference-type-def kind='lvalue' type-id='type-id-259' size-in-bits='64' hash='75929b1513585467' id='type-id-363'/>
    <!-- std::char_traits<char>::char_type* -->
    <pointer-type-def type-id='type-id-259' size-in-bits='64' hash='4cef840ef4725ab6' id='type-id-364'/>
    <!-- std::string& -->
    <reference-type-def kind='lvalue' type-id='type-id-266' size-in-bits='64' hash='ff0c9cda7f48b949' id='type-id-74'/>
    <!-- std::vector<long long int, std::allocator<long long int> >& -->
    <reference-type-def kind='lvalue' type-id='type-id-268' size-in-bits='64' hash='ee1d71e414305d2e' id='type-id-365'/>
    <!-- std::vector<long long int, std::allocator<long long int> >* -->
    <pointer-type-def type-id='type-id-268' size-in-bits='64' hash='fcb22d6b22fd2098' id='type-id-366'/>
    <!-- std::vector<long long int, std::allocator<long long int> >* const -->
    <qualified-type-def type-id='type-id-366' const='yes' hash='45fe6b93c1e339bb' id='type-id-367'/>
    <!-- std::vector<unsigned char, std::allocator<unsigned char> >& -->
    <reference-type-def kind='lvalue' type-id='type-id-273' size-in-bits='64' hash='e4276bccd566d67f' id='type-id-69'/>
    <!-- std::vector<unsigned char, std::allocator<unsigned char> >* -->
    <pointer-type-def type-id='type-id-273' size-in-bits='64' hash='c13aaf0d5c74a3de' id='type-id-368'/>
    <!-- std::vector<unsigned char, std::allocator<unsigned char> >* const -->
    <qualified-type-def type-id='type-id-368' const='yes' hash='7dd18d3f8481b595' id='type-id-369'/>
    <!-- typedef __va_list_tag __va_list_tag* -->
    <pointer-type-def type-id='type-id-132' size-in-bits='64' hash='648313adc1c4c534' id='type-id-370'/>
    <!-- unsigned char& -->
    <reference-type-def kind='lvalue' type-id='type-id-64' size-in-bits='64' hash='e729de0943d9c0cb' id='type-id-73'/>
    <!-- unsigned char* -->
    <pointer-type-def type-id='type-id-64' size-in-bits='64' hash='f0221758ecf0c0cb' id='type-id-93'/>
    <!-- unsigned char* const -->
    <qualified-type-def type-id='type-id-93' const='yes' hash='32561d9a4954e122' id='type-id-371'/>
    <!-- unsigned char* const& -->
    <reference-type-def kind='lvalue' type-id='type-id-371' size-in-bits='64' hash='17c5718cf2204112' id='type-id-372'/>
    <!-- unsigned char*& -->
    <reference-type-def kind='lvalue' type-id='type-id-93' size-in-bits='64' hash='9476da2379410432' id='type-id-66'/>
    <!-- unsigned int& -->
    <reference-type-def kind='lvalue' type-id='type-id-88' size-in-bits='64' hash='a22afb13109fd39d' id='type-id-67'/>
    <!-- unsigned int* -->
    <pointer-type-def type-id='type-id-88' size-in-bits='64' hash='232fa04f890c2a5a' id='type-id-92'/>
    <!-- unsigned int*& -->
    <reference-type-def kind='lvalue' type-id='type-id-92' size-in-bits='64' hash='ac7789a6f8e7724e' id='type-id-84'/>
    <!-- unsigned long int* -->
    <pointer-type-def type-id='type-id-4' size-in-bits='64' hash='d9e2f19705735211#2' id='type-id-373'/>
    <!-- void (*)(void) -->
    <pointer-type-def type-id='type-id-374' size-in-bits='64' hash='fd7a63c0c6c822c4' id='type-id-375'/>
    <!-- vtkBoundingBox& -->
    <reference-type-def kind='lvalue' type-id='type-id-10' size-in-bits='64' hash='2443b5de73a46d85' id='type-id-376'/>
    <!-- vtkBoundingBox* -->
    <pointer-type-def type-id='type-id-10' size-in-bits='64' hash='2dd51f9d3e4b6226' id='type-id-12'/>
    <!-- vtkCommunicator* -->
    <pointer-type-def type-id='type-id-15' size-in-bits='64' hash='d1bf79c5584401bf' id='type-id-25'/>
    <!-- vtkCommunicator* const -->
    <qualified-type-def type-id='type-id-25' const='yes' hash='133ffd0c4ac77bb4' id='type-id-377'/>
    <!-- vtkCommunicator::Operation* -->
    <pointer-type-def type-id='type-id-17' size-in-bits='64' hash='4ecef9ddaae3cdb8' id='type-id-18'/>
    <!-- vtkCommunicator::Operation* const -->
    <qualified-type-def type-id='type-id-18' const='yes' hash='097caa4a8cabc4b2' id='type-id-378'/>
    <!-- vtkCommunicatorBitwiseAndClass* -->
    <pointer-type-def type-id='type-id-38' size-in-bits='64' hash='ff7757a1933cb734' id='type-id-39'/>
    <!-- vtkCommunicatorBitwiseOrClass* -->
    <pointer-type-def type-id='type-id-40' size-in-bits='64' hash='4a44681bb9f3d95d' id='type-id-41'/>
    <!-- vtkCommunicatorBitwiseXorClass* -->
    <pointer-type-def type-id='type-id-42' size-in-bits='64' hash='b627a46fea20d1dc' id='type-id-43'/>
    <!-- vtkCommunicatorLogicalAndClass* -->
    <pointer-type-def type-id='type-id-44' size-in-bits='64' hash='3fd9a5800a7c0fdc' id='type-id-45'/>
    <!-- vtkCommunicatorLogicalOrClass* -->
    <pointer-type-def type-id='type-id-46' size-in-bits='64' hash='c653a25cdbe4f962' id='type-id-47'/>
    <!-- vtkCommunicatorLogicalXorClass* -->
    <pointer-type-def type-id='type-id-48' size-in-bits='64' hash='0e5fb9b8ca616639' id='type-id-49'/>
    <!-- vtkCommunicatorMaxClass* -->
    <pointer-type-def type-id='type-id-50' size-in-bits='64' hash='8cdd18db81f23fbb' id='type-id-51'/>
    <!-- vtkCommunicatorMinClass* -->
    <pointer-type-def type-id='type-id-52' size-in-bits='64' hash='6d86e1321e3750e1' id='type-id-53'/>
    <!-- vtkCommunicatorProductClass* -->
    <pointer-type-def type-id='type-id-54' size-in-bits='64' hash='39d0e91ca5632d26' id='type-id-55'/>
    <!-- vtkCommunicatorSumClass* -->
    <pointer-type-def type-id='type-id-56' size-in-bits='64' hash='3647c0f5ceb47d39' id='type-id-57'/>
    <!-- vtkIdType* -->
    <pointer-type-def type-id='type-id-21' size-in-bits='64' hash='f1cae3748aeee47d' id='type-id-27'/>
    <!-- vtkIndent* -->
    <pointer-type-def type-id='type-id-35' size-in-bits='64' hash='9399df4d400494ad' id='type-id-58'/>
    <!-- vtkMultiProcessStream& -->
    <reference-type-def kind='lvalue' type-id='type-id-59' size-in-bits='64' hash='86103ea9e2a0f58f' id='type-id-30'/>
    <!-- vtkMultiProcessStream* -->
    <pointer-type-def type-id='type-id-59' size-in-bits='64' hash='11a36c6c4acf7aeb' id='type-id-65'/>
    <!-- vtkMultiProcessStream::vtkInternals* -->
    <pointer-type-def type-id='type-id-60' size-in-bits='64' hash='21381b78b791e322' id='type-id-63'/>
    <!-- vtkSmartPointer<vtkCharArray>& -->
    <reference-type-def kind='lvalue' type-id='type-id-100' size-in-bits='64' hash='5f13779680ecf1df' id='type-id-379'/>
    <!-- vtkSmartPointer<vtkCharArray>* -->
    <pointer-type-def type-id='type-id-100' size-in-bits='64' hash='ee70b52c51d47ad1' id='type-id-380'/>
    <!-- vtkSmartPointer<vtkCharArray>* const -->
    <qualified-type-def type-id='type-id-380' const='yes' hash='c00e40397d81bbd7' id='type-id-381'/>
    <!-- vtkSmartPointer<vtkDataObject>& -->
    <reference-type-def kind='lvalue' type-id='type-id-102' size-in-bits='64' hash='0ac8c1d735a13447' id='type-id-382'/>
    <!-- vtkSmartPointer<vtkDataObject>* -->
    <pointer-type-def type-id='type-id-102' size-in-bits='64' hash='a7d92ebf34e3585f' id='type-id-383'/>
    <!-- vtkSmartPointer<vtkDataObject>* const -->
    <qualified-type-def type-id='type-id-383' const='yes' hash='cb795b91966155d4' id='type-id-384'/>
    <!-- vtkSmartPointer<vtkGenericDataObjectReader>& -->
    <reference-type-def kind='lvalue' type-id='type-id-103' size-in-bits='64' hash='b83b5c65a954de8c' id='type-id-385'/>
    <!-- vtkSmartPointer<vtkGenericDataObjectReader>* -->
    <pointer-type-def type-id='type-id-103' size-in-bits='64' hash='48a068abe1ed7557' id='type-id-386'/>
    <!-- vtkSmartPointer<vtkGenericDataObjectReader>* const -->
    <qualified-type-def type-id='type-id-386' const='yes' hash='630b5020ecc6a2eb' id='type-id-387'/>
    <!-- vtkSmartPointer<vtkGenericDataObjectWriter>& -->
    <reference-type-def kind='lvalue' type-id='type-id-104' size-in-bits='64' hash='c31d8ab6a74b6882' id='type-id-388'/>
    <!-- vtkSmartPointer<vtkGenericDataObjectWriter>* -->
    <pointer-type-def type-id='type-id-104' size-in-bits='64' hash='9358cceb34cbef11' id='type-id-389'/>
    <!-- vtkSmartPointer<vtkGenericDataObjectWriter>* const -->
    <qualified-type-def type-id='type-id-389' const='yes' hash='346d78522b0b3bde' id='type-id-390'/>
    <!-- vtkSmartPointerBase& -->
    <reference-type-def kind='lvalue' type-id='type-id-101' size-in-bits='64' hash='e0688aa9ed96cef4' id='type-id-108'/>
    <!-- vtkSmartPointerBase* -->
    <pointer-type-def type-id='type-id-101' size-in-bits='64' hash='21ccf8052e77b0ef' id='type-id-106'/>
    <!-- vtkTypeInt64& -->
    <reference-type-def kind='lvalue' type-id='type-id-94' size-in-bits='64' hash='724ab1962c4e6794' id='type-id-78'/>
    <!-- vtkTypeInt64* -->
    <pointer-type-def type-id='type-id-94' size-in-bits='64' hash='659b98f3d6e36167' id='type-id-98'/>
    <!-- vtkTypeInt64*& -->
    <reference-type-def kind='lvalue' type-id='type-id-98' size-in-bits='64' hash='03c8216479cb798a' id='type-id-77'/>
    <!-- vtkTypeUInt64& -->
    <reference-type-def kind='lvalue' type-id='type-id-89' size-in-bits='64' hash='94342538c5be8659' id='type-id-71'/>
    <!-- vtkTypeUInt64* -->
    <pointer-type-def type-id='type-id-89' size-in-bits='64' hash='35ad4f1610235dcc' id='type-id-99'/>
    <!-- vtkTypeUInt64*& -->
    <reference-type-def kind='lvalue' type-id='type-id-99' size-in-bits='64' hash='8e66fd7d99a2859e' id='type-id-81'/>
    <!-- wchar_t* -->
    <pointer-type-def type-id='type-id-148' size-in-bits='64' hash='fb9a8c973ae04ed8' id='type-id-391'/>
    <!-- wchar_t** -->
    <pointer-type-def type-id='type-id-391' size-in-bits='64' hash='f6157ba411f3141d' id='type-id-392'/>
    <!-- _IO_lock_t* -->
    <pointer-type-def type-id='type-id-135' size-in-bits='64' id='type-id-123'/>
    <!-- class vtkCharArray -->
    <class-decl name='vtkCharArray' visibility='default' is-declaration-only='yes' id='type-id-393'/>
    <!-- class vtkDataArray -->
    <class-decl name='vtkDataArray' visibility='default' is-declaration-only='yes' id='type-id-394'/>
    <!-- class vtkDataArrayTemplate<char> -->
    <class-decl name='vtkDataArrayTemplate&lt;char&gt;' visibility='default' is-declaration-only='yes' id='type-id-395'/>
    <!-- class vtkDataObject -->
    <class-decl name='vtkDataObject' visibility='default' is-declaration-only='yes' id='type-id-396'/>
    <!-- class vtkDataSet -->
    <class-decl name='vtkDataSet' visibility='default' is-declaration-only='yes' id='type-id-397'/>
    <!-- class vtkDataWriter -->
    <class-decl name='vtkDataWriter' visibility='default' is-declaration-only='yes' id='type-id-398'/>
    <!-- class vtkGenericDataObjectReader -->
    <class-decl name='vtkGenericDataObjectReader' visibility='default' is-declaration-only='yes' id='type-id-399'/>
    <!-- class vtkGenericDataObjectWriter -->
    <class-decl name='vtkGenericDataObjectWriter' visibility='default' is-declaration-only='yes' id='type-id-400'/>
    <!-- class vtkImageData -->
    <class-decl name='vtkImageData' visibility='default' is-declaration-only='yes' id='type-id-401'/>
    <!-- class vtkOStreamWrapper -->
    <class-decl name='vtkOStreamWrapper' visibility='default' is-declaration-only='yes' id='type-id-402'>
      <member-type access='private'>
        <!-- struct vtkOStreamWrapper::EndlType -->
        <class-decl name='EndlType' is-struct='yes' visibility='default' size-in-bits='8' filepath='/tmp/legendre/spack-stage/spack-stage-R_crTC/VTK-6.1.0/Common/Core/vtkOStreamWrapper.h' line='58' column='1' hash='901437817b260300' id='type-id-294'/>
      </member-type>
    </class-decl>
    <!-- class vtkObject -->
    <class-decl name='vtkObject' visibility='default' is-declaration-only='yes' id='type-id-16'/>
    <!-- class vtkObjectBase -->
    <class-decl name='vtkObjectBase' visibility='default' is-declaration-only='yes' id='type-id-403'>
      <member-function access='protected' vtable-offset='11'>
        <!-- void vtkObjectBase::CollectRevisions(std::ostream&) -->
        <function-decl name='CollectRevisions' mangled-name='_ZN13vtkObjectBase16CollectRevisionsERSo' filepath='/tmp/legendre/spack-stage/spack-stage-R_crTC/VTK-6.1.0/Common/Core/vtkObjectBase.h' line='163' column='1' visibility='default' binding='global' size-in-bits='64' hash='7f32ffea222edbe7'>
          <!-- implicit parameter of type 'vtkObjectBase*' -->
          <parameter type-id='type-id-36' is-artificial='yes'/>
          <!-- parameter of type 'std::ostream&' -->
          <parameter type-id='type-id-34'/>
          <!-- void -->
          <return type-id='type-id-14'/>
        </function-decl>
      </member-function>
    </class-decl>
    <!-- class vtkRectilinearGrid -->
    <class-decl name='vtkRectilinearGrid' visibility='default' is-declaration-only='yes' id='type-id-404'/>
    <!-- class vtkStructuredGrid -->
    <class-decl name='vtkStructuredGrid' visibility='default' is-declaration-only='yes' id='type-id-405'/>
    <!-- const std::basic_ios<char, std::char_traits<char> > -->
    <qualified-type-def type-id='type-id-406' const='yes' id='type-id-407'/>
    <!-- const std::basic_ios<char, std::char_traits<char> >* -->
    <pointer-type-def type-id='type-id-407' size-in-bits='64' id='type-id-408'/>
    <!-- const std::basic_ios<char, std::char_traits<char> >* const -->
    <qualified-type-def type-id='type-id-408' const='yes' id='type-id-409'/>
    <!-- const std::ctype<char> -->
    <qualified-type-def type-id='type-id-410' const='yes' id='type-id-411'/>
    <reference-type-def kind='lvalue' type-id='type-id-411' size-in-bits='64' id='type-id-412'/>
    <!-- const std::ctype<char>* -->
    <pointer-type-def type-id='type-id-411' size-in-bits='64' id='type-id-413'/>
    <!-- const std::ctype<char>* const -->
    <qualified-type-def type-id='type-id-413' const='yes' id='type-id-414'/>
    <!-- const vtkDataObject -->
    <qualified-type-def type-id='type-id-396' const='yes' id='type-id-415'/>
    <!-- const vtkDataObject* -->
    <pointer-type-def type-id='type-id-415' size-in-bits='64' id='type-id-416'/>
    <!-- const vtkDataObject* const -->
    <qualified-type-def type-id='type-id-416' const='yes' id='type-id-417'/>
    <!-- namespace std -->
    <namespace-decl name='std'>
      <!-- class std::allocator<long long int> -->
      <class-decl name='allocator&lt;long long int&gt;' visibility='default' size-in-bits='8' filepath='/usr/lib/gcc/x86_64-redhat-linux/4.4.7/../../../../include/c++/4.4.7/bits/allocator.h' line='87' column='1' hash='01a43cb723c6317f' id='type-id-249'>
        <!-- class __gnu_cxx::new_allocator<long long int> -->
        <base-class access='public' layout-offset-in-bits='0' type-id='type-id-157'/>
      </class-decl>
      <!-- class std::allocator<unsigned char> -->
      <class-decl name='allocator&lt;unsigned char&gt;' visibility='default' size-in-bits='8' filepath='/usr/lib/gcc/x86_64-redhat-linux/4.4.7/../../../../include/c++/4.4.7/bits/allocator.h' line='87' column='1' hash='7d3645357adc2701#2' id='type-id-252'>
        <!-- class __gnu_cxx::new_allocator<unsigned char> -->
        <base-class access='public' layout-offset-in-bits='0' type-id='type-id-160'/>
      </class-decl>
      <!-- class std::vector<long long int, std::allocator<long long int> > -->
      <class-decl name='vector&lt;long long int, std::allocator&lt;long long int&gt; &gt;' visibility='default' size-in-bits='192' filepath='/usr/lib/gcc/x86_64-redhat-linux/4.4.7/../../../../include/c++/4.4.7/bits/stl_vector.h' line='171' column='1' hash='71cdffaebcc56287' id='type-id-268'>
        <!-- struct std::_Vector_base<long long int, std::allocator<long long int> > -->
        <base-class access='protected' layout-offset-in-bits='0' type-id='type-id-199'/>
      </class-decl>
      <!-- class std::vector<unsigned char, std::allocator<unsigned char> > -->
      <class-decl name='vector&lt;unsigned char, std::allocator&lt;unsigned char&gt; &gt;' visibility='default' size-in-bits='192' filepath='/usr/lib/gcc/x86_64-redhat-linux/4.4.7/../../../../include/c++/4.4.7/bits/stl_vector.h' line='171' column='1' hash='9252e9635c085f60#2' id='type-id-273'>
        <!-- struct std::_Vector_base<unsigned char, std::allocator<unsigned char> > -->
        <base-class access='protected' layout-offset-in-bits='0' type-id='type-id-202'/>
        <member-function access='protected'>
          <!-- void std::vector<unsigned char, std::allocator<unsigned char> >::_M_fill_insert(__gnu_cxx::__normal_iterator<unsigned char*, std::vector<unsigned char, std::allocator<unsigned char> > >, size_t, const unsigned char&) -->
          <function-decl name='_M_fill_insert' mangled-name='_ZNSt6vectorIhSaIhEE14_M_fill_insertEN9__gnu_cxx17__normal_iteratorIPhS1_EEmRKh' filepath='/usr/lib/gcc/x86_64-redhat-linux/4.4.7/../../../../include/c++/4.4.7/bits/vector.tcc' line='372' column='1' visibility='default' binding='global' size-in-bits='64' elf-symbol-id='_ZNSt6vectorIhSaIhEE14_M_fill_insertEN9__gnu_cxx17__normal_iteratorIPhS1_EEmRKh' hash='18f989e5a8c3edcc'>
            <!-- implicit parameter of type 'std::vector<unsigned char, std::allocator<unsigned char> >*' -->
            <parameter type-id='type-id-368' is-artificial='yes'/>
            <!-- parameter of type 'class __gnu_cxx::__normal_iterator<unsigned char*, std::vector<unsigned char, std::allocator<unsigned char> > >' -->
            <parameter type-id='type-id-151' filepath='/usr/lib/gcc/x86_64-redhat-linux/4.4.7/../../../../include/c++/4.4.7/bits/stl_vector.h' line='850' column='1'/>
            <!-- parameter of type 'typedef size_t' -->
            <parameter type-id='type-id-124' filepath='/usr/lib/gcc/x86_64-redhat-linux/4.4.7/../../../../include/c++/4.4.7/bits/stl_vector.h' line='850' column='1'/>
            <!-- parameter of type 'const unsigned char&' -->
            <parameter type-id='type-id-280' filepath='/usr/lib/gcc/x86_64-redhat-linux/4.4.7/../../../../include/c++/4.4.7/bits/stl_vector.h' line='850' column='1'/>
            <!-- void -->
            <return type-id='type-id-14'/>
          </function-decl>
        </member-function>
        <member-function access='protected'>
          <!-- void std::vector<unsigned char, std::allocator<unsigned char> >::_M_insert_aux(__gnu_cxx::__normal_iterator<unsigned char*, std::vector<unsigned char, std::allocator<unsigned char> > >, const unsigned char&) -->
          <function-decl name='_M_insert_aux' mangled-name='_ZNSt6vectorIhSaIhEE13_M_insert_auxEN9__gnu_cxx17__normal_iteratorIPhS1_EERKh' filepath='/usr/lib/gcc/x86_64-redhat-linux/4.4.7/../../../../include/c++/4.4.7/bits/vector.tcc' line='295' column='1' visibility='default' binding='global' size-in-bits='64' elf-symbol-id='_ZNSt6vectorIhSaIhEE13_M_insert_auxEN9__gnu_cxx17__normal_iteratorIPhS1_EERKh' hash='46e0e64e52f2217c'>
            <!-- implicit parameter of type 'std::vector<unsigned char, std::allocator<unsigned char> >*' -->
            <parameter type-id='type-id-368' is-artificial='yes'/>
            <!-- parameter of type 'class __gnu_cxx::__normal_iterator<unsigned char*, std::vector<unsigned char, std::allocator<unsigned char> > >' -->
            <parameter type-id='type-id-151'/>
            <!-- parameter of type 'const unsigned char&' -->
            <parameter type-id='type-id-280'/>
            <!-- void -->
            <return type-id='type-id-14'/>
          </function-decl>
        </member-function>
      </class-decl>
      <!-- enum std::_Ios_Iostate -->
      <enum-decl name='_Ios_Iostate' size-in-bits='32' alignment-in-bits='32' filepath='/usr/lib/gcc/x86_64-redhat-linux/4.4.7/../../../../include/c++/4.4.7/bits/ios_base.h' line='152' column='1' hash='388bbdfd4360e2cc' id='type-id-418'>
        <underlying-type type-id='type-id-23'/>
        <enumerator name='_S_goodbit' value='0'/>
        <enumerator name='_S_badbit' value='1'/>
        <enumerator name='_S_eofbit' value='2'/>
        <enumerator name='_S_failbit' value='4'/>
        <enumerator name='_S_ios_iostate_end' value='65536'/>
      </enum-decl>
      <!-- struct std::_Destroy_aux<true> -->
      <class-decl name='_Destroy_aux&lt;true&gt;' is-struct='yes' visibility='default' size-in-bits='8' filepath='/usr/lib/gcc/x86_64-redhat-linux/4.4.7/../../../../include/c++/4.4.7/bits/stl_construct.h' line='106' column='1' hash='8952cbdd7468e90d#2' id='type-id-419'/>
      <!-- struct std::_Setprecision -->
      <class-decl name='_Setprecision' is-struct='yes' visibility='default' size-in-bits='32' filepath='/usr/lib/gcc/x86_64-redhat-linux/4.4.7/../../../../include/c++/4.4.7/iomanip' line='194' column='1' hash='c19f3469393f96ee#2' id='type-id-420'>
        <data-member access='public' layout-offset-in-bits='0'>
          <!-- int std::_Setprecision::_M_n -->
          <var-decl name='_M_n' type-id='type-id-19' visibility='default' filepath='/usr/lib/gcc/x86_64-redhat-linux/4.4.7/../../../../include/c++/4.4.7/iomanip' line='194' column='1'/>
        </data-member>
      </class-decl>
      <!-- struct std::_Setw -->
      <class-decl name='_Setw' is-struct='yes' visibility='default' size-in-bits='32' filepath='/usr/lib/gcc/x86_64-redhat-linux/4.4.7/../../../../include/c++/4.4.7/iomanip' line='228' column='1' hash='30b663f4e051bd12#2' id='type-id-421'>
        <data-member access='public' layout-offset-in-bits='0'>
          <!-- int std::_Setw::_M_n -->
          <var-decl name='_M_n' type-id='type-id-19' visibility='default' filepath='/usr/lib/gcc/x86_64-redhat-linux/4.4.7/../../../../include/c++/4.4.7/iomanip' line='228' column='1'/>
        </data-member>
      </class-decl>
      <!-- struct std::_Vector_base<long long int, std::allocator<long long int> > -->
      <class-decl name='_Vector_base&lt;long long int, std::allocator&lt;long long int&gt; &gt;' is-struct='yes' visibility='default' size-in-bits='192' filepath='/usr/lib/gcc/x86_64-redhat-linux/4.4.7/../../../../include/c++/4.4.7/bits/stl_vector.h' line='70' column='1' hash='17c79f1dd6366ef8' id='type-id-199'>
        <member-type access='public'>
          <!-- struct std::_Vector_base<long long int, std::allocator<long long int> >::_Vector_impl -->
          <class-decl name='_Vector_impl' is-struct='yes' visibility='default' size-in-bits='192' filepath='/usr/lib/gcc/x86_64-redhat-linux/4.4.7/../../../../include/c++/4.4.7/bits/stl_vector.h' line='75' column='1' hash='399084bd6eb6f93e' id='type-id-326'>
            <!-- class std::allocator<long long int> -->
            <base-class access='public' layout-offset-in-bits='0' type-id='type-id-249'/>
            <data-member access='public' layout-offset-in-bits='0'>
              <!-- long long int* std::_Vector_base<long long int, std::allocator<long long int> >::_Vector_impl::_M_start -->
              <var-decl name='_M_start' type-id='type-id-320' visibility='default' filepath='/usr/lib/gcc/x86_64-redhat-linux/4.4.7/../../../../include/c++/4.4.7/bits/stl_vector.h' line='76' column='1'/>
            </data-member>
            <data-member access='public' layout-offset-in-bits='64'>
              <!-- long long int* std::_Vector_base<long long int, std::allocator<long long int> >::_Vector_impl::_M_finish -->
              <var-decl name='_M_finish' type-id='type-id-320' visibility='default' filepath='/usr/lib/gcc/x86_64-redhat-linux/4.4.7/../../../../include/c++/4.4.7/bits/stl_vector.h' line='77' column='1'/>
            </data-member>
            <data-member access='public' layout-offset-in-bits='128'>
              <!-- long long int* std::_Vector_base<long long int, std::allocator<long long int> >::_Vector_impl::_M_end_of_storage -->
              <var-decl name='_M_end_of_storage' type-id='type-id-320' visibility='default' filepath='/usr/lib/gcc/x86_64-redhat-linux/4.4.7/../../../../include/c++/4.4.7/bits/stl_vector.h' line='78' column='1'/>
            </data-member>
          </class-decl>
        </member-type>
        <data-member access='public' layout-offset-in-bits='0'>
          <!-- std::_Vector_base<long long int, std::allocator<long long int> >::_Vector_impl std::_Vector_base<long long int, std::allocator<long long int> >::_M_impl -->
          <var-decl name='_M_impl' type-id='type-id-326' visibility='default' filepath='/usr/lib/gcc/x86_64-redhat-linux/4.4.7/../../../../include/c++/4.4.7/bits/stl_vector.h' line='136' column='1'/>
        </data-member>
      </class-decl>
      <!-- struct std::_Vector_base<unsigned char, std::allocator<unsigned char> > -->
      <class-decl name='_Vector_base&lt;unsigned char, std::allocator&lt;unsigned char&gt; &gt;' is-struct='yes' visibility='default' size-in-bits='192' filepath='/usr/lib/gcc/x86_64-redhat-linux/4.4.7/../../../../include/c++/4.4.7/bits/stl_vector.h' line='70' column='1' hash='e61aae65cb933f9a#2' id='type-id-202'>
        <member-type access='public'>
          <!-- struct std::_Vector_base<unsigned char, std::allocator<unsigned char> >::_Vector_impl -->
          <class-decl name='_Vector_impl' is-struct='yes' visibility='default' size-in-bits='192' filepath='/usr/lib/gcc/x86_64-redhat-linux/4.4.7/../../../../include/c++/4.4.7/bits/stl_vector.h' line='75' column='1' hash='228f28113ed84dc8' id='type-id-331'>
            <!-- class std::allocator<unsigned char> -->
            <base-class access='public' layout-offset-in-bits='0' type-id='type-id-252'/>
            <data-member access='public' layout-offset-in-bits='0'>
              <!-- unsigned char* std::_Vector_base<unsigned char, std::allocator<unsigned char> >::_Vector_impl::_M_start -->
              <var-decl name='_M_start' type-id='type-id-93' visibility='default' filepath='/usr/lib/gcc/x86_64-redhat-linux/4.4.7/../../../../include/c++/4.4.7/bits/stl_vector.h' line='76' column='1'/>
            </data-member>
            <data-member access='public' layout-offset-in-bits='64'>
              <!-- unsigned char* std::_Vector_base<unsigned char, std::allocator<unsigned char> >::_Vector_impl::_M_finish -->
              <var-decl name='_M_finish' type-id='type-id-93' visibility='default' filepath='/usr/lib/gcc/x86_64-redhat-linux/4.4.7/../../../../include/c++/4.4.7/bits/stl_vector.h' line='77' column='1'/>
            </data-member>
            <data-member access='public' layout-offset-in-bits='128'>
              <!-- unsigned char* std::_Vector_base<unsigned char, std::allocator<unsigned char> >::_Vector_impl::_M_end_of_storage -->
              <var-decl name='_M_end_of_storage' type-id='type-id-93' visibility='default' filepath='/usr/lib/gcc/x86_64-redhat-linux/4.4.7/../../../../include/c++/4.4.7/bits/stl_vector.h' line='78' column='1'/>
            </data-member>
          </class-decl>
        </member-type>
        <data-member access='public' layout-offset-in-bits='0'>
          <!-- std::_Vector_base<unsigned char, std::allocator<unsigned char> >::_Vector_impl std::_Vector_base<unsigned char, std::allocator<unsigned char> >::_M_impl -->
          <var-decl name='_M_impl' type-id='type-id-331' visibility='default' filepath='/usr/lib/gcc/x86_64-redhat-linux/4.4.7/../../../../include/c++/4.4.7/bits/stl_vector.h' line='136' column='1'/>
        </data-member>
      </class-decl>
      <!-- struct std::__copy_move<false, true, std::random_access_iterator_tag> -->
      <class-decl name='__copy_move&lt;false, true, std::random_access_iterator_tag&gt;' is-struct='yes' visibility='default' size-in-bits='8' filepath='/usr/lib/gcc/x86_64-redhat-linux/4.4.7/../../../../include/c++/4.4.7/bits/stl_algobase.h' line='307' column='1' hash='ded2380d89c762e7#2' id='type-id-422'/>
      <!-- struct std::__copy_move_backward<false, true, std::random_access_iterator_tag> -->
      <class-decl name='__copy_move_backward&lt;false, true, std::random_access_iterator_tag&gt;' is-struct='yes' visibility='default' size-in-bits='8' filepath='/usr/lib/gcc/x86_64-redhat-linux/4.4.7/../../../../include/c++/4.4.7/bits/stl_algobase.h' line='511' column='1' hash='cdce412c223d47b0#2' id='type-id-423'/>
      <!-- struct std::__miter_base<const vtkCommunicator::ReduceVoidArray::VTK_TT*, false> -->
      <class-decl name='__miter_base&lt;const vtkCommunicator::ReduceVoidArray::VTK_TT*, false&gt;' is-struct='yes' visibility='default' hash='b4dc84aa08dfe214' id='type-id-424'/>
      <!-- struct std::__miter_base<const vtkCommunicator::ReduceVoidArray::VTK_TT*, false> -->
      <class-decl name='__miter_base&lt;const vtkCommunicator::ReduceVoidArray::VTK_TT*, false&gt;' is-struct='yes' visibility='default' size-in-bits='8' filepath='/usr/lib/gcc/x86_64-redhat-linux/4.4.7/../../../../include/c++/4.4.7/bits/stl_algobase.h' line='285' column='1' hash='b6592534f768c13e#2' id='type-id-425'>
        <member-type access='public'>
          <!-- typedef char std::__miter_base<const vtkCommunicator::ReduceVoidArray::VTK_TT*, false>::VTK_TT -->
          <typedef-decl name='VTK_TT' type-id='type-id-2' size-in-bits='8' filepath='/tmp/legendre/spack-stage/spack-stage-R_crTC/VTK-6.1.0/Parallel/Core/vtkCommunicator.cxx' line='1342' column='1' hash='65b2d157027b431a' id='type-id-206'/>
        </member-type>
        <member-type access='public'>
          <!-- typedef double std::__miter_base<const vtkCommunicator::ReduceVoidArray::VTK_TT*, false>::VTK_TT -->
          <typedef-decl name='VTK_TT' type-id='type-id-96' size-in-bits='64' filepath='/tmp/legendre/spack-stage/spack-stage-R_crTC/VTK-6.1.0/Parallel/Core/vtkCommunicator.cxx' line='1342' column='1' hash='e9e9b320886d9aa6#2' id='type-id-208'/>
        </member-type>
        <member-type access='public'>
          <!-- typedef float std::__miter_base<const vtkCommunicator::ReduceVoidArray::VTK_TT*, false>::VTK_TT -->
          <typedef-decl name='VTK_TT' type-id='type-id-86' size-in-bits='32' filepath='/tmp/legendre/spack-stage/spack-stage-R_crTC/VTK-6.1.0/Parallel/Core/vtkCommunicator.cxx' line='1342' column='1' hash='d7ec3bf03d3c5690#3' id='type-id-210'/>
        </member-type>
        <member-type access='public'>
          <!-- typedef int std::__miter_base<const vtkCommunicator::ReduceVoidArray::VTK_TT*, false>::VTK_TT -->
          <typedef-decl name='VTK_TT' type-id='type-id-19' size-in-bits='32' filepath='/tmp/legendre/spack-stage/spack-stage-R_crTC/VTK-6.1.0/Parallel/Core/vtkCommunicator.cxx' line='1342' column='1' hash='09d17c08f594edc7#4' id='type-id-212'/>
        </member-type>
        <member-type access='public'>
          <!-- typedef long int std::__miter_base<const vtkCommunicator::ReduceVoidArray::VTK_TT*, false>::VTK_TT -->
          <typedef-decl name='VTK_TT' type-id='type-id-111' size-in-bits='64' filepath='/tmp/legendre/spack-stage/spack-stage-R_crTC/VTK-6.1.0/Parallel/Core/vtkCommunicator.cxx' line='1342' column='1' hash='b119fe0931d2ee10#5' id='type-id-214'/>
        </member-type>
        <member-type access='public'>
          <!-- typedef long long int std::__miter_base<const vtkCommunicator::ReduceVoidArray::VTK_TT*, false>::VTK_TT -->
          <typedef-decl name='VTK_TT' type-id='type-id-112' size-in-bits='64' filepath='/tmp/legendre/spack-stage/spack-stage-R_crTC/VTK-6.1.0/Parallel/Core/vtkCommunicator.cxx' line='1342' column='1' hash='5ae7f9eec1fc43d6#6' id='type-id-216'/>
        </member-type>
        <member-type access='public'>
          <!-- typedef short int std::__miter_base<const vtkCommunicator::ReduceVoidArray::VTK_TT*, false>::VTK_TT -->
          <typedef-decl name='VTK_TT' type-id='type-id-113' size-in-bits='16' filepath='/tmp/legendre/spack-stage/spack-stage-R_crTC/VTK-6.1.0/Parallel/Core/vtkCommunicator.cxx' line='1342' column='1' hash='6c2352eccdcd3eea#7' id='type-id-218'/>
        </member-type>
        <member-type access='public'>
          <!-- typedef signed char std::__miter_base<const vtkCommunicator::ReduceVoidArray::VTK_TT*, false>::VTK_TT -->
          <typedef-decl name='VTK_TT' type-id='type-id-114' size-in-bits='8' filepath='/tmp/legendre/spack-stage/spack-stage-R_crTC/VTK-6.1.0/Parallel/Core/vtkCommunicator.cxx' line='1342' column='1' hash='3c595c3350588f18#8' id='type-id-220'/>
        </member-type>
        <member-type access='public'>
          <!-- typedef unsigned char std::__miter_base<const vtkCommunicator::ReduceVoidArray::VTK_TT*, false>::VTK_TT -->
          <typedef-decl name='VTK_TT' type-id='type-id-64' size-in-bits='8' filepath='/tmp/legendre/spack-stage/spack-stage-R_crTC/VTK-6.1.0/Parallel/Core/vtkCommunicator.cxx' line='1342' column='1' hash='6ebac62b3366db68#9' id='type-id-222'/>
        </member-type>
        <member-type access='public'>
          <!-- typedef unsigned int std::__miter_base<const vtkCommunicator::ReduceVoidArray::VTK_TT*, false>::VTK_TT -->
          <typedef-decl name='VTK_TT' type-id='type-id-88' size-in-bits='32' filepath='/tmp/legendre/spack-stage/spack-stage-R_crTC/VTK-6.1.0/Parallel/Core/vtkCommunicator.cxx' line='1342' column='1' hash='e66b43f97c38e87a#10' id='type-id-224'/>
        </member-type>
        <member-type access='public'>
          <!-- typedef unsigned long int std::__miter_base<const vtkCommunicator::ReduceVoidArray::VTK_TT*, false>::VTK_TT -->
          <typedef-decl name='VTK_TT' type-id='type-id-4' size-in-bits='64' filepath='/tmp/legendre/spack-stage/spack-stage-R_crTC/VTK-6.1.0/Parallel/Core/vtkCommunicator.cxx' line='1342' column='1' hash='8fdc5eea2983a729#11' id='type-id-226'/>
        </member-type>
        <member-type access='public'>
          <!-- typedef unsigned long long int std::__miter_base<const vtkCommunicator::ReduceVoidArray::VTK_TT*, false>::VTK_TT -->
          <typedef-decl name='VTK_TT' type-id='type-id-143' size-in-bits='64' filepath='/tmp/legendre/spack-stage/spack-stage-R_crTC/VTK-6.1.0/Parallel/Core/vtkCommunicator.cxx' line='1342' column='1' hash='ebdfc4685a1e82df#12' id='type-id-228'/>
        </member-type>
        <member-type access='public'>
          <!-- typedef unsigned short int std::__miter_base<const vtkCommunicator::ReduceVoidArray::VTK_TT*, false>::VTK_TT -->
          <typedef-decl name='VTK_TT' type-id='type-id-122' size-in-bits='16' filepath='/tmp/legendre/spack-stage/spack-stage-R_crTC/VTK-6.1.0/Parallel/Core/vtkCommunicator.cxx' line='1342' column='1' hash='d7723bb93a30b11d#13' id='type-id-230'/>
        </member-type>
      </class-decl>
      <!-- struct std::__miter_base<unsigned char*, false> -->
      <class-decl name='__miter_base&lt;unsigned char*, false&gt;' is-struct='yes' visibility='default' size-in-bits='8' filepath='/usr/lib/gcc/x86_64-redhat-linux/4.4.7/../../../../include/c++/4.4.7/bits/stl_algobase.h' line='285' column='1' hash='841e896de4bf13f2#2' id='type-id-426'/>
      <!-- struct std::__niter_base<const vtkCommunicator::ReduceVoidArray::VTK_TT*, false> -->
      <class-decl name='__niter_base&lt;const vtkCommunicator::ReduceVoidArray::VTK_TT*, false&gt;' is-struct='yes' visibility='default' hash='248c605f14e52d71' id='type-id-427'/>
      <!-- struct std::__niter_base<const vtkCommunicator::ReduceVoidArray::VTK_TT*, false> -->
      <class-decl name='__niter_base&lt;const vtkCommunicator::ReduceVoidArray::VTK_TT*, false&gt;' is-struct='yes' visibility='default' size-in-bits='8' filepath='/usr/lib/gcc/x86_64-redhat-linux/4.4.7/../../../../include/c++/4.4.7/bits/stl_algobase.h' line='267' column='1' hash='4c8b722118dbff14#2' id='type-id-428'/>
      <!-- struct std::__niter_base<std::_Bit_type*, false> -->
      <class-decl name='__niter_base&lt;std::_Bit_type*, false&gt;' is-struct='yes' visibility='default' size-in-bits='8' filepath='/usr/lib/gcc/x86_64-redhat-linux/4.4.7/../../../../include/c++/4.4.7/bits/stl_algobase.h' line='267' column='1' hash='8aa843edba4fa35f#2' id='type-id-429'/>
      <!-- struct std::__niter_base<vtkCommunicator::ReduceVoidArray::VTK_TT*, false> -->
      <class-decl name='__niter_base&lt;vtkCommunicator::ReduceVoidArray::VTK_TT*, false&gt;' is-struct='yes' visibility='default' hash='2394f13e92eaa656' id='type-id-430'/>
      <!-- struct std::__niter_base<vtkCommunicator::ReduceVoidArray::VTK_TT*, false> -->
      <class-decl name='__niter_base&lt;vtkCommunicator::ReduceVoidArray::VTK_TT*, false&gt;' is-struct='yes' visibility='default' size-in-bits='8' filepath='/usr/lib/gcc/x86_64-redhat-linux/4.4.7/../../../../include/c++/4.4.7/bits/stl_algobase.h' line='267' column='1' hash='53238390727e4d40#2' id='type-id-431'/>
      <!-- struct std::__uninitialized_copy<true> -->
      <class-decl name='__uninitialized_copy&lt;true&gt;' is-struct='yes' visibility='default' size-in-bits='8' filepath='/usr/lib/gcc/x86_64-redhat-linux/4.4.7/../../../../include/c++/4.4.7/bits/stl_uninitialized.h' line='87' column='1' hash='30bd64e01784e92e#2' id='type-id-432'/>
      <!-- struct std::__uninitialized_fill_n<true> -->
      <class-decl name='__uninitialized_fill_n&lt;true&gt;' is-struct='yes' visibility='default' size-in-bits='8' filepath='/usr/lib/gcc/x86_64-redhat-linux/4.4.7/../../../../include/c++/4.4.7/bits/stl_uninitialized.h' line='198' column='1' hash='36e9c15425e114f4#2' id='type-id-433'/>
      <!-- struct std::allocator<char> -->
      <class-decl name='allocator&lt;char&gt;' is-struct='yes' visibility='default' size-in-bits='8' filepath='/usr/lib/gcc/x86_64-redhat-linux/4.4.7/../../../../include/c++/4.4.7/bits/stringfwd.h' line='45' column='1' hash='0e29bc311ca95715#2' id='type-id-246'>
        <!-- class __gnu_cxx::new_allocator<char> -->
        <base-class access='public' layout-offset-in-bits='0' type-id='type-id-155'/>
      </class-decl>
      <!-- struct std::basic_string<char, std::char_traits<char>, std::allocator<char> > -->
      <class-decl name='basic_string&lt;char, std::char_traits&lt;char&gt;, std::allocator&lt;char&gt; &gt;' is-struct='yes' visibility='default' size-in-bits='64' filepath='/usr/lib/gcc/x86_64-redhat-linux/4.4.7/../../../../include/c++/4.4.7/bits/stringfwd.h' line='52' column='1' hash='41e28a36dddcbfdb#2' id='type-id-255'>
        <member-type access='private'>
          <!-- struct std::basic_string<char, std::char_traits<char>, std::allocator<char> >::_Alloc_hider -->
          <class-decl name='_Alloc_hider' is-struct='yes' visibility='default' size-in-bits='64' filepath='/usr/lib/gcc/x86_64-redhat-linux/4.4.7/../../../../include/c++/4.4.7/bits/basic_string.h' line='258' column='1' hash='b2053c926fcda493' id='type-id-358'>
            <!-- struct std::allocator<char> -->
            <base-class access='public' layout-offset-in-bits='0' type-id='type-id-246'/>
            <data-member access='public' layout-offset-in-bits='0'>
              <!-- char* std::basic_string<char, std::char_traits<char>, std::allocator<char> >::_Alloc_hider::_M_p -->
              <var-decl name='_M_p' type-id='type-id-95' visibility='default' filepath='/usr/lib/gcc/x86_64-redhat-linux/4.4.7/../../../../include/c++/4.4.7/bits/basic_string.h' line='262' column='1'/>
            </data-member>
          </class-decl>
        </member-type>
        <member-type access='private'>
          <!-- struct std::basic_string<char, std::char_traits<char>, std::allocator<char> >::_Rep -->
          <class-decl name='_Rep' is-struct='yes' visibility='default' size-in-bits='192' filepath='/usr/lib/gcc/x86_64-redhat-linux/4.4.7/../../../../include/c++/4.4.7/bits/basic_string.h' line='148' column='1' hash='1100d7022e36b961' id='type-id-360'>
            <!-- struct std::basic_string<char, std::char_traits<char>, std::allocator<char> >::_Rep_base -->
            <base-class access='public' layout-offset-in-bits='0' type-id='type-id-434'/>
            <member-function access='public'>
              <!-- void std::basic_string<char, std::char_traits<char>, std::allocator<char> >::_Rep::_M_destroy(const std::allocator<char>&) -->
              <function-decl name='_M_destroy' mangled-name='_ZNSs4_Rep10_M_destroyERKSaIcE' filepath='/usr/lib/gcc/x86_64-redhat-linux/4.4.7/../../../../include/c++/4.4.7/bits/basic_string.tcc' line='445' column='1' visibility='default' binding='global' size-in-bits='64' hash='b7fac77a888b27ae'>
                <!-- implicit parameter of type 'std::basic_string<char, std::char_traits<char>, std::allocator<char> >::_Rep*' -->
                <parameter type-id='type-id-362' is-artificial='yes'/>
                <!-- parameter of type 'const std::allocator<char>&' -->
                <parameter type-id='type-id-248'/>
                <!-- void -->
                <return type-id='type-id-14'/>
              </function-decl>
            </member-function>
          </class-decl>
        </member-type>
        <member-type access='public'>
          <!-- struct std::basic_string<char, std::char_traits<char>, std::allocator<char> >::_Rep_base -->
          <class-decl name='_Rep_base' is-struct='yes' visibility='default' is-declaration-only='yes' id='type-id-434'/>
        </member-type>
        <data-member access='private' layout-offset-in-bits='0'>
          <!-- std::basic_string<char, std::char_traits<char>, std::allocator<char> >::_Alloc_hider std::basic_string<char, std::char_traits<char>, std::allocator<char> >::_M_dataplus -->
          <var-decl name='_M_dataplus' type-id='type-id-358' visibility='default' filepath='/usr/lib/gcc/x86_64-redhat-linux/4.4.7/../../../../include/c++/4.4.7/bits/basic_string.h' line='274' column='1'/>
        </data-member>
        <member-function access='public'>
          <!-- void std::basic_string<char, std::char_traits<char>, std::allocator<char> >::reserve(unsigned long int) -->
          <function-decl name='reserve' mangled-name='_ZNSs7reserveEm' filepath='/usr/lib/gcc/x86_64-redhat-linux/4.4.7/../../../../include/c++/4.4.7/bits/basic_string.tcc' line='502' column='1' visibility='default' binding='global' size-in-bits='64' hash='e0055d99adb0e173'>
            <!-- implicit parameter of type 'std::basic_string<char, std::char_traits<char>, std::allocator<char> >*' -->
            <parameter type-id='type-id-357' is-artificial='yes'/>
            <!-- parameter of type 'unsigned long int' -->
            <parameter type-id='type-id-4'/>
            <!-- void -->
            <return type-id='type-id-14'/>
          </function-decl>
        </member-function>
        <member-function access='public'>
          <!-- std::basic_string<char, std::char_traits<char>, std::allocator<char> >& std::basic_string<char, std::char_traits<char>, std::allocator<char> >::assign(const std::basic_string<char, std::char_traits<char>, std::allocator<char> >&) -->
          <function-decl name='assign' mangled-name='_ZNSs6assignERKSs' filepath='/usr/lib/gcc/x86_64-redhat-linux/4.4.7/../../../../include/c++/4.4.7/bits/basic_string.tcc' line='243' column='1' visibility='default' binding='global' size-in-bits='64' hash='d0bc9998376695f4'>
            <!-- implicit parameter of type 'std::basic_string<char, std::char_traits<char>, std::allocator<char> >*' -->
            <parameter type-id='type-id-357' is-artificial='yes'/>
            <!-- parameter of type 'const std::basic_string<char, std::char_traits<char>, std::allocator<char> >&' -->
            <parameter type-id='type-id-257'/>
            <!-- std::basic_string<char, std::char_traits<char>, std::allocator<char> >& -->
            <return type-id='type-id-356'/>
          </function-decl>
        </member-function>
        <member-function access='public'>
          <!-- std::basic_string<char, std::char_traits<char>, std::allocator<char> >& std::basic_string<char, std::char_traits<char>, std::allocator<char> >::assign(const char*, unsigned long int) -->
          <function-decl name='assign' mangled-name='_ZNSs6assignEPKcm' filepath='/usr/lib/gcc/x86_64-redhat-linux/4.4.7/../../../../include/c++/4.4.7/bits/basic_string.tcc' line='259' column='1' visibility='default' binding='global' size-in-bits='64' hash='057ff5c51024c26f'>
            <!-- implicit parameter of type 'std::basic_string<char, std::char_traits<char>, std::allocator<char> >*' -->
            <parameter type-id='type-id-357' is-artificial='yes'/>
            <!-- parameter of type 'const char*' -->
            <parameter type-id='type-id-33'/>
            <!-- parameter of type 'unsigned long int' -->
            <parameter type-id='type-id-4'/>
            <!-- std::basic_string<char, std::char_traits<char>, std::allocator<char> >& -->
            <return type-id='type-id-356'/>
          </function-decl>
        </member-function>
      </class-decl>
      <!-- struct std::char_traits<char> -->
      <class-decl name='char_traits&lt;char&gt;' is-struct='yes' visibility='default' size-in-bits='8' filepath='/usr/lib/gcc/x86_64-redhat-linux/4.4.7/../../../../include/c++/4.4.7/bits/char_traits.h' line='238' column='1' hash='fc88b5d70352b916#2' id='type-id-435'>
        <member-type access='public'>
          <!-- typedef char std::char_traits<char>::char_type -->
          <typedef-decl name='char_type' type-id='type-id-2' size-in-bits='8' filepath='/usr/lib/gcc/x86_64-redhat-linux/4.4.7/../../../../include/c++/4.4.7/bits/char_traits.h' line='239' column='1' hash='65b2d157027b431a' id='type-id-259'/>
        </member-type>
        <member-type access='public'>
          <!-- typedef int std::char_traits<char>::int_type -->
          <typedef-decl name='int_type' type-id='type-id-19' size-in-bits='32' filepath='/usr/lib/gcc/x86_64-redhat-linux/4.4.7/../../../../include/c++/4.4.7/bits/char_traits.h' line='240' column='1' hash='09d17c08f594edc7' id='type-id-263'/>
        </member-type>
      </class-decl>
      <!-- typedef unsigned long int std::_Bit_type -->
      <typedef-decl name='_Bit_type' type-id='type-id-4' size-in-bits='64' filepath='/usr/lib/gcc/x86_64-redhat-linux/4.4.7/../../../../include/c++/4.4.7/bits/stl_bvector.h' line='64' column='1' hash='8fdc5eea2983a729' id='type-id-322'/>
      <!-- typedef std::basic_string<char, std::char_traits<char>, std::allocator<char> > std::string -->
      <typedef-decl name='string' type-id='type-id-255' size-in-bits='64' filepath='/usr/lib/gcc/x86_64-redhat-linux/4.4.7/../../../../include/c++/4.4.7/bits/stringfwd.h' line='56' column='1' id='type-id-266'/>
      <!-- class std::ctype<char> -->
      <class-decl name='ctype&lt;char&gt;' visibility='default' is-declaration-only='yes' id='type-id-410'>
        <member-type access='private'>
          <!-- typedef char std::ctype<char>::char_type -->
          <typedef-decl name='char_type' type-id='type-id-2' size-in-bits='8' filepath='/usr/lib/gcc/x86_64-redhat-linux/4.4.7/../../../../include/c++/4.4.7/bits/locale_facets.h' line='679' column='1' hash='65b2d157027b431a' id='type-id-436'/>
        </member-type>
      </class-decl>
      <!-- class std::ios_base -->
      <class-decl name='ios_base' visibility='default' is-declaration-only='yes' id='type-id-437'/>
      <!-- class std::reverse_iterator<__gnu_cxx::__normal_iterator<char*, std::basic_string<char, std::char_traits<char>, std::allocator<char> > > > -->
      <class-decl name='reverse_iterator&lt;__gnu_cxx::__normal_iterator&lt;char*, std::basic_string&lt;char, std::char_traits&lt;char&gt;, std::allocator&lt;char&gt; &gt; &gt; &gt;' visibility='default' is-declaration-only='yes' id='type-id-438'/>
      <!-- class std::reverse_iterator<__gnu_cxx::__normal_iterator<const char*, std::basic_string<char, std::char_traits<char>, std::allocator<char> > > > -->
      <class-decl name='reverse_iterator&lt;__gnu_cxx::__normal_iterator&lt;const char*, std::basic_string&lt;char, std::char_traits&lt;char&gt;, std::allocator&lt;char&gt; &gt; &gt; &gt;' visibility='default' is-declaration-only='yes' id='type-id-439'/>
      <!-- class std::reverse_iterator<__gnu_cxx::__normal_iterator<const long long int*, std::vector<long long int, std::allocator<long long int> > > > -->
      <class-decl name='reverse_iterator&lt;__gnu_cxx::__normal_iterator&lt;const long long int*, std::vector&lt;long long int, std::allocator&lt;long long int&gt; &gt; &gt; &gt;' visibility='default' is-declaration-only='yes' id='type-id-440'/>
      <!-- class std::reverse_iterator<__gnu_cxx::__normal_iterator<const unsigned char*, std::vector<unsigned char, std::allocator<unsigned char> > > > -->
      <class-decl name='reverse_iterator&lt;__gnu_cxx::__normal_iterator&lt;const unsigned char*, std::vector&lt;unsigned char, std::allocator&lt;unsigned char&gt; &gt; &gt; &gt;' visibility='default' is-declaration-only='yes' id='type-id-441'/>
      <!-- class std::reverse_iterator<__gnu_cxx::__normal_iterator<long long int*, std::vector<long long int, std::allocator<long long int> > > > -->
      <class-decl name='reverse_iterator&lt;__gnu_cxx::__normal_iterator&lt;long long int*, std::vector&lt;long long int, std::allocator&lt;long long int&gt; &gt; &gt; &gt;' visibility='default' is-declaration-only='yes' id='type-id-442'/>
      <!-- class std::reverse_iterator<__gnu_cxx::__normal_iterator<unsigned char*, std::vector<unsigned char, std::allocator<unsigned char> > > > -->
      <class-decl name='reverse_iterator&lt;__gnu_cxx::__normal_iterator&lt;unsigned char*, std::vector&lt;unsigned char, std::allocator&lt;unsigned char&gt; &gt; &gt; &gt;' visibility='default' is-declaration-only='yes' id='type-id-443'/>
      <!-- struct std::basic_ios<char, std::char_traits<char> > -->
      <class-decl name='basic_ios&lt;char, std::char_traits&lt;char&gt; &gt;' is-struct='yes' visibility='default' is-declaration-only='yes' id='type-id-406'>
        <member-type access='public'>
          <!-- typedef std::_Ios_Iostate std::basic_ios<char, std::char_traits<char> >::iostate -->
          <typedef-decl name='iostate' type-id='type-id-418' size-in-bits='32' alignment-in-bits='32' filepath='/usr/lib/gcc/x86_64-redhat-linux/4.4.7/../../../../include/c++/4.4.7/bits/ios_base.h' line='338' column='1' hash='388bbdfd4360e2cc' id='type-id-444'/>
        </member-type>
      </class-decl>
      <!-- struct std::basic_ostream<char, std::char_traits<char> > -->
      <class-decl name='basic_ostream&lt;char, std::char_traits&lt;char&gt; &gt;' is-struct='yes' visibility='default' is-declaration-only='yes' id='type-id-445'/>
      <!-- std::__miter_base<const vtkCommunicator::ReduceVoidArray::VTK_TT*, false>::VTK_TT* std::copy<const vtkCommunicator::ReduceVoidArray::VTK_TT*, vtkCommunicator::ReduceVoidArray::VTK_TT*>(const std::__miter_base<const vtkCommunicator::ReduceVoidArray::VTK_TT*, false>::VTK_TT*, const std::__miter_base<const vtkCommunicator::ReduceVoidArray::VTK_TT*, false>::VTK_TT*, std::__miter_base<const vtkCommunicator::ReduceVoidArray::VTK_TT*, false>::VTK_TT*) -->
      <function-decl name='copy&lt;const vtkCommunicator::ReduceVoidArray::VTK_TT*, vtkCommunicator::ReduceVoidArray::VTK_TT*&gt;' mangled-name='_ZSt4copyIPKxPxET0_T_S4_S3_' filepath='/usr/lib/gcc/x86_64-redhat-linux/4.4.7/../../../../include/c++/4.4.7/bits/stl_algobase.h' line='458' column='1' visibility='default' binding='global' size-in-bits='64' elf-symbol-id='_ZSt4copyIPKxPxET0_T_S4_S3_' hash='4d0f39192b11614d#5'>
        <!-- parameter of type 'const std::__miter_base<const vtkCommunicator::ReduceVoidArray::VTK_TT*, false>::VTK_TT*' -->
        <parameter type-id='type-id-238'/>
        <!-- parameter of type 'const std::__miter_base<const vtkCommunicator::ReduceVoidArray::VTK_TT*, false>::VTK_TT*' -->
        <parameter type-id='type-id-238'/>
        <!-- parameter of type 'std::__miter_base<const vtkCommunicator::ReduceVoidArray::VTK_TT*, false>::VTK_TT*' -->
        <parameter type-id='type-id-339'/>
        <!-- std::__miter_base<const vtkCommunicator::ReduceVoidArray::VTK_TT*, false>::VTK_TT* -->
        <return type-id='type-id-339'/>
      </function-decl>
      <!-- typedef std::basic_ostream<char, std::char_traits<char> > std::ostream -->
      <typedef-decl name='ostream' type-id='type-id-445' filepath='/usr/lib/gcc/x86_64-redhat-linux/4.4.7/../../../../include/c++/4.4.7/iosfwd' line='130' column='1' id='type-id-446'/>
    </namespace-decl>
    <!-- std::basic_ios<char, std::char_traits<char> >* -->
    <pointer-type-def type-id='type-id-406' size-in-bits='64' id='type-id-447'/>
    <!-- std::basic_ios<char, std::char_traits<char> >* const -->
    <qualified-type-def type-id='type-id-447' const='yes' id='type-id-448'/>
    <reference-type-def kind='lvalue' type-id='type-id-445' size-in-bits='64' id='type-id-449'/>
    <!-- std::basic_ostream<char, std::char_traits<char> >* -->
    <pointer-type-def type-id='type-id-445' size-in-bits='64' id='type-id-450'/>
    <!-- std::basic_ostream<char, std::char_traits<char> >* const -->
    <qualified-type-def type-id='type-id-450' const='yes' id='type-id-451'/>
    <reference-type-def kind='lvalue' type-id='type-id-437' size-in-bits='64' id='type-id-452'/>
    <reference-type-def kind='lvalue' type-id='type-id-446' size-in-bits='64' id='type-id-34'/>
    <!-- struct vtkAbstractArray -->
    <class-decl name='vtkAbstractArray' is-struct='yes' visibility='default' is-declaration-only='yes' id='type-id-453'/>
    <!-- struct vtkGarbageCollector -->
    <class-decl name='vtkGarbageCollector' is-struct='yes' visibility='default' is-declaration-only='yes' id='type-id-454'/>
    <!-- struct vtkMultiBlockDataSet -->
    <class-decl name='vtkMultiBlockDataSet' is-struct='yes' visibility='default' is-declaration-only='yes' id='type-id-455'/>
    <!-- vtkAbstractArray* -->
    <pointer-type-def type-id='type-id-453' size-in-bits='64' id='type-id-456'/>
    <!-- vtkAbstractArray* const -->
    <qualified-type-def type-id='type-id-456' const='yes' id='type-id-457'/>
    <reference-type-def kind='lvalue' type-id='type-id-393' size-in-bits='64' id='type-id-458'/>
    <!-- vtkCharArray* -->
    <pointer-type-def type-id='type-id-393' size-in-bits='64' id='type-id-28'/>
    <!-- vtkDataArray* -->
    <pointer-type-def type-id='type-id-394' size-in-bits='64' id='type-id-26'/>
    <!-- vtkDataArrayTemplate<char>* -->
    <pointer-type-def type-id='type-id-395' size-in-bits='64' id='type-id-459'/>
    <!-- vtkDataArrayTemplate<char>* const -->
    <qualified-type-def type-id='type-id-459' const='yes' id='type-id-460'/>
    <reference-type-def kind='lvalue' type-id='type-id-396' size-in-bits='64' id='type-id-461'/>
    <!-- vtkDataObject* -->
    <pointer-type-def type-id='type-id-396' size-in-bits='64' id='type-id-29'/>
    <!-- vtkDataSet* -->
    <pointer-type-def type-id='type-id-397' size-in-bits='64' id='type-id-462'/>
    <!-- vtkDataWriter* -->
    <pointer-type-def type-id='type-id-398' size-in-bits='64' id='type-id-463'/>
    <!-- vtkDataWriter* const -->
    <qualified-type-def type-id='type-id-463' const='yes' id='type-id-464'/>
    <!-- vtkGarbageCollector* -->
    <pointer-type-def type-id='type-id-454' size-in-bits='64' id='type-id-465'/>
    <reference-type-def kind='lvalue' type-id='type-id-399' size-in-bits='64' id='type-id-466'/>
    <!-- vtkGenericDataObjectReader* -->
    <pointer-type-def type-id='type-id-399' size-in-bits='64' id='type-id-467'/>
    <reference-type-def kind='lvalue' type-id='type-id-400' size-in-bits='64' id='type-id-468'/>
    <!-- vtkGenericDataObjectWriter* -->
    <pointer-type-def type-id='type-id-400' size-in-bits='64' id='type-id-469'/>
    <!-- vtkImageData* -->
    <pointer-type-def type-id='type-id-401' size-in-bits='64' id='type-id-470'/>
    <!-- vtkMultiBlockDataSet* -->
    <pointer-type-def type-id='type-id-455' size-in-bits='64' id='type-id-471'/>
    <!-- vtkObjectBase* -->
    <pointer-type-def type-id='type-id-403' size-in-bits='64' id='type-id-36'/>
    <!-- vtkObjectBase* const -->
    <qualified-type-def type-id='type-id-36' const='yes' id='type-id-472'/>
    <!-- vtkRectilinearGrid* -->
    <pointer-type-def type-id='type-id-404' size-in-bits='64' id='type-id-473'/>
    <!-- vtkStructuredGrid* -->
    <pointer-type-def type-id='type-id-405' size-in-bits='64' id='type-id-474'/>
    <!-- namespace __gnu_cxx -->
    <namespace-decl name='__gnu_cxx'>
      <!-- class __gnu_cxx::__normal_iterator<unsigned char*, std::vector<unsigned char, std::allocator<unsigned char> > > -->
      <class-decl name='__normal_iterator&lt;unsigned char*, std::vector&lt;unsigned char, std::allocator&lt;unsigned char&gt; &gt; &gt;' visibility='default' size-in-bits='64' filepath='/usr/lib/gcc/x86_64-redhat-linux/4.4.7/../../../../include/c++/4.4.7/bits/stl_iterator.h' line='669' column='1' hash='662821c98239cd63#2' id='type-id-151'>
        <data-member access='protected' layout-offset-in-bits='0'>
          <!-- unsigned char* __gnu_cxx::__normal_iterator<unsigned char*, std::vector<unsigned char, std::allocator<unsigned char> > >::_M_current -->
          <var-decl name='_M_current' type-id='type-id-93' visibility='default' filepath='/usr/lib/gcc/x86_64-redhat-linux/4.4.7/../../../../include/c++/4.4.7/bits/stl_iterator.h' line='671' column='1'/>
        </data-member>
      </class-decl>
      <!-- class __gnu_cxx::new_allocator<char> -->
      <class-decl name='new_allocator&lt;char&gt;' visibility='default' size-in-bits='8' filepath='/usr/lib/gcc/x86_64-redhat-linux/4.4.7/../../../../include/c++/4.4.7/ext/new_allocator.h' line='52' column='1' hash='084a85392ac35fed#2' id='type-id-155'/>
      <!-- class __gnu_cxx::new_allocator<long long int> -->
      <class-decl name='new_allocator&lt;long long int&gt;' visibility='default' size-in-bits='8' filepath='/usr/lib/gcc/x86_64-redhat-linux/4.4.7/../../../../include/c++/4.4.7/ext/new_allocator.h' line='52' column='1' hash='ff80063ad52e00be' id='type-id-157'/>
      <!-- class __gnu_cxx::new_allocator<unsigned char> -->
      <class-decl name='new_allocator&lt;unsigned char&gt;' visibility='default' size-in-bits='8' filepath='/usr/lib/gcc/x86_64-redhat-linux/4.4.7/../../../../include/c++/4.4.7/ext/new_allocator.h' line='52' column='1' hash='d730e29e34f5b3b5#2' id='type-id-160'/>
      <!-- class __gnu_cxx::__normal_iterator<char*, std::basic_string<char, std::char_traits<char>, std::allocator<char> > > -->
      <class-decl name='__normal_iterator&lt;char*, std::basic_string&lt;char, std::char_traits&lt;char&gt;, std::allocator&lt;char&gt; &gt; &gt;' visibility='default' is-declaration-only='yes' id='type-id-475'/>
      <!-- class __gnu_cxx::__normal_iterator<const char*, std::basic_string<char, std::char_traits<char>, std::allocator<char> > > -->
      <class-decl name='__normal_iterator&lt;const char*, std::basic_string&lt;char, std::char_traits&lt;char&gt;, std::allocator&lt;char&gt; &gt; &gt;' visibility='default' is-declaration-only='yes' id='type-id-476'/>
      <!-- class __gnu_cxx::__normal_iterator<const long long int*, std::vector<long long int, std::allocator<long long int> > > -->
      <class-decl name='__normal_iterator&lt;const long long int*, std::vector&lt;long long int, std::allocator&lt;long long int&gt; &gt; &gt;' visibility='default' is-declaration-only='yes' id='type-id-477'/>
      <!-- class __gnu_cxx::__normal_iterator<const unsigned char*, std::vector<unsigned char, std::allocator<unsigned char> > > -->
      <class-decl name='__normal_iterator&lt;const unsigned char*, std::vector&lt;unsigned char, std::allocator&lt;unsigned char&gt; &gt; &gt;' visibility='default' size-in-bits='64' filepath='/usr/lib/gcc/x86_64-redhat-linux/4.4.7/../../../../include/c++/4.4.7/bits/stl_iterator.h' line='669' column='1' hash='1f800c618ac50527' id='type-id-478'>
        <data-member access='protected' layout-offset-in-bits='0'>
          <!-- const unsigned char* __gnu_cxx::__normal_iterator<const unsigned char*, std::vector<unsigned char, std::allocator<unsigned char> > >::_M_current -->
          <var-decl name='_M_current' type-id='type-id-90' visibility='default' filepath='/usr/lib/gcc/x86_64-redhat-linux/4.4.7/../../../../include/c++/4.4.7/bits/stl_iterator.h' line='671' column='1'/>
        </data-member>
      </class-decl>
      <!-- class __gnu_cxx::__normal_iterator<long long int*, std::vector<long long int, std::allocator<long long int> > > -->
      <class-decl name='__normal_iterator&lt;long long int*, std::vector&lt;long long int, std::allocator&lt;long long int&gt; &gt; &gt;' visibility='default' is-declaration-only='yes' id='type-id-479'/>
    </namespace-decl>
    <!-- variadic parameter type -->
    <type-decl name='variadic parameter type' id='type-id-480'/>
    <!-- void -->
    <type-decl name='void' id='type-id-14'/>
    <!-- void* -->
    <pointer-type-def type-id='type-id-14' id='type-id-20'/>
    <!-- int (void*, void*) -->
    <function-type size-in-bits='64' hash='388da3fa973fde78' id='type-id-317'>
      <!-- parameter of type 'void*' -->
      <parameter type-id='type-id-20'/>
      <!-- parameter of type 'void*' -->
      <parameter type-id='type-id-20'/>
      <!-- int -->
      <return type-id='type-id-19'/>
    </function-type>
    <!-- std::basic_ostream<char, std::char_traits<char> >& (std::basic_ostream<char, std::char_traits<char> >&) -->
    <function-type size-in-bits='64' hash='7f32ffea222edbe7' id='type-id-354'>
      <!-- parameter of type 'std::basic_ostream<char, std::char_traits<char> >&' -->
      <parameter type-id='type-id-449'/>
      <!-- std::basic_ostream<char, std::char_traits<char> >& -->
      <return type-id='type-id-449'/>
    </function-type>
    <!-- void (void) -->
    <function-type size-in-bits='64' hash='7f32ffea222edbe7' id='type-id-374'>
      <!-- void -->
      <return type-id='type-id-14'/>
    </function-type>
    <!-- bool (vtkMultiProcessStream::*) () -->
    <function-type method-class-id='type-id-59' size-in-bits='64' hash='c7c710e908194b91' id='type-id-481'>
      <!-- implicit parameter of type 'vtkMultiProcessStream*' -->
      <parameter type-id='type-id-65' is-artificial='yes'/>
      <!-- bool -->
      <return type-id='type-id-1'/>
    </function-type>
    <!-- const char* (vtkCommunicator::*) () -->
    <function-type method-class-id='type-id-15' const='yes' size-in-bits='64' hash='53885bde0aa65efe' id='type-id-482'>
      <!-- implicit parameter of type 'const vtkCommunicator*' -->
      <parameter type-id='type-id-32' is-artificial='yes'/>
      <!-- const char* -->
      <return type-id='type-id-33'/>
    </function-type>
    <!-- int (vtkCommunicator::*) () -->
    <function-type method-class-id='type-id-15' size-in-bits='64' hash='388da3fa973fde78' id='type-id-483'>
      <!-- implicit parameter of type 'vtkCommunicator*' -->
      <parameter type-id='type-id-25' is-artificial='yes'/>
      <!-- int -->
      <return type-id='type-id-19'/>
    </function-type>
    <!-- int (vtkCommunicator::*) (const char*) -->
    <function-type method-class-id='type-id-15' size-in-bits='64' hash='e9ea91a7eab8302c' id='type-id-484'>
      <!-- implicit parameter of type 'vtkCommunicator*' -->
      <parameter type-id='type-id-25' is-artificial='yes'/>
      <!-- parameter of type 'const char*' -->
      <parameter type-id='type-id-33'/>
      <!-- int -->
      <return type-id='type-id-19'/>
    </function-type>
    <!-- int (vtkCommunicator::*) (const vtkMultiProcessStream&, int, int) -->
    <function-type method-class-id='type-id-15' size-in-bits='64' hash='00e30b436742064d' id='type-id-485'>
      <!-- implicit parameter of type 'vtkCommunicator*' -->
      <parameter type-id='type-id-25' is-artificial='yes'/>
      <!-- parameter of type 'const vtkMultiProcessStream&' -->
      <parameter type-id='type-id-31'/>
      <!-- parameter of type 'int' -->
      <parameter type-id='type-id-19'/>
      <!-- parameter of type 'int' -->
      <parameter type-id='type-id-19'/>
      <!-- int -->
      <return type-id='type-id-19'/>
    </function-type>
    <!-- int (vtkCommunicator::*) (int) -->
    <function-type method-class-id='type-id-15' size-in-bits='64' hash='d628501fd2223339' id='type-id-486'>
      <!-- parameter of type 'int' -->
      <parameter type-id='type-id-19'/>
      <!-- int -->
      <return type-id='type-id-19'/>
    </function-type>
    <!-- int (vtkCommunicator::*) (int, int, vtkBoundingBox*, int*, int*, int, int, int) -->
    <function-type method-class-id='type-id-15' size-in-bits='64' hash='46747a6e735d2c08' id='type-id-487'>
      <!-- implicit parameter of type 'vtkCommunicator*' -->
      <parameter type-id='type-id-25' is-artificial='yes'/>
      <!-- parameter of type 'int' -->
      <parameter type-id='type-id-19'/>
      <!-- parameter of type 'int' -->
      <parameter type-id='type-id-19'/>
      <!-- parameter of type 'vtkBoundingBox*' -->
      <parameter type-id='type-id-12'/>
      <!-- parameter of type 'int*' -->
      <parameter type-id='type-id-37'/>
      <!-- parameter of type 'int*' -->
      <parameter type-id='type-id-37'/>
      <!-- parameter of type 'int' -->
      <parameter type-id='type-id-19'/>
      <!-- parameter of type 'int' -->
      <parameter type-id='type-id-19'/>
      <!-- parameter of type 'int' -->
      <parameter type-id='type-id-19'/>
      <!-- int -->
      <return type-id='type-id-19'/>
    </function-type>
    <!-- int (vtkCommunicator::*) (void*, void*, vtkIdType*, vtkIdType*, vtkIdType, int, int) -->
    <function-type method-class-id='type-id-15' size-in-bits='64' hash='8c6286c4e28fd126' id='type-id-488'>
      <!-- implicit parameter of type 'vtkCommunicator*' -->
      <parameter type-id='type-id-25' is-artificial='yes'/>
      <!-- parameter of type 'void*' -->
      <parameter type-id='type-id-20'/>
      <!-- parameter of type 'void*' -->
      <parameter type-id='type-id-20'/>
      <!-- parameter of type 'vtkIdType*' -->
      <parameter type-id='type-id-27'/>
      <!-- parameter of type 'vtkIdType*' -->
      <parameter type-id='type-id-27'/>
      <!-- parameter of type 'typedef vtkIdType' -->
      <parameter type-id='type-id-21'/>
      <!-- parameter of type 'int' -->
      <parameter type-id='type-id-19'/>
      <!-- parameter of type 'int' -->
      <parameter type-id='type-id-19'/>
      <!-- int -->
      <return type-id='type-id-19'/>
    </function-type>
    <!-- int (vtkCommunicator::*) (void*, void*, vtkIdType, int) -->
    <function-type method-class-id='type-id-15' size-in-bits='64' hash='75ae38693d4ae6ee' id='type-id-489'>
      <!-- implicit parameter of type 'vtkCommunicator*' -->
      <parameter type-id='type-id-25' is-artificial='yes'/>
      <!-- parameter of type 'void*' -->
      <parameter type-id='type-id-20'/>
      <!-- parameter of type 'void*' -->
      <parameter type-id='type-id-20'/>
      <!-- parameter of type 'typedef vtkIdType' -->
      <parameter type-id='type-id-21'/>
      <!-- parameter of type 'int' -->
      <parameter type-id='type-id-19'/>
      <!-- int -->
      <return type-id='type-id-19'/>
    </function-type>
    <!-- int (vtkCommunicator::*) (void*, void*, vtkIdType, int, int) -->
    <function-type method-class-id='type-id-15' size-in-bits='64' hash='6c2c4044e69a83f9' id='type-id-490'>
      <!-- implicit parameter of type 'vtkCommunicator*' -->
      <parameter type-id='type-id-25' is-artificial='yes'/>
      <!-- parameter of type 'void*' -->
      <parameter type-id='type-id-20'/>
      <!-- parameter of type 'void*' -->
      <parameter type-id='type-id-20'/>
      <!-- parameter of type 'typedef vtkIdType' -->
      <parameter type-id='type-id-21'/>
      <!-- parameter of type 'int' -->
      <parameter type-id='type-id-19'/>
      <!-- parameter of type 'int' -->
      <parameter type-id='type-id-19'/>
      <!-- int -->
      <return type-id='type-id-19'/>
    </function-type>
    <!-- int (vtkCommunicator::*) (void*, void*, vtkIdType, int, int, int) -->
    <function-type method-class-id='type-id-15' size-in-bits='64' hash='dd087474275e2caa' id='type-id-491'>
      <!-- implicit parameter of type 'vtkCommunicator*' -->
      <parameter type-id='type-id-25' is-artificial='yes'/>
      <!-- parameter of type 'void*' -->
      <parameter type-id='type-id-20'/>
      <!-- parameter of type 'void*' -->
      <parameter type-id='type-id-20'/>
      <!-- parameter of type 'typedef vtkIdType' -->
      <parameter type-id='type-id-21'/>
      <!-- parameter of type 'int' -->
      <parameter type-id='type-id-19'/>
      <!-- parameter of type 'int' -->
      <parameter type-id='type-id-19'/>
      <!-- parameter of type 'int' -->
      <parameter type-id='type-id-19'/>
      <!-- int -->
      <return type-id='type-id-19'/>
    </function-type>
    <!-- int (vtkCommunicator::*) (void*, void*, vtkIdType, int, vtkCommunicator::Operation*) -->
    <function-type method-class-id='type-id-15' size-in-bits='64' hash='47be5c92d6c604e0' id='type-id-492'>
      <!-- implicit parameter of type 'vtkCommunicator*' -->
      <parameter type-id='type-id-25' is-artificial='yes'/>
      <!-- parameter of type 'void*' -->
      <parameter type-id='type-id-20'/>
      <!-- parameter of type 'void*' -->
      <parameter type-id='type-id-20'/>
      <!-- parameter of type 'typedef vtkIdType' -->
      <parameter type-id='type-id-21'/>
      <!-- parameter of type 'int' -->
      <parameter type-id='type-id-19'/>
      <!-- parameter of type 'vtkCommunicator::Operation*' -->
      <parameter type-id='type-id-18'/>
      <!-- int -->
      <return type-id='type-id-19'/>
    </function-type>
    <!-- int (vtkCommunicator::*) (void*, void*, vtkIdType, int, vtkCommunicator::Operation*, int) -->
    <function-type method-class-id='type-id-15' size-in-bits='64' hash='e15dfdce9092063a' id='type-id-493'>
      <!-- implicit parameter of type 'vtkCommunicator*' -->
      <parameter type-id='type-id-25' is-artificial='yes'/>
      <!-- parameter of type 'void*' -->
      <parameter type-id='type-id-20'/>
      <!-- parameter of type 'void*' -->
      <parameter type-id='type-id-20'/>
      <!-- parameter of type 'typedef vtkIdType' -->
      <parameter type-id='type-id-21'/>
      <!-- parameter of type 'int' -->
      <parameter type-id='type-id-19'/>
      <!-- parameter of type 'vtkCommunicator::Operation*' -->
      <parameter type-id='type-id-18'/>
      <!-- parameter of type 'int' -->
      <parameter type-id='type-id-19'/>
      <!-- int -->
      <return type-id='type-id-19'/>
    </function-type>
    <!-- int (vtkCommunicator::*) (void*, void*, vtkIdType, vtkIdType*, vtkIdType*, int) -->
    <function-type method-class-id='type-id-15' size-in-bits='64' hash='5c2da5732f4d4e74' id='type-id-494'>
      <!-- implicit parameter of type 'vtkCommunicator*' -->
      <parameter type-id='type-id-25' is-artificial='yes'/>
      <!-- parameter of type 'void*' -->
      <parameter type-id='type-id-20'/>
      <!-- parameter of type 'void*' -->
      <parameter type-id='type-id-20'/>
      <!-- parameter of type 'typedef vtkIdType' -->
      <parameter type-id='type-id-21'/>
      <!-- parameter of type 'vtkIdType*' -->
      <parameter type-id='type-id-27'/>
      <!-- parameter of type 'vtkIdType*' -->
      <parameter type-id='type-id-27'/>
      <!-- parameter of type 'int' -->
      <parameter type-id='type-id-19'/>
      <!-- int -->
      <return type-id='type-id-19'/>
    </function-type>
    <!-- int (vtkCommunicator::*) (void*, void*, vtkIdType, vtkIdType*, vtkIdType*, int, int) -->
    <function-type method-class-id='type-id-15' size-in-bits='64' hash='395c07f419729096' id='type-id-495'>
      <!-- implicit parameter of type 'vtkCommunicator*' -->
      <parameter type-id='type-id-25' is-artificial='yes'/>
      <!-- parameter of type 'void*' -->
      <parameter type-id='type-id-20'/>
      <!-- parameter of type 'void*' -->
      <parameter type-id='type-id-20'/>
      <!-- parameter of type 'typedef vtkIdType' -->
      <parameter type-id='type-id-21'/>
      <!-- parameter of type 'vtkIdType*' -->
      <parameter type-id='type-id-27'/>
      <!-- parameter of type 'vtkIdType*' -->
      <parameter type-id='type-id-27'/>
      <!-- parameter of type 'int' -->
      <parameter type-id='type-id-19'/>
      <!-- parameter of type 'int' -->
      <parameter type-id='type-id-19'/>
      <!-- int -->
      <return type-id='type-id-19'/>
    </function-type>
    <!-- int (vtkCommunicator::*) (void*, vtkIdType, int, int) -->
    <function-type method-class-id='type-id-15' size-in-bits='64' hash='6c2c4044e69a83f9' id='type-id-496'>
      <!-- implicit parameter of type 'vtkCommunicator*' -->
      <parameter type-id='type-id-25' is-artificial='yes'/>
      <!-- parameter of type 'void*' -->
      <parameter type-id='type-id-20'/>
      <!-- parameter of type 'typedef vtkIdType' -->
      <parameter type-id='type-id-21'/>
      <!-- parameter of type 'int' -->
      <parameter type-id='type-id-19'/>
      <!-- parameter of type 'int' -->
      <parameter type-id='type-id-19'/>
      <!-- int -->
      <return type-id='type-id-19'/>
    </function-type>
    <!-- int (vtkCommunicator::*) (void*, vtkIdType, int, int, int) -->
    <function-type method-class-id='type-id-15' size-in-bits='64' hash='dd087474275e2caa' id='type-id-497'>
      <!-- implicit parameter of type 'vtkCommunicator*' -->
      <parameter type-id='type-id-25' is-artificial='yes'/>
      <!-- parameter of type 'void*' -->
      <parameter type-id='type-id-20'/>
      <!-- parameter of type 'typedef vtkIdType' -->
      <parameter type-id='type-id-21'/>
      <!-- parameter of type 'int' -->
      <parameter type-id='type-id-19'/>
      <!-- parameter of type 'int' -->
      <parameter type-id='type-id-19'/>
      <!-- parameter of type 'int' -->
      <parameter type-id='type-id-19'/>
      <!-- int -->
      <return type-id='type-id-19'/>
    </function-type>
    <!-- int (vtkCommunicator::*) (vtkCharArray*, vtkDataObject*) -->
    <function-type method-class-id='type-id-15' size-in-bits='64' hash='388da3fa973fde78' id='type-id-498'>
      <!-- parameter of type 'vtkCharArray*' -->
      <parameter type-id='type-id-28'/>
      <!-- parameter of type 'vtkDataObject*' -->
      <parameter type-id='type-id-29'/>
      <!-- int -->
      <return type-id='type-id-19'/>
    </function-type>
    <!-- int (vtkCommunicator::*) (vtkDataArray*, int) -->
    <function-type method-class-id='type-id-15' size-in-bits='64' hash='d628501fd2223339' id='type-id-499'>
      <!-- implicit parameter of type 'vtkCommunicator*' -->
      <parameter type-id='type-id-25' is-artificial='yes'/>
      <!-- parameter of type 'vtkDataArray*' -->
      <parameter type-id='type-id-26'/>
      <!-- parameter of type 'int' -->
      <parameter type-id='type-id-19'/>
      <!-- int -->
      <return type-id='type-id-19'/>
    </function-type>
    <!-- int (vtkCommunicator::*) (vtkDataArray*, int, int) -->
    <function-type method-class-id='type-id-15' size-in-bits='64' hash='a9fd86e6e981c3b5' id='type-id-500'>
      <!-- implicit parameter of type 'vtkCommunicator*' -->
      <parameter type-id='type-id-25' is-artificial='yes'/>
      <!-- parameter of type 'vtkDataArray*' -->
      <parameter type-id='type-id-26'/>
      <!-- parameter of type 'int' -->
      <parameter type-id='type-id-19'/>
      <!-- parameter of type 'int' -->
      <parameter type-id='type-id-19'/>
      <!-- int -->
      <return type-id='type-id-19'/>
    </function-type>
    <!-- int (vtkCommunicator::*) (vtkDataArray*, vtkDataArray*) -->
    <function-type method-class-id='type-id-15' size-in-bits='64' hash='388da3fa973fde78' id='type-id-501'>
      <!-- implicit parameter of type 'vtkCommunicator*' -->
      <parameter type-id='type-id-25' is-artificial='yes'/>
      <!-- parameter of type 'vtkDataArray*' -->
      <parameter type-id='type-id-26'/>
      <!-- parameter of type 'vtkDataArray*' -->
      <parameter type-id='type-id-26'/>
      <!-- int -->
      <return type-id='type-id-19'/>
    </function-type>
    <!-- int (vtkCommunicator::*) (vtkDataArray*, vtkDataArray*, int) -->
    <function-type method-class-id='type-id-15' size-in-bits='64' hash='d628501fd2223339' id='type-id-502'>
      <!-- implicit parameter of type 'vtkCommunicator*' -->
      <parameter type-id='type-id-25' is-artificial='yes'/>
      <!-- parameter of type 'vtkDataArray*' -->
      <parameter type-id='type-id-26'/>
      <!-- parameter of type 'vtkDataArray*' -->
      <parameter type-id='type-id-26'/>
      <!-- parameter of type 'int' -->
      <parameter type-id='type-id-19'/>
      <!-- int -->
      <return type-id='type-id-19'/>
    </function-type>
    <!-- int (vtkCommunicator::*) (vtkDataArray*, vtkDataArray*, int, int) -->
    <function-type method-class-id='type-id-15' size-in-bits='64' hash='a9fd86e6e981c3b5' id='type-id-503'>
      <!-- implicit parameter of type 'vtkCommunicator*' -->
      <parameter type-id='type-id-25' is-artificial='yes'/>
      <!-- parameter of type 'vtkDataArray*' -->
      <parameter type-id='type-id-26'/>
      <!-- parameter of type 'vtkDataArray*' -->
      <parameter type-id='type-id-26'/>
      <!-- parameter of type 'int' -->
      <parameter type-id='type-id-19'/>
      <!-- parameter of type 'int' -->
      <parameter type-id='type-id-19'/>
      <!-- int -->
      <return type-id='type-id-19'/>
    </function-type>
    <!-- int (vtkCommunicator::*) (vtkDataArray*, vtkDataArray*, vtkCommunicator::Operation*) -->
    <function-type method-class-id='type-id-15' size-in-bits='64' hash='e07bc37c3c6c2e59' id='type-id-504'>
      <!-- implicit parameter of type 'vtkCommunicator*' -->
      <parameter type-id='type-id-25' is-artificial='yes'/>
      <!-- parameter of type 'vtkDataArray*' -->
      <parameter type-id='type-id-26'/>
      <!-- parameter of type 'vtkDataArray*' -->
      <parameter type-id='type-id-26'/>
      <!-- parameter of type 'vtkCommunicator::Operation*' -->
      <parameter type-id='type-id-18'/>
      <!-- int -->
      <return type-id='type-id-19'/>
    </function-type>
    <!-- int (vtkCommunicator::*) (vtkDataArray*, vtkDataArray*, vtkCommunicator::Operation*, int) -->
    <function-type method-class-id='type-id-15' size-in-bits='64' hash='d2c69a468c54baf4' id='type-id-505'>
      <!-- implicit parameter of type 'vtkCommunicator*' -->
      <parameter type-id='type-id-25' is-artificial='yes'/>
      <!-- parameter of type 'vtkDataArray*' -->
      <parameter type-id='type-id-26'/>
      <!-- parameter of type 'vtkDataArray*' -->
      <parameter type-id='type-id-26'/>
      <!-- parameter of type 'vtkCommunicator::Operation*' -->
      <parameter type-id='type-id-18'/>
      <!-- parameter of type 'int' -->
      <parameter type-id='type-id-19'/>
      <!-- int -->
      <return type-id='type-id-19'/>
    </function-type>
    <!-- int (vtkCommunicator::*) (vtkDataArray*, vtkDataArray*, vtkIdType*, vtkIdType*) -->
    <function-type method-class-id='type-id-15' size-in-bits='64' hash='d1a34e9cb610b5c7' id='type-id-506'>
      <!-- implicit parameter of type 'vtkCommunicator*' -->
      <parameter type-id='type-id-25' is-artificial='yes'/>
      <!-- parameter of type 'vtkDataArray*' -->
      <parameter type-id='type-id-26'/>
      <!-- parameter of type 'vtkDataArray*' -->
      <parameter type-id='type-id-26'/>
      <!-- parameter of type 'vtkIdType*' -->
      <parameter type-id='type-id-27'/>
      <!-- parameter of type 'vtkIdType*' -->
      <parameter type-id='type-id-27'/>
      <!-- int -->
      <return type-id='type-id-19'/>
    </function-type>
    <!-- int (vtkCommunicator::*) (vtkDataArray*, vtkDataArray*, vtkIdType*, vtkIdType*, int) -->
    <function-type method-class-id='type-id-15' size-in-bits='64' hash='1c5aeaa7715d24b2' id='type-id-507'>
      <!-- implicit parameter of type 'vtkCommunicator*' -->
      <parameter type-id='type-id-25' is-artificial='yes'/>
      <!-- parameter of type 'vtkDataArray*' -->
      <parameter type-id='type-id-26'/>
      <!-- parameter of type 'vtkDataArray*' -->
      <parameter type-id='type-id-26'/>
      <!-- parameter of type 'vtkIdType*' -->
      <parameter type-id='type-id-27'/>
      <!-- parameter of type 'vtkIdType*' -->
      <parameter type-id='type-id-27'/>
      <!-- parameter of type 'int' -->
      <parameter type-id='type-id-19'/>
      <!-- int -->
      <return type-id='type-id-19'/>
    </function-type>
    <!-- int (vtkCommunicator::*) (vtkDataObject*, int) -->
    <function-type method-class-id='type-id-15' size-in-bits='64' hash='d628501fd2223339' id='type-id-508'>
      <!-- implicit parameter of type 'vtkCommunicator*' -->
      <parameter type-id='type-id-25' is-artificial='yes'/>
      <!-- parameter of type 'vtkDataObject*' -->
      <parameter type-id='type-id-29'/>
      <!-- parameter of type 'int' -->
      <parameter type-id='type-id-19'/>
      <!-- int -->
      <return type-id='type-id-19'/>
    </function-type>
    <!-- int (vtkCommunicator::*) (vtkDataObject*, int, int) -->
    <function-type method-class-id='type-id-15' size-in-bits='64' hash='a9fd86e6e981c3b5' id='type-id-509'>
      <!-- implicit parameter of type 'vtkCommunicator*' -->
      <parameter type-id='type-id-25' is-artificial='yes'/>
      <!-- parameter of type 'vtkDataObject*' -->
      <parameter type-id='type-id-29'/>
      <!-- parameter of type 'int' -->
      <parameter type-id='type-id-19'/>
      <!-- parameter of type 'int' -->
      <parameter type-id='type-id-19'/>
      <!-- int -->
      <return type-id='type-id-19'/>
    </function-type>
    <!-- int (vtkCommunicator::*) (vtkDataObject*, int, int, int) -->
    <function-type method-class-id='type-id-15' size-in-bits='64' hash='a3e40634f2a60824' id='type-id-510'>
      <!-- implicit parameter of type 'vtkCommunicator*' -->
      <parameter type-id='type-id-25' is-artificial='yes'/>
      <!-- parameter of type 'vtkDataObject*' -->
      <parameter type-id='type-id-29'/>
      <!-- parameter of type 'int' -->
      <parameter type-id='type-id-19'/>
      <!-- parameter of type 'int' -->
      <parameter type-id='type-id-19'/>
      <!-- parameter of type 'int' -->
      <parameter type-id='type-id-19'/>
      <!-- int -->
      <return type-id='type-id-19'/>
    </function-type>
    <!-- int (vtkCommunicator::*) (vtkDataObject*, vtkCharArray*) -->
    <function-type method-class-id='type-id-15' size-in-bits='64' hash='388da3fa973fde78' id='type-id-511'>
      <!-- parameter of type 'vtkDataObject*' -->
      <parameter type-id='type-id-29'/>
      <!-- parameter of type 'vtkCharArray*' -->
      <parameter type-id='type-id-28'/>
      <!-- int -->
      <return type-id='type-id-19'/>
    </function-type>
    <!-- int (vtkCommunicator::*) (vtkMultiProcessStream&, int) -->
    <function-type method-class-id='type-id-15' size-in-bits='64' hash='680de64e68d79ee1' id='type-id-512'>
      <!-- implicit parameter of type 'vtkCommunicator*' -->
      <parameter type-id='type-id-25' is-artificial='yes'/>
      <!-- parameter of type 'vtkMultiProcessStream&' -->
      <parameter type-id='type-id-30'/>
      <!-- parameter of type 'int' -->
      <parameter type-id='type-id-19'/>
      <!-- int -->
      <return type-id='type-id-19'/>
    </function-type>
    <!-- int (vtkCommunicator::*) (vtkMultiProcessStream&, int, int) -->
    <function-type method-class-id='type-id-15' size-in-bits='64' hash='dddc43e22f387aaa' id='type-id-513'>
      <!-- implicit parameter of type 'vtkCommunicator*' -->
      <parameter type-id='type-id-25' is-artificial='yes'/>
      <!-- parameter of type 'vtkMultiProcessStream&' -->
      <parameter type-id='type-id-30'/>
      <!-- parameter of type 'int' -->
      <parameter type-id='type-id-19'/>
      <!-- parameter of type 'int' -->
      <parameter type-id='type-id-19'/>
      <!-- int -->
      <return type-id='type-id-19'/>
    </function-type>
    <!-- int (vtkMultiProcessStream::*) () -->
    <function-type method-class-id='type-id-59' size-in-bits='64' hash='388da3fa973fde78' id='type-id-514'>
      <!-- implicit parameter of type 'vtkMultiProcessStream*' -->
      <parameter type-id='type-id-65' is-artificial='yes'/>
      <!-- int -->
      <return type-id='type-id-19'/>
    </function-type>
    <!-- std::basic_string<char, std::char_traits<char>, std::allocator<char> >& (std::basic_string<char, std::char_traits<char>, std::allocator<char> >::*) (const char*, unsigned long int) -->
    <function-type method-class-id='type-id-255' size-in-bits='64' hash='057ff5c51024c26f' id='type-id-515'>
      <!-- implicit parameter of type 'std::basic_string<char, std::char_traits<char>, std::allocator<char> >*' -->
      <parameter type-id='type-id-357' is-artificial='yes'/>
      <!-- parameter of type 'const char*' -->
      <parameter type-id='type-id-33'/>
      <!-- parameter of type 'unsigned long int' -->
      <parameter type-id='type-id-4'/>
      <!-- std::basic_string<char, std::char_traits<char>, std::allocator<char> >& -->
      <return type-id='type-id-356'/>
    </function-type>
    <!-- std::basic_string<char, std::char_traits<char>, std::allocator<char> >& (std::basic_string<char, std::char_traits<char>, std::allocator<char> >::*) (const std::basic_string<char, std::char_traits<char>, std::allocator<char> >&) -->
    <function-type method-class-id='type-id-255' size-in-bits='64' hash='d0bc9998376695f4' id='type-id-516'>
      <!-- implicit parameter of type 'std::basic_string<char, std::char_traits<char>, std::allocator<char> >*' -->
      <parameter type-id='type-id-357' is-artificial='yes'/>
      <!-- parameter of type 'const std::basic_string<char, std::char_traits<char>, std::allocator<char> >&' -->
      <parameter type-id='type-id-257'/>
      <!-- std::basic_string<char, std::char_traits<char>, std::allocator<char> >& -->
      <return type-id='type-id-356'/>
    </function-type>
    <!-- void (std::basic_string<char, std::char_traits<char>, std::allocator<char> >::*) (unsigned long int) -->
    <function-type method-class-id='type-id-255' size-in-bits='64' hash='e0055d99adb0e173' id='type-id-517'>
      <!-- implicit parameter of type 'std::basic_string<char, std::char_traits<char>, std::allocator<char> >*' -->
      <parameter type-id='type-id-357' is-artificial='yes'/>
      <!-- parameter of type 'unsigned long int' -->
      <parameter type-id='type-id-4'/>
      <!-- void -->
      <return type-id='type-id-14'/>
    </function-type>
    <!-- void (std::vector<unsigned char, std::allocator<unsigned char> >::*) (__gnu_cxx::__normal_iterator<unsigned char*, std::vector<unsigned char, std::allocator<unsigned char> > >, const unsigned char&) -->
    <function-type method-class-id='type-id-273' size-in-bits='64' hash='46e0e64e52f2217c' id='type-id-518'>
      <!-- implicit parameter of type 'std::vector<unsigned char, std::allocator<unsigned char> >*' -->
      <parameter type-id='type-id-368' is-artificial='yes'/>
      <!-- parameter of type 'class __gnu_cxx::__normal_iterator<unsigned char*, std::vector<unsigned char, std::allocator<unsigned char> > >' -->
      <parameter type-id='type-id-151'/>
      <!-- parameter of type 'const unsigned char&' -->
      <parameter type-id='type-id-280'/>
      <!-- void -->
      <return type-id='type-id-14'/>
    </function-type>
    <!-- void (std::vector<unsigned char, std::allocator<unsigned char> >::*) (__gnu_cxx::__normal_iterator<unsigned char*, std::vector<unsigned char, std::allocator<unsigned char> > >, size_t, const unsigned char&) -->
    <function-type method-class-id='type-id-273' size-in-bits='64' hash='18f989e5a8c3edcc' id='type-id-519'>
      <!-- implicit parameter of type 'std::vector<unsigned char, std::allocator<unsigned char> >*' -->
      <parameter type-id='type-id-368' is-artificial='yes'/>
      <!-- parameter of type 'class __gnu_cxx::__normal_iterator<unsigned char*, std::vector<unsigned char, std::allocator<unsigned char> > >' -->
      <parameter type-id='type-id-151' filepath='/usr/lib/gcc/x86_64-redhat-linux/4.4.7/../../../../include/c++/4.4.7/bits/stl_vector.h' line='850' column='1'/>
      <!-- parameter of type 'typedef size_t' -->
      <parameter type-id='type-id-124' filepath='/usr/lib/gcc/x86_64-redhat-linux/4.4.7/../../../../include/c++/4.4.7/bits/stl_vector.h' line='850' column='1'/>
      <!-- parameter of type 'const unsigned char&' -->
      <parameter type-id='type-id-280' filepath='/usr/lib/gcc/x86_64-redhat-linux/4.4.7/../../../../include/c++/4.4.7/bits/stl_vector.h' line='850' column='1'/>
      <!-- void -->
      <return type-id='type-id-14'/>
    </function-type>
    <!-- void (vtkCommunicator::*) () -->
    <function-type method-class-id='type-id-15' size-in-bits='64' hash='7f32ffea222edbe7' id='type-id-520'>
      <!-- implicit parameter of type 'vtkCommunicator*' -->
      <parameter type-id='type-id-25' is-artificial='yes'/>
      <!-- void -->
      <return type-id='type-id-14'/>
    </function-type>
    <!-- void (vtkCommunicator::*) (int) -->
    <function-type method-class-id='type-id-15' size-in-bits='64' hash='388da3fa973fde78' id='type-id-521'>
      <!-- implicit parameter of type 'vtkCommunicator*' -->
      <parameter type-id='type-id-25' is-artificial='yes'/>
      <!-- parameter of type 'int' -->
      <parameter type-id='type-id-19'/>
      <!-- void -->
      <return type-id='type-id-14'/>
    </function-type>
    <!-- void (vtkCommunicator::*) (int) -->
    <function-type method-class-id='type-id-15' size-in-bits='64' hash='388da3fa973fde78#2' id='type-id-522'>
      <!-- parameter of type 'int' -->
      <parameter type-id='type-id-19'/>
      <!-- void -->
      <return type-id='type-id-14'/>
    </function-type>
    <!-- void (vtkCommunicator::*) (std::ostream&, vtkIndent) -->
    <function-type method-class-id='type-id-15' size-in-bits='64' hash='7f32ffea222edbe7' id='type-id-523'>
      <!-- implicit parameter of type 'vtkCommunicator*' -->
      <parameter type-id='type-id-25' is-artificial='yes'/>
      <!-- parameter of type 'std::ostream&' -->
      <parameter type-id='type-id-34'/>
      <!-- parameter of type 'class vtkIndent' -->
      <parameter type-id='type-id-35'/>
      <!-- void -->
      <return type-id='type-id-14'/>
    </function-type>
    <!-- void (vtkMultiProcessStream::*) () -->
    <function-type method-class-id='type-id-59' size-in-bits='64' hash='7f32ffea222edbe7' id='type-id-524'>
      <!-- implicit parameter of type 'vtkMultiProcessStream*' -->
      <parameter type-id='type-id-65' is-artificial='yes'/>
      <!-- void -->
      <return type-id='type-id-14'/>
    </function-type>
    <!-- void (vtkMultiProcessStream::*) (char*&, unsigned int&) -->
    <function-type method-class-id='type-id-59' size-in-bits='64' hash='288b22e0337db69f' id='type-id-525'>
      <!-- implicit parameter of type 'vtkMultiProcessStream*' -->
      <parameter type-id='type-id-65' is-artificial='yes'/>
      <!-- parameter of type 'char*&' -->
      <parameter type-id='type-id-83'/>
      <!-- parameter of type 'unsigned int&' -->
      <parameter type-id='type-id-67'/>
      <!-- void -->
      <return type-id='type-id-14'/>
    </function-type>
    <!-- void (vtkMultiProcessStream::*) (char*, unsigned int) -->
    <function-type method-class-id='type-id-59' size-in-bits='64' hash='ca127aefa5fdb8b5' id='type-id-526'>
      <!-- implicit parameter of type 'vtkMultiProcessStream*' -->
      <parameter type-id='type-id-65' is-artificial='yes'/>
      <!-- parameter of type 'char*' -->
      <parameter type-id='type-id-95'/>
      <!-- parameter of type 'unsigned int' -->
      <parameter type-id='type-id-88'/>
      <!-- void -->
      <return type-id='type-id-14'/>
    </function-type>
    <!-- void (vtkMultiProcessStream::*) (const std::vector<unsigned char, std::allocator<unsigned char> >&) -->
    <function-type method-class-id='type-id-59' size-in-bits='64' hash='47ab3549fdd4ef05' id='type-id-527'>
      <!-- implicit parameter of type 'vtkMultiProcessStream*' -->
      <parameter type-id='type-id-65' is-artificial='yes'/>
      <!-- parameter of type 'const std::vector<unsigned char, std::allocator<unsigned char> >&' -->
      <parameter type-id='type-id-91'/>
      <!-- void -->
      <return type-id='type-id-14'/>
    </function-type>
    <!-- void (vtkMultiProcessStream::*) (const unsigned char*, unsigned int) -->
    <function-type method-class-id='type-id-59' size-in-bits='64' hash='0161790cdb93fe1b' id='type-id-528'>
      <!-- implicit parameter of type 'vtkMultiProcessStream*' -->
      <parameter type-id='type-id-65' is-artificial='yes'/>
      <!-- parameter of type 'const unsigned char*' -->
      <parameter type-id='type-id-90'/>
      <!-- parameter of type 'unsigned int' -->
      <parameter type-id='type-id-88'/>
      <!-- void -->
      <return type-id='type-id-14'/>
    </function-type>
    <!-- void (vtkMultiProcessStream::*) (const vtkMultiProcessStream&) -->
    <function-type method-class-id='type-id-59' size-in-bits='64' hash='8ece74afd5e13ec6' id='type-id-529'>
      <!-- implicit parameter of type 'vtkMultiProcessStream*' -->
      <parameter type-id='type-id-65' is-artificial='yes'/>
      <!-- parameter of type 'const vtkMultiProcessStream&' -->
      <parameter type-id='type-id-31'/>
      <!-- void -->
      <return type-id='type-id-14'/>
    </function-type>
    <!-- void (vtkMultiProcessStream::*) (double*&, unsigned int&) -->
    <function-type method-class-id='type-id-59' size-in-bits='64' hash='917fb42065297f44' id='type-id-530'>
      <!-- implicit parameter of type 'vtkMultiProcessStream*' -->
      <parameter type-id='type-id-65' is-artificial='yes'/>
      <!-- parameter of type 'double*&' -->
      <parameter type-id='type-id-82'/>
      <!-- parameter of type 'unsigned int&' -->
      <parameter type-id='type-id-67'/>
      <!-- void -->
      <return type-id='type-id-14'/>
    </function-type>
    <!-- void (vtkMultiProcessStream::*) (double*, unsigned int) -->
    <function-type method-class-id='type-id-59' size-in-bits='64' hash='8316563d46e77a30' id='type-id-531'>
      <!-- implicit parameter of type 'vtkMultiProcessStream*' -->
      <parameter type-id='type-id-65' is-artificial='yes'/>
      <!-- parameter of type 'double*' -->
      <parameter type-id='type-id-87'/>
      <!-- parameter of type 'unsigned int' -->
      <parameter type-id='type-id-88'/>
      <!-- void -->
      <return type-id='type-id-14'/>
    </function-type>
    <!-- void (vtkMultiProcessStream::*) (float*&, unsigned int&) -->
    <function-type method-class-id='type-id-59' size-in-bits='64' hash='8b68f47c05e0a883' id='type-id-532'>
      <!-- implicit parameter of type 'vtkMultiProcessStream*' -->
      <parameter type-id='type-id-65' is-artificial='yes'/>
      <!-- parameter of type 'float*&' -->
      <parameter type-id='type-id-80'/>
      <!-- parameter of type 'unsigned int&' -->
      <parameter type-id='type-id-67'/>
      <!-- void -->
      <return type-id='type-id-14'/>
    </function-type>
    <!-- void (vtkMultiProcessStream::*) (float*, unsigned int) -->
    <function-type method-class-id='type-id-59' size-in-bits='64' hash='f770fcb8ef7dca1f' id='type-id-533'>
      <!-- implicit parameter of type 'vtkMultiProcessStream*' -->
      <parameter type-id='type-id-65' is-artificial='yes'/>
      <!-- parameter of type 'float*' -->
      <parameter type-id='type-id-97'/>
      <!-- parameter of type 'unsigned int' -->
      <parameter type-id='type-id-88'/>
      <!-- void -->
      <return type-id='type-id-14'/>
    </function-type>
    <!-- void (vtkMultiProcessStream::*) (int*&, unsigned int&) -->
    <function-type method-class-id='type-id-59' size-in-bits='64' hash='f2e749ef4add82d2' id='type-id-534'>
      <!-- implicit parameter of type 'vtkMultiProcessStream*' -->
      <parameter type-id='type-id-65' is-artificial='yes'/>
      <!-- parameter of type 'int*&' -->
      <parameter type-id='type-id-76'/>
      <!-- parameter of type 'unsigned int&' -->
      <parameter type-id='type-id-67'/>
      <!-- void -->
      <return type-id='type-id-14'/>
    </function-type>
    <!-- void (vtkMultiProcessStream::*) (int*, unsigned int) -->
    <function-type method-class-id='type-id-59' size-in-bits='64' hash='a1a23fee8f52a603' id='type-id-535'>
      <!-- implicit parameter of type 'vtkMultiProcessStream*' -->
      <parameter type-id='type-id-65' is-artificial='yes'/>
      <!-- parameter of type 'int*' -->
      <parameter type-id='type-id-37'/>
      <!-- parameter of type 'unsigned int' -->
      <parameter type-id='type-id-88'/>
      <!-- void -->
      <return type-id='type-id-14'/>
    </function-type>
    <!-- void (vtkMultiProcessStream::*) (std::vector<unsigned char, std::allocator<unsigned char> >&) -->
    <function-type method-class-id='type-id-59' const='yes' size-in-bits='64' hash='3607bed8639828d1' id='type-id-536'>
      <!-- implicit parameter of type 'const vtkMultiProcessStream*' -->
      <parameter type-id='type-id-68' is-artificial='yes'/>
      <!-- parameter of type 'std::vector<unsigned char, std::allocator<unsigned char> >&' -->
      <parameter type-id='type-id-69'/>
      <!-- void -->
      <return type-id='type-id-14'/>
    </function-type>
    <!-- void (vtkMultiProcessStream::*) (unsigned char*&, unsigned int&) -->
    <function-type method-class-id='type-id-59' size-in-bits='64' hash='b97818c3b0fc3301' id='type-id-537'>
      <!-- implicit parameter of type 'vtkMultiProcessStream*' -->
      <parameter type-id='type-id-65' is-artificial='yes'/>
      <!-- parameter of type 'unsigned char*&' -->
      <parameter type-id='type-id-66'/>
      <!-- parameter of type 'unsigned int&' -->
      <parameter type-id='type-id-67'/>
      <!-- void -->
      <return type-id='type-id-14'/>
    </function-type>
    <!-- void (vtkMultiProcessStream::*) (unsigned char*, unsigned int) -->
    <function-type method-class-id='type-id-59' size-in-bits='64' hash='569daa8056aeb852' id='type-id-538'>
      <!-- implicit parameter of type 'vtkMultiProcessStream*' -->
      <parameter type-id='type-id-65' is-artificial='yes'/>
      <!-- parameter of type 'unsigned char*' -->
      <parameter type-id='type-id-93'/>
      <!-- parameter of type 'unsigned int' -->
      <parameter type-id='type-id-88'/>
      <!-- void -->
      <return type-id='type-id-14'/>
    </function-type>
    <!-- void (vtkMultiProcessStream::*) (unsigned int*&, unsigned int&) -->
    <function-type method-class-id='type-id-59' size-in-bits='64' hash='395b6b165e71e88e' id='type-id-539'>
      <!-- implicit parameter of type 'vtkMultiProcessStream*' -->
      <parameter type-id='type-id-65' is-artificial='yes'/>
      <!-- parameter of type 'unsigned int*&' -->
      <parameter type-id='type-id-84'/>
      <!-- parameter of type 'unsigned int&' -->
      <parameter type-id='type-id-67'/>
      <!-- void -->
      <return type-id='type-id-14'/>
    </function-type>
    <!-- void (vtkMultiProcessStream::*) (unsigned int*, unsigned int) -->
    <function-type method-class-id='type-id-59' size-in-bits='64' hash='a2c4b1107a6fb0c8' id='type-id-540'>
      <!-- implicit parameter of type 'vtkMultiProcessStream*' -->
      <parameter type-id='type-id-65' is-artificial='yes'/>
      <!-- parameter of type 'unsigned int*' -->
      <parameter type-id='type-id-92'/>
      <!-- parameter of type 'unsigned int' -->
      <parameter type-id='type-id-88'/>
      <!-- void -->
      <return type-id='type-id-14'/>
    </function-type>
    <!-- void (vtkMultiProcessStream::*) (vtkTypeInt64*&, unsigned int&) -->
    <function-type method-class-id='type-id-59' size-in-bits='64' hash='966d7d8a2da60053' id='type-id-541'>
      <!-- implicit parameter of type 'vtkMultiProcessStream*' -->
      <parameter type-id='type-id-65' is-artificial='yes'/>
      <!-- parameter of type 'vtkTypeInt64*&' -->
      <parameter type-id='type-id-77'/>
      <!-- parameter of type 'unsigned int&' -->
      <parameter type-id='type-id-67'/>
      <!-- void -->
      <return type-id='type-id-14'/>
    </function-type>
    <!-- void (vtkMultiProcessStream::*) (vtkTypeInt64*, unsigned int) -->
    <function-type method-class-id='type-id-59' size-in-bits='64' hash='e20b0451fd282899' id='type-id-542'>
      <!-- implicit parameter of type 'vtkMultiProcessStream*' -->
      <parameter type-id='type-id-65' is-artificial='yes'/>
      <!-- parameter of type 'vtkTypeInt64*' -->
      <parameter type-id='type-id-98'/>
      <!-- parameter of type 'unsigned int' -->
      <parameter type-id='type-id-88'/>
      <!-- void -->
      <return type-id='type-id-14'/>
    </function-type>
    <!-- void (vtkMultiProcessStream::*) (vtkTypeUInt64*&, unsigned int&) -->
    <function-type method-class-id='type-id-59' size-in-bits='64' hash='8365df74cad70fdd' id='type-id-543'>
      <!-- implicit parameter of type 'vtkMultiProcessStream*' -->
      <parameter type-id='type-id-65' is-artificial='yes'/>
      <!-- parameter of type 'vtkTypeUInt64*&' -->
      <parameter type-id='type-id-81'/>
      <!-- parameter of type 'unsigned int&' -->
      <parameter type-id='type-id-67'/>
      <!-- void -->
      <return type-id='type-id-14'/>
    </function-type>
    <!-- void (vtkMultiProcessStream::*) (vtkTypeUInt64*, unsigned int) -->
    <function-type method-class-id='type-id-59' size-in-bits='64' hash='80529e8d71767e85' id='type-id-544'>
      <!-- implicit parameter of type 'vtkMultiProcessStream*' -->
      <parameter type-id='type-id-65' is-artificial='yes'/>
      <!-- parameter of type 'vtkTypeUInt64*' -->
      <parameter type-id='type-id-99'/>
      <!-- parameter of type 'unsigned int' -->
      <parameter type-id='type-id-88'/>
      <!-- void -->
      <return type-id='type-id-14'/>
    </function-type>
    <!-- vtkDataObject* (vtkCommunicator::*) (int, int) -->
    <function-type method-class-id='type-id-15' size-in-bits='64' hash='d628501fd2223339' id='type-id-545'>
      <!-- implicit parameter of type 'vtkCommunicator*' -->
      <parameter type-id='type-id-25' is-artificial='yes'/>
      <!-- parameter of type 'int' -->
      <parameter type-id='type-id-19'/>
      <!-- parameter of type 'int' -->
      <parameter type-id='type-id-19'/>
      <!-- vtkDataObject* -->
      <return type-id='type-id-29'/>
    </function-type>
    <!-- vtkIdType (vtkCommunicator::*) () -->
    <function-type method-class-id='type-id-15' size-in-bits='64' hash='ae3f07f228a16377' id='type-id-546'>
      <!-- implicit parameter of type 'vtkCommunicator*' -->
      <parameter type-id='type-id-25' is-artificial='yes'/>
      <!-- typedef vtkIdType -->
      <return type-id='type-id-21'/>
    </function-type>
    <!-- vtkMultiProcessStream& (vtkMultiProcessStream::*) (char&) -->
    <function-type method-class-id='type-id-59' size-in-bits='64' hash='410d4f60ef71538f' id='type-id-547'>
      <!-- implicit parameter of type 'vtkMultiProcessStream*' -->
      <parameter type-id='type-id-65' is-artificial='yes'/>
      <!-- parameter of type 'char&' -->
      <parameter type-id='type-id-70'/>
      <!-- vtkMultiProcessStream& -->
      <return type-id='type-id-30'/>
    </function-type>
    <!-- vtkMultiProcessStream& (vtkMultiProcessStream::*) (char) -->
    <function-type method-class-id='type-id-59' size-in-bits='64' hash='9f4739c46a4a69d9' id='type-id-548'>
      <!-- implicit parameter of type 'vtkMultiProcessStream*' -->
      <parameter type-id='type-id-65' is-artificial='yes'/>
      <!-- parameter of type 'char' -->
      <parameter type-id='type-id-2'/>
      <!-- vtkMultiProcessStream& -->
      <return type-id='type-id-30'/>
    </function-type>
    <!-- vtkMultiProcessStream& (vtkMultiProcessStream::*) (const std::string&) -->
    <function-type method-class-id='type-id-59' size-in-bits='64' hash='8ace89dade7e565e' id='type-id-549'>
      <!-- implicit parameter of type 'vtkMultiProcessStream*' -->
      <parameter type-id='type-id-65' is-artificial='yes'/>
      <!-- parameter of type 'const std::string&' -->
      <parameter type-id='type-id-85'/>
      <!-- vtkMultiProcessStream& -->
      <return type-id='type-id-30'/>
    </function-type>
    <!-- vtkMultiProcessStream& (vtkMultiProcessStream::*) (const vtkMultiProcessStream&) -->
    <function-type method-class-id='type-id-59' size-in-bits='64' hash='ac639b222003ed26' id='type-id-550'>
      <!-- implicit parameter of type 'vtkMultiProcessStream*' -->
      <parameter type-id='type-id-65' is-artificial='yes'/>
      <!-- parameter of type 'const vtkMultiProcessStream&' -->
      <parameter type-id='type-id-31'/>
      <!-- vtkMultiProcessStream& -->
      <return type-id='type-id-30'/>
    </function-type>
    <!-- vtkMultiProcessStream& (vtkMultiProcessStream::*) (double&) -->
    <function-type method-class-id='type-id-59' size-in-bits='64' hash='c95316b1c9f3e694' id='type-id-551'>
      <!-- implicit parameter of type 'vtkMultiProcessStream*' -->
      <parameter type-id='type-id-65' is-artificial='yes'/>
      <!-- parameter of type 'double&' -->
      <parameter type-id='type-id-75'/>
      <!-- vtkMultiProcessStream& -->
      <return type-id='type-id-30'/>
    </function-type>
    <!-- vtkMultiProcessStream& (vtkMultiProcessStream::*) (double) -->
    <function-type method-class-id='type-id-59' size-in-bits='64' hash='cf0308a547ba925a' id='type-id-552'>
      <!-- implicit parameter of type 'vtkMultiProcessStream*' -->
      <parameter type-id='type-id-65' is-artificial='yes'/>
      <!-- parameter of type 'double' -->
      <parameter type-id='type-id-96'/>
      <!-- vtkMultiProcessStream& -->
      <return type-id='type-id-30'/>
    </function-type>
    <!-- vtkMultiProcessStream& (vtkMultiProcessStream::*) (float&) -->
    <function-type method-class-id='type-id-59' size-in-bits='64' hash='da84662d649cfa6f' id='type-id-553'>
      <!-- implicit parameter of type 'vtkMultiProcessStream*' -->
      <parameter type-id='type-id-65' is-artificial='yes'/>
      <!-- parameter of type 'float&' -->
      <parameter type-id='type-id-72'/>
      <!-- vtkMultiProcessStream& -->
      <return type-id='type-id-30'/>
    </function-type>
    <!-- vtkMultiProcessStream& (vtkMultiProcessStream::*) (float) -->
    <function-type method-class-id='type-id-59' size-in-bits='64' hash='eddfd6c42f195b29' id='type-id-554'>
      <!-- implicit parameter of type 'vtkMultiProcessStream*' -->
      <parameter type-id='type-id-65' is-artificial='yes'/>
      <!-- parameter of type 'float' -->
      <parameter type-id='type-id-86'/>
      <!-- vtkMultiProcessStream& -->
      <return type-id='type-id-30'/>
    </function-type>
    <!-- vtkMultiProcessStream& (vtkMultiProcessStream::*) (int&) -->
    <function-type method-class-id='type-id-59' size-in-bits='64' hash='417fea6ad7d8eced' id='type-id-555'>
      <!-- implicit parameter of type 'vtkMultiProcessStream*' -->
      <parameter type-id='type-id-65' is-artificial='yes'/>
      <!-- parameter of type 'int&' -->
      <parameter type-id='type-id-79'/>
      <!-- vtkMultiProcessStream& -->
      <return type-id='type-id-30'/>
    </function-type>
    <!-- vtkMultiProcessStream& (vtkMultiProcessStream::*) (int) -->
    <function-type method-class-id='type-id-59' size-in-bits='64' hash='5a50e102cca3b460' id='type-id-556'>
      <!-- implicit parameter of type 'vtkMultiProcessStream*' -->
      <parameter type-id='type-id-65' is-artificial='yes'/>
      <!-- parameter of type 'int' -->
      <parameter type-id='type-id-19'/>
      <!-- vtkMultiProcessStream& -->
      <return type-id='type-id-30'/>
    </function-type>
    <!-- vtkMultiProcessStream& (vtkMultiProcessStream::*) (std::string&) -->
    <function-type method-class-id='type-id-59' size-in-bits='64' hash='4cdfb6e605f5a5ae' id='type-id-557'>
      <!-- implicit parameter of type 'vtkMultiProcessStream*' -->
      <parameter type-id='type-id-65' is-artificial='yes'/>
      <!-- parameter of type 'std::string&' -->
      <parameter type-id='type-id-74'/>
      <!-- vtkMultiProcessStream& -->
      <return type-id='type-id-30'/>
    </function-type>
    <!-- vtkMultiProcessStream& (vtkMultiProcessStream::*) (unsigned char&) -->
    <function-type method-class-id='type-id-59' size-in-bits='64' hash='6fffe8a77bf94c16' id='type-id-558'>
      <!-- implicit parameter of type 'vtkMultiProcessStream*' -->
      <parameter type-id='type-id-65' is-artificial='yes'/>
      <!-- parameter of type 'unsigned char&' -->
      <parameter type-id='type-id-73'/>
      <!-- vtkMultiProcessStream& -->
      <return type-id='type-id-30'/>
    </function-type>
    <!-- vtkMultiProcessStream& (vtkMultiProcessStream::*) (unsigned char) -->
    <function-type method-class-id='type-id-59' size-in-bits='64' hash='ae19e5e3d9c235d0' id='type-id-559'>
      <!-- implicit parameter of type 'vtkMultiProcessStream*' -->
      <parameter type-id='type-id-65' is-artificial='yes'/>
      <!-- parameter of type 'unsigned char' -->
      <parameter type-id='type-id-64'/>
      <!-- vtkMultiProcessStream& -->
      <return type-id='type-id-30'/>
    </function-type>
    <!-- vtkMultiProcessStream& (vtkMultiProcessStream::*) (unsigned int&) -->
    <function-type method-class-id='type-id-59' size-in-bits='64' hash='19d7c5ad82a6b1e9' id='type-id-560'>
      <!-- implicit parameter of type 'vtkMultiProcessStream*' -->
      <parameter type-id='type-id-65' is-artificial='yes'/>
      <!-- parameter of type 'unsigned int&' -->
      <parameter type-id='type-id-67'/>
      <!-- vtkMultiProcessStream& -->
      <return type-id='type-id-30'/>
    </function-type>
    <!-- vtkMultiProcessStream& (vtkMultiProcessStream::*) (unsigned int) -->
    <function-type method-class-id='type-id-59' size-in-bits='64' hash='95dc084296e755d9' id='type-id-561'>
      <!-- implicit parameter of type 'vtkMultiProcessStream*' -->
      <parameter type-id='type-id-65' is-artificial='yes'/>
      <!-- parameter of type 'unsigned int' -->
      <parameter type-id='type-id-88'/>
      <!-- vtkMultiProcessStream& -->
      <return type-id='type-id-30'/>
    </function-type>
    <!-- vtkMultiProcessStream& (vtkMultiProcessStream::*) (vtkMultiProcessStream&) -->
    <function-type method-class-id='type-id-59' size-in-bits='64' hash='0ccbcd626eeade07' id='type-id-562'>
      <!-- implicit parameter of type 'vtkMultiProcessStream*' -->
      <parameter type-id='type-id-65' is-artificial='yes'/>
      <!-- parameter of type 'vtkMultiProcessStream&' -->
      <parameter type-id='type-id-30'/>
      <!-- vtkMultiProcessStream& -->
      <return type-id='type-id-30'/>
    </function-type>
    <!-- vtkMultiProcessStream& (vtkMultiProcessStream::*) (vtkTypeInt64&) -->
    <function-type method-class-id='type-id-59' size-in-bits='64' hash='da01644e6b9e85a6' id='type-id-563'>
      <!-- implicit parameter of type 'vtkMultiProcessStream*' -->
      <parameter type-id='type-id-65' is-artificial='yes'/>
      <!-- parameter of type 'vtkTypeInt64&' -->
      <parameter type-id='type-id-78'/>
      <!-- vtkMultiProcessStream& -->
      <return type-id='type-id-30'/>
    </function-type>
    <!-- vtkMultiProcessStream& (vtkMultiProcessStream::*) (vtkTypeInt64) -->
    <function-type method-class-id='type-id-59' size-in-bits='64' hash='4e979cd2f0c82d02' id='type-id-564'>
      <!-- implicit parameter of type 'vtkMultiProcessStream*' -->
      <parameter type-id='type-id-65' is-artificial='yes'/>
      <!-- parameter of type 'typedef vtkTypeInt64' -->
      <parameter type-id='type-id-94'/>
      <!-- vtkMultiProcessStream& -->
      <return type-id='type-id-30'/>
    </function-type>
    <!-- vtkMultiProcessStream& (vtkMultiProcessStream::*) (vtkTypeUInt64&) -->
    <function-type method-class-id='type-id-59' size-in-bits='64' hash='9db25c9c3954643f' id='type-id-565'>
      <!-- implicit parameter of type 'vtkMultiProcessStream*' -->
      <parameter type-id='type-id-65' is-artificial='yes'/>
      <!-- parameter of type 'vtkTypeUInt64&' -->
      <parameter type-id='type-id-71'/>
      <!-- vtkMultiProcessStream& -->
      <return type-id='type-id-30'/>
    </function-type>
    <!-- vtkMultiProcessStream& (vtkMultiProcessStream::*) (vtkTypeUInt64) -->
    <function-type method-class-id='type-id-59' size-in-bits='64' hash='a93a57e5fe7498b5' id='type-id-566'>
      <!-- implicit parameter of type 'vtkMultiProcessStream*' -->
      <parameter type-id='type-id-65' is-artificial='yes'/>
      <!-- parameter of type 'typedef vtkTypeUInt64' -->
      <parameter type-id='type-id-89'/>
      <!-- vtkMultiProcessStream& -->
      <return type-id='type-id-30'/>
    </function-type>
    <!-- vtkObjectBase* (vtkCommunicator::*) () -->
    <function-type method-class-id='type-id-15' const='yes' size-in-bits='64' hash='7f32ffea222edbe7' id='type-id-567'>
      <!-- implicit parameter of type 'const vtkCommunicator*' -->
      <parameter type-id='type-id-32' is-artificial='yes'/>
      <!-- vtkObjectBase* -->
      <return type-id='type-id-36'/>
    </function-type>
  </abi-instr>
  <abi-instr address-size='64' path='/tmp/legendre/spack-stage/spack-stage-R_crTC/VTK-6.1.0/Parallel/Core/vtkDummyCommunicator.cxx' comp-dir-path='/tmp/legendre/spack-stage/spack-stage-R_crTC/VTK-6.1.0/spack-build/Parallel/Core' language='LANG_C_plus_plus'>
    <!-- class vtkDummyCommunicator -->
    <class-decl name='vtkDummyCommunicator' visibility='default' size-in-bits='576' filepath='/tmp/legendre/spack-stage/spack-stage-R_crTC/VTK-6.1.0/Parallel/Core/vtkDummyCommunicator.h' line='32' column='1' hash='eb86556bc8b45d1d' id='type-id-568'>
      <!-- class vtkCommunicator -->
      <base-class access='public' layout-offset-in-bits='0' type-id='type-id-15'/>
      <member-function access='protected' constructor='yes'>
        <!-- vtkDummyCommunicator::vtkDummyCommunicator() -->
        <function-decl name='vtkDummyCommunicator' mangled-name='_ZN20vtkDummyCommunicatorC1Ev' filepath='/tmp/legendre/spack-stage/spack-stage-R_crTC/VTK-6.1.0/Parallel/Core/vtkDummyCommunicator.cxx' line='22' column='1' visibility='default' binding='global' size-in-bits='64' elf-symbol-id='_ZN20vtkDummyCommunicatorC1Ev' hash='7f32ffea222edbe7'>
          <!-- implicit parameter of type 'vtkDummyCommunicator*' -->
          <parameter type-id='type-id-569' is-artificial='yes'/>
          <!-- void -->
          <return type-id='type-id-14'/>
        </function-decl>
      </member-function>
      <member-function access='private' static='yes'>
        <!-- vtkDummyCommunicator* vtkDummyCommunicator::New() -->
        <function-decl name='New' mangled-name='_ZN20vtkDummyCommunicator3NewEv' filepath='/tmp/legendre/spack-stage/spack-stage-R_crTC/VTK-6.1.0/Parallel/Core/vtkDummyCommunicator.cxx' line='19' column='1' visibility='default' binding='global' size-in-bits='64' elf-symbol-id='_ZN20vtkDummyCommunicator3NewEv' hash='5c8640d64d190a56'>
          <!-- vtkDummyCommunicator* -->
          <return type-id='type-id-569'/>
        </function-decl>
      </member-function>
      <member-function access='protected' destructor='yes' vtable-offset='-1'>
        <!-- vtkDummyCommunicator::~vtkDummyCommunicator(int) -->
        <function-decl name='~vtkDummyCommunicator' filepath='/tmp/legendre/spack-stage/spack-stage-R_crTC/VTK-6.1.0/Parallel/Core/vtkDummyCommunicator.cxx' line='27' column='1' visibility='default' binding='global' size-in-bits='64' hash='388da3fa973fde78'>
          <!-- implicit parameter of type 'vtkDummyCommunicator*' -->
          <parameter type-id='type-id-569' is-artificial='yes'/>
          <!-- artificial parameter of type 'int' -->
          <parameter type-id='type-id-19' is-artificial='yes'/>
          <!-- void -->
          <return type-id='type-id-14'/>
        </function-decl>
      </member-function>
      <member-function access='protected' destructor='yes' vtable-offset='-1'>
        <!-- vtkDummyCommunicator::~vtkDummyCommunicator() -->
        <function-decl name='~vtkDummyCommunicator' mangled-name='_ZN20vtkDummyCommunicatorD0Ev' filepath='/tmp/legendre/spack-stage/spack-stage-R_crTC/VTK-6.1.0/Parallel/Core/vtkDummyCommunicator.cxx' line='27' column='1' visibility='default' binding='global' size-in-bits='64' elf-symbol-id='_ZN20vtkDummyCommunicatorD0Ev' hash='7f32ffea222edbe7'>
          <!-- implicit parameter of type 'vtkDummyCommunicator*' -->
          <parameter type-id='type-id-569' is-artificial='yes'/>
          <!-- void -->
          <return type-id='type-id-14'/>
        </function-decl>
      </member-function>
      <member-function access='protected' destructor='yes' vtable-offset='-1'>
        <!-- vtkDummyCommunicator::~vtkDummyCommunicator() -->
        <function-decl name='~vtkDummyCommunicator' mangled-name='_ZN20vtkDummyCommunicatorD1Ev' filepath='/tmp/legendre/spack-stage/spack-stage-R_crTC/VTK-6.1.0/Parallel/Core/vtkDummyCommunicator.cxx' line='27' column='1' visibility='default' binding='global' size-in-bits='64' elf-symbol-id='_ZN20vtkDummyCommunicatorD1Ev' hash='7f32ffea222edbe7'>
          <!-- implicit parameter of type 'vtkDummyCommunicator*' -->
          <parameter type-id='type-id-569' is-artificial='yes'/>
          <!-- void -->
          <return type-id='type-id-14'/>
        </function-decl>
      </member-function>
      <member-function access='private' const='yes' vtable-offset='0'>
        <!-- const char* vtkDummyCommunicator::GetClassNameInternal() -->
        <function-decl name='GetClassNameInternal' mangled-name='_ZNK20vtkDummyCommunicator20GetClassNameInternalEv' filepath='/tmp/legendre/spack-stage/spack-stage-R_crTC/VTK-6.1.0/Parallel/Core/vtkDummyCommunicator.h' line='34' column='1' visibility='default' binding='global' size-in-bits='64' hash='53885bde0aa65efe'>
          <!-- implicit parameter of type 'const vtkDummyCommunicator*' -->
          <parameter type-id='type-id-570' is-artificial='yes'/>
          <!-- const char* -->
          <return type-id='type-id-33'/>
        </function-decl>
      </member-function>
      <member-function access='private' vtable-offset='1'>
        <!-- int vtkDummyCommunicator::IsA(const char*) -->
        <function-decl name='IsA' mangled-name='_ZN20vtkDummyCommunicator3IsAEPKc' filepath='/tmp/legendre/spack-stage/spack-stage-R_crTC/VTK-6.1.0/Parallel/Core/vtkDummyCommunicator.h' line='34' column='1' visibility='default' binding='global' size-in-bits='64' hash='e9ea91a7eab8302c'>
          <!-- implicit parameter of type 'vtkDummyCommunicator*' -->
          <parameter type-id='type-id-569' is-artificial='yes'/>
          <!-- parameter of type 'const char*' -->
          <parameter type-id='type-id-33'/>
          <!-- int -->
          <return type-id='type-id-19'/>
        </function-decl>
      </member-function>
      <member-function access='private' vtable-offset='4'>
        <!-- void vtkDummyCommunicator::PrintSelf(std::ostream&, vtkIndent) -->
        <function-decl name='PrintSelf' mangled-name='_ZN20vtkDummyCommunicator9PrintSelfERSo9vtkIndent' filepath='/tmp/legendre/spack-stage/spack-stage-R_crTC/VTK-6.1.0/Parallel/Core/vtkDummyCommunicator.cxx' line='31' column='1' visibility='default' binding='global' size-in-bits='64' elf-symbol-id='_ZN20vtkDummyCommunicator9PrintSelfERSo9vtkIndent' hash='7f32ffea222edbe7'>
          <!-- implicit parameter of type 'vtkDummyCommunicator*' -->
          <parameter type-id='type-id-569' is-artificial='yes'/>
          <!-- parameter of type 'std::ostream&' -->
          <parameter type-id='type-id-34'/>
          <!-- parameter of type 'class vtkIndent' -->
          <parameter type-id='type-id-35'/>
          <!-- void -->
          <return type-id='type-id-14'/>
        </function-decl>
      </member-function>
      <member-function access='protected' const='yes' vtable-offset='15'>
        <!-- vtkObjectBase* vtkDummyCommunicator::NewInstanceInternal() -->
        <function-decl name='NewInstanceInternal' mangled-name='_ZNK20vtkDummyCommunicator19NewInstanceInternalEv' filepath='/tmp/legendre/spack-stage/spack-stage-R_crTC/VTK-6.1.0/Parallel/Core/vtkDummyCommunicator.h' line='34' column='1' visibility='default' binding='global' size-in-bits='64' hash='7f32ffea222edbe7'>
          <!-- implicit parameter of type 'const vtkDummyCommunicator*' -->
          <parameter type-id='type-id-570' is-artificial='yes'/>
          <!-- vtkObjectBase* -->
          <return type-id='type-id-571'/>
        </function-decl>
      </member-function>
      <member-function access='private' vtable-offset='23'>
        <!-- int vtkDummyCommunicator::SendVoidArray(void*, vtkIdType, int, int, int) -->
        <function-decl name='SendVoidArray' mangled-name='_ZN20vtkDummyCommunicator13SendVoidArrayEPKvxiii' filepath='/tmp/legendre/spack-stage/spack-stage-R_crTC/VTK-6.1.0/Parallel/Core/vtkDummyCommunicator.h' line='41' column='1' visibility='default' binding='global' size-in-bits='64' hash='dd087474275e2caa'>
          <!-- implicit parameter of type 'vtkDummyCommunicator*' -->
          <parameter type-id='type-id-569' is-artificial='yes'/>
          <!-- parameter of type 'void*' -->
          <parameter type-id='type-id-20'/>
          <!-- parameter of type 'typedef vtkIdType' -->
          <parameter type-id='type-id-21'/>
          <!-- parameter of type 'int' -->
          <parameter type-id='type-id-19'/>
          <!-- parameter of type 'int' -->
          <parameter type-id='type-id-19'/>
          <!-- parameter of type 'int' -->
          <parameter type-id='type-id-19'/>
          <!-- int -->
          <return type-id='type-id-19'/>
        </function-decl>
      </member-function>
      <member-function access='private' vtable-offset='24'>
        <!-- int vtkDummyCommunicator::ReceiveVoidArray(void*, vtkIdType, int, int, int) -->
        <function-decl name='ReceiveVoidArray' mangled-name='_ZN20vtkDummyCommunicator16ReceiveVoidArrayEPvxiii' filepath='/tmp/legendre/spack-stage/spack-stage-R_crTC/VTK-6.1.0/Parallel/Core/vtkDummyCommunicator.h' line='45' column='1' visibility='default' binding='global' size-in-bits='64' hash='dd087474275e2caa'>
          <!-- implicit parameter of type 'vtkDummyCommunicator*' -->
          <parameter type-id='type-id-569' is-artificial='yes'/>
          <!-- parameter of type 'void*' -->
          <parameter type-id='type-id-20'/>
          <!-- parameter of type 'typedef vtkIdType' -->
          <parameter type-id='type-id-21'/>
          <!-- parameter of type 'int' -->
          <parameter type-id='type-id-19'/>
          <!-- parameter of type 'int' -->
          <parameter type-id='type-id-19'/>
          <!-- parameter of type 'int' -->
          <parameter type-id='type-id-19'/>
          <!-- int -->
          <return type-id='type-id-19'/>
        </function-decl>
      </member-function>
    </class-decl>
    <!-- const vtkDummyCommunicator -->
    <qualified-type-def type-id='type-id-568' const='yes' hash='d00e4d2f26f64022' id='type-id-572'/>
    <!-- const vtkDummyCommunicator& -->
    <reference-type-def kind='lvalue' type-id='type-id-572' size-in-bits='64' hash='5356932165f2ddcd' id='type-id-573'/>
    <!-- const vtkDummyCommunicator* -->
    <pointer-type-def type-id='type-id-572' size-in-bits='64' hash='a687928bc228618a' id='type-id-570'/>
    <!-- vtkDummyCommunicator* -->
    <pointer-type-def type-id='type-id-568' size-in-bits='64' hash='d11abbba88cb9329' id='type-id-569'/>
    <!-- vtkDummyCommunicator* const -->
    <qualified-type-def type-id='type-id-569' const='yes' hash='0abc77e9e6cae382' id='type-id-574'/>
    <!-- class vtkOStreamWrapper -->
    <class-decl name='vtkOStreamWrapper' visibility='default' is-declaration-only='yes' id='type-id-575'/>
    <!-- class vtkObject -->
    <class-decl name='vtkObject' visibility='default' is-declaration-only='yes' id='type-id-576'/>
    <!-- class vtkObjectBase -->
    <class-decl name='vtkObjectBase' visibility='default' is-declaration-only='yes' id='type-id-577'>
      <member-function access='protected' vtable-offset='11'>
        <!-- void vtkObjectBase::CollectRevisions(std::ostream&) -->
        <function-decl name='CollectRevisions' mangled-name='_ZN13vtkObjectBase16CollectRevisionsERSo' filepath='/tmp/legendre/spack-stage/spack-stage-R_crTC/VTK-6.1.0/Common/Core/vtkObjectBase.h' line='163' column='1' visibility='default' binding='global' size-in-bits='64' hash='7f32ffea222edbe7'>
          <!-- implicit parameter of type 'vtkObjectBase*' -->
          <parameter type-id='type-id-36' is-artificial='yes'/>
          <!-- parameter of type 'std::ostream&' -->
          <parameter type-id='type-id-34'/>
          <!-- void -->
          <return type-id='type-id-14'/>
        </function-decl>
      </member-function>
    </class-decl>
    <!-- namespace std -->
    <namespace-decl name='std'>
      <!-- struct std::_Setprecision -->
      <class-decl name='_Setprecision' is-struct='yes' visibility='default' hash='2a5aede05fe34970' id='type-id-578'/>
      <!-- struct std::_Setw -->
      <class-decl name='_Setw' is-struct='yes' visibility='default' hash='be11f1d5628f7aa9' id='type-id-579'/>
      <!-- class std::ios_base -->
      <class-decl name='ios_base' visibility='default' is-declaration-only='yes' id='type-id-580'/>
      <!-- struct std::basic_ostream<char, std::char_traits<char> > -->
      <class-decl name='basic_ostream&lt;char, std::char_traits&lt;char&gt; &gt;' is-struct='yes' visibility='default' is-declaration-only='yes' id='type-id-581'/>
      <!-- typedef std::basic_ostream<char, std::char_traits<char> > std::ostream -->
      <typedef-decl name='ostream' type-id='type-id-581' filepath='/usr/lib/gcc/x86_64-redhat-linux/4.4.7/../../../../include/c++/4.4.7/iosfwd' line='130' column='1' id='type-id-582'/>
    </namespace-decl>
    <!-- vtkObjectBase* -->
    <pointer-type-def type-id='type-id-577' size-in-bits='64' id='type-id-571'/>
    <!-- vtkObjectBase* const -->
    <qualified-type-def type-id='type-id-571' const='yes' id='type-id-583'/>
  </abi-instr>
  <abi-instr address-size='64' path='/tmp/legendre/spack-stage/spack-stage-R_crTC/VTK-6.1.0/Parallel/Core/vtkDummyController.cxx' comp-dir-path='/tmp/legendre/spack-stage/spack-stage-R_crTC/VTK-6.1.0/spack-build/Parallel/Core' language='LANG_C_plus_plus'>
    <!-- class vtkDummyController -->
    <class-decl name='vtkDummyController' visibility='default' size-in-bits='896' filepath='/tmp/legendre/spack-stage/spack-stage-R_crTC/VTK-6.1.0/Parallel/Core/vtkDummyController.h' line='30' column='1' hash='a844150193074014' id='type-id-584'>
      <!-- struct vtkMultiProcessController -->
      <base-class access='public' layout-offset-in-bits='0' type-id='type-id-585'/>
      <member-function access='protected' constructor='yes'>
        <!-- vtkDummyController::vtkDummyController() -->
        <function-decl name='vtkDummyController' mangled-name='_ZN18vtkDummyControllerC2Ev' filepath='/tmp/legendre/spack-stage/spack-stage-R_crTC/VTK-6.1.0/Parallel/Core/vtkDummyController.cxx' line='25' column='1' visibility='default' binding='global' size-in-bits='64' elf-symbol-id='_ZN18vtkDummyControllerC2Ev' hash='7f32ffea222edbe7'>
          <!-- implicit parameter of type 'vtkDummyController*' -->
          <parameter type-id='type-id-586' is-artificial='yes'/>
          <!-- void -->
          <return type-id='type-id-14'/>
        </function-decl>
      </member-function>
      <member-function access='private' static='yes'>
        <!-- vtkDummyController* vtkDummyController::New() -->
        <function-decl name='New' mangled-name='_ZN18vtkDummyController3NewEv' filepath='/tmp/legendre/spack-stage/spack-stage-R_crTC/VTK-6.1.0/Parallel/Core/vtkDummyController.cxx' line='19' column='1' visibility='default' binding='global' size-in-bits='64' elf-symbol-id='_ZN18vtkDummyController3NewEv' hash='986753a89869dcda'>
          <!-- vtkDummyController* -->
          <return type-id='type-id-586'/>
        </function-decl>
      </member-function>
      <member-function access='protected' destructor='yes' vtable-offset='-1'>
        <!-- vtkDummyController::~vtkDummyController(int) -->
        <function-decl name='~vtkDummyController' filepath='/tmp/legendre/spack-stage/spack-stage-R_crTC/VTK-6.1.0/Parallel/Core/vtkDummyController.cxx' line='31' column='1' visibility='default' binding='global' size-in-bits='64' hash='388da3fa973fde78'>
          <!-- implicit parameter of type 'vtkDummyController*' -->
          <parameter type-id='type-id-586' is-artificial='yes'/>
          <!-- parameter of type 'int' -->
          <parameter type-id='type-id-19'/>
          <!-- void -->
          <return type-id='type-id-14'/>
        </function-decl>
      </member-function>
      <member-function access='protected' destructor='yes' vtable-offset='-1'>
        <!-- vtkDummyController::~vtkDummyController() -->
        <function-decl name='~vtkDummyController' mangled-name='_ZN18vtkDummyControllerD0Ev' filepath='/tmp/legendre/spack-stage/spack-stage-R_crTC/VTK-6.1.0/Parallel/Core/vtkDummyController.cxx' line='31' column='1' visibility='default' binding='global' size-in-bits='64' elf-symbol-id='_ZN18vtkDummyControllerD0Ev' hash='7f32ffea222edbe7'>
          <!-- implicit parameter of type 'vtkDummyController*' -->
          <parameter type-id='type-id-586' is-artificial='yes'/>
          <!-- void -->
          <return type-id='type-id-14'/>
        </function-decl>
      </member-function>
      <member-function access='protected' destructor='yes' vtable-offset='-1'>
        <!-- vtkDummyController::~vtkDummyController() -->
        <function-decl name='~vtkDummyController' mangled-name='_ZN18vtkDummyControllerD1Ev' filepath='/tmp/legendre/spack-stage/spack-stage-R_crTC/VTK-6.1.0/Parallel/Core/vtkDummyController.cxx' line='31' column='1' visibility='default' binding='global' size-in-bits='64' elf-symbol-id='_ZN18vtkDummyControllerD1Ev' hash='7f32ffea222edbe7'>
          <!-- implicit parameter of type 'vtkDummyController*' -->
          <parameter type-id='type-id-586' is-artificial='yes'/>
          <!-- void -->
          <return type-id='type-id-14'/>
        </function-decl>
      </member-function>
      <member-function access='private' const='yes' vtable-offset='0'>
        <!-- const char* vtkDummyController::GetClassNameInternal() -->
        <function-decl name='GetClassNameInternal' mangled-name='_ZNK18vtkDummyController20GetClassNameInternalEv' filepath='/tmp/legendre/spack-stage/spack-stage-R_crTC/VTK-6.1.0/Parallel/Core/vtkDummyController.h' line='33' column='1' visibility='default' binding='global' size-in-bits='64' hash='53885bde0aa65efe'>
          <!-- implicit parameter of type 'const vtkDummyController*' -->
          <parameter type-id='type-id-587' is-artificial='yes'/>
          <!-- const char* -->
          <return type-id='type-id-33'/>
        </function-decl>
      </member-function>
      <member-function access='private' vtable-offset='1'>
        <!-- int vtkDummyController::IsA(const char*) -->
        <function-decl name='IsA' mangled-name='_ZN18vtkDummyController3IsAEPKc' filepath='/tmp/legendre/spack-stage/spack-stage-R_crTC/VTK-6.1.0/Parallel/Core/vtkDummyController.h' line='33' column='1' visibility='default' binding='global' size-in-bits='64' hash='e9ea91a7eab8302c'>
          <!-- implicit parameter of type 'vtkDummyController*' -->
          <parameter type-id='type-id-586' is-artificial='yes'/>
          <!-- parameter of type 'const char*' -->
          <parameter type-id='type-id-33'/>
          <!-- int -->
          <return type-id='type-id-19'/>
        </function-decl>
      </member-function>
      <member-function access='private' vtable-offset='4'>
        <!-- void vtkDummyController::PrintSelf(std::ostream&, vtkIndent) -->
        <function-decl name='PrintSelf' mangled-name='_ZN18vtkDummyController9PrintSelfERSo9vtkIndent' filepath='/tmp/legendre/spack-stage/spack-stage-R_crTC/VTK-6.1.0/Parallel/Core/vtkDummyController.cxx' line='37' column='1' visibility='default' binding='global' size-in-bits='64' elf-symbol-id='_ZN18vtkDummyController9PrintSelfERSo9vtkIndent' hash='7f32ffea222edbe7'>
          <!-- implicit parameter of type 'vtkDummyController*' -->
          <parameter type-id='type-id-586' is-artificial='yes'/>
          <!-- parameter of type 'std::ostream&' -->
          <parameter type-id='type-id-34'/>
          <!-- parameter of type 'class vtkIndent' -->
          <parameter type-id='type-id-35'/>
          <!-- void -->
          <return type-id='type-id-14'/>
        </function-decl>
      </member-function>
      <member-function access='protected' const='yes' vtable-offset='15'>
        <!-- vtkObjectBase* vtkDummyController::NewInstanceInternal() -->
        <function-decl name='NewInstanceInternal' mangled-name='_ZNK18vtkDummyController19NewInstanceInternalEv' filepath='/tmp/legendre/spack-stage/spack-stage-R_crTC/VTK-6.1.0/Parallel/Core/vtkDummyController.h' line='33' column='1' visibility='default' binding='global' size-in-bits='64' hash='7f32ffea222edbe7'>
          <!-- implicit parameter of type 'const vtkDummyController*' -->
          <parameter type-id='type-id-587' is-artificial='yes'/>
          <!-- vtkObjectBase* -->
          <return type-id='type-id-588'/>
        </function-decl>
      </member-function>
      <member-function access='private' vtable-offset='20'>
        <!-- void vtkDummyController::Initialize(int*, char***) -->
        <function-decl name='Initialize' mangled-name='_ZN18vtkDummyController10InitializeEPiPPPc' filepath='/tmp/legendre/spack-stage/spack-stage-R_crTC/VTK-6.1.0/Parallel/Core/vtkDummyController.h' line='39' column='1' visibility='default' binding='global' size-in-bits='64' hash='dec8daa4b58e5f80'>
          <!-- implicit parameter of type 'vtkDummyController*' -->
          <parameter type-id='type-id-586' is-artificial='yes'/>
          <!-- parameter of type 'int*' -->
          <parameter type-id='type-id-37'/>
          <!-- parameter of type 'char***' -->
          <parameter type-id='type-id-589'/>
          <!-- void -->
          <return type-id='type-id-14'/>
        </function-decl>
      </member-function>
      <member-function access='private' vtable-offset='21'>
        <!-- void vtkDummyController::Initialize(int*, char***, int) -->
        <function-decl name='Initialize' mangled-name='_ZN18vtkDummyController10InitializeEPiPPPci' filepath='/tmp/legendre/spack-stage/spack-stage-R_crTC/VTK-6.1.0/Parallel/Core/vtkDummyController.h' line='38' column='1' visibility='default' binding='global' size-in-bits='64' hash='14796aca23119485'>
          <!-- implicit parameter of type 'vtkDummyController*' -->
          <parameter type-id='type-id-586' is-artificial='yes'/>
          <!-- parameter of type 'int*' -->
          <parameter type-id='type-id-37'/>
          <!-- parameter of type 'char***' -->
          <parameter type-id='type-id-589'/>
          <!-- parameter of type 'int' -->
          <parameter type-id='type-id-19'/>
          <!-- void -->
          <return type-id='type-id-14'/>
        </function-decl>
      </member-function>
      <member-function access='private' vtable-offset='22'>
        <!-- void vtkDummyController::Finalize() -->
        <function-decl name='Finalize' mangled-name='_ZN18vtkDummyController8FinalizeEv' filepath='/tmp/legendre/spack-stage/spack-stage-R_crTC/VTK-6.1.0/Parallel/Core/vtkDummyController.h' line='40' column='1' visibility='default' binding='global' size-in-bits='64' hash='7f32ffea222edbe7'>
          <!-- implicit parameter of type 'vtkDummyController*' -->
          <parameter type-id='type-id-586' is-artificial='yes'/>
          <!-- void -->
          <return type-id='type-id-14'/>
        </function-decl>
      </member-function>
      <member-function access='private' vtable-offset='23'>
        <!-- void vtkDummyController::Finalize(int) -->
        <function-decl name='Finalize' mangled-name='_ZN18vtkDummyController8FinalizeEi' filepath='/tmp/legendre/spack-stage/spack-stage-R_crTC/VTK-6.1.0/Parallel/Core/vtkDummyController.h' line='41' column='1' visibility='default' binding='global' size-in-bits='64' hash='388da3fa973fde78'>
          <!-- implicit parameter of type 'vtkDummyController*' -->
          <parameter type-id='type-id-586' is-artificial='yes'/>
          <!-- parameter of type 'int' -->
          <parameter type-id='type-id-19'/>
          <!-- void -->
          <return type-id='type-id-14'/>
        </function-decl>
      </member-function>
      <member-function access='private' vtable-offset='24'>
        <!-- void vtkDummyController::SingleMethodExecute() -->
        <function-decl name='SingleMethodExecute' mangled-name='_ZN18vtkDummyController19SingleMethodExecuteEv' filepath='/tmp/legendre/spack-stage/spack-stage-R_crTC/VTK-6.1.0/Parallel/Core/vtkDummyController.cxx' line='46' column='1' visibility='default' binding='global' size-in-bits='64' elf-symbol-id='_ZN18vtkDummyController19SingleMethodExecuteEv' hash='7f32ffea222edbe7'>
          <!-- implicit parameter of type 'vtkDummyController*' -->
          <parameter type-id='type-id-586' is-artificial='yes'/>
          <!-- void -->
          <return type-id='type-id-14'/>
        </function-decl>
      </member-function>
      <member-function access='private' vtable-offset='25'>
        <!-- void vtkDummyController::MultipleMethodExecute() -->
        <function-decl name='MultipleMethodExecute' mangled-name='_ZN18vtkDummyController21MultipleMethodExecuteEv' filepath='/tmp/legendre/spack-stage/spack-stage-R_crTC/VTK-6.1.0/Parallel/Core/vtkDummyController.cxx' line='63' column='1' visibility='default' binding='global' size-in-bits='64' elf-symbol-id='_ZN18vtkDummyController21MultipleMethodExecuteEv' hash='7f32ffea222edbe7'>
          <!-- implicit parameter of type 'vtkDummyController*' -->
          <parameter type-id='type-id-586' is-artificial='yes'/>
          <!-- void -->
          <return type-id='type-id-14'/>
        </function-decl>
      </member-function>
      <member-function access='private' vtable-offset='26'>
        <!-- void vtkDummyController::CreateOutputWindow() -->
        <function-decl name='CreateOutputWindow' mangled-name='_ZN18vtkDummyController18CreateOutputWindowEv' filepath='/tmp/legendre/spack-stage/spack-stage-R_crTC/VTK-6.1.0/Parallel/Core/vtkDummyController.h' line='57' column='1' visibility='default' binding='global' size-in-bits='64' hash='7f32ffea222edbe7'>
          <!-- implicit parameter of type 'vtkDummyController*' -->
          <parameter type-id='type-id-586' is-artificial='yes'/>
          <!-- void -->
          <return type-id='type-id-14'/>
        </function-decl>
      </member-function>
      <member-function access='private' vtable-offset='38'>
        <!-- vtkCommunicator* vtkDummyController::GetCommunicator() -->
        <function-decl name='GetCommunicator' mangled-name='_ZN18vtkDummyController15GetCommunicatorEv' filepath='/tmp/legendre/spack-stage/spack-stage-R_crTC/VTK-6.1.0/Parallel/Core/vtkDummyController.h' line='62' column='1' visibility='default' binding='global' size-in-bits='64' hash='7ccffe40723cbd51'>
          <!-- implicit parameter of type 'vtkDummyController*' -->
          <parameter type-id='type-id-586' is-artificial='yes'/>
          <!-- vtkCommunicator* -->
          <return type-id='type-id-25'/>
        </function-decl>
      </member-function>
      <member-function access='private' vtable-offset='41'>
        <!-- vtkCommunicator* vtkDummyController::GetRMICommunicator() -->
        <function-decl name='GetRMICommunicator' mangled-name='_ZN18vtkDummyController18GetRMICommunicatorEv' filepath='/tmp/legendre/spack-stage/spack-stage-R_crTC/VTK-6.1.0/Parallel/Core/vtkDummyController.h' line='63' column='1' visibility='default' binding='global' size-in-bits='64' hash='7ccffe40723cbd51'>
          <!-- implicit parameter of type 'vtkDummyController*' -->
          <parameter type-id='type-id-586' is-artificial='yes'/>
          <!-- vtkCommunicator* -->
          <return type-id='type-id-25'/>
        </function-decl>
      </member-function>
      <member-function access='private' vtable-offset='42'>
        <!-- void vtkDummyController::SetCommunicator(vtkCommunicator*) -->
        <function-decl name='SetCommunicator' mangled-name='_ZN18vtkDummyController15SetCommunicatorEP15vtkCommunicator' filepath='/tmp/legendre/spack-stage/spack-stage-R_crTC/VTK-6.1.0/Parallel/Core/vtkDummyController.cxx' line='21' column='1' visibility='default' binding='global' size-in-bits='64' elf-symbol-id='_ZN18vtkDummyController15SetCommunicatorEP15vtkCommunicator' hash='7ccffe40723cbd51'>
          <!-- implicit parameter of type 'vtkDummyController*' -->
          <parameter type-id='type-id-586' is-artificial='yes'/>
          <!-- parameter of type 'vtkCommunicator*' -->
          <parameter type-id='type-id-25'/>
          <!-- void -->
          <return type-id='type-id-14'/>
        </function-decl>
      </member-function>
      <member-function access='private' vtable-offset='43'>
        <!-- void vtkDummyController::SetRMICommunicator(vtkCommunicator*) -->
        <function-decl name='SetRMICommunicator' mangled-name='_ZN18vtkDummyController18SetRMICommunicatorEP15vtkCommunicator' filepath='/tmp/legendre/spack-stage/spack-stage-R_crTC/VTK-6.1.0/Parallel/Core/vtkDummyController.cxx' line='22' column='1' visibility='default' binding='global' size-in-bits='64' elf-symbol-id='_ZN18vtkDummyController18SetRMICommunicatorEP15vtkCommunicator' hash='7ccffe40723cbd51'>
          <!-- implicit parameter of type 'vtkDummyController*' -->
          <parameter type-id='type-id-586' is-artificial='yes'/>
          <!-- parameter of type 'vtkCommunicator*' -->
          <parameter type-id='type-id-25'/>
          <!-- void -->
          <return type-id='type-id-14'/>
        </function-decl>
      </member-function>
    </class-decl>
    <!-- typedef void (*)(void*, void*, int, int) vtkRMIFunctionType -->
    <typedef-decl name='vtkRMIFunctionType' type-id='type-id-590' size-in-bits='64' filepath='/tmp/legendre/spack-stage/spack-stage-R_crTC/VTK-6.1.0/Parallel/Core/vtkMultiProcessController.h' line='58' column='1' hash='fd7a63c0c6c822c4' id='type-id-591'/>
    <!-- char*** -->
    <pointer-type-def type-id='type-id-163' size-in-bits='64' hash='1da04ce8504cf80f' id='type-id-589'/>
    <!-- const vtkDummyController -->
    <qualified-type-def type-id='type-id-584' const='yes' hash='e8f254486c5da2d1' id='type-id-592'/>
    <!-- const vtkDummyController& -->
    <reference-type-def kind='lvalue' type-id='type-id-592' size-in-bits='64' hash='d36ca3b9efdcfbf9' id='type-id-593'/>
    <!-- const vtkDummyController* -->
    <pointer-type-def type-id='type-id-592' size-in-bits='64' hash='55af97289778e5e5' id='type-id-587'/>
    <!-- void (*)(void*, void*, int, int) -->
    <pointer-type-def type-id='type-id-594' size-in-bits='64' hash='fd7a63c0c6c822c4' id='type-id-590'/>
    <!-- vtkDummyController* -->
    <pointer-type-def type-id='type-id-584' size-in-bits='64' hash='8b421f6298beb54b' id='type-id-586'/>
    <!-- vtkDummyController* const -->
    <qualified-type-def type-id='type-id-586' const='yes' hash='d0eaeb31986c7e69' id='type-id-595'/>
    <!-- vtkMultiProcessController* -->
    <pointer-type-def type-id='type-id-585' size-in-bits='64' hash='a721c5a5d4487785' id='type-id-596'/>
    <!-- vtkMultiProcessController* const -->
    <qualified-type-def type-id='type-id-596' const='yes' hash='02a9291b19b20367' id='type-id-597'/>
    <!-- class vtkOStreamWrapper -->
    <class-decl name='vtkOStreamWrapper' visibility='default' is-declaration-only='yes' id='type-id-598'/>
    <!-- class vtkObject -->
    <class-decl name='vtkObject' visibility='default' is-declaration-only='yes' id='type-id-599'/>
    <!-- class vtkObjectBase -->
    <class-decl name='vtkObjectBase' visibility='default' is-declaration-only='yes' id='type-id-600'>
      <member-function access='protected' vtable-offset='11'>
        <!-- void vtkObjectBase::CollectRevisions(std::ostream&) -->
        <function-decl name='CollectRevisions' mangled-name='_ZN13vtkObjectBase16CollectRevisionsERSo' filepath='/tmp/legendre/spack-stage/spack-stage-R_crTC/VTK-6.1.0/Common/Core/vtkObjectBase.h' line='163' column='1' visibility='default' binding='global' size-in-bits='64' hash='7f32ffea222edbe7'>
          <!-- implicit parameter of type 'vtkObjectBase*' -->
          <parameter type-id='type-id-36' is-artificial='yes'/>
          <!-- parameter of type 'std::ostream&' -->
          <parameter type-id='type-id-34'/>
          <!-- void -->
          <return type-id='type-id-14'/>
        </function-decl>
      </member-function>
    </class-decl>
    <!-- const std::basic_ios<char, std::char_traits<char> > -->
    <qualified-type-def type-id='type-id-601' const='yes' id='type-id-602'/>
    <!-- const std::basic_ios<char, std::char_traits<char> >* -->
    <pointer-type-def type-id='type-id-602' size-in-bits='64' id='type-id-603'/>
    <!-- const std::basic_ios<char, std::char_traits<char> >* const -->
    <qualified-type-def type-id='type-id-603' const='yes' id='type-id-604'/>
    <!-- const std::ctype<char> -->
    <qualified-type-def type-id='type-id-605' const='yes' id='type-id-606'/>
    <!-- const std::ctype<char>* -->
    <pointer-type-def type-id='type-id-606' size-in-bits='64' id='type-id-607'/>
    <!-- const std::ctype<char>* const -->
    <qualified-type-def type-id='type-id-607' const='yes' id='type-id-608'/>
    <!-- namespace std -->
    <namespace-decl name='std'>
      <!-- struct std::char_traits<char> -->
      <class-decl name='char_traits&lt;char&gt;' is-struct='yes' visibility='default' hash='458bc359e04e351a' id='type-id-609'/>
      <!-- class std::ctype<char> -->
      <class-decl name='ctype&lt;char&gt;' visibility='default' is-declaration-only='yes' id='type-id-605'>
      </class-decl>
      <!-- class std::ios_base -->
      <class-decl name='ios_base' visibility='default' is-declaration-only='yes' id='type-id-610'/>
      <!-- struct std::basic_ios<char, std::char_traits<char> > -->
      <class-decl name='basic_ios&lt;char, std::char_traits&lt;char&gt; &gt;' is-struct='yes' visibility='default' is-declaration-only='yes' id='type-id-601'>
      </class-decl>
      <!-- struct std::basic_ostream<char, std::char_traits<char> > -->
      <class-decl name='basic_ostream&lt;char, std::char_traits&lt;char&gt; &gt;' is-struct='yes' visibility='default' is-declaration-only='yes' id='type-id-611'/>
      <!-- typedef std::basic_ostream<char, std::char_traits<char> > std::ostream -->
      <typedef-decl name='ostream' type-id='type-id-611' filepath='/usr/lib/gcc/x86_64-redhat-linux/4.4.7/../../../../include/c++/4.4.7/iosfwd' line='130' column='1' id='type-id-612'/>
    </namespace-decl>
    <!-- std::basic_ios<char, std::char_traits<char> >* -->
    <pointer-type-def type-id='type-id-601' size-in-bits='64' id='type-id-613'/>
    <!-- std::basic_ios<char, std::char_traits<char> >* const -->
    <qualified-type-def type-id='type-id-613' const='yes' id='type-id-614'/>
    <!-- std::basic_ostream<char, std::char_traits<char> >* -->
    <pointer-type-def type-id='type-id-611' size-in-bits='64' id='type-id-615'/>
    <!-- std::basic_ostream<char, std::char_traits<char> >* const -->
    <qualified-type-def type-id='type-id-615' const='yes' id='type-id-616'/>
    <!-- struct vtkMultiProcessController -->
    <class-decl name='vtkMultiProcessController' is-struct='yes' visibility='default' size-in-bits='896' filepath='/tmp/legendre/spack-stage/spack-stage-R_crTC/VTK-6.1.0/Parallel/Core/vtkMultiProcessController.h' line='63' column='1' hash='f66cb64f7c963530' id='type-id-585'>
      <!-- class vtkObject -->
      <base-class access='public' layout-offset-in-bits='0' type-id='type-id-599'/>
      <member-type access='private'>
        <!-- class vtkMultiProcessController::vtkInternal -->
        <class-decl name='vtkInternal' visibility='default' size-in-bits='960' filepath='/tmp/legendre/spack-stage/spack-stage-R_crTC/VTK-6.1.0/Parallel/Core/vtkMultiProcessController.cxx' line='45' column='1' hash='a0457e3841cfa33f' id='type-id-617'>
          <member-type access='private'>
            <!-- class vtkMultiProcessController::vtkInternal::vtkRMICallback -->
            <class-decl name='vtkRMICallback' visibility='default' size-in-bits='192' filepath='/tmp/legendre/spack-stage/spack-stage-R_crTC/VTK-6.1.0/Parallel/Core/vtkMultiProcessController.cxx' line='51' column='1' hash='4c36aa648a8156fc' id='type-id-618'>
              <data-member access='private' layout-offset-in-bits='0'>
                <!-- unsigned long int vtkMultiProcessController::vtkInternal::vtkRMICallback::Id -->
                <var-decl name='Id' type-id='type-id-4' visibility='default' filepath='/tmp/legendre/spack-stage/spack-stage-R_crTC/VTK-6.1.0/Parallel/Core/vtkMultiProcessController.cxx' line='53' column='1'/>
              </data-member>
              <data-member access='private' layout-offset-in-bits='64'>
                <!-- vtkRMIFunctionType vtkMultiProcessController::vtkInternal::vtkRMICallback::Function -->
                <var-decl name='Function' type-id='type-id-591' visibility='default' filepath='/tmp/legendre/spack-stage/spack-stage-R_crTC/VTK-6.1.0/Parallel/Core/vtkMultiProcessController.cxx' line='54' column='1'/>
              </data-member>
              <data-member access='private' layout-offset-in-bits='128'>
                <!-- void* vtkMultiProcessController::vtkInternal::vtkRMICallback::LocalArgument -->
                <var-decl name='LocalArgument' type-id='type-id-20' visibility='default' filepath='/tmp/legendre/spack-stage/spack-stage-R_crTC/VTK-6.1.0/Parallel/Core/vtkMultiProcessController.cxx' line='55' column='1'/>
              </data-member>
            </class-decl>
          </member-type>
          <member-type access='private'>
            <!-- typedef vtksys::hash_map<int, std::vector<vtkMultiProcessController::vtkInternal::vtkRMICallback, std::allocator<vtkMultiProcessController::vtkInternal::vtkRMICallback> >, vtksys::hash<int>, std::equal_to<int>, std::allocator<char> > vtkMultiProcessController::vtkInternal::RMICallbackMap -->
            <typedef-decl name='RMICallbackMap' type-id='type-id-620' size-in-bits='320' filepath='/tmp/legendre/spack-stage/spack-stage-R_crTC/VTK-6.1.0/Parallel/Core/vtkMultiProcessController.cxx' line='61' column='1' id='type-id-619'/>
          </member-type>
          <data-member access='private' layout-offset-in-bits='0'>
            <!-- vtksys::hash_map<int, void (*)(vtkMultiProcessController*, void*), vtksys::hash<int>, std::equal_to<int>, std::allocator<char> > vtkMultiProcessController::vtkInternal::MultipleMethod -->
            <var-decl name='MultipleMethod' type-id='type-id-621' visibility='default' filepath='/tmp/legendre/spack-stage/spack-stage-R_crTC/VTK-6.1.0/Parallel/Core/vtkMultiProcessController.cxx' line='47' column='1'/>
          </data-member>
          <data-member access='private' layout-offset-in-bits='320'>
            <!-- vtksys::hash_map<int, void*, vtksys::hash<int>, std::equal_to<int>, std::allocator<char> > vtkMultiProcessController::vtkInternal::MultipleData -->
            <var-decl name='MultipleData' type-id='type-id-622' visibility='default' filepath='/tmp/legendre/spack-stage/spack-stage-R_crTC/VTK-6.1.0/Parallel/Core/vtkMultiProcessController.cxx' line='48' column='1'/>
          </data-member>
          <data-member access='private' layout-offset-in-bits='640'>
            <!-- vtkMultiProcessController::vtkInternal::RMICallbackMap vtkMultiProcessController::vtkInternal::RMICallbacks -->
            <var-decl name='RMICallbacks' type-id='type-id-619' visibility='default' filepath='/tmp/legendre/spack-stage/spack-stage-R_crTC/VTK-6.1.0/Parallel/Core/vtkMultiProcessController.cxx' line='62' column='1'/>
          </data-member>
        </class-decl>
      </member-type>
      <member-type access='public'>
        <!-- enum vtkMultiProcessController::Consts -->
        <enum-decl name='Consts' size-in-bits='32' alignment-in-bits='32' filepath='/tmp/legendre/spack-stage/spack-stage-R_crTC/VTK-6.1.0/Parallel/Core/vtkMultiProcessController.h' line='303' column='1' hash='709b491bcb17452d' id='type-id-623'>
          <underlying-type type-id='type-id-23'/>
          <enumerator name='ANY_SOURCE' value='-1'/>
          <enumerator name='INVALID_SOURCE' value='-2'/>
        </enum-decl>
      </member-type>
      <member-type access='public'>
        <!-- enum vtkMultiProcessController::Errors -->
        <enum-decl name='Errors' size-in-bits='32' alignment-in-bits='32' filepath='/tmp/legendre/spack-stage/spack-stage-R_crTC/VTK-6.1.0/Parallel/Core/vtkMultiProcessController.h' line='296' column='1' hash='6635d23209200671' id='type-id-624'>
          <underlying-type type-id='type-id-23'/>
          <enumerator name='RMI_NO_ERROR' value='0'/>
          <enumerator name='RMI_TAG_ERROR' value='1'/>
          <enumerator name='RMI_ARG_ERROR' value='2'/>
        </enum-decl>
      </member-type>
      <member-type access='public'>
        <!-- enum vtkMultiProcessController::Tags -->
        <enum-decl name='Tags' size-in-bits='32' alignment-in-bits='32' filepath='/tmp/legendre/spack-stage/spack-stage-R_crTC/VTK-6.1.0/Parallel/Core/vtkMultiProcessController.h' line='309' column='1' hash='5cc224d6cfb65784' id='type-id-625'>
          <underlying-type type-id='type-id-23'/>
          <enumerator name='RMI_TAG' value='1'/>
          <enumerator name='RMI_ARG_TAG' value='2'/>
          <enumerator name='BREAK_RMI_TAG' value='3'/>
          <enumerator name='XML_WRITER_DATA_INFO' value='4'/>
        </enum-decl>
      </member-type>
      <data-member access='protected' layout-offset-in-bits='384'>
        <!-- vtkProcessFunctionType vtkMultiProcessController::SingleMethod -->
        <var-decl name='SingleMethod' type-id='type-id-626' visibility='default' filepath='/tmp/legendre/spack-stage/spack-stage-R_crTC/VTK-6.1.0/Parallel/Core/vtkMultiProcessController.h' line='981' column='1'/>
      </data-member>
      <data-member access='protected' layout-offset-in-bits='448'>
        <!-- void* vtkMultiProcessController::SingleData -->
        <var-decl name='SingleData' type-id='type-id-20' visibility='default' filepath='/tmp/legendre/spack-stage/spack-stage-R_crTC/VTK-6.1.0/Parallel/Core/vtkMultiProcessController.h' line='982' column='1'/>
      </data-member>
      <data-member access='protected' layout-offset-in-bits='512'>
        <!-- int vtkMultiProcessController::BreakFlag -->
        <var-decl name='BreakFlag' type-id='type-id-19' visibility='default' filepath='/tmp/legendre/spack-stage/spack-stage-R_crTC/VTK-6.1.0/Parallel/Core/vtkMultiProcessController.h' line='988' column='1'/>
      </data-member>
      <data-member access='protected' layout-offset-in-bits='544'>
        <!-- int vtkMultiProcessController::ForceDeepCopy -->
        <var-decl name='ForceDeepCopy' type-id='type-id-19' visibility='default' filepath='/tmp/legendre/spack-stage/spack-stage-R_crTC/VTK-6.1.0/Parallel/Core/vtkMultiProcessController.h' line='998' column='1'/>
      </data-member>
      <data-member access='protected' layout-offset-in-bits='576'>
        <!-- vtkOutputWindow* vtkMultiProcessController::OutputWindow -->
        <var-decl name='OutputWindow' type-id='type-id-627' visibility='default' filepath='/tmp/legendre/spack-stage/spack-stage-R_crTC/VTK-6.1.0/Parallel/Core/vtkMultiProcessController.h' line='1000' column='1'/>
      </data-member>
      <data-member access='protected' layout-offset-in-bits='640'>
        <!-- vtkCommunicator* vtkMultiProcessController::Communicator -->
        <var-decl name='Communicator' type-id='type-id-25' visibility='default' filepath='/tmp/legendre/spack-stage/spack-stage-R_crTC/VTK-6.1.0/Parallel/Core/vtkMultiProcessController.h' line='1005' column='1'/>
      </data-member>
      <data-member access='protected' layout-offset-in-bits='704'>
        <!-- vtkCommunicator* vtkMultiProcessController::RMICommunicator -->
        <var-decl name='RMICommunicator' type-id='type-id-25' visibility='default' filepath='/tmp/legendre/spack-stage/spack-stage-R_crTC/VTK-6.1.0/Parallel/Core/vtkMultiProcessController.h' line='1014' column='1'/>
      </data-member>
      <data-member access='private' layout-offset-in-bits='768'>
        <!-- unsigned long int vtkMultiProcessController::RMICount -->
        <var-decl name='RMICount' type-id='type-id-4' visibility='default' filepath='/tmp/legendre/spack-stage/spack-stage-R_crTC/VTK-6.1.0/Parallel/Core/vtkMultiProcessController.h' line='1020' column='1'/>
      </data-member>
      <data-member access='private' layout-offset-in-bits='832'>
        <!-- vtkMultiProcessController::vtkInternal* vtkMultiProcessController::Internal -->
        <var-decl name='Internal' type-id='type-id-628' visibility='default' filepath='/tmp/legendre/spack-stage/spack-stage-R_crTC/VTK-6.1.0/Parallel/Core/vtkMultiProcessController.h' line='1024' column='1'/>
      </data-member>
      <member-function access='public'>
        <!-- void vtkMultiProcessController::SetSingleMethod(vtkProcessFunctionType, void*) -->
        <function-decl name='SetSingleMethod' mangled-name='_ZN25vtkMultiProcessController15SetSingleMethodEPFvPS_PvES1_' filepath='/tmp/legendre/spack-stage/spack-stage-R_crTC/VTK-6.1.0/Parallel/Core/vtkMultiProcessController.cxx' line='213' column='1' visibility='default' binding='global' size-in-bits='64' elf-symbol-id='_ZN25vtkMultiProcessController15SetSingleMethodEPFvPS_PvES1_' hash='5695f5ce05a4c55f'>
          <!-- implicit parameter of type 'vtkMultiProcessController*' -->
          <parameter type-id='type-id-596' is-artificial='yes'/>
          <!-- parameter of type 'typedef vtkProcessFunctionType' -->
          <parameter type-id='type-id-626' filepath='/tmp/legendre/spack-stage/spack-stage-R_crTC/VTK-6.1.0/Parallel/Core/vtkMultiProcessController.cxx' line='213' column='1'/>
          <!-- parameter of type 'void*' -->
          <parameter type-id='type-id-20' filepath='/tmp/legendre/spack-stage/spack-stage-R_crTC/VTK-6.1.0/Parallel/Core/vtkMultiProcessController.cxx' line='214' column='1'/>
          <!-- void -->
          <return type-id='type-id-14'/>
        </function-decl>
      </member-function>
      <member-function access='public'>
        <!-- void vtkMultiProcessController::SetSingleProcessObject(vtkProcess*) -->
        <function-decl name='SetSingleProcessObject' mangled-name='_ZN25vtkMultiProcessController22SetSingleProcessObjectEP10vtkProcess' filepath='/tmp/legendre/spack-stage/spack-stage-R_crTC/VTK-6.1.0/Parallel/Core/vtkMultiProcessController.cxx' line='221' column='1' visibility='default' binding='global' size-in-bits='64' elf-symbol-id='_ZN25vtkMultiProcessController22SetSingleProcessObjectEP10vtkProcess' hash='37a081dc9237619e'>
          <!-- implicit parameter of type 'vtkMultiProcessController*' -->
          <parameter type-id='type-id-596' is-artificial='yes'/>
          <!-- parameter of type 'vtkProcess*' -->
          <parameter type-id='type-id-629' filepath='/tmp/legendre/spack-stage/spack-stage-R_crTC/VTK-6.1.0/Parallel/Core/vtkMultiProcessController.cxx' line='221' column='1'/>
          <!-- void -->
          <return type-id='type-id-14'/>
        </function-decl>
      </member-function>
      <member-function access='public' static='yes'>
        <!-- vtkMultiProcessController* vtkMultiProcessController::GetGlobalController() -->
        <function-decl name='GetGlobalController' mangled-name='_ZN25vtkMultiProcessController19GetGlobalControllerEv' filepath='/tmp/legendre/spack-stage/spack-stage-R_crTC/VTK-6.1.0/Parallel/Core/vtkMultiProcessController.cxx' line='658' column='1' visibility='default' binding='global' size-in-bits='64' elf-symbol-id='_ZN25vtkMultiProcessController19GetGlobalControllerEv' hash='f0170451fafc8626'>
          <!-- vtkMultiProcessController* -->
          <return type-id='type-id-596'/>
        </function-decl>
      </member-function>
      <member-function access='public'>
        <!-- int vtkMultiProcessController::GetLocalProcessId() -->
        <function-decl name='GetLocalProcessId' mangled-name='_ZN25vtkMultiProcessController17GetLocalProcessIdEv' filepath='/tmp/legendre/spack-stage/spack-stage-R_crTC/VTK-6.1.0/Parallel/Core/vtkMultiProcessController.cxx' line='199' column='1' visibility='default' binding='global' size-in-bits='64' elf-symbol-id='_ZN25vtkMultiProcessController17GetLocalProcessIdEv' hash='388da3fa973fde78'>
          <!-- implicit parameter of type 'vtkMultiProcessController*' -->
          <parameter type-id='type-id-596' is-artificial='yes'/>
          <!-- int -->
          <return type-id='type-id-19'/>
        </function-decl>
      </member-function>
      <member-function access='public'>
        <!-- int vtkMultiProcessController::GetNumberOfProcesses() -->
        <function-decl name='GetNumberOfProcesses' mangled-name='_ZN25vtkMultiProcessController20GetNumberOfProcessesEv' filepath='/tmp/legendre/spack-stage/spack-stage-R_crTC/VTK-6.1.0/Parallel/Core/vtkMultiProcessController.cxx' line='185' column='1' visibility='default' binding='global' size-in-bits='64' elf-symbol-id='_ZN25vtkMultiProcessController20GetNumberOfProcessesEv' hash='388da3fa973fde78'>
          <!-- implicit parameter of type 'vtkMultiProcessController*' -->
          <parameter type-id='type-id-596' is-artificial='yes'/>
          <!-- int -->
          <return type-id='type-id-19'/>
        </function-decl>
      </member-function>
      <member-function access='public'>
        <!-- void vtkMultiProcessController::TriggerRMIOnAllChildren(void*, int, int) -->
        <function-decl name='TriggerRMIOnAllChildren' mangled-name='_ZN25vtkMultiProcessController23TriggerRMIOnAllChildrenEPvii' filepath='/tmp/legendre/spack-stage/spack-stage-R_crTC/VTK-6.1.0/Parallel/Core/vtkMultiProcessController.cxx' line='427' column='1' visibility='default' binding='global' size-in-bits='64' elf-symbol-id='_ZN25vtkMultiProcessController23TriggerRMIOnAllChildrenEPvii' hash='d628501fd2223339'>
          <!-- implicit parameter of type 'vtkMultiProcessController*' -->
          <parameter type-id='type-id-596' is-artificial='yes'/>
          <!-- parameter of type 'void*' -->
          <parameter type-id='type-id-20' filepath='/tmp/legendre/spack-stage/spack-stage-R_crTC/VTK-6.1.0/Parallel/Core/vtkMultiProcessController.cxx' line='428' column='1'/>
          <!-- parameter of type 'int' -->
          <parameter type-id='type-id-19' filepath='/tmp/legendre/spack-stage/spack-stage-R_crTC/VTK-6.1.0/Parallel/Core/vtkMultiProcessController.cxx' line='428' column='1'/>
          <!-- parameter of type 'int' -->
          <parameter type-id='type-id-19' filepath='/tmp/legendre/spack-stage/spack-stage-R_crTC/VTK-6.1.0/Parallel/Core/vtkMultiProcessController.cxx' line='428' column='1'/>
          <!-- void -->
          <return type-id='type-id-14'/>
        </function-decl>
      </member-function>
      <member-function access='public'>
        <!-- void vtkMultiProcessController::SetNumberOfProcesses(int) -->
        <function-decl name='SetNumberOfProcesses' mangled-name='_ZN25vtkMultiProcessController20SetNumberOfProcessesEi' filepath='/tmp/legendre/spack-stage/spack-stage-R_crTC/VTK-6.1.0/Parallel/Core/vtkMultiProcessController.cxx' line='172' column='1' visibility='default' binding='global' size-in-bits='64' elf-symbol-id='_ZN25vtkMultiProcessController20SetNumberOfProcessesEi' hash='388da3fa973fde78'>
          <!-- implicit parameter of type 'vtkMultiProcessController*' -->
          <parameter type-id='type-id-596' is-artificial='yes'/>
          <!-- parameter of type 'int' -->
          <parameter type-id='type-id-19' filepath='/tmp/legendre/spack-stage/spack-stage-R_crTC/VTK-6.1.0/Parallel/Core/vtkMultiProcessController.h' line='280' column='1'/>
          <!-- void -->
          <return type-id='type-id-14'/>
        </function-decl>
      </member-function>
      <member-function access='public' static='yes'>
        <!-- void vtkMultiProcessController::SetGlobalController() -->
        <function-decl name='SetGlobalController' mangled-name='_ZN25vtkMultiProcessController19SetGlobalControllerEPS_' filepath='/tmp/legendre/spack-stage/spack-stage-R_crTC/VTK-6.1.0/Parallel/Core/vtkMultiProcessController.cxx' line='675' column='1' visibility='default' binding='global' size-in-bits='64' elf-symbol-id='_ZN25vtkMultiProcessController19SetGlobalControllerEPS_' hash='f0170451fafc8626'>
          <!-- parameter of type 'vtkMultiProcessController*' -->
          <parameter type-id='type-id-596' filepath='/tmp/legendre/spack-stage/spack-stage-R_crTC/VTK-6.1.0/Parallel/Core/vtkMultiProcessController.cxx' line='676' column='1'/>
          <!-- void -->
          <return type-id='type-id-14'/>
        </function-decl>
      </member-function>
      <member-function access='public'>
        <!-- void vtkMultiProcessController::SetMultipleMethod(int, vtkProcessFunctionType, void*) -->
        <function-decl name='SetMultipleMethod' mangled-name='_ZN25vtkMultiProcessController17SetMultipleMethodEiPFvPS_PvES1_' filepath='/tmp/legendre/spack-stage/spack-stage-R_crTC/VTK-6.1.0/Parallel/Core/vtkMultiProcessController.cxx' line='231' column='1' visibility='default' binding='global' size-in-bits='64' elf-symbol-id='_ZN25vtkMultiProcessController17SetMultipleMethodEiPFvPS_PvES1_' hash='a7f99494147764a8'>
          <!-- implicit parameter of type 'vtkMultiProcessController*' -->
          <parameter type-id='type-id-596' is-artificial='yes'/>
          <!-- parameter of type 'int' -->
          <parameter type-id='type-id-19' filepath='/tmp/legendre/spack-stage/spack-stage-R_crTC/VTK-6.1.0/Parallel/Core/vtkMultiProcessController.cxx' line='231' column='1'/>
          <!-- parameter of type 'typedef vtkProcessFunctionType' -->
          <parameter type-id='type-id-626' filepath='/tmp/legendre/spack-stage/spack-stage-R_crTC/VTK-6.1.0/Parallel/Core/vtkMultiProcessController.cxx' line='232' column='1'/>
          <!-- parameter of type 'void*' -->
          <parameter type-id='type-id-20' filepath='/tmp/legendre/spack-stage/spack-stage-R_crTC/VTK-6.1.0/Parallel/Core/vtkMultiProcessController.cxx' line='232' column='1'/>
          <!-- void -->
          <return type-id='type-id-14'/>
        </function-decl>
      </member-function>
      <member-function access='protected'>
        <!-- void vtkMultiProcessController::GetMultipleMethod(int, vtkProcessFunctionType&, void*&) -->
        <function-decl name='GetMultipleMethod' mangled-name='_ZN25vtkMultiProcessController17GetMultipleMethodEiRPFvPS_PvERS1_' filepath='/tmp/legendre/spack-stage/spack-stage-R_crTC/VTK-6.1.0/Parallel/Core/vtkMultiProcessController.cxx' line='248' column='1' visibility='default' binding='global' size-in-bits='64' elf-symbol-id='_ZN25vtkMultiProcessController17GetMultipleMethodEiRPFvPS_PvERS1_' hash='2ce3f59ccb10d0eb'>
          <!-- implicit parameter of type 'vtkMultiProcessController*' -->
          <parameter type-id='type-id-596' is-artificial='yes'/>
          <!-- parameter of type 'int' -->
          <parameter type-id='type-id-19' filepath='/tmp/legendre/spack-stage/spack-stage-R_crTC/VTK-6.1.0/Parallel/Core/vtkMultiProcessController.cxx' line='248' column='1'/>
          <!-- parameter of type 'vtkProcessFunctionType&' -->
          <parameter type-id='type-id-630' filepath='/tmp/legendre/spack-stage/spack-stage-R_crTC/VTK-6.1.0/Parallel/Core/vtkMultiProcessController.cxx' line='249' column='1'/>
          <!-- parameter of type 'void*&' -->
          <parameter type-id='type-id-631' filepath='/tmp/legendre/spack-stage/spack-stage-R_crTC/VTK-6.1.0/Parallel/Core/vtkMultiProcessController.cxx' line='250' column='1'/>
          <!-- void -->
          <return type-id='type-id-14'/>
        </function-decl>
      </member-function>
      <member-function access='protected' constructor='yes'>
        <!-- vtkMultiProcessController::vtkMultiProcessController() -->
        <function-decl name='vtkMultiProcessController' mangled-name='_ZN25vtkMultiProcessControllerC2Ev' filepath='/tmp/legendre/spack-stage/spack-stage-R_crTC/VTK-6.1.0/Parallel/Core/vtkMultiProcessController.cxx' line='88' column='1' visibility='default' binding='global' size-in-bits='64' elf-symbol-id='_ZN25vtkMultiProcessControllerC2Ev' hash='7f32ffea222edbe7'>
          <!-- implicit parameter of type 'vtkMultiProcessController*' -->
          <parameter type-id='type-id-596' is-artificial='yes'/>
          <!-- void -->
          <return type-id='type-id-14'/>
        </function-decl>
      </member-function>
      <member-function access='protected'>
        <!-- void vtkMultiProcessController::ProcessRMI(int, void*, int, int) -->
        <function-decl name='ProcessRMI' mangled-name='_ZN25vtkMultiProcessController10ProcessRMIEiPvii' filepath='/tmp/legendre/spack-stage/spack-stage-R_crTC/VTK-6.1.0/Parallel/Core/vtkMultiProcessController.cxx' line='618' column='1' visibility='default' binding='global' size-in-bits='64' elf-symbol-id='_ZN25vtkMultiProcessController10ProcessRMIEiPvii' hash='a9fd86e6e981c3b5'>
          <!-- implicit parameter of type 'vtkMultiProcessController*' -->
          <parameter type-id='type-id-596' is-artificial='yes'/>
          <!-- parameter of type 'int' -->
          <parameter type-id='type-id-19' filepath='/tmp/legendre/spack-stage/spack-stage-R_crTC/VTK-6.1.0/Parallel/Core/vtkMultiProcessController.cxx' line='618' column='1'/>
          <!-- parameter of type 'void*' -->
          <parameter type-id='type-id-20' filepath='/tmp/legendre/spack-stage/spack-stage-R_crTC/VTK-6.1.0/Parallel/Core/vtkMultiProcessController.cxx' line='619' column='1'/>
          <!-- parameter of type 'int' -->
          <parameter type-id='type-id-19' filepath='/tmp/legendre/spack-stage/spack-stage-R_crTC/VTK-6.1.0/Parallel/Core/vtkMultiProcessController.cxx' line='619' column='1'/>
          <!-- parameter of type 'int' -->
          <parameter type-id='type-id-19' filepath='/tmp/legendre/spack-stage/spack-stage-R_crTC/VTK-6.1.0/Parallel/Core/vtkMultiProcessController.cxx' line='620' column='1'/>
          <!-- void -->
          <return type-id='type-id-14'/>
        </function-decl>
      </member-function>
      <member-function access='public'>
        <!-- void vtkMultiProcessController::TriggerRMI(int, void*, int, int) -->
        <function-decl name='TriggerRMI' mangled-name='_ZN25vtkMultiProcessController10TriggerRMIEiPvii' filepath='/tmp/legendre/spack-stage/spack-stage-R_crTC/VTK-6.1.0/Parallel/Core/vtkMultiProcessController.cxx' line='445' column='1' visibility='default' binding='global' size-in-bits='64' elf-symbol-id='_ZN25vtkMultiProcessController10TriggerRMIEiPvii' hash='a9fd86e6e981c3b5'>
          <!-- implicit parameter of type 'vtkMultiProcessController*' -->
          <parameter type-id='type-id-596' is-artificial='yes'/>
          <!-- parameter of type 'int' -->
          <parameter type-id='type-id-19' filepath='/tmp/legendre/spack-stage/spack-stage-R_crTC/VTK-6.1.0/Parallel/Core/vtkMultiProcessController.cxx' line='618' column='1'/>
          <!-- parameter of type 'void*' -->
          <parameter type-id='type-id-20' filepath='/tmp/legendre/spack-stage/spack-stage-R_crTC/VTK-6.1.0/Parallel/Core/vtkMultiProcessController.cxx' line='619' column='1'/>
          <!-- parameter of type 'int' -->
          <parameter type-id='type-id-19' filepath='/tmp/legendre/spack-stage/spack-stage-R_crTC/VTK-6.1.0/Parallel/Core/vtkMultiProcessController.cxx' line='619' column='1'/>
          <!-- parameter of type 'int' -->
          <parameter type-id='type-id-19' filepath='/tmp/legendre/spack-stage/spack-stage-R_crTC/VTK-6.1.0/Parallel/Core/vtkMultiProcessController.cxx' line='620' column='1'/>
          <!-- void -->
          <return type-id='type-id-14'/>
        </function-decl>
      </member-function>
      <member-function access='public'>
        <!-- void vtkMultiProcessController::TriggerBreakRMIs() -->
        <function-decl name='TriggerBreakRMIs' mangled-name='_ZN25vtkMultiProcessController16TriggerBreakRMIsEv' filepath='/tmp/legendre/spack-stage/spack-stage-R_crTC/VTK-6.1.0/Parallel/Core/vtkMultiProcessController.cxx' line='506' column='1' visibility='default' binding='global' size-in-bits='64' elf-symbol-id='_ZN25vtkMultiProcessController16TriggerBreakRMIsEv' hash='7f32ffea222edbe7'>
          <!-- implicit parameter of type 'vtkMultiProcessController*' -->
          <parameter type-id='type-id-596' is-artificial='yes'/>
          <!-- void -->
          <return type-id='type-id-14'/>
        </function-decl>
      </member-function>
      <member-function access='public'>
        <!-- int vtkMultiProcessController::ProcessRMIs(int, int) -->
        <function-decl name='ProcessRMIs' mangled-name='_ZN25vtkMultiProcessController11ProcessRMIsEii' filepath='/tmp/legendre/spack-stage/spack-stage-R_crTC/VTK-6.1.0/Parallel/Core/vtkMultiProcessController.cxx' line='530' column='1' visibility='default' binding='global' size-in-bits='64' elf-symbol-id='_ZN25vtkMultiProcessController11ProcessRMIsEii' hash='a9fd86e6e981c3b5'>
          <!-- implicit parameter of type 'vtkMultiProcessController*' -->
          <parameter type-id='type-id-596' is-artificial='yes'/>
          <!-- parameter of type 'int' -->
          <parameter type-id='type-id-19' filepath='/tmp/legendre/spack-stage/spack-stage-R_crTC/VTK-6.1.0/Parallel/Core/vtkMultiProcessController.cxx' line='530' column='1'/>
          <!-- parameter of type 'int' -->
          <parameter type-id='type-id-19' filepath='/tmp/legendre/spack-stage/spack-stage-R_crTC/VTK-6.1.0/Parallel/Core/vtkMultiProcessController.cxx' line='530' column='1'/>
          <!-- int -->
          <return type-id='type-id-19'/>
        </function-decl>
      </member-function>
      <member-function access='public'>
        <!-- int vtkMultiProcessController::ProcessRMIs() -->
        <function-decl name='ProcessRMIs' mangled-name='_ZN25vtkMultiProcessController11ProcessRMIsEv' filepath='/tmp/legendre/spack-stage/spack-stage-R_crTC/VTK-6.1.0/Parallel/Core/vtkMultiProcessController.cxx' line='524' column='1' visibility='default' binding='global' size-in-bits='64' elf-symbol-id='_ZN25vtkMultiProcessController11ProcessRMIsEv' hash='388da3fa973fde78'>
          <!-- implicit parameter of type 'vtkMultiProcessController*' -->
          <parameter type-id='type-id-596' is-artificial='yes'/>
          <!-- int -->
          <return type-id='type-id-19'/>
        </function-decl>
      </member-function>
      <member-function access='protected' destructor='yes' vtable-offset='-1'>
        <!-- vtkMultiProcessController::~vtkMultiProcessController(int) -->
        <function-decl name='~vtkMultiProcessController' filepath='/tmp/legendre/spack-stage/spack-stage-R_crTC/VTK-6.1.0/Parallel/Core/vtkMultiProcessController.cxx' line='112' column='1' visibility='default' binding='global' size-in-bits='64' hash='388da3fa973fde78'>
          <!-- implicit parameter of type 'vtkMultiProcessController*' -->
          <parameter type-id='type-id-596' is-artificial='yes'/>
          <!-- parameter of type 'int' -->
          <parameter type-id='type-id-19' filepath='/tmp/legendre/spack-stage/spack-stage-R_crTC/VTK-6.1.0/Parallel/Core/vtkMultiProcessController.h' line='280' column='1'/>
          <!-- void -->
          <return type-id='type-id-14'/>
        </function-decl>
      </member-function>
      <member-function access='protected' destructor='yes' vtable-offset='-1'>
        <!-- vtkMultiProcessController::~vtkMultiProcessController() -->
        <function-decl name='~vtkMultiProcessController' mangled-name='_ZN25vtkMultiProcessControllerD0Ev' filepath='/tmp/legendre/spack-stage/spack-stage-R_crTC/VTK-6.1.0/Parallel/Core/vtkMultiProcessController.cxx' line='112' column='1' visibility='default' binding='global' size-in-bits='64' elf-symbol-id='_ZN25vtkMultiProcessControllerD0Ev' hash='7f32ffea222edbe7'>
          <!-- implicit parameter of type 'vtkMultiProcessController*' -->
          <parameter type-id='type-id-596' is-artificial='yes'/>
          <!-- void -->
          <return type-id='type-id-14'/>
        </function-decl>
      </member-function>
      <member-function access='protected' destructor='yes' vtable-offset='-1'>
        <!-- vtkMultiProcessController::~vtkMultiProcessController() -->
        <function-decl name='~vtkMultiProcessController' mangled-name='_ZN25vtkMultiProcessControllerD1Ev' filepath='/tmp/legendre/spack-stage/spack-stage-R_crTC/VTK-6.1.0/Parallel/Core/vtkMultiProcessController.cxx' line='112' column='1' visibility='default' binding='global' size-in-bits='64' elf-symbol-id='_ZN25vtkMultiProcessControllerD1Ev' hash='7f32ffea222edbe7'>
          <!-- implicit parameter of type 'vtkMultiProcessController*' -->
          <parameter type-id='type-id-596' is-artificial='yes'/>
          <!-- void -->
          <return type-id='type-id-14'/>
        </function-decl>
      </member-function>
      <member-function access='private' const='yes' vtable-offset='0'>
        <!-- const char* vtkMultiProcessController::GetClassNameInternal() -->
        <function-decl name='GetClassNameInternal' mangled-name='_ZNK25vtkMultiProcessController20GetClassNameInternalEv' filepath='/tmp/legendre/spack-stage/spack-stage-R_crTC/VTK-6.1.0/Parallel/Core/vtkMultiProcessController.h' line='65' column='1' visibility='default' binding='global' size-in-bits='64' hash='53885bde0aa65efe'>
          <!-- implicit parameter of type 'const vtkMultiProcessController*' -->
          <parameter type-id='type-id-632' is-artificial='yes'/>
          <!-- const char* -->
          <return type-id='type-id-33'/>
        </function-decl>
      </member-function>
      <member-function access='public' vtable-offset='1'>
        <!-- int vtkMultiProcessController::IsA(const char*) -->
        <function-decl name='IsA' mangled-name='_ZN25vtkMultiProcessController3IsAEPKc' filepath='/tmp/legendre/spack-stage/spack-stage-R_crTC/VTK-6.1.0/Parallel/Core/vtkMultiProcessController.h' line='65' column='1' visibility='default' binding='global' size-in-bits='64' hash='e9ea91a7eab8302c'>
          <!-- implicit parameter of type 'vtkMultiProcessController*' -->
          <parameter type-id='type-id-596' is-artificial='yes'/>
          <!-- parameter of type 'const char*' -->
          <parameter type-id='type-id-33'/>
          <!-- int -->
          <return type-id='type-id-19'/>
        </function-decl>
      </member-function>
      <member-function access='public' vtable-offset='4'>
        <!-- void vtkMultiProcessController::PrintSelf(std::ostream&, vtkIndent) -->
        <function-decl name='PrintSelf' mangled-name='_ZN25vtkMultiProcessController9PrintSelfERSo9vtkIndent' filepath='/tmp/legendre/spack-stage/spack-stage-R_crTC/VTK-6.1.0/Parallel/Core/vtkMultiProcessController.cxx' line='130' column='1' visibility='default' binding='global' size-in-bits='64' elf-symbol-id='_ZN25vtkMultiProcessController9PrintSelfERSo9vtkIndent' hash='7f32ffea222edbe7'>
          <!-- implicit parameter of type 'vtkMultiProcessController*' -->
          <parameter type-id='type-id-596' is-artificial='yes'/>
          <!-- parameter of type 'std::ostream&' -->
          <parameter type-id='type-id-34'/>
          <!-- parameter of type 'class vtkIndent' -->
          <parameter type-id='type-id-35'/>
          <!-- void -->
          <return type-id='type-id-14'/>
        </function-decl>
      </member-function>
      <member-function access='protected' const='yes' vtable-offset='15'>
        <!-- vtkObjectBase* vtkMultiProcessController::NewInstanceInternal() -->
        <function-decl name='NewInstanceInternal' mangled-name='_ZNK25vtkMultiProcessController19NewInstanceInternalEv' filepath='/tmp/legendre/spack-stage/spack-stage-R_crTC/VTK-6.1.0/Parallel/Core/vtkMultiProcessController.h' line='65' column='1' visibility='default' binding='global' size-in-bits='64' hash='7f32ffea222edbe7'>
          <!-- implicit parameter of type 'const vtkMultiProcessController*' -->
          <parameter type-id='type-id-632' is-artificial='yes'/>
          <!-- vtkObjectBase* -->
          <return type-id='type-id-633'/>
        </function-decl>
      </member-function>
      <member-function access='public' vtable-offset='20'>
        <!-- void vtkMultiProcessController::Initialize(int*, char***) -->
        <function-decl name='Initialize' mangled-name='_ZN25vtkMultiProcessController10InitializeEPiPPPc' filepath='/tmp/legendre/spack-stage/spack-stage-R_crTC/VTK-6.1.0/Parallel/Core/vtkMultiProcessController.h' line='72' column='1' visibility='default' binding='global' size-in-bits='64' hash='dec8daa4b58e5f80'>
          <!-- implicit parameter of type 'vtkMultiProcessController*' -->
          <parameter type-id='type-id-596' is-artificial='yes'/>
          <!-- parameter of type 'int*' -->
          <parameter type-id='type-id-37'/>
          <!-- parameter of type 'char***' -->
          <parameter type-id='type-id-589'/>
          <!-- void -->
          <return type-id='type-id-14'/>
        </function-decl>
      </member-function>
      <member-function access='public' vtable-offset='21'>
        <!-- void vtkMultiProcessController::Initialize(int*, char***, int) -->
        <function-decl name='Initialize' mangled-name='_ZN25vtkMultiProcessController10InitializeEPiPPPci' filepath='/tmp/legendre/spack-stage/spack-stage-R_crTC/VTK-6.1.0/Parallel/Core/vtkMultiProcessController.h' line='78' column='1' visibility='default' binding='global' size-in-bits='64' hash='14796aca23119485'>
          <!-- implicit parameter of type 'vtkMultiProcessController*' -->
          <parameter type-id='type-id-596' is-artificial='yes'/>
          <!-- parameter of type 'int*' -->
          <parameter type-id='type-id-37'/>
          <!-- parameter of type 'char***' -->
          <parameter type-id='type-id-589'/>
          <!-- parameter of type 'int' -->
          <parameter type-id='type-id-19'/>
          <!-- void -->
          <return type-id='type-id-14'/>
        </function-decl>
      </member-function>
      <member-function access='public' vtable-offset='22'>
        <!-- void vtkMultiProcessController::Finalize() -->
        <function-decl name='Finalize' mangled-name='_ZN25vtkMultiProcessController8FinalizeEv' filepath='/tmp/legendre/spack-stage/spack-stage-R_crTC/VTK-6.1.0/Parallel/Core/vtkMultiProcessController.h' line='85' column='1' visibility='default' binding='global' size-in-bits='64' hash='7f32ffea222edbe7'>
          <!-- implicit parameter of type 'vtkMultiProcessController*' -->
          <parameter type-id='type-id-596' is-artificial='yes'/>
          <!-- void -->
          <return type-id='type-id-14'/>
        </function-decl>
      </member-function>
      <member-function access='public' vtable-offset='23'>
        <!-- void vtkMultiProcessController::Finalize(int) -->
        <function-decl name='Finalize' mangled-name='_ZN25vtkMultiProcessController8FinalizeEi' filepath='/tmp/legendre/spack-stage/spack-stage-R_crTC/VTK-6.1.0/Parallel/Core/vtkMultiProcessController.h' line='91' column='1' visibility='default' binding='global' size-in-bits='64' hash='388da3fa973fde78'>
          <!-- implicit parameter of type 'vtkMultiProcessController*' -->
          <parameter type-id='type-id-596' is-artificial='yes'/>
          <!-- parameter of type 'int' -->
          <parameter type-id='type-id-19' filepath='/tmp/legendre/spack-stage/spack-stage-R_crTC/VTK-6.1.0/Parallel/Core/vtkMultiProcessController.h' line='280' column='1'/>
          <!-- void -->
          <return type-id='type-id-14'/>
        </function-decl>
      </member-function>
      <member-function access='public' vtable-offset='24'>
        <!-- void vtkMultiProcessController::SingleMethodExecute() -->
        <function-decl name='SingleMethodExecute' mangled-name='_ZN25vtkMultiProcessController19SingleMethodExecuteEv' filepath='/tmp/legendre/spack-stage/spack-stage-R_crTC/VTK-6.1.0/Parallel/Core/vtkMultiProcessController.h' line='119' column='1' visibility='default' binding='global' size-in-bits='64' hash='7f32ffea222edbe7'>
          <!-- implicit parameter of type 'vtkMultiProcessController*' -->
          <parameter type-id='type-id-596' is-artificial='yes'/>
          <!-- void -->
          <return type-id='type-id-14'/>
        </function-decl>
      </member-function>
      <member-function access='public' vtable-offset='25'>
        <!-- void vtkMultiProcessController::MultipleMethodExecute() -->
        <function-decl name='MultipleMethodExecute' mangled-name='_ZN25vtkMultiProcessController21MultipleMethodExecuteEv' filepath='/tmp/legendre/spack-stage/spack-stage-R_crTC/VTK-6.1.0/Parallel/Core/vtkMultiProcessController.h' line='134' column='1' visibility='default' binding='global' size-in-bits='64' hash='7f32ffea222edbe7'>
          <!-- implicit parameter of type 'vtkMultiProcessController*' -->
          <parameter type-id='type-id-596' is-artificial='yes'/>
          <!-- void -->
          <return type-id='type-id-14'/>
        </function-decl>
      </member-function>
      <member-function access='public' vtable-offset='26'>
        <!-- void vtkMultiProcessController::CreateOutputWindow() -->
        <function-decl name='CreateOutputWindow' mangled-name='_ZN25vtkMultiProcessController18CreateOutputWindowEv' filepath='/tmp/legendre/spack-stage/spack-stage-R_crTC/VTK-6.1.0/Parallel/Core/vtkMultiProcessController.h' line='151' column='1' visibility='default' binding='global' size-in-bits='64' hash='7f32ffea222edbe7'>
          <!-- implicit parameter of type 'vtkMultiProcessController*' -->
          <parameter type-id='type-id-596' is-artificial='yes'/>
          <!-- void -->
          <return type-id='type-id-14'/>
        </function-decl>
      </member-function>
      <member-function access='public' vtable-offset='27'>
        <!-- vtkMultiProcessController* vtkMultiProcessController::CreateSubController(vtkProcessGroup*) -->
        <function-decl name='CreateSubController' mangled-name='_ZN25vtkMultiProcessController19CreateSubControllerEP15vtkProcessGroup' filepath='/tmp/legendre/spack-stage/spack-stage-R_crTC/VTK-6.1.0/Parallel/Core/vtkMultiProcessController.cxx' line='266' column='1' visibility='default' binding='global' size-in-bits='64' elf-symbol-id='_ZN25vtkMultiProcessController19CreateSubControllerEP15vtkProcessGroup' hash='1a1e98d8ab3bf17b'>
          <!-- implicit parameter of type 'vtkMultiProcessController*' -->
          <parameter type-id='type-id-596' is-artificial='yes'/>
          <!-- parameter of type 'vtkProcessGroup*' -->
          <parameter type-id='type-id-634'/>
          <!-- vtkMultiProcessController* -->
          <return type-id='type-id-596'/>
        </function-decl>
      </member-function>
      <member-function access='public' vtable-offset='28'>
        <!-- vtkMultiProcessController* vtkMultiProcessController::PartitionController(int, int) -->
        <function-decl name='PartitionController' mangled-name='_ZN25vtkMultiProcessController19PartitionControllerEii' filepath='/tmp/legendre/spack-stage/spack-stage-R_crTC/VTK-6.1.0/Parallel/Core/vtkMultiProcessController.cxx' line='298' column='1' visibility='default' binding='global' size-in-bits='64' elf-symbol-id='_ZN25vtkMultiProcessController19PartitionControllerEii' hash='60782addc7376d11'>
          <!-- implicit parameter of type 'vtkMultiProcessController*' -->
          <parameter type-id='type-id-596' is-artificial='yes'/>
          <!-- parameter of type 'int' -->
          <parameter type-id='type-id-19'/>
          <!-- parameter of type 'int' -->
          <parameter type-id='type-id-19'/>
          <!-- vtkMultiProcessController* -->
          <return type-id='type-id-596'/>
        </function-decl>
      </member-function>
      <member-function access='public' vtable-offset='29'>
        <!-- unsigned long int vtkMultiProcessController::AddRMI(vtkRMIFunctionType, void*, int) -->
        <function-decl name='AddRMI' mangled-name='_ZN25vtkMultiProcessController6AddRMIEPFvPvS0_iiES0_i' filepath='/tmp/legendre/spack-stage/spack-stage-R_crTC/VTK-6.1.0/Parallel/Core/vtkMultiProcessController.cxx' line='418' column='1' visibility='default' binding='global' size-in-bits='64' elf-symbol-id='_ZN25vtkMultiProcessController6AddRMIEPFvPvS0_iiES0_i' hash='f417c443b330210b'>
          <!-- implicit parameter of type 'vtkMultiProcessController*' -->
          <parameter type-id='type-id-596' is-artificial='yes'/>
          <!-- parameter of type 'typedef vtkRMIFunctionType' -->
          <parameter type-id='type-id-591'/>
          <!-- parameter of type 'void*' -->
          <parameter type-id='type-id-20'/>
          <!-- parameter of type 'int' -->
          <parameter type-id='type-id-19'/>
          <!-- unsigned long int -->
          <return type-id='type-id-4'/>
        </function-decl>
      </member-function>
      <member-function access='public' vtable-offset='30'>
        <!-- int vtkMultiProcessController::RemoveFirstRMI(int) -->
        <function-decl name='RemoveFirstRMI' mangled-name='_ZN25vtkMultiProcessController14RemoveFirstRMIEi' filepath='/tmp/legendre/spack-stage/spack-stage-R_crTC/VTK-6.1.0/Parallel/Core/vtkMultiProcessController.cxx' line='396' column='1' visibility='default' binding='global' size-in-bits='64' elf-symbol-id='_ZN25vtkMultiProcessController14RemoveFirstRMIEi' hash='d628501fd2223339'>
          <!-- implicit parameter of type 'vtkMultiProcessController*' -->
          <parameter type-id='type-id-596' is-artificial='yes'/>
          <!-- parameter of type 'int' -->
          <parameter type-id='type-id-19'/>
          <!-- int -->
          <return type-id='type-id-19'/>
        </function-decl>
      </member-function>
      <member-function access='public' vtable-offset='31'>
        <!-- int vtkMultiProcessController::RemoveRMI(unsigned long int) -->
        <function-decl name='RemoveRMI' mangled-name='_ZN25vtkMultiProcessController9RemoveRMIEm' filepath='/tmp/legendre/spack-stage/spack-stage-R_crTC/VTK-6.1.0/Parallel/Core/vtkMultiProcessController.cxx' line='412' column='1' visibility='default' binding='global' size-in-bits='64' elf-symbol-id='_ZN25vtkMultiProcessController9RemoveRMIEm' hash='b6a97d07f8261bc0'>
          <!-- implicit parameter of type 'vtkMultiProcessController*' -->
          <parameter type-id='type-id-596' is-artificial='yes'/>
          <!-- parameter of type 'unsigned long int' -->
          <parameter type-id='type-id-4'/>
          <!-- int -->
          <return type-id='type-id-19'/>
        </function-decl>
      </member-function>
      <member-function access='public' vtable-offset='32'>
        <!-- void vtkMultiProcessController::RemoveRMI(vtkRMIFunctionType, void*, int) -->
        <function-decl name='RemoveRMI' mangled-name='_ZN25vtkMultiProcessController9RemoveRMIEPFvPvS0_iiES0_i' filepath='/tmp/legendre/spack-stage/spack-stage-R_crTC/VTK-6.1.0/Parallel/Core/vtkMultiProcessController.h' line='204' column='1' visibility='default' binding='global' size-in-bits='64' hash='d02a6a6992cdb2ae'>
          <!-- implicit parameter of type 'vtkMultiProcessController*' -->
          <parameter type-id='type-id-596' is-artificial='yes'/>
          <!-- parameter of type 'typedef vtkRMIFunctionType' -->
          <parameter type-id='type-id-591' filepath='/tmp/legendre/spack-stage/spack-stage-R_crTC/VTK-6.1.0/Parallel/Core/vtkMultiProcessController.h' line='204' column='1'/>
          <!-- parameter of type 'void*' -->
          <parameter type-id='type-id-20' filepath='/tmp/legendre/spack-stage/spack-stage-R_crTC/VTK-6.1.0/Parallel/Core/vtkMultiProcessController.h' line='204' column='1'/>
          <!-- parameter of type 'int' -->
          <parameter type-id='type-id-19' filepath='/tmp/legendre/spack-stage/spack-stage-R_crTC/VTK-6.1.0/Parallel/Core/vtkMultiProcessController.h' line='204' column='1'/>
          <!-- void -->
          <return type-id='type-id-14'/>
        </function-decl>
      </member-function>
      <member-function access='public' vtable-offset='33'>
        <!-- unsigned long int vtkMultiProcessController::AddRMICallback(vtkRMIFunctionType, void*, int) -->
        <function-decl name='AddRMICallback' mangled-name='_ZN25vtkMultiProcessController14AddRMICallbackEPFvPvS0_iiES0_i' filepath='/tmp/legendre/spack-stage/spack-stage-R_crTC/VTK-6.1.0/Parallel/Core/vtkMultiProcessController.cxx' line='352' column='1' visibility='default' binding='global' size-in-bits='64' elf-symbol-id='_ZN25vtkMultiProcessController14AddRMICallbackEPFvPvS0_iiES0_i' hash='f417c443b330210b'>
          <!-- implicit parameter of type 'vtkMultiProcessController*' -->
          <parameter type-id='type-id-596' is-artificial='yes'/>
          <!-- parameter of type 'typedef vtkRMIFunctionType' -->
          <parameter type-id='type-id-591'/>
          <!-- parameter of type 'void*' -->
          <parameter type-id='type-id-20'/>
          <!-- parameter of type 'int' -->
          <parameter type-id='type-id-19'/>
          <!-- unsigned long int -->
          <return type-id='type-id-4'/>
        </function-decl>
      </member-function>
      <member-function access='public' vtable-offset='34'>
        <!-- void vtkMultiProcessController::RemoveAllRMICallbacks(int) -->
        <function-decl name='RemoveAllRMICallbacks' mangled-name='_ZN25vtkMultiProcessController21RemoveAllRMICallbacksEi' filepath='/tmp/legendre/spack-stage/spack-stage-R_crTC/VTK-6.1.0/Parallel/Core/vtkMultiProcessController.cxx' line='364' column='1' visibility='default' binding='global' size-in-bits='64' elf-symbol-id='_ZN25vtkMultiProcessController21RemoveAllRMICallbacksEi' hash='388da3fa973fde78'>
          <!-- implicit parameter of type 'vtkMultiProcessController*' -->
          <parameter type-id='type-id-596' is-artificial='yes'/>
          <!-- parameter of type 'int' -->
          <parameter type-id='type-id-19' filepath='/tmp/legendre/spack-stage/spack-stage-R_crTC/VTK-6.1.0/Parallel/Core/vtkMultiProcessController.h' line='280' column='1'/>
          <!-- void -->
          <return type-id='type-id-14'/>
        </function-decl>
      </member-function>
      <member-function access='public' vtable-offset='35'>
        <!-- bool vtkMultiProcessController::RemoveRMICallback(unsigned long int) -->
        <function-decl name='RemoveRMICallback' mangled-name='_ZN25vtkMultiProcessController17RemoveRMICallbackEm' filepath='/tmp/legendre/spack-stage/spack-stage-R_crTC/VTK-6.1.0/Parallel/Core/vtkMultiProcessController.cxx' line='375' column='1' visibility='default' binding='global' size-in-bits='64' elf-symbol-id='_ZN25vtkMultiProcessController17RemoveRMICallbackEm' hash='7e544b18f5e89a62'>
          <!-- implicit parameter of type 'vtkMultiProcessController*' -->
          <parameter type-id='type-id-596' is-artificial='yes'/>
          <!-- parameter of type 'unsigned long int' -->
          <parameter type-id='type-id-4'/>
          <!-- bool -->
          <return type-id='type-id-1'/>
        </function-decl>
      </member-function>
      <member-function access='public' vtable-offset='36'>
        <!-- void vtkMultiProcessController::SetBreakFlag(int) -->
        <function-decl name='SetBreakFlag' mangled-name='_ZN25vtkMultiProcessController12SetBreakFlagEi' filepath='/tmp/legendre/spack-stage/spack-stage-R_crTC/VTK-6.1.0/Parallel/Core/vtkMultiProcessController.h' line='280' column='1' visibility='default' binding='global' size-in-bits='64' hash='388da3fa973fde78'>
          <!-- implicit parameter of type 'vtkMultiProcessController*' -->
          <parameter type-id='type-id-596' is-artificial='yes'/>
          <!-- parameter of type 'int' -->
          <parameter type-id='type-id-19' filepath='/tmp/legendre/spack-stage/spack-stage-R_crTC/VTK-6.1.0/Parallel/Core/vtkMultiProcessController.h' line='280' column='1'/>
          <!-- void -->
          <return type-id='type-id-14'/>
        </function-decl>
      </member-function>
      <member-function access='public' vtable-offset='37'>
        <!-- int vtkMultiProcessController::GetBreakFlag() -->
        <function-decl name='GetBreakFlag' mangled-name='_ZN25vtkMultiProcessController12GetBreakFlagEv' filepath='/tmp/legendre/spack-stage/spack-stage-R_crTC/VTK-6.1.0/Parallel/Core/vtkMultiProcessController.h' line='281' column='1' visibility='default' binding='global' size-in-bits='64' hash='388da3fa973fde78'>
          <!-- implicit parameter of type 'vtkMultiProcessController*' -->
          <parameter type-id='type-id-596' is-artificial='yes'/>
          <!-- int -->
          <return type-id='type-id-19'/>
        </function-decl>
      </member-function>
      <member-function access='public' vtable-offset='38'>
        <!-- vtkCommunicator* vtkMultiProcessController::GetCommunicator() -->
        <function-decl name='GetCommunicator' mangled-name='_ZN25vtkMultiProcessController15GetCommunicatorEv' filepath='/tmp/legendre/spack-stage/spack-stage-R_crTC/VTK-6.1.0/Parallel/Core/vtkMultiProcessController.h' line='286' column='1' visibility='default' binding='global' size-in-bits='64' hash='7ccffe40723cbd51'>
          <!-- implicit parameter of type 'vtkMultiProcessController*' -->
          <parameter type-id='type-id-596' is-artificial='yes'/>
          <!-- vtkCommunicator* -->
          <return type-id='type-id-25'/>
        </function-decl>
      </member-function>
      <member-function access='protected' vtable-offset='39'>
        <!-- void vtkMultiProcessController::TriggerRMIInternal(int, void*, int, int, bool) -->
        <function-decl name='TriggerRMIInternal' mangled-name='_ZN25vtkMultiProcessController18TriggerRMIInternalEiPviib' filepath='/tmp/legendre/spack-stage/spack-stage-R_crTC/VTK-6.1.0/Parallel/Core/vtkMultiProcessController.cxx' line='460' column='1' visibility='default' binding='global' size-in-bits='64' elf-symbol-id='_ZN25vtkMultiProcessController18TriggerRMIInternalEiPviib' hash='3e082effedcd59cb'>
          <!-- implicit parameter of type 'vtkMultiProcessController*' -->
          <parameter type-id='type-id-596' is-artificial='yes'/>
          <!-- parameter of type 'int' -->
          <parameter type-id='type-id-19'/>
          <!-- parameter of type 'void*' -->
          <parameter type-id='type-id-20'/>
          <!-- parameter of type 'int' -->
          <parameter type-id='type-id-19'/>
          <!-- parameter of type 'int' -->
          <parameter type-id='type-id-19'/>
          <!-- parameter of type 'bool' -->
          <parameter type-id='type-id-1'/>
          <!-- void -->
          <return type-id='type-id-14'/>
        </function-decl>
      </member-function>
      <member-function access='protected' vtable-offset='40'>
        <!-- vtkMultiProcessController* vtkMultiProcessController::GetLocalController() -->
        <function-decl name='GetLocalController' mangled-name='_ZN25vtkMultiProcessController18GetLocalControllerEv' filepath='/tmp/legendre/spack-stage/spack-stage-R_crTC/VTK-6.1.0/Parallel/Core/vtkMultiProcessController.cxx' line='669' column='1' visibility='default' binding='global' size-in-bits='64' elf-symbol-id='_ZN25vtkMultiProcessController18GetLocalControllerEv' hash='f0170451fafc8626#2'>
          <!-- implicit parameter of type 'vtkMultiProcessController*' -->
          <parameter type-id='type-id-596' is-artificial='yes'/>
          <!-- vtkMultiProcessController* -->
          <return type-id='type-id-596'/>
        </function-decl>
      </member-function>
    </class-decl>
    <!-- vtkObjectBase* -->
    <pointer-type-def type-id='type-id-600' size-in-bits='64' id='type-id-588'/>
    <!-- vtkObjectBase* const -->
    <qualified-type-def type-id='type-id-588' const='yes' id='type-id-635'/>
    <!-- void (void*, void*, int, int) -->
    <function-type size-in-bits='64' hash='d628501fd2223339' id='type-id-594'>
      <!-- parameter of type 'void*' -->
      <parameter type-id='type-id-20'/>
      <!-- parameter of type 'void*' -->
      <parameter type-id='type-id-20'/>
      <!-- parameter of type 'int' -->
      <parameter type-id='type-id-19'/>
      <!-- parameter of type 'int' -->
      <parameter type-id='type-id-19'/>
      <!-- void -->
      <return type-id='type-id-14'/>
    </function-type>
    <!-- bool (vtkMultiProcessController::*) (unsigned long int) -->
    <function-type method-class-id='type-id-585' size-in-bits='64' hash='7e544b18f5e89a62' id='type-id-636'>
      <!-- implicit parameter of type 'vtkMultiProcessController*' -->
      <parameter type-id='type-id-596' is-artificial='yes'/>
      <!-- parameter of type 'unsigned long int' -->
      <parameter type-id='type-id-4'/>
      <!-- bool -->
      <return type-id='type-id-1'/>
    </function-type>
    <!-- const char* (vtkMultiProcessController::*) () -->
    <function-type method-class-id='type-id-585' const='yes' size-in-bits='64' hash='53885bde0aa65efe' id='type-id-637'>
      <!-- implicit parameter of type 'const vtkMultiProcessController*' -->
      <parameter type-id='type-id-632' is-artificial='yes'/>
      <!-- const char* -->
      <return type-id='type-id-33'/>
    </function-type>
    <!-- int (vtkMultiProcessController::*) () -->
    <function-type method-class-id='type-id-585' size-in-bits='64' hash='388da3fa973fde78' id='type-id-638'>
      <!-- implicit parameter of type 'vtkMultiProcessController*' -->
      <parameter type-id='type-id-596' is-artificial='yes'/>
      <!-- int -->
      <return type-id='type-id-19'/>
    </function-type>
    <!-- int (vtkMultiProcessController::*) (const char*) -->
    <function-type method-class-id='type-id-585' size-in-bits='64' hash='e9ea91a7eab8302c' id='type-id-639'>
      <!-- implicit parameter of type 'vtkMultiProcessController*' -->
      <parameter type-id='type-id-596' is-artificial='yes'/>
      <!-- parameter of type 'const char*' -->
      <parameter type-id='type-id-33'/>
      <!-- int -->
      <return type-id='type-id-19'/>
    </function-type>
    <!-- int (vtkMultiProcessController::*) (int) -->
    <function-type method-class-id='type-id-585' size-in-bits='64' hash='d628501fd2223339' id='type-id-640'>
      <!-- implicit parameter of type 'vtkMultiProcessController*' -->
      <parameter type-id='type-id-596' is-artificial='yes'/>
      <!-- parameter of type 'int' -->
      <parameter type-id='type-id-19'/>
      <!-- int -->
      <return type-id='type-id-19'/>
    </function-type>
    <!-- int (vtkMultiProcessController::*) (int, int) -->
    <function-type method-class-id='type-id-585' size-in-bits='64' hash='a9fd86e6e981c3b5' id='type-id-641'>
      <!-- implicit parameter of type 'vtkMultiProcessController*' -->
      <parameter type-id='type-id-596' is-artificial='yes'/>
      <!-- parameter of type 'int' -->
      <parameter type-id='type-id-19' filepath='/tmp/legendre/spack-stage/spack-stage-R_crTC/VTK-6.1.0/Parallel/Core/vtkMultiProcessController.cxx' line='530' column='1'/>
      <!-- parameter of type 'int' -->
      <parameter type-id='type-id-19' filepath='/tmp/legendre/spack-stage/spack-stage-R_crTC/VTK-6.1.0/Parallel/Core/vtkMultiProcessController.cxx' line='530' column='1'/>
      <!-- int -->
      <return type-id='type-id-19'/>
    </function-type>
    <!-- int (vtkMultiProcessController::*) (unsigned long int) -->
    <function-type method-class-id='type-id-585' size-in-bits='64' hash='b6a97d07f8261bc0' id='type-id-642'>
      <!-- implicit parameter of type 'vtkMultiProcessController*' -->
      <parameter type-id='type-id-596' is-artificial='yes'/>
      <!-- parameter of type 'unsigned long int' -->
      <parameter type-id='type-id-4'/>
      <!-- int -->
      <return type-id='type-id-19'/>
    </function-type>
    <!-- unsigned long int (vtkMultiProcessController::*) (vtkRMIFunctionType, void*, int) -->
    <function-type method-class-id='type-id-585' size-in-bits='64' hash='f417c443b330210b' id='type-id-643'>
      <!-- implicit parameter of type 'vtkMultiProcessController*' -->
      <parameter type-id='type-id-596' is-artificial='yes'/>
      <!-- parameter of type 'typedef vtkRMIFunctionType' -->
      <parameter type-id='type-id-591'/>
      <!-- parameter of type 'void*' -->
      <parameter type-id='type-id-20'/>
      <!-- parameter of type 'int' -->
      <parameter type-id='type-id-19'/>
      <!-- unsigned long int -->
      <return type-id='type-id-4'/>
    </function-type>
    <!-- void (vtkMultiProcessController::*) () -->
    <function-type method-class-id='type-id-585' size-in-bits='64' hash='7f32ffea222edbe7' id='type-id-644'>
      <!-- implicit parameter of type 'vtkMultiProcessController*' -->
      <parameter type-id='type-id-596' is-artificial='yes'/>
      <!-- void -->
      <return type-id='type-id-14'/>
    </function-type>
    <!-- void (vtkMultiProcessController::*) (int) -->
    <function-type method-class-id='type-id-585' size-in-bits='64' hash='388da3fa973fde78' id='type-id-645'>
      <!-- implicit parameter of type 'vtkMultiProcessController*' -->
      <parameter type-id='type-id-596' is-artificial='yes'/>
      <!-- parameter of type 'int' -->
      <parameter type-id='type-id-19' filepath='/tmp/legendre/spack-stage/spack-stage-R_crTC/VTK-6.1.0/Parallel/Core/vtkMultiProcessController.h' line='280' column='1'/>
      <!-- void -->
      <return type-id='type-id-14'/>
    </function-type>
    <!-- void (vtkMultiProcessController::*) (int*, char***) -->
    <function-type method-class-id='type-id-585' size-in-bits='64' hash='dec8daa4b58e5f80' id='type-id-646'>
      <!-- implicit parameter of type 'vtkMultiProcessController*' -->
      <parameter type-id='type-id-596' is-artificial='yes'/>
      <!-- parameter of type 'int*' -->
      <parameter type-id='type-id-37'/>
      <!-- parameter of type 'char***' -->
      <parameter type-id='type-id-589'/>
      <!-- void -->
      <return type-id='type-id-14'/>
    </function-type>
    <!-- void (vtkMultiProcessController::*) (int*, char***, int) -->
    <function-type method-class-id='type-id-585' size-in-bits='64' hash='14796aca23119485' id='type-id-647'>
      <!-- implicit parameter of type 'vtkMultiProcessController*' -->
      <parameter type-id='type-id-596' is-artificial='yes'/>
      <!-- parameter of type 'int*' -->
      <parameter type-id='type-id-37'/>
      <!-- parameter of type 'char***' -->
      <parameter type-id='type-id-589'/>
      <!-- parameter of type 'int' -->
      <parameter type-id='type-id-19'/>
      <!-- void -->
