<abi-corpus version='2.4'>
  <elf-needed>
    <dependency name='build/debug/third_party/boost-1.56.0/libboost_system.so'/>
    <dependency name='libm.so.6'/>
    <dependency name='librt.so.1'/>
    <dependency name='libdl.so.2'/>
    <dependency name='libstdc++.so.6'/>
    <dependency name='libgcc_s.so.1'/>
    <dependency name='libpthread.so.0'/>
    <dependency name='libc.so.6'/>
  </elf-needed>
  <elf-function-symbols>
    <elf-symbol name='_ZN5boost10filesystem10is_symlinkENS0_11file_statusE' type='func-type' binding='weak-binding' visibility='default-visibility' is-defined='yes'/>
    <elf-symbol name='_ZN5boost10filesystem11file_statusC2ENS0_9file_typeENS0_5permsE' type='func-type' binding='weak-binding' visibility='default-visibility' is-defined='yes'/>
    <elf-symbol name='_ZN5boost10filesystem11file_statusC2Ev' type='func-type' binding='weak-binding' visibility='default-visibility' is-defined='yes'/>
    <elf-symbol name='_ZN5boost10filesystem11path_traits7convertEPKcRSsRKSt7codecvtIwc11__mbstate_tE' type='func-type' binding='weak-binding' visibility='default-visibility' is-defined='yes'/>
    <elf-symbol name='_ZN5boost10filesystem11path_traits7convertEPKcS3_RSbIwSt11char_traitsIwESaIwEERKSt7codecvtIwc11__mbstate_tE' type='func-type' binding='global-binding' visibility='default-visibility' is-defined='yes'/>
    <elf-symbol name='_ZN5boost10filesystem11path_traits7convertEPKcS3_RSsRKSt7codecvtIwc11__mbstate_tE' type='func-type' binding='weak-binding' visibility='default-visibility' is-defined='yes'/>
    <elf-symbol name='_ZN5boost10filesystem11path_traits7convertEPKwS3_RSsRKSt7codecvtIwc11__mbstate_tE' type='func-type' binding='global-binding' visibility='default-visibility' is-defined='yes'/>
    <elf-symbol name='_ZN5boost10filesystem11path_traits8dispatchERKNS0_15directory_entryERSsRKSt7codecvtIwc11__mbstate_tE' type='func-type' binding='global-binding' visibility='default-visibility' is-defined='yes'/>
    <elf-symbol name='_ZN5boost10filesystem11path_traits8dispatchISsEEvRKSbIwSt11char_traitsIwESaIwEERT_RKSt7codecvtIwc11__mbstate_tE' type='func-type' binding='weak-binding' visibility='default-visibility' is-defined='yes'/>
    <elf-symbol name='_ZN5boost10filesystem11path_traits8dispatchISsEEvRKSsRT_RKSt7codecvtIwc11__mbstate_tE' type='func-type' binding='weak-binding' visibility='default-visibility' is-defined='yes'/>
    <elf-symbol name='_ZN5boost10filesystem11path_traits8dispatchIcSsEEvRKPT_RT0_RKSt7codecvtIwc11__mbstate_tE' type='func-type' binding='weak-binding' visibility='default-visibility' is-defined='yes'/>
    <elf-symbol name='_ZN5boost10filesystem12copy_symlinkERKNS0_4pathES3_RNS_6system10error_codeE' type='func-type' binding='weak-binding' visibility='default-visibility' is-defined='yes'/>
    <elf-symbol name='_ZN5boost10filesystem12current_pathEv' type='func-type' binding='weak-binding' visibility='default-visibility' is-defined='yes'/>
    <elf-symbol name='_ZN5boost10filesystem12is_directoryENS0_11file_statusE' type='func-type' binding='weak-binding' visibility='default-visibility' is-defined='yes'/>
    <elf-symbol name='_ZN5boost10filesystem12is_directoryERKNS0_4pathE' type='func-type' binding='weak-binding' visibility='default-visibility' is-defined='yes'/>
    <elf-symbol name='_ZN5boost10filesystem12is_directoryERKNS0_4pathERNS_6system10error_codeE' type='func-type' binding='weak-binding' visibility='default-visibility' is-defined='yes'/>
    <elf-symbol name='_ZN5boost10filesystem12status_knownENS0_11file_statusE' type='func-type' binding='weak-binding' visibility='default-visibility' is-defined='yes'/>
    <elf-symbol name='_ZN5boost10filesystem12type_presentENS0_11file_statusE' type='func-type' binding='weak-binding' visibility='default-visibility' is-defined='yes'/>
    <elf-symbol name='_ZN5boost10filesystem12windows_nameERKSs' type='func-type' binding='global-binding' visibility='default-visibility' is-defined='yes'/>
    <elf-symbol name='_ZN5boost10filesystem13portable_nameERKSs' type='func-type' binding='global-binding' visibility='default-visibility' is-defined='yes'/>
    <elf-symbol name='_ZN5boost10filesystem14copy_directoryERKNS0_4pathES3_RNS_6system10error_codeE' type='func-type' binding='weak-binding' visibility='default-visibility' is-defined='yes'/>
    <elf-symbol name='_ZN5boost10filesystem14symlink_statusERKNS0_4pathERNS_6system10error_codeE' type='func-type' binding='weak-binding' visibility='default-visibility' is-defined='yes'/>
    <elf-symbol name='_ZN5boost10filesystem15directory_entry16replace_filenameERKNS0_4pathENS0_11file_statusES5_' type='func-type' binding='weak-binding' visibility='default-visibility' is-defined='yes'/>
    <elf-symbol name='_ZN5boost10filesystem15directory_entry6assignERKNS0_4pathENS0_11file_statusES5_' type='func-type' binding='weak-binding' visibility='default-visibility' is-defined='yes'/>
    <elf-symbol name='_ZN5boost10filesystem15directory_entryC2Ev' type='func-type' binding='weak-binding' visibility='default-visibility' is-defined='yes'/>
    <elf-symbol name='_ZN5boost10filesystem15directory_entryD2Ev' type='func-type' binding='weak-binding' visibility='default-visibility' is-defined='yes'/>
    <elf-symbol name='_ZN5boost10filesystem15is_regular_fileENS0_11file_statusE' type='func-type' binding='weak-binding' visibility='default-visibility' is-defined='yes'/>
    <elf-symbol name='_ZN5boost10filesystem16filesystem_error5m_impC2Ev' type='func-type' binding='weak-binding' visibility='default-visibility' is-defined='yes'/>
    <elf-symbol name='_ZN5boost10filesystem16filesystem_error5m_impD2Ev' type='func-type' binding='weak-binding' visibility='default-visibility' is-defined='yes'/>
    <elf-symbol name='_ZN5boost10filesystem16filesystem_errorC2ERKSsNS_6system10error_codeE' type='func-type' binding='weak-binding' visibility='default-visibility' is-defined='yes'/>
    <elf-symbol name='_ZN5boost10filesystem16filesystem_errorC2ERKSsRKNS0_4pathENS_6system10error_codeE' type='func-type' binding='weak-binding' visibility='default-visibility' is-defined='yes'/>
    <elf-symbol name='_ZN5boost10filesystem16filesystem_errorC2ERKSsRKNS0_4pathES6_NS_6system10error_codeE' type='func-type' binding='weak-binding' visibility='default-visibility' is-defined='yes'/>
    <elf-symbol name='_ZN5boost10filesystem16filesystem_errorD0Ev' type='func-type' binding='weak-binding' visibility='default-visibility' is-defined='yes'/>
    <elf-symbol name='_ZN5boost10filesystem16filesystem_errorD2Ev' type='func-type' binding='weak-binding' visibility='default-visibility' is-defined='yes'/>
    <elf-symbol name='_ZN5boost10filesystem18create_directoriesERKNS0_4pathERNS_6system10error_codeE' type='func-type' binding='weak-binding' visibility='default-visibility' is-defined='yes'/>
    <elf-symbol name='_ZN5boost10filesystem18directory_iterator9incrementERNS_6system10error_codeE' type='func-type' binding='weak-binding' visibility='default-visibility' is-defined='yes'/>
    <elf-symbol name='_ZN5boost10filesystem18directory_iterator9incrementEv' type='func-type' binding='weak-binding' visibility='default-visibility' is-defined='yes'/>
    <elf-symbol name='_ZN5boost10filesystem18directory_iteratorC2ERKNS0_4pathE' type='func-type' binding='weak-binding' visibility='default-visibility' is-defined='yes'/>
    <elf-symbol name='_ZN5boost10filesystem18directory_iteratorC2Ev' type='func-type' binding='weak-binding' visibility='default-visibility' is-defined='yes'/>
    <elf-symbol name='_ZN5boost10filesystem18directory_iteratorD2Ev' type='func-type' binding='weak-binding' visibility='default-visibility' is-defined='yes'/>
    <elf-symbol name='_ZN5boost10filesystem18portable_file_nameERKSs' type='func-type' binding='global-binding' visibility='default-visibility' is-defined='yes'/>
    <elf-symbol name='_ZN5boost10filesystem19permissions_presentENS0_11file_statusE' type='func-type' binding='weak-binding' visibility='default-visibility' is-defined='yes'/>
    <elf-symbol name='_ZN5boost10filesystem19portable_posix_nameERKSs' type='func-type' binding='global-binding' visibility='default-visibility' is-defined='yes'/>
    <elf-symbol name='_ZN5boost10filesystem22codecvt_error_categoryEv' type='func-type' binding='global-binding' visibility='default-visibility' is-defined='yes'/>
    <elf-symbol name='_ZN5boost10filesystem23portable_directory_nameERKSs' type='func-type' binding='global-binding' visibility='default-visibility' is-defined='yes'/>
    <elf-symbol name='_ZN5boost10filesystem4path11m_normalizeEv' type='func-type' binding='global-binding' visibility='default-visibility' is-defined='yes'/>
    <elf-symbol name='_ZN5boost10filesystem4path15remove_filenameEv' type='func-type' binding='global-binding' visibility='default-visibility' is-defined='yes'/>
    <elf-symbol name='_ZN5boost10filesystem4path17replace_extensionERKS1_' type='func-type' binding='global-binding' visibility='default-visibility' is-defined='yes'/>
    <elf-symbol name='_ZN5boost10filesystem4path25m_path_iterator_decrementERNS1_8iteratorE' type='func-type' binding='global-binding' visibility='default-visibility' is-defined='yes'/>
    <elf-symbol name='_ZN5boost10filesystem4path25m_path_iterator_incrementERNS1_8iteratorE' type='func-type' binding='global-binding' visibility='default-visibility' is-defined='yes'/>
    <elf-symbol name='_ZN5boost10filesystem4path27m_erase_redundant_separatorEm' type='func-type' binding='global-binding' visibility='default-visibility' is-defined='yes'/>
    <elf-symbol name='_ZN5boost10filesystem4path28m_append_separator_if_neededEv' type='func-type' binding='global-binding' visibility='default-visibility' is-defined='yes'/>
    <elf-symbol name='_ZN5boost10filesystem4path5clearEv' type='func-type' binding='weak-binding' visibility='default-visibility' is-defined='yes'/>
    <elf-symbol name='_ZN5boost10filesystem4path5imbueERKSt6locale' type='func-type' binding='global-binding' visibility='default-visibility' is-defined='yes'/>
    <elf-symbol name='_ZN5boost10filesystem4path6assignIPcEERS1_T_S5_' type='func-type' binding='weak-binding' visibility='default-visibility' is-defined='yes'/>
    <elf-symbol name='_ZN5boost10filesystem4path6assignIPcEERS1_T_S5_RKSt7codecvtIwc11__mbstate_tE' type='func-type' binding='weak-binding' visibility='default-visibility' is-defined='yes'/>
    <elf-symbol name='_ZN5boost10filesystem4path7codecvtEv' type='func-type' binding='global-binding' visibility='default-visibility' is-defined='yes'/>
    <elf-symbol name='_ZN5boost10filesystem4path8iterator9decrementEv' type='func-type' binding='weak-binding' visibility='default-visibility' is-defined='yes'/>
    <elf-symbol name='_ZN5boost10filesystem4path8iterator9incrementEv' type='func-type' binding='weak-binding' visibility='default-visibility' is-defined='yes'/>
    <elf-symbol name='_ZN5boost10filesystem4path8iteratorC2ERKS2_' type='func-type' binding='weak-binding' visibility='default-visibility' is-defined='yes'/>
    <elf-symbol name='_ZN5boost10filesystem4path8iteratorC2Ev' type='func-type' binding='weak-binding' visibility='default-visibility' is-defined='yes'/>
    <elf-symbol name='_ZN5boost10filesystem4path8iteratorD2Ev' type='func-type' binding='weak-binding' visibility='default-visibility' is-defined='yes'/>
    <elf-symbol name='_ZN5boost10filesystem4pathC2EPKc' type='func-type' binding='weak-binding' visibility='default-visibility' is-defined='yes'/>
    <elf-symbol name='_ZN5boost10filesystem4pathC2ERKS1_' type='func-type' binding='weak-binding' visibility='default-visibility' is-defined='yes'/>
    <elf-symbol name='_ZN5boost10filesystem4pathC2ERKSs' type='func-type' binding='weak-binding' visibility='default-visibility' is-defined='yes'/>
    <elf-symbol name='_ZN5boost10filesystem4pathC2Ev' type='func-type' binding='weak-binding' visibility='default-visibility' is-defined='yes'/>
    <elf-symbol name='_ZN5boost10filesystem4pathC2IPKcEET_S5_' type='func-type' binding='weak-binding' visibility='default-visibility' is-defined='yes'/>
    <elf-symbol name='_ZN5boost10filesystem4pathC2ISbIwSt11char_traitsIwESaIwEEEERKT_PNS_9enable_ifINS0_11path_traits11is_pathableINS_5decayIS7_E4typeEEEvE4typeE' type='func-type' binding='weak-binding' visibility='default-visibility' is-defined='yes'/>
    <elf-symbol name='_ZN5boost10filesystem4pathD2Ev' type='func-type' binding='weak-binding' visibility='default-visibility' is-defined='yes'/>
    <elf-symbol name='_ZN5boost10filesystem4pathaSERKS1_' type='func-type' binding='weak-binding' visibility='default-visibility' is-defined='yes'/>
    <elf-symbol name='_ZN5boost10filesystem4pathaSIPcEENS_9enable_ifINS0_11path_traits11is_pathableINS_5decayIT_E4typeEEERS1_E4typeERKS8_' type='func-type' binding='weak-binding' visibility='default-visibility' is-defined='yes'/>
    <elf-symbol name='_ZN5boost10filesystem4pathaSISsEENS_9enable_ifINS0_11path_traits11is_pathableINS_5decayIT_E4typeEEERS1_E4typeERKS7_' type='func-type' binding='weak-binding' visibility='default-visibility' is-defined='yes'/>
    <elf-symbol name='_ZN5boost10filesystem4pathdVEPKc' type='func-type' binding='global-binding' visibility='default-visibility' is-defined='yes'/>
    <elf-symbol name='_ZN5boost10filesystem4pathdVERKS1_' type='func-type' binding='global-binding' visibility='default-visibility' is-defined='yes'/>
    <elf-symbol name='_ZN5boost10filesystem6detail10equivalentERKNS0_4pathES4_PNS_6system10error_codeE' type='func-type' binding='global-binding' visibility='default-visibility' is-defined='yes'/>
    <elf-symbol name='_ZN5boost10filesystem6detail10remove_allERKNS0_4pathEPNS_6system10error_codeE' type='func-type' binding='global-binding' visibility='default-visibility' is-defined='yes'/>
    <elf-symbol name='_ZN5boost10filesystem6detail11dir_itr_impC2Ev' type='func-type' binding='weak-binding' visibility='default-visibility' is-defined='yes'/>
    <elf-symbol name='_ZN5boost10filesystem6detail11dir_itr_impD2Ev' type='func-type' binding='weak-binding' visibility='default-visibility' is-defined='yes'/>
    <elf-symbol name='_ZN5boost10filesystem6detail11lex_compareENS0_4path8iteratorES3_S3_S3_' type='func-type' binding='global-binding' visibility='default-visibility' is-defined='yes'/>
    <elf-symbol name='_ZN5boost10filesystem6detail11permissionsERKNS0_4pathENS0_5permsEPNS_6system10error_codeE' type='func-type' binding='global-binding' visibility='default-visibility' is-defined='yes'/>
    <elf-symbol name='_ZN5boost10filesystem6detail11resize_fileERKNS0_4pathEmPNS_6system10error_codeE' type='func-type' binding='global-binding' visibility='default-visibility' is-defined='yes'/>
    <elf-symbol name='_ZN5boost10filesystem6detail11unique_pathERKNS0_4pathEPNS_6system10error_codeE' type='func-type' binding='global-binding' visibility='default-visibility' is-defined='yes'/>
    <elf-symbol name='_ZN5boost10filesystem6detail12copy_symlinkERKNS0_4pathES4_PNS_6system10error_codeE' type='func-type' binding='global-binding' visibility='default-visibility' is-defined='yes'/>
    <elf-symbol name='_ZN5boost10filesystem6detail12current_pathEPNS_6system10error_codeE' type='func-type' binding='global-binding' visibility='default-visibility' is-defined='yes'/>
    <elf-symbol name='_ZN5boost10filesystem6detail12current_pathERKNS0_4pathEPNS_6system10error_codeE' type='func-type' binding='global-binding' visibility='default-visibility' is-defined='yes'/>
    <elf-symbol name='_ZN5boost10filesystem6detail12initial_pathEPNS_6system10error_codeE' type='func-type' binding='global-binding' visibility='default-visibility' is-defined='yes'/>
    <elf-symbol name='_ZN5boost10filesystem6detail12read_symlinkERKNS0_4pathEPNS_6system10error_codeE' type='func-type' binding='global-binding' visibility='default-visibility' is-defined='yes'/>
    <elf-symbol name='_ZN5boost10filesystem6detail13dir_itr_closeERPvS3_' type='func-type' binding='global-binding' visibility='default-visibility' is-defined='yes'/>
    <elf-symbol name='_ZN5boost10filesystem6detail14copy_directoryERKNS0_4pathES4_PNS_6system10error_codeE' type='func-type' binding='global-binding' visibility='default-visibility' is-defined='yes'/>
    <elf-symbol name='_ZN5boost10filesystem6detail14create_symlinkERKNS0_4pathES4_PNS_6system10error_codeE' type='func-type' binding='global-binding' visibility='default-visibility' is-defined='yes'/>
    <elf-symbol name='_ZN5boost10filesystem6detail14symlink_statusERKNS0_4pathEPNS_6system10error_codeE' type='func-type' binding='global-binding' visibility='default-visibility' is-defined='yes'/>
    <elf-symbol name='_ZN5boost10filesystem6detail15hard_link_countERKNS0_4pathEPNS_6system10error_codeE' type='func-type' binding='global-binding' visibility='default-visibility' is-defined='yes'/>
    <elf-symbol name='_ZN5boost10filesystem6detail15last_write_timeERKNS0_4pathEPNS_6system10error_codeE' type='func-type' binding='global-binding' visibility='default-visibility' is-defined='yes'/>
    <elf-symbol name='_ZN5boost10filesystem6detail15last_write_timeERKNS0_4pathElPNS_6system10error_codeE' type='func-type' binding='global-binding' visibility='default-visibility' is-defined='yes'/>
    <elf-symbol name='_ZN5boost10filesystem6detail15system_completeERKNS0_4pathEPNS_6system10error_codeE' type='func-type' binding='global-binding' visibility='default-visibility' is-defined='yes'/>
    <elf-symbol name='_ZN5boost10filesystem6detail16create_directoryERKNS0_4pathEPNS_6system10error_codeE' type='func-type' binding='global-binding' visibility='default-visibility' is-defined='yes'/>
    <elf-symbol name='_ZN5boost10filesystem6detail16create_hard_linkERKNS0_4pathES4_PNS_6system10error_codeE' type='func-type' binding='global-binding' visibility='default-visibility' is-defined='yes'/>
    <elf-symbol name='_ZN5boost10filesystem6detail18create_directoriesERKNS0_4pathEPNS_6system10error_codeE' type='func-type' binding='global-binding' visibility='default-visibility' is-defined='yes'/>
    <elf-symbol name='_ZN5boost10filesystem6detail18utf8_codecvt_facet15get_octet_countEh' type='func-type' binding='global-binding' visibility='default-visibility' is-defined='yes'/>
    <elf-symbol name='_ZN5boost10filesystem6detail18utf8_codecvt_facet20get_cont_octet_countEh' type='func-type' binding='weak-binding' visibility='default-visibility' is-defined='yes'/>
    <elf-symbol name='_ZN5boost10filesystem6detail18utf8_codecvt_facetD0Ev' type='func-type' binding='weak-binding' visibility='default-visibility' is-defined='yes'/>
    <elf-symbol name='_ZN5boost10filesystem6detail18utf8_codecvt_facetD2Ev' type='func-type' binding='weak-binding' visibility='default-visibility' is-defined='yes'/>
    <elf-symbol name='_ZN5boost10filesystem6detail19temp_directory_pathEPNS_6system10error_codeE' type='func-type' binding='global-binding' visibility='default-visibility' is-defined='yes'/>
    <elf-symbol name='_ZN5boost10filesystem6detail24create_directory_symlinkERKNS0_4pathES4_PNS_6system10error_codeE' type='func-type' binding='global-binding' visibility='default-visibility' is-defined='yes'/>
    <elf-symbol name='_ZN5boost10filesystem6detail28directory_iterator_constructERNS0_18directory_iteratorERKNS0_4pathEPNS_6system10error_codeE' type='func-type' binding='global-binding' visibility='default-visibility' is-defined='yes'/>
    <elf-symbol name='_ZN5boost10filesystem6detail28directory_iterator_incrementERNS0_18directory_iteratorEPNS_6system10error_codeE' type='func-type' binding='global-binding' visibility='default-visibility' is-defined='yes'/>
    <elf-symbol name='_ZN5boost10filesystem6detail32possible_large_file_size_supportEv' type='func-type' binding='global-binding' visibility='default-visibility' is-defined='yes'/>
    <elf-symbol name='_ZN5boost10filesystem6detail4copyERKNS0_4pathES4_PNS_6system10error_codeE' type='func-type' binding='global-binding' visibility='default-visibility' is-defined='yes'/>
    <elf-symbol name='_ZN5boost10filesystem6detail5spaceERKNS0_4pathEPNS_6system10error_codeE' type='func-type' binding='global-binding' visibility='default-visibility' is-defined='yes'/>
    <elf-symbol name='_ZN5boost10filesystem6detail6removeERKNS0_4pathEPNS_6system10error_codeE' type='func-type' binding='global-binding' visibility='default-visibility' is-defined='yes'/>
    <elf-symbol name='_ZN5boost10filesystem6detail6renameERKNS0_4pathES4_PNS_6system10error_codeE' type='func-type' binding='global-binding' visibility='default-visibility' is-defined='yes'/>
    <elf-symbol name='_ZN5boost10filesystem6detail6statusERKNS0_4pathEPNS_6system10error_codeE' type='func-type' binding='global-binding' visibility='default-visibility' is-defined='yes'/>
    <elf-symbol name='_ZN5boost10filesystem6detail8is_emptyERKNS0_4pathEPNS_6system10error_codeE' type='func-type' binding='global-binding' visibility='default-visibility' is-defined='yes'/>
    <elf-symbol name='_ZN5boost10filesystem6detail9canonicalERKNS0_4pathES4_PNS_6system10error_codeE' type='func-type' binding='global-binding' visibility='default-visibility' is-defined='yes'/>
    <elf-symbol name='_ZN5boost10filesystem6detail9copy_fileERKNS0_4pathES4_NS0_11copy_optionEPNS_6system10error_codeE' type='func-type' binding='global-binding' visibility='default-visibility' is-defined='yes'/>
    <elf-symbol name='_ZN5boost10filesystem6detail9file_sizeERKNS0_4pathEPNS_6system10error_codeE' type='func-type' binding='global-binding' visibility='default-visibility' is-defined='yes'/>
    <elf-symbol name='_ZN5boost10filesystem6detail9mode_castENS0_5permsE' type='func-type' binding='weak-binding' visibility='default-visibility' is-defined='yes'/>
    <elf-symbol name='_ZN5boost10filesystem6nativeERKSs' type='func-type' binding='global-binding' visibility='default-visibility' is-defined='yes'/>
    <elf-symbol name='_ZN5boost10filesystem6statusERKNS0_4pathERNS_6system10error_codeE' type='func-type' binding='weak-binding' visibility='default-visibility' is-defined='yes'/>
    <elf-symbol name='_ZN5boost10filesystem8absoluteERKNS0_4pathES3_' type='func-type' binding='global-binding' visibility='default-visibility' is-defined='yes'/>
    <elf-symbol name='_ZN5boost10filesystem9copy_fileERKNS0_4pathES3_NS0_11copy_optionERNS_6system10error_codeE' type='func-type' binding='weak-binding' visibility='default-visibility' is-defined='yes'/>
    <elf-symbol name='_ZN5boost10filesystemanENS0_5permsES1_' type='func-type' binding='weak-binding' visibility='default-visibility' is-defined='yes'/>
    <elf-symbol name='_ZN5boost10filesystemcoENS0_5permsE' type='func-type' binding='weak-binding' visibility='default-visibility' is-defined='yes'/>
    <elf-symbol name='_ZN5boost10filesystemdvERKNS0_4pathES3_' type='func-type' binding='weak-binding' visibility='default-visibility' is-defined='yes'/>
    <elf-symbol name='_ZN5boost10filesystemeqERKNS0_4pathES3_' type='func-type' binding='weak-binding' visibility='default-visibility' is-defined='yes'/>
    <elf-symbol name='_ZN5boost10filesystemneERKNS0_4pathES3_' type='func-type' binding='weak-binding' visibility='default-visibility' is-defined='yes'/>
    <elf-symbol name='_ZN5boost10filesystemoRERNS0_5permsES1_' type='func-type' binding='weak-binding' visibility='default-visibility' is-defined='yes'/>
    <elf-symbol name='_ZN5boost10filesystemorENS0_5permsES1_' type='func-type' binding='weak-binding' visibility='default-visibility' is-defined='yes'/>
    <elf-symbol name='_ZN5boost10shared_ptrINS_10filesystem16filesystem_error5m_impEE4swapERS4_' type='func-type' binding='weak-binding' visibility='default-visibility' is-defined='yes'/>
    <elf-symbol name='_ZN5boost10shared_ptrINS_10filesystem16filesystem_error5m_impEE5resetEv' type='func-type' binding='weak-binding' visibility='default-visibility' is-defined='yes'/>
    <elf-symbol name='_ZN5boost10shared_ptrINS_10filesystem16filesystem_error5m_impEE5resetIS3_EEvPT_' type='func-type' binding='weak-binding' visibility='default-visibility' is-defined='yes'/>
    <elf-symbol name='_ZN5boost10shared_ptrINS_10filesystem16filesystem_error5m_impEEC2Ev' type='func-type' binding='weak-binding' visibility='default-visibility' is-defined='yes'/>
    <elf-symbol name='_ZN5boost10shared_ptrINS_10filesystem16filesystem_error5m_impEEC2IS3_EEPT_' type='func-type' binding='weak-binding' visibility='default-visibility' is-defined='yes'/>
    <elf-symbol name='_ZN5boost10shared_ptrINS_10filesystem16filesystem_error5m_impEED2Ev' type='func-type' binding='weak-binding' visibility='default-visibility' is-defined='yes'/>
    <elf-symbol name='_ZN5boost10shared_ptrINS_10filesystem6detail11dir_itr_impEE4swapERS4_' type='func-type' binding='weak-binding' visibility='default-visibility' is-defined='yes'/>
    <elf-symbol name='_ZN5boost10shared_ptrINS_10filesystem6detail11dir_itr_impEE5resetEv' type='func-type' binding='weak-binding' visibility='default-visibility' is-defined='yes'/>
    <elf-symbol name='_ZN5boost10shared_ptrINS_10filesystem6detail11dir_itr_impEEC2Ev' type='func-type' binding='weak-binding' visibility='default-visibility' is-defined='yes'/>
    <elf-symbol name='_ZN5boost10shared_ptrINS_10filesystem6detail11dir_itr_impEEC2IS3_EEPT_' type='func-type' binding='weak-binding' visibility='default-visibility' is-defined='yes'/>
    <elf-symbol name='_ZN5boost10shared_ptrINS_10filesystem6detail11dir_itr_impEED2Ev' type='func-type' binding='weak-binding' visibility='default-visibility' is-defined='yes'/>
    <elf-symbol name='_ZN5boost12scoped_arrayIcEC2EPc' type='func-type' binding='weak-binding' visibility='default-visibility' is-defined='yes'/>
    <elf-symbol name='_ZN5boost12scoped_arrayIcED2Ev' type='func-type' binding='weak-binding' visibility='default-visibility' is-defined='yes'/>
    <elf-symbol name='_ZN5boost12scoped_arrayIwEC2EPw' type='func-type' binding='weak-binding' visibility='default-visibility' is-defined='yes'/>
    <elf-symbol name='_ZN5boost12scoped_arrayIwED2Ev' type='func-type' binding='weak-binding' visibility='default-visibility' is-defined='yes'/>
    <elf-symbol name='_ZN5boost14checked_deleteINS_10filesystem16filesystem_error5m_impEEEvPT_' type='func-type' binding='weak-binding' visibility='default-visibility' is-defined='yes'/>
    <elf-symbol name='_ZN5boost14checked_deleteINS_10filesystem6detail11dir_itr_impEEEvPT_' type='func-type' binding='weak-binding' visibility='default-visibility' is-defined='yes'/>
    <elf-symbol name='_ZN5boost15iterator_facadeINS_10filesystem18directory_iteratorENS1_15directory_entryENS_25single_pass_traversal_tagERS3_lE7derivedEv' type='func-type' binding='weak-binding' visibility='default-visibility' is-defined='yes'/>
    <elf-symbol name='_ZN5boost15iterator_facadeINS_10filesystem18directory_iteratorENS1_15directory_entryENS_25single_pass_traversal_tagERS3_lEppEv' type='func-type' binding='weak-binding' visibility='default-visibility' is-defined='yes'/>
    <elf-symbol name='_ZN5boost15iterator_facadeINS_10filesystem4path8iteratorEKS2_NS_27bidirectional_traversal_tagERS4_lE7derivedEv' type='func-type' binding='weak-binding' visibility='default-visibility' is-defined='yes'/>
    <elf-symbol name='_ZN5boost15iterator_facadeINS_10filesystem4path8iteratorEKS2_NS_27bidirectional_traversal_tagERS4_lEmmEi' type='func-type' binding='weak-binding' visibility='default-visibility' is-defined='yes'/>
    <elf-symbol name='_ZN5boost15iterator_facadeINS_10filesystem4path8iteratorEKS2_NS_27bidirectional_traversal_tagERS4_lEmmEv' type='func-type' binding='weak-binding' visibility='default-visibility' is-defined='yes'/>
    <elf-symbol name='_ZN5boost15iterator_facadeINS_10filesystem4path8iteratorEKS2_NS_27bidirectional_traversal_tagERS4_lEppEv' type='func-type' binding='weak-binding' visibility='default-visibility' is-defined='yes'/>
    <elf-symbol name='_ZN5boost20checked_array_deleteIcEEvPT_' type='func-type' binding='weak-binding' visibility='default-visibility' is-defined='yes'/>
    <elf-symbol name='_ZN5boost20checked_array_deleteIwEEvPT_' type='func-type' binding='weak-binding' visibility='default-visibility' is-defined='yes'/>
    <elf-symbol name='_ZN5boost20iterator_core_access11dereferenceINS_10filesystem18directory_iteratorEEENT_9referenceERKS4_' type='func-type' binding='weak-binding' visibility='default-visibility' is-defined='yes'/>
    <elf-symbol name='_ZN5boost20iterator_core_access11dereferenceINS_10filesystem4path8iteratorEEENT_9referenceERKS5_' type='func-type' binding='weak-binding' visibility='default-visibility' is-defined='yes'/>
    <elf-symbol name='_ZN5boost20iterator_core_access5equalINS_10filesystem18directory_iteratorES3_EEbRKT_RKT0_N4mpl_5bool_ILb1EEE' type='func-type' binding='weak-binding' visibility='default-visibility' is-defined='yes'/>
    <elf-symbol name='_ZN5boost20iterator_core_access5equalINS_10filesystem4path8iteratorES4_EEbRKT_RKT0_N4mpl_5bool_ILb1EEE' type='func-type' binding='weak-binding' visibility='default-visibility' is-defined='yes'/>
    <elf-symbol name='_ZN5boost20iterator_core_access9decrementINS_10filesystem4path8iteratorEEEvRT_' type='func-type' binding='weak-binding' visibility='default-visibility' is-defined='yes'/>
    <elf-symbol name='_ZN5boost20iterator_core_access9incrementINS_10filesystem18directory_iteratorEEEvRT_' type='func-type' binding='weak-binding' visibility='default-visibility' is-defined='yes'/>
    <elf-symbol name='_ZN5boost20iterator_core_access9incrementINS_10filesystem4path8iteratorEEEvRT_' type='func-type' binding='weak-binding' visibility='default-visibility' is-defined='yes'/>
    <elf-symbol name='_ZN5boost6detail12shared_count4swapERS1_' type='func-type' binding='weak-binding' visibility='default-visibility' is-defined='yes'/>
    <elf-symbol name='_ZN5boost6detail12shared_countC2Ev' type='func-type' binding='weak-binding' visibility='default-visibility' is-defined='yes'/>
    <elf-symbol name='_ZN5boost6detail12shared_countC2INS_10filesystem16filesystem_error5m_impEEEPT_' type='func-type' binding='weak-binding' visibility='default-visibility' is-defined='yes'/>
    <elf-symbol name='_ZN5boost6detail12shared_countC2INS_10filesystem6detail11dir_itr_impEEEPT_' type='func-type' binding='weak-binding' visibility='default-visibility' is-defined='yes'/>
    <elf-symbol name='_ZN5boost6detail12shared_countD2Ev' type='func-type' binding='weak-binding' visibility='default-visibility' is-defined='yes'/>
    <elf-symbol name='_ZN5boost6detail15sp_counted_base12weak_releaseEv' type='func-type' binding='weak-binding' visibility='default-visibility' is-defined='yes'/>
    <elf-symbol name='_ZN5boost6detail15sp_counted_base7destroyEv' type='func-type' binding='weak-binding' visibility='default-visibility' is-defined='yes'/>
    <elf-symbol name='_ZN5boost6detail15sp_counted_base7releaseEv' type='func-type' binding='weak-binding' visibility='default-visibility' is-defined='yes'/>
    <elf-symbol name='_ZN5boost6detail15sp_counted_baseC2Ev' type='func-type' binding='weak-binding' visibility='default-visibility' is-defined='yes'/>
    <elf-symbol name='_ZN5boost6detail15sp_counted_baseD0Ev' type='func-type' binding='weak-binding' visibility='default-visibility' is-defined='yes'/>
    <elf-symbol name='_ZN5boost6detail15sp_counted_baseD2Ev' type='func-type' binding='weak-binding' visibility='default-visibility' is-defined='yes'/>
    <elf-symbol name='_ZN5boost6detail17sp_counted_impl_pINS_10filesystem16filesystem_error5m_impEE11get_deleterERKSt9type_info' type='func-type' binding='weak-binding' visibility='default-visibility' is-defined='yes'/>
    <elf-symbol name='_ZN5boost6detail17sp_counted_impl_pINS_10filesystem16filesystem_error5m_impEE19get_untyped_deleterEv' type='func-type' binding='weak-binding' visibility='default-visibility' is-defined='yes'/>
    <elf-symbol name='_ZN5boost6detail17sp_counted_impl_pINS_10filesystem16filesystem_error5m_impEE7disposeEv' type='func-type' binding='weak-binding' visibility='default-visibility' is-defined='yes'/>
    <elf-symbol name='_ZN5boost6detail17sp_counted_impl_pINS_10filesystem16filesystem_error5m_impEEC2EPS4_' type='func-type' binding='weak-binding' visibility='default-visibility' is-defined='yes'/>
    <elf-symbol name='_ZN5boost6detail17sp_counted_impl_pINS_10filesystem16filesystem_error5m_impEED0Ev' type='func-type' binding='weak-binding' visibility='default-visibility' is-defined='yes'/>
    <elf-symbol name='_ZN5boost6detail17sp_counted_impl_pINS_10filesystem16filesystem_error5m_impEED2Ev' type='func-type' binding='weak-binding' visibility='default-visibility' is-defined='yes'/>
    <elf-symbol name='_ZN5boost6detail17sp_counted_impl_pINS_10filesystem6detail11dir_itr_impEE11get_deleterERKSt9type_info' type='func-type' binding='weak-binding' visibility='default-visibility' is-defined='yes'/>
    <elf-symbol name='_ZN5boost6detail17sp_counted_impl_pINS_10filesystem6detail11dir_itr_impEE19get_untyped_deleterEv' type='func-type' binding='weak-binding' visibility='default-visibility' is-defined='yes'/>
    <elf-symbol name='_ZN5boost6detail17sp_counted_impl_pINS_10filesystem6detail11dir_itr_impEE7disposeEv' type='func-type' binding='weak-binding' visibility='default-visibility' is-defined='yes'/>
    <elf-symbol name='_ZN5boost6detail17sp_counted_impl_pINS_10filesystem6detail11dir_itr_impEEC2EPS4_' type='func-type' binding='weak-binding' visibility='default-visibility' is-defined='yes'/>
    <elf-symbol name='_ZN5boost6detail17sp_counted_impl_pINS_10filesystem6detail11dir_itr_impEED0Ev' type='func-type' binding='weak-binding' visibility='default-visibility' is-defined='yes'/>
    <elf-symbol name='_ZN5boost6detail17sp_counted_impl_pINS_10filesystem6detail11dir_itr_impEED2Ev' type='func-type' binding='weak-binding' visibility='default-visibility' is-defined='yes'/>
    <elf-symbol name='_ZN5boost6detail20sp_pointer_constructINS_10filesystem16filesystem_error5m_impES4_EEvPNS_10shared_ptrIT_EEPT0_RNS0_12shared_countE' type='func-type' binding='weak-binding' visibility='default-visibility' is-defined='yes'/>
    <elf-symbol name='_ZN5boost6detail20sp_pointer_constructINS_10filesystem6detail11dir_itr_impES4_EEvPNS_10shared_ptrIT_EEPT0_RNS0_12shared_countE' type='func-type' binding='weak-binding' visibility='default-visibility' is-defined='yes'/>
    <elf-symbol name='_ZN5boost6detail23atomic_exchange_and_addEPii' type='func-type' binding='weak-binding' visibility='default-visibility' is-defined='yes'/>
    <elf-symbol name='_ZN5boost6detail23operator_arrow_dispatchIRKNS_10filesystem4pathEPS4_E5applyES5_' type='func-type' binding='weak-binding' visibility='default-visibility' is-defined='yes'/>
    <elf-symbol name='_ZN5boost6detail23operator_arrow_dispatchIRNS_10filesystem15directory_entryEPS3_E5applyES4_' type='func-type' binding='weak-binding' visibility='default-visibility' is-defined='yes'/>
    <elf-symbol name='_ZN5boost6detail26sp_enable_shared_from_thisEz' type='func-type' binding='weak-binding' visibility='default-visibility' is-defined='yes'/>
    <elf-symbol name='_ZN5boost6system10error_code21unspecified_bool_trueEv' type='func-type' binding='weak-binding' visibility='default-visibility' is-defined='yes'/>
    <elf-symbol name='_ZN5boost6system10error_code5clearEv' type='func-type' binding='weak-binding' visibility='default-visibility' is-defined='yes'/>
    <elf-symbol name='_ZN5boost6system10error_code6assignEiRKNS0_14error_categoryE' type='func-type' binding='weak-binding' visibility='default-visibility' is-defined='yes'/>
    <elf-symbol name='_ZN5boost6system10error_codeC2EiRKNS0_14error_categoryE' type='func-type' binding='weak-binding' visibility='default-visibility' is-defined='yes'/>
    <elf-symbol name='_ZN5boost6system10error_codeC2Ev' type='func-type' binding='weak-binding' visibility='default-visibility' is-defined='yes'/>
    <elf-symbol name='_ZN5boost6system12system_errorC2ENS0_10error_codeERKSs' type='func-type' binding='weak-binding' visibility='default-visibility' is-defined='yes'/>
    <elf-symbol name='_ZN5boost6system12system_errorC2EiRKNS0_14error_categoryEPKc' type='func-type' binding='weak-binding' visibility='default-visibility' is-defined='yes'/>
    <elf-symbol name='_ZN5boost6system12system_errorD0Ev' type='func-type' binding='weak-binding' visibility='default-visibility' is-defined='yes'/>
    <elf-symbol name='_ZN5boost6system12system_errorD2Ev' type='func-type' binding='weak-binding' visibility='default-visibility' is-defined='yes'/>
    <elf-symbol name='_ZN5boost6system14error_categoryC2Ev' type='func-type' binding='weak-binding' visibility='default-visibility' is-defined='yes'/>
    <elf-symbol name='_ZN5boost6system14error_categoryD0Ev' type='func-type' binding='weak-binding' visibility='default-visibility' is-defined='yes'/>
    <elf-symbol name='_ZN5boost6system14error_categoryD2Ev' type='func-type' binding='weak-binding' visibility='default-visibility' is-defined='yes'/>
    <elf-symbol name='_ZN5boost6system15error_conditionC2EiRKNS0_14error_categoryE' type='func-type' binding='weak-binding' visibility='default-visibility' is-defined='yes'/>
    <elf-symbol name='_ZN5boost6systemeqERKNS0_15error_conditionES3_' type='func-type' binding='weak-binding' visibility='default-visibility' is-defined='yes'/>
    <elf-symbol name='_ZN5boosteqINS_10filesystem18directory_iteratorENS1_15directory_entryENS_25single_pass_traversal_tagERS3_lS2_S3_S4_S5_lEENS_6detail23enable_if_interoperableIT_T4_NS_3mpl6apply2INS6_12always_bool2ES8_S9_E4typeEE4typeERKNS_15iterator_facadeIS8_T0_T1_T2_T3_EERKNSH_IS9_T5_T6_T7_T8_EE' type='func-type' binding='weak-binding' visibility='default-visibility' is-defined='yes'/>
    <elf-symbol name='_ZN5boosteqINS_10filesystem4path8iteratorEKS2_NS_27bidirectional_traversal_tagERS4_lS3_S4_S5_S6_lEENS_6detail23enable_if_interoperableIT_T4_NS_3mpl6apply2INS7_12always_bool2ES9_SA_E4typeEE4typeERKNS_15iterator_facadeIS9_T0_T1_T2_T3_EERKNSI_ISA_T5_T6_T7_T8_EE' type='func-type' binding='weak-binding' visibility='default-visibility' is-defined='yes'/>
    <elf-symbol name='_ZN5boosteqINS_10filesystem6detail11dir_itr_impES3_EEbRKNS_10shared_ptrIT_EERKNS4_IT0_EE' type='func-type' binding='weak-binding' visibility='default-visibility' is-defined='yes'/>
    <elf-symbol name='_ZN5boostneINS_10filesystem18directory_iteratorENS1_15directory_entryENS_25single_pass_traversal_tagERS3_lS2_S3_S4_S5_lEENS_6detail23enable_if_interoperableIT_T4_NS_3mpl6apply2INS6_12always_bool2ES8_S9_E4typeEE4typeERKNS_15iterator_facadeIS8_T0_T1_T2_T3_EERKNSH_IS9_T5_T6_T7_T8_EE' type='func-type' binding='weak-binding' visibility='default-visibility' is-defined='yes'/>
    <elf-symbol name='_ZN5boostneINS_10filesystem4path8iteratorEKS2_NS_27bidirectional_traversal_tagERS4_lS3_S4_S5_S6_lEENS_6detail23enable_if_interoperableIT_T4_NS_3mpl6apply2INS7_12always_bool2ES9_SA_E4typeEE4typeERKNS_15iterator_facadeIS9_T0_T1_T2_T3_EERKNSI_ISA_T5_T6_T7_T8_EE' type='func-type' binding='weak-binding' visibility='default-visibility' is-defined='yes'/>
    <elf-symbol name='_ZN9__gnu_cxx17__is_null_pointerIKcEEbPT_' type='func-type' binding='weak-binding' visibility='default-visibility' is-defined='yes'/>
    <elf-symbol name='_ZN9__gnu_cxx17__is_null_pointerIcEEbPT_' type='func-type' binding='weak-binding' visibility='default-visibility' is-defined='yes'/>
    <elf-symbol name='_ZN9__gnu_cxx17__normal_iteratorIPKcSsEC2ERKS2_' type='func-type' binding='weak-binding' visibility='default-visibility' is-defined='yes'/>
    <elf-symbol name='_ZN9__gnu_cxx17__normal_iteratorIPcSsEC2ERKS1_' type='func-type' binding='weak-binding' visibility='default-visibility' is-defined='yes'/>
    <elf-symbol name='_ZNK5boost10filesystem11file_status11permissionsEv' type='func-type' binding='weak-binding' visibility='default-visibility' is-defined='yes'/>
    <elf-symbol name='_ZNK5boost10filesystem11file_status4typeEv' type='func-type' binding='weak-binding' visibility='default-visibility' is-defined='yes'/>
    <elf-symbol name='_ZNK5boost10filesystem15directory_entry12m_get_statusEPNS_6system10error_codeE' type='func-type' binding='global-binding' visibility='default-visibility' is-defined='yes'/>
    <elf-symbol name='_ZNK5boost10filesystem15directory_entry20m_get_symlink_statusEPNS_6system10error_codeE' type='func-type' binding='global-binding' visibility='default-visibility' is-defined='yes'/>
    <elf-symbol name='_ZNK5boost10filesystem15directory_entry4pathEv' type='func-type' binding='weak-binding' visibility='default-visibility' is-defined='yes'/>
    <elf-symbol name='_ZNK5boost10filesystem16filesystem_error4whatEv' type='func-type' binding='weak-binding' visibility='default-visibility' is-defined='yes'/>
    <elf-symbol name='_ZNK5boost10filesystem18directory_iterator11dereferenceEv' type='func-type' binding='weak-binding' visibility='default-visibility' is-defined='yes'/>
    <elf-symbol name='_ZNK5boost10filesystem18directory_iterator5equalERKS1_' type='func-type' binding='weak-binding' visibility='default-visibility' is-defined='yes'/>
    <elf-symbol name='_ZNK5boost10filesystem4path11is_absoluteEv' type='func-type' binding='weak-binding' visibility='default-visibility' is-defined='yes'/>
    <elf-symbol name='_ZNK5boost10filesystem4path11parent_pathEv' type='func-type' binding='global-binding' visibility='default-visibility' is-defined='yes'/>
    <elf-symbol name='_ZNK5boost10filesystem4path13relative_pathEv' type='func-type' binding='global-binding' visibility='default-visibility' is-defined='yes'/>
    <elf-symbol name='_ZNK5boost10filesystem4path14root_directoryEv' type='func-type' binding='global-binding' visibility='default-visibility' is-defined='yes'/>
    <elf-symbol name='_ZNK5boost10filesystem4path17m_parent_path_endEv' type='func-type' binding='global-binding' visibility='default-visibility' is-defined='yes'/>
    <elf-symbol name='_ZNK5boost10filesystem4path18has_root_directoryEv' type='func-type' binding='weak-binding' visibility='default-visibility' is-defined='yes'/>
    <elf-symbol name='_ZNK5boost10filesystem4path3endEv' type='func-type' binding='global-binding' visibility='default-visibility' is-defined='yes'/>
    <elf-symbol name='_ZNK5boost10filesystem4path4stemEv' type='func-type' binding='global-binding' visibility='default-visibility' is-defined='yes'/>
    <elf-symbol name='_ZNK5boost10filesystem4path5beginEv' type='func-type' binding='global-binding' visibility='default-visibility' is-defined='yes'/>
    <elf-symbol name='_ZNK5boost10filesystem4path5c_strEv' type='func-type' binding='weak-binding' visibility='default-visibility' is-defined='yes'/>
    <elf-symbol name='_ZNK5boost10filesystem4path5emptyEv' type='func-type' binding='weak-binding' visibility='default-visibility' is-defined='yes'/>
    <elf-symbol name='_ZNK5boost10filesystem4path6nativeEv' type='func-type' binding='weak-binding' visibility='default-visibility' is-defined='yes'/>
    <elf-symbol name='_ZNK5boost10filesystem4path6stringEv' type='func-type' binding='weak-binding' visibility='default-visibility' is-defined='yes'/>
    <elf-symbol name='_ZNK5boost10filesystem4path7compareERKS1_' type='func-type' binding='global-binding' visibility='default-visibility' is-defined='yes'/>
    <elf-symbol name='_ZNK5boost10filesystem4path7wstringERKSt7codecvtIwc11__mbstate_tE' type='func-type' binding='weak-binding' visibility='default-visibility' is-defined='yes'/>
    <elf-symbol name='_ZNK5boost10filesystem4path7wstringEv' type='func-type' binding='weak-binding' visibility='default-visibility' is-defined='yes'/>
    <elf-symbol name='_ZNK5boost10filesystem4path8filenameEv' type='func-type' binding='global-binding' visibility='default-visibility' is-defined='yes'/>
    <elf-symbol name='_ZNK5boost10filesystem4path8iterator11dereferenceEv' type='func-type' binding='weak-binding' visibility='default-visibility' is-defined='yes'/>
    <elf-symbol name='_ZNK5boost10filesystem4path8iterator5equalERKS2_' type='func-type' binding='weak-binding' visibility='default-visibility' is-defined='yes'/>
    <elf-symbol name='_ZNK5boost10filesystem4path9extensionEv' type='func-type' binding='global-binding' visibility='default-visibility' is-defined='yes'/>
    <elf-symbol name='_ZNK5boost10filesystem4path9root_nameEv' type='func-type' binding='global-binding' visibility='default-visibility' is-defined='yes'/>
    <elf-symbol name='_ZNK5boost10filesystem4path9root_pathEv' type='func-type' binding='global-binding' visibility='default-visibility' is-defined='yes'/>
    <elf-symbol name='_ZNK5boost10filesystem6detail18utf8_codecvt_facet10do_unshiftER11__mbstate_tPcS5_RS5_' type='func-type' binding='weak-binding' visibility='default-visibility' is-defined='yes'/>
    <elf-symbol name='_ZNK5boost10filesystem6detail18utf8_codecvt_facet11do_encodingEv' type='func-type' binding='weak-binding' visibility='default-visibility' is-defined='yes'/>
    <elf-symbol name='_ZNK5boost10filesystem6detail18utf8_codecvt_facet13do_max_lengthEv' type='func-type' binding='weak-binding' visibility='default-visibility' is-defined='yes'/>
    <elf-symbol name='_ZNK5boost10filesystem6detail18utf8_codecvt_facet16do_always_noconvEv' type='func-type' binding='weak-binding' visibility='default-visibility' is-defined='yes'/>
    <elf-symbol name='_ZNK5boost10filesystem6detail18utf8_codecvt_facet21invalid_leading_octetEh' type='func-type' binding='weak-binding' visibility='default-visibility' is-defined='yes'/>
    <elf-symbol name='_ZNK5boost10filesystem6detail18utf8_codecvt_facet24get_cont_octet_out_countEw' type='func-type' binding='global-binding' visibility='default-visibility' is-defined='yes'/>
    <elf-symbol name='_ZNK5boost10filesystem6detail18utf8_codecvt_facet24invalid_continuing_octetEh' type='func-type' binding='weak-binding' visibility='default-visibility' is-defined='yes'/>
    <elf-symbol name='_ZNK5boost10filesystem6detail18utf8_codecvt_facet5do_inER11__mbstate_tPKcS6_RS6_PwS8_RS8_' type='func-type' binding='global-binding' visibility='default-visibility' is-defined='yes'/>
    <elf-symbol name='_ZNK5boost10filesystem6detail18utf8_codecvt_facet6do_outER11__mbstate_tPKwS6_RS6_PcS8_RS8_' type='func-type' binding='global-binding' visibility='default-visibility' is-defined='yes'/>
    <elf-symbol name='_ZNK5boost10filesystem6detail18utf8_codecvt_facet9do_lengthER11__mbstate_tPKcS6_m' type='func-type' binding='global-binding' visibility='default-visibility' is-defined='yes'/>
    <elf-symbol name='_ZNK5boost10shared_ptrINS_10filesystem16filesystem_error5m_impEE3getEv' type='func-type' binding='weak-binding' visibility='default-visibility' is-defined='yes'/>
    <elf-symbol name='_ZNK5boost10shared_ptrINS_10filesystem16filesystem_error5m_impEEptEv' type='func-type' binding='weak-binding' visibility='default-visibility' is-defined='yes'/>
    <elf-symbol name='_ZNK5boost10shared_ptrINS_10filesystem6detail11dir_itr_impEE3getEv' type='func-type' binding='weak-binding' visibility='default-visibility' is-defined='yes'/>
    <elf-symbol name='_ZNK5boost10shared_ptrINS_10filesystem6detail11dir_itr_impEEptEv' type='func-type' binding='weak-binding' visibility='default-visibility' is-defined='yes'/>
    <elf-symbol name='_ZNK5boost12scoped_arrayIcE3getEv' type='func-type' binding='weak-binding' visibility='default-visibility' is-defined='yes'/>
    <elf-symbol name='_ZNK5boost12scoped_arrayIwE3getEv' type='func-type' binding='weak-binding' visibility='default-visibility' is-defined='yes'/>
    <elf-symbol name='_ZNK5boost15iterator_facadeINS_10filesystem18directory_iteratorENS1_15directory_entryENS_25single_pass_traversal_tagERS3_lE7derivedEv' type='func-type' binding='weak-binding' visibility='default-visibility' is-defined='yes'/>
    <elf-symbol name='_ZNK5boost15iterator_facadeINS_10filesystem18directory_iteratorENS1_15directory_entryENS_25single_pass_traversal_tagERS3_lEdeEv' type='func-type' binding='weak-binding' visibility='default-visibility' is-defined='yes'/>
    <elf-symbol name='_ZNK5boost15iterator_facadeINS_10filesystem18directory_iteratorENS1_15directory_entryENS_25single_pass_traversal_tagERS3_lEptEv' type='func-type' binding='weak-binding' visibility='default-visibility' is-defined='yes'/>
    <elf-symbol name='_ZNK5boost15iterator_facadeINS_10filesystem4path8iteratorEKS2_NS_27bidirectional_traversal_tagERS4_lE7derivedEv' type='func-type' binding='weak-binding' visibility='default-visibility' is-defined='yes'/>
    <elf-symbol name='_ZNK5boost15iterator_facadeINS_10filesystem4path8iteratorEKS2_NS_27bidirectional_traversal_tagERS4_lEdeEv' type='func-type' binding='weak-binding' visibility='default-visibility' is-defined='yes'/>
    <elf-symbol name='_ZNK5boost15iterator_facadeINS_10filesystem4path8iteratorEKS2_NS_27bidirectional_traversal_tagERS4_lEptEv' type='func-type' binding='weak-binding' visibility='default-visibility' is-defined='yes'/>
    <elf-symbol name='_ZNK5boost6system10error_code5valueEv' type='func-type' binding='weak-binding' visibility='default-visibility' is-defined='yes'/>
    <elf-symbol name='_ZNK5boost6system10error_code7messageEv' type='func-type' binding='weak-binding' visibility='default-visibility' is-defined='yes'/>
    <elf-symbol name='_ZNK5boost6system10error_code8categoryEv' type='func-type' binding='weak-binding' visibility='default-visibility' is-defined='yes'/>
    <elf-symbol name='_ZNK5boost6system10error_codecvPFvvEEv' type='func-type' binding='weak-binding' visibility='default-visibility' is-defined='yes'/>
    <elf-symbol name='_ZNK5boost6system12system_error4whatEv' type='func-type' binding='weak-binding' visibility='default-visibility' is-defined='yes'/>
    <elf-symbol name='_ZNK5boost6system14error_category10equivalentERKNS0_10error_codeEi' type='func-type' binding='weak-binding' visibility='default-visibility' is-defined='yes'/>
    <elf-symbol name='_ZNK5boost6system14error_category10equivalentEiRKNS0_15error_conditionE' type='func-type' binding='weak-binding' visibility='default-visibility' is-defined='yes'/>
    <elf-symbol name='_ZNK5boost6system14error_category23default_error_conditionEi' type='func-type' binding='weak-binding' visibility='default-visibility' is-defined='yes'/>
    <elf-symbol name='_ZNK5boost6system14error_categoryeqERKS1_' type='func-type' binding='weak-binding' visibility='default-visibility' is-defined='yes'/>
    <elf-symbol name='_ZNK9__gnu_cxx17__normal_iteratorIPKcSsEdeEv' type='func-type' binding='weak-binding' visibility='default-visibility' is-defined='yes'/>
    <elf-symbol name='_ZNK9__gnu_cxx17__normal_iteratorIPKcSsEmiEl' type='func-type' binding='weak-binding' visibility='default-visibility' is-defined='yes'/>
    <elf-symbol name='_ZNK9__gnu_cxx17__normal_iteratorIPKwSbIwSt11char_traitsIwESaIwEEEdeEv' type='func-type' binding='weak-binding' visibility='default-visibility' is-defined='yes'/>
    <elf-symbol name='_ZNK9__gnu_cxx17__normal_iteratorIPcSsEdeEv' type='func-type' binding='weak-binding' visibility='default-visibility' is-defined='yes'/>
    <elf-symbol name='_ZNK9__gnu_cxx17__normal_iteratorIPcSsEmiEl' type='func-type' binding='weak-binding' visibility='default-visibility' is-defined='yes'/>
    <elf-symbol name='_ZNKSt23__codecvt_abstract_baseIwc11__mbstate_tE2inERS0_PKcS4_RS4_PwS6_RS6_' type='func-type' binding='weak-binding' visibility='default-visibility' is-defined='yes'/>
    <elf-symbol name='_ZNKSt23__codecvt_abstract_baseIwc11__mbstate_tE3outERS0_PKwS4_RS4_PcS6_RS6_' type='func-type' binding='weak-binding' visibility='default-visibility' is-defined='yes'/>
    <elf-symbol name='_ZNSbIwSt11char_traitsIwESaIwEE6appendIPwEERS2_T_S6_' type='func-type' binding='weak-binding' visibility='default-visibility' is-defined='yes'/>
    <elf-symbol name='_ZNSs12_S_constructIPKcEEPcT_S3_RKSaIcE' type='func-type' binding='weak-binding' visibility='default-visibility' is-defined='yes'/>
    <elf-symbol name='_ZNSs12_S_constructIPKcEEPcT_S3_RKSaIcESt20forward_iterator_tag' type='func-type' binding='weak-binding' visibility='default-visibility' is-defined='yes'/>
    <elf-symbol name='_ZNSs12_S_constructIPcEES0_T_S1_RKSaIcE' type='func-type' binding='weak-binding' visibility='default-visibility' is-defined='yes'/>
    <elf-symbol name='_ZNSs12_S_constructIPcEES0_T_S1_RKSaIcESt20forward_iterator_tag' type='func-type' binding='weak-binding' visibility='default-visibility' is-defined='yes'/>
    <elf-symbol name='_ZNSs16_S_construct_auxIPKcEEPcT_S3_RKSaIcESt12__false_type' type='func-type' binding='weak-binding' visibility='default-visibility' is-defined='yes'/>
    <elf-symbol name='_ZNSs16_S_construct_auxIPcEES0_T_S1_RKSaIcESt12__false_type' type='func-type' binding='weak-binding' visibility='default-visibility' is-defined='yes'/>
    <elf-symbol name='_ZNSs6appendIPKcEERSsT_S3_' type='func-type' binding='weak-binding' visibility='default-visibility' is-defined='yes'/>
    <elf-symbol name='_ZNSs6appendIPcEERSsT_S2_' type='func-type' binding='weak-binding' visibility='default-visibility' is-defined='yes'/>
    <elf-symbol name='_ZNSsC2IPKcEET_S2_RKSaIcE' type='func-type' binding='weak-binding' visibility='default-visibility' is-defined='yes'/>
    <elf-symbol name='_ZNSsC2IPcEET_S1_RKSaIcE' type='func-type' binding='weak-binding' visibility='default-visibility' is-defined='yes'/>
    <elf-symbol name='_ZNSt11char_traitsIcE7compareEPKcS2_m' type='func-type' binding='weak-binding' visibility='default-visibility' is-defined='yes'/>
    <elf-symbol name='_ZNSt14numeric_limitsIwE3maxEv' type='func-type' binding='weak-binding' visibility='default-visibility' is-defined='yes'/>
    <elf-symbol name='_ZSt10__distanceIPKcENSt15iterator_traitsIT_E15difference_typeES3_S3_St26random_access_iterator_tag' type='func-type' binding='weak-binding' visibility='default-visibility' is-defined='yes'/>
    <elf-symbol name='_ZSt10__distanceIPcENSt15iterator_traitsIT_E15difference_typeES2_S2_St26random_access_iterator_tag' type='func-type' binding='weak-binding' visibility='default-visibility' is-defined='yes'/>
    <elf-symbol name='_ZSt19__iterator_categoryIPKcENSt15iterator_traitsIT_E17iterator_categoryERKS3_' type='func-type' binding='weak-binding' visibility='default-visibility' is-defined='yes'/>
    <elf-symbol name='_ZSt19__iterator_categoryIPcENSt15iterator_traitsIT_E17iterator_categoryERKS2_' type='func-type' binding='weak-binding' visibility='default-visibility' is-defined='yes'/>
    <elf-symbol name='_ZSt4moveIRPN5boost10filesystem16filesystem_error5m_impEEONSt16remove_referenceIT_E4typeEOS7_' type='func-type' binding='weak-binding' visibility='default-visibility' is-defined='yes'/>
    <elf-symbol name='_ZSt4moveIRPN5boost10filesystem6detail11dir_itr_impEEONSt16remove_referenceIT_E4typeEOS7_' type='func-type' binding='weak-binding' visibility='default-visibility' is-defined='yes'/>
    <elf-symbol name='_ZSt4swapIPN5boost10filesystem16filesystem_error5m_impEEvRT_S6_' type='func-type' binding='weak-binding' visibility='default-visibility' is-defined='yes'/>
    <elf-symbol name='_ZSt4swapIPN5boost10filesystem6detail11dir_itr_impEEvRT_S6_' type='func-type' binding='weak-binding' visibility='default-visibility' is-defined='yes'/>
    <elf-symbol name='_ZSt8distanceIPKcENSt15iterator_traitsIT_E15difference_typeES3_S3_' type='func-type' binding='weak-binding' visibility='default-visibility' is-defined='yes'/>
    <elf-symbol name='_ZSt8distanceIPcENSt15iterator_traitsIT_E15difference_typeES2_S2_' type='func-type' binding='weak-binding' visibility='default-visibility' is-defined='yes'/>
    <elf-symbol name='_ZSteqIcEN9__gnu_cxx11__enable_ifIXsr9__is_charIT_EE7__valueEbE6__typeERKSbIS2_St11char_traitsIS2_ESaIS2_EESA_' type='func-type' binding='weak-binding' visibility='default-visibility' is-defined='yes'/>
    <elf-symbol name='_ZSteqIcEbRKSaIT_ES3_' type='func-type' binding='weak-binding' visibility='default-visibility' is-defined='yes'/>
    <elf-symbol name='_ZSteqIcSt11char_traitsIcESaIcEEbRKSbIT_T0_T1_EPKS3_' type='func-type' binding='weak-binding' visibility='default-visibility' is-defined='yes'/>
    <elf-symbol name='_ZStltIcSt11char_traitsIcESaIcEEbRKSbIT_T0_T1_ES8_' type='func-type' binding='weak-binding' visibility='default-visibility' is-defined='yes'/>
    <elf-symbol name='_ZStneIcSt11char_traitsIcESaIcEEbRKSbIT_T0_T1_EPKS3_' type='func-type' binding='weak-binding' visibility='default-visibility' is-defined='yes'/>
    <elf-symbol name='_fini' type='func-type' binding='global-binding' visibility='default-visibility' is-defined='yes'/>
    <elf-symbol name='_init' type='func-type' binding='global-binding' visibility='default-visibility' is-defined='yes'/>
  </elf-function-symbols>
  <elf-variable-symbols>
    <elf-symbol name='_ZTIN5boost10filesystem16filesystem_errorE' size='24' type='object-type' binding='weak-binding' visibility='default-visibility' is-defined='yes'/>
    <elf-symbol name='_ZTIN5boost10filesystem6detail18utf8_codecvt_facetE' size='24' type='object-type' binding='global-binding' visibility='default-visibility' is-defined='yes'/>
    <elf-symbol name='_ZTIN5boost12noncopyable_11noncopyableE' size='16' type='object-type' binding='weak-binding' visibility='default-visibility' is-defined='yes'/>
    <elf-symbol name='_ZTIN5boost6detail15sp_counted_baseE' size='16' type='object-type' binding='weak-binding' visibility='default-visibility' is-defined='yes'/>
    <elf-symbol name='_ZTIN5boost6detail17sp_counted_impl_pINS_10filesystem16filesystem_error5m_impEEE' size='24' type='object-type' binding='weak-binding' visibility='default-visibility' is-defined='yes'/>
    <elf-symbol name='_ZTIN5boost6detail17sp_counted_impl_pINS_10filesystem6detail11dir_itr_impEEE' size='24' type='object-type' binding='weak-binding' visibility='default-visibility' is-defined='yes'/>
    <elf-symbol name='_ZTIN5boost6system12system_errorE' size='24' type='object-type' binding='weak-binding' visibility='default-visibility' is-defined='yes'/>
    <elf-symbol name='_ZTIN5boost6system14error_categoryE' size='24' type='object-type' binding='weak-binding' visibility='default-visibility' is-defined='yes'/>
    <elf-symbol name='_ZTSN5boost10filesystem16filesystem_errorE' size='39' type='object-type' binding='weak-binding' visibility='default-visibility' is-defined='yes'/>
    <elf-symbol name='_ZTSN5boost10filesystem6detail18utf8_codecvt_facetE' size='48' type='object-type' binding='global-binding' visibility='default-visibility' is-defined='yes'/>
    <elf-symbol name='_ZTSN5boost12noncopyable_11noncopyableE' size='36' type='object-type' binding='weak-binding' visibility='default-visibility' is-defined='yes'/>
    <elf-symbol name='_ZTSN5boost6detail15sp_counted_baseE' size='33' type='object-type' binding='weak-binding' visibility='default-visibility' is-defined='yes'/>
    <elf-symbol name='_ZTSN5boost6detail17sp_counted_impl_pINS_10filesystem16filesystem_error5m_impEEE' size='77' type='object-type' binding='weak-binding' visibility='default-visibility' is-defined='yes'/>
    <elf-symbol name='_ZTSN5boost6detail17sp_counted_impl_pINS_10filesystem6detail11dir_itr_impEEE' size='73' type='object-type' binding='weak-binding' visibility='default-visibility' is-defined='yes'/>
    <elf-symbol name='_ZTSN5boost6system12system_errorE' size='30' type='object-type' binding='weak-binding' visibility='default-visibility' is-defined='yes'/>
    <elf-symbol name='_ZTSN5boost6system14error_categoryE' size='32' type='object-type' binding='weak-binding' visibility='default-visibility' is-defined='yes'/>
    <elf-symbol name='_ZTVN5boost10filesystem16filesystem_errorE' size='40' type='object-type' binding='weak-binding' visibility='default-visibility' is-defined='yes'/>
    <elf-symbol name='_ZTVN5boost10filesystem6detail18utf8_codecvt_facetE' size='88' type='object-type' binding='global-binding' visibility='default-visibility' is-defined='yes'/>
    <elf-symbol name='_ZTVN5boost6detail15sp_counted_baseE' size='64' type='object-type' binding='weak-binding' visibility='default-visibility' is-defined='yes'/>
    <elf-symbol name='_ZTVN5boost6detail17sp_counted_impl_pINS_10filesystem16filesystem_error5m_impEEE' size='64' type='object-type' binding='weak-binding' visibility='default-visibility' is-defined='yes'/>
    <elf-symbol name='_ZTVN5boost6detail17sp_counted_impl_pINS_10filesystem6detail11dir_itr_impEEE' size='64' type='object-type' binding='weak-binding' visibility='default-visibility' is-defined='yes'/>
    <elf-symbol name='_ZTVN5boost6system12system_errorE' size='40' type='object-type' binding='weak-binding' visibility='default-visibility' is-defined='yes'/>
    <elf-symbol name='_ZTVN5boost6system14error_categoryE' size='72' type='object-type' binding='weak-binding' visibility='default-visibility' is-defined='yes'/>
  </elf-variable-symbols>
  <abi-instr address-size='64' path='src/third_party/boost-1.56.0/libs/filesystem/src/codecvt_error_category.cpp' comp-dir-path='/home/andrew/Documents/10gen/dev/src/mongodb' language='LANG_C_plus_plus'>
    <type-decl name='bool' size-in-bits='8' hash='5ba96bb22f4237fb' id='type-id-1'/>
    <type-decl name='char' size-in-bits='8' hash='65b2d157027b431a' id='type-id-2'/>
    <array-type-def dimensions='1' type-id='type-id-2' size-in-bits='32' hash='932523ac2c3bfb84' id='type-id-3'>
      <subrange length='4' lower-bound='0' upper-bound='3' type-id='type-id-4' size-in-bits='64' is-anonymous='yes' hash='cee611f4a73e486c' id='type-id-5'/>
    </array-type-def>
    <type-decl name='double' size-in-bits='64' hash='e9e9b320886d9aa6' id='type-id-6'/>
    <type-decl name='float' size-in-bits='32' hash='d7ec3bf03d3c5690' id='type-id-7'/>
    <type-decl name='int' size-in-bits='32' hash='09d17c08f594edc7' id='type-id-8'/>
    <type-decl name='long double' size-in-bits='128' hash='2a9bbfe8bb0475f1#2' id='type-id-9'/>
    <type-decl name='long int' size-in-bits='64' hash='b119fe0931d2ee10#2' id='type-id-10'/>
    <type-decl name='long long int' size-in-bits='64' hash='5ae7f9eec1fc43d6#3' id='type-id-11'/>
    <type-decl name='sizetype' size-in-bits='64' hash='3e84f1a1648448f5' id='type-id-4'/>
    <class-decl name='__va_list_tag' is-struct='yes' visibility='default' size-in-bits='192' hash='3cf0fd8284404e34' id='type-id-12'>
      <data-member access='public' layout-offset-in-bits='0'>
        <var-decl name='gp_offset' type-id='type-id-13' visibility='default'/>
      </data-member>
      <data-member access='public' layout-offset-in-bits='32'>
        <var-decl name='fp_offset' type-id='type-id-13' visibility='default'/>
      </data-member>
      <data-member access='public' layout-offset-in-bits='64'>
        <var-decl name='overflow_arg_area' type-id='type-id-14' visibility='default'/>
      </data-member>
      <data-member access='public' layout-offset-in-bits='128'>
        <var-decl name='reg_save_area' type-id='type-id-14' visibility='default'/>
      </data-member>
    </class-decl>
    <class-decl name='ldiv_t' is-struct='yes' naming-typedef-id='type-id-15' visibility='default' size-in-bits='128' filepath='/usr/include/stdlib.h' line='105' column='1' hash='f73ee30feb9e9f76' id='type-id-16'>
      <data-member access='public' layout-offset-in-bits='0'>
        <var-decl name='quot' type-id='type-id-10' visibility='default' filepath='/usr/include/stdlib.h' line='107' column='1'/>
      </data-member>
      <data-member access='public' layout-offset-in-bits='64'>
        <var-decl name='rem' type-id='type-id-10' visibility='default' filepath='/usr/include/stdlib.h' line='108' column='1'/>
      </data-member>
    </class-decl>
    <class-decl name='tm' is-struct='yes' visibility='default' size-in-bits='448' filepath='/usr/include/time.h' line='133' column='1' hash='831fa813c3806379' id='type-id-17'>
      <data-member access='public' layout-offset-in-bits='0'>
        <var-decl name='tm_sec' type-id='type-id-8' visibility='default' filepath='/usr/include/time.h' line='135' column='1'/>
      </data-member>
      <data-member access='public' layout-offset-in-bits='32'>
        <var-decl name='tm_min' type-id='type-id-8' visibility='default' filepath='/usr/include/time.h' line='136' column='1'/>
      </data-member>
      <data-member access='public' layout-offset-in-bits='64'>
        <var-decl name='tm_hour' type-id='type-id-8' visibility='default' filepath='/usr/include/time.h' line='137' column='1'/>
      </data-member>
      <data-member access='public' layout-offset-in-bits='96'>
        <var-decl name='tm_mday' type-id='type-id-8' visibility='default' filepath='/usr/include/time.h' line='138' column='1'/>
      </data-member>
      <data-member access='public' layout-offset-in-bits='128'>
        <var-decl name='tm_mon' type-id='type-id-8' visibility='default' filepath='/usr/include/time.h' line='139' column='1'/>
      </data-member>
      <data-member access='public' layout-offset-in-bits='160'>
        <var-decl name='tm_year' type-id='type-id-8' visibility='default' filepath='/usr/include/time.h' line='140' column='1'/>
      </data-member>
      <data-member access='public' layout-offset-in-bits='192'>
        <var-decl name='tm_wday' type-id='type-id-8' visibility='default' filepath='/usr/include/time.h' line='141' column='1'/>
      </data-member>
      <data-member access='public' layout-offset-in-bits='224'>
        <var-decl name='tm_yday' type-id='type-id-8' visibility='default' filepath='/usr/include/time.h' line='142' column='1'/>
      </data-member>
      <data-member access='public' layout-offset-in-bits='256'>
        <var-decl name='tm_isdst' type-id='type-id-8' visibility='default' filepath='/usr/include/time.h' line='143' column='1'/>
      </data-member>
      <data-member access='public' layout-offset-in-bits='320'>
        <var-decl name='tm_gmtoff' type-id='type-id-10' visibility='default' filepath='/usr/include/time.h' line='146' column='1'/>
      </data-member>
      <data-member access='public' layout-offset-in-bits='384'>
        <var-decl name='tm_zone' type-id='type-id-18' visibility='default' filepath='/usr/include/time.h' line='147' column='1'/>
      </data-member>
    </class-decl>
    <typedef-decl name='_G_fpos_t' type-id='type-id-19' size-in-bits='64' filepath='/usr/include/_G_config.h' line='25' column='1' id='type-id-20'/>
    <typedef-decl name='__clock_t' type-id='type-id-10' size-in-bits='64' filepath='/usr/include/x86_64-linux-gnu/bits/types.h' line='135' column='1' hash='b119fe0931d2ee10' id='type-id-21'/>
    <typedef-decl name='__compar_fn_t' type-id='type-id-22' size-in-bits='64' filepath='/usr/include/stdlib.h' line='741' column='1' hash='fd7a63c0c6c822c4' id='type-id-23'/>
    <typedef-decl name='__int32_t' type-id='type-id-8' size-in-bits='32' filepath='/usr/include/x86_64-linux-gnu/bits/types.h' line='40' column='1' hash='09d17c08f594edc7' id='type-id-24'/>
    <typedef-decl name='__mbstate_t' type-id='type-id-19' size-in-bits='64' filepath='/usr/include/wchar.h' line='94' column='1' id='type-id-25'/>
    <typedef-decl name='__time_t' type-id='type-id-10' size-in-bits='64' filepath='/usr/include/x86_64-linux-gnu/bits/types.h' line='139' column='1' hash='b119fe0931d2ee10' id='type-id-26'/>
    <typedef-decl name='__va_list_tag' type-id='type-id-12' size-in-bits='192' id='type-id-27'/>
    <typedef-decl name='clock_t' type-id='type-id-21' size-in-bits='64' filepath='/usr/include/time.h' line='59' column='1' hash='b119fe0931d2ee10' id='type-id-28'/>
    <typedef-decl name='div_t' type-id='type-id-19' size-in-bits='64' filepath='/usr/include/stdlib.h' line='101' column='1' id='type-id-29'/>
    <typedef-decl name='fpos_t' type-id='type-id-20' size-in-bits='64' filepath='/usr/include/stdio.h' line='110' column='1' id='type-id-30'/>
    <typedef-decl name='ldiv_t' type-id='type-id-16' size-in-bits='128' filepath='/usr/include/stdlib.h' line='109' column='1' id='type-id-15'/>
    <typedef-decl name='lldiv_t' type-id='type-id-31' size-in-bits='128' filepath='/usr/include/stdlib.h' line='121' column='1' id='type-id-32'/>
    <typedef-decl name='mbstate_t' type-id='type-id-25' size-in-bits='64' filepath='/usr/include/wchar.h' line='106' column='1' id='type-id-33'/>
    <typedef-decl name='size_t' type-id='type-id-34' size-in-bits='64' filepath='/usr/lib/llvm-3.6/bin/../lib/clang/3.6.0/include/stddef.h' line='62' column='1' hash='8fdc5eea2983a729' id='type-id-35'/>
    <typedef-decl name='time_t' type-id='type-id-26' size-in-bits='64' filepath='/usr/include/time.h' line='75' column='1' hash='b119fe0931d2ee10' id='type-id-36'/>
    <typedef-decl name='wctrans_t' type-id='type-id-37' size-in-bits='64' filepath='/usr/include/wctype.h' line='186' column='1' hash='96e1bfcb27b9d6ed' id='type-id-38'/>
    <typedef-decl name='wctype_t' type-id='type-id-34' size-in-bits='64' filepath='/usr/include/wctype.h' line='52' column='1' hash='8fdc5eea2983a729' id='type-id-39'/>
    <typedef-decl name='wint_t' type-id='type-id-13' size-in-bits='32' filepath='/usr/lib/llvm-3.6/bin/../lib/clang/3.6.0/include/stddef.h' line='132' column='1' hash='e66b43f97c38e87a' id='type-id-40'/>
    <type-decl name='unsigned int' size-in-bits='32' hash='e66b43f97c38e87a' id='type-id-13'/>
    <type-decl name='unsigned long int' size-in-bits='64' hash='8fdc5eea2983a729#2' id='type-id-34'/>
    <type-decl name='unsigned long long int' size-in-bits='64' hash='ebdfc4685a1e82df#3' id='type-id-41'/>
    <type-decl name='wchar_t' size-in-bits='32' hash='4b224bc24abb5f1b' id='type-id-42'/>
    <pointer-type-def type-id='type-id-27' size-in-bits='64' hash='39fc40d7ba4ca689' id='type-id-43'/>
    <reference-type-def kind='lvalue' type-id='type-id-44' size-in-bits='64' hash='4a0ccfb95f2071e8' id='type-id-45'/>
    <pointer-type-def type-id='type-id-44' size-in-bits='64' hash='bd3e10bac9717b2d' id='type-id-46'/>
    <pointer-type-def type-id='type-id-47' size-in-bits='64' hash='2ac3a569bc14c9e4' id='type-id-48'/>
    <pointer-type-def type-id='type-id-49' size-in-bits='64' hash='a5dba88f5d9452df' id='type-id-50'/>
    <pointer-type-def type-id='type-id-51' size-in-bits='64' hash='2d9edde74ded9d27' id='type-id-52'/>
    <pointer-type-def type-id='type-id-2' size-in-bits='64' hash='e533f42d1dd4942c' id='type-id-53'/>
    <qualified-type-def type-id='type-id-53' restrict='yes' hash='566dfacc48804f50' id='type-id-54'/>
    <pointer-type-def type-id='type-id-53' size-in-bits='64' hash='a93039fe023ed77b' id='type-id-55'/>
    <qualified-type-def type-id='type-id-55' restrict='yes' hash='b04f089b5ae14a6d' id='type-id-56'/>
    <pointer-type-def type-id='type-id-57' size-in-bits='64' hash='6b26d84fed384217' id='type-id-58'/>
    <qualified-type-def type-id='type-id-24' const='yes' hash='3aaf0f2479f2834c' id='type-id-59'/>
    <pointer-type-def type-id='type-id-59' size-in-bits='64' hash='96e1bfcb27b9d6ed' id='type-id-37'/>
    <qualified-type-def type-id='type-id-44' const='yes' hash='128c8932cbf55451' id='type-id-60'/>
    <reference-type-def kind='lvalue' type-id='type-id-60' size-in-bits='64' hash='f8db43680933a9c7' id='type-id-61'/>
    <qualified-type-def type-id='type-id-47' const='yes' hash='269e754968d8d6f9' id='type-id-62'/>
    <reference-type-def kind='lvalue' type-id='type-id-62' size-in-bits='64' hash='511a5fb0e4396b75' id='type-id-63'/>
    <pointer-type-def type-id='type-id-62' size-in-bits='64' hash='41d25ed7a194c311' id='type-id-64'/>
    <qualified-type-def type-id='type-id-49' const='yes' hash='0d8f9d9650b5d747' id='type-id-65'/>
    <reference-type-def kind='lvalue' type-id='type-id-65' size-in-bits='64' hash='052619e3d86cca3f' id='type-id-66'/>
    <pointer-type-def type-id='type-id-65' size-in-bits='64' hash='cd27a0d647279ed7' id='type-id-67'/>
    <qualified-type-def type-id='type-id-51' const='yes' hash='71f635ccf79eea6a' id='type-id-68'/>
    <reference-type-def kind='lvalue' type-id='type-id-68' size-in-bits='64' hash='bf1fd64f1e1a10fd' id='type-id-69'/>
    <pointer-type-def type-id='type-id-68' size-in-bits='64' hash='2746fb84b9877a09' id='type-id-70'/>
    <qualified-type-def type-id='type-id-2' const='yes' hash='3e50fd33f9bb78d9' id='type-id-71'/>
    <pointer-type-def type-id='type-id-71' size-in-bits='64' hash='c44743f354f6a443' id='type-id-18'/>
    <qualified-type-def type-id='type-id-18' restrict='yes' hash='b7d5472019e79b5f' id='type-id-72'/>
    <pointer-type-def type-id='type-id-18' size-in-bits='64' hash='cea1d4b0943594a3' id='type-id-73'/>
    <qualified-type-def type-id='type-id-73' restrict='yes' hash='fbe490393272f46f' id='type-id-74'/>
    <qualified-type-def type-id='type-id-57' const='yes' hash='e3a5cf19fc19a7ba' id='type-id-75'/>
    <pointer-type-def type-id='type-id-75' size-in-bits='64' hash='4edd43b438ee9e67' id='type-id-76'/>
    <qualified-type-def type-id='type-id-30' const='yes' hash='d87781a5ad91b083#2' id='type-id-77'/>
    <pointer-type-def type-id='type-id-77' size-in-bits='64' hash='ee74b5604eccc979#2' id='type-id-78'/>
    <qualified-type-def type-id='type-id-33' const='yes' hash='a328f2686e4dcc6e' id='type-id-79'/>
    <pointer-type-def type-id='type-id-79' size-in-bits='64' hash='965b139f91617649' id='type-id-80'/>
    <qualified-type-def type-id='type-id-36' const='yes' hash='3d3ed5b21cd59821' id='type-id-81'/>
    <pointer-type-def type-id='type-id-81' size-in-bits='64' hash='5933014f14812f40' id='type-id-82'/>
    <qualified-type-def type-id='type-id-17' const='yes' hash='6d30d2c0485b21b8' id='type-id-83'/>
    <pointer-type-def type-id='type-id-83' size-in-bits='64' hash='934b82f269d593b3' id='type-id-84'/>
    <qualified-type-def type-id='type-id-84' restrict='yes' hash='eb8bfc989b1d24fd' id='type-id-85'/>
    <qualified-type-def type-id='type-id-42' const='yes' hash='f2fba7dbc42fc9d5' id='type-id-86'/>
    <pointer-type-def type-id='type-id-86' size-in-bits='64' hash='317089067e76910a' id='type-id-87'/>
    <qualified-type-def type-id='type-id-87' restrict='yes' hash='a7cbe991932f15ea' id='type-id-88'/>
    <pointer-type-def type-id='type-id-87' size-in-bits='64' hash='535c62eb027026ae' id='type-id-89'/>
    <qualified-type-def type-id='type-id-89' restrict='yes' hash='b4619c63bc369da8' id='type-id-90'/>
    <pointer-type-def type-id='type-id-30' size-in-bits='64' hash='7d5bf80d5b25efb1#2' id='type-id-91'/>
    <qualified-type-def type-id='type-id-91' restrict='yes' hash='27e7da842baf24fa#2' id='type-id-92'/>
    <pointer-type-def type-id='type-id-93' size-in-bits='64' hash='fd7a63c0c6c822c4' id='type-id-22'/>
    <pointer-type-def type-id='type-id-33' size-in-bits='64' hash='18fb85b101e2cd25' id='type-id-94'/>
    <qualified-type-def type-id='type-id-94' restrict='yes' hash='42a15c82a35f0371' id='type-id-95'/>
    <pointer-type-def type-id='type-id-36' size-in-bits='64' hash='784a05f2083b5c30' id='type-id-96'/>
    <pointer-type-def type-id='type-id-17' size-in-bits='64' hash='0450557ac0931bcf' id='type-id-97'/>
    <pointer-type-def type-id='type-id-98' size-in-bits='64' hash='fd7a63c0c6c822c4' id='type-id-99'/>
    <pointer-type-def type-id='type-id-42' size-in-bits='64' hash='fb9a8c973ae04ed8' id='type-id-100'/>
    <qualified-type-def type-id='type-id-100' restrict='yes' hash='d4434201fa643c76' id='type-id-101'/>
    <pointer-type-def type-id='type-id-100' size-in-bits='64' hash='f6157ba411f3141d' id='type-id-102'/>
    <qualified-type-def type-id='type-id-102' restrict='yes' hash='ba836cf7b0a451a7' id='type-id-103'/>
    <pointer-type-def type-id='type-id-104' size-in-bits='64' id='type-id-105'/>
    <qualified-type-def type-id='type-id-105' restrict='yes' id='type-id-106'/>
    <pointer-type-def type-id='type-id-107' size-in-bits='64' id='type-id-108'/>
    <qualified-type-def type-id='type-id-108' restrict='yes' id='type-id-109'/>
    <pointer-type-def type-id='type-id-110' size-in-bits='64' id='type-id-111'/>
    <class-decl name='__mbstate_t' is-struct='yes' naming-typedef-id='type-id-25' visibility='default' size-in-bits='64' filepath='/usr/include/wchar.h' line='82' column='1' hash='e97fe294ce223fec' id='type-id-19'>
      <data-member access='public' layout-offset-in-bits='0'>
        <var-decl name='__count' type-id='type-id-8' visibility='default' filepath='/usr/include/wchar.h' line='84' column='1'/>
      </data-member>
      <data-member access='public' layout-offset-in-bits='32'>
        <var-decl name='__value' type-id='type-id-112' visibility='default' filepath='/usr/include/wchar.h' line='93' column='1'/>
      </data-member>
    </class-decl>
    <class-decl name='_IO_FILE' is-struct='yes' visibility='default' is-declaration-only='yes' id='type-id-113'/>
    <class-decl name='lconv' is-struct='yes' visibility='default' is-declaration-only='yes' id='type-id-110'/>
    <qualified-type-def type-id='type-id-14' restrict='yes' id='type-id-114'/>
    <qualified-type-def type-id='type-id-14' restrict='yes' id='type-id-115'/>
    <namespace-decl name='std'>
      <class-decl name='basic_string&lt;char, std::char_traits&lt;char&gt;, std::allocator&lt;char&gt; &gt;' visibility='default' is-declaration-only='yes' id='type-id-116'>
        <member-function access='public'>
          <function-decl name='basic_string&lt;char *&gt;' mangled-name='_ZNSsC2IPcEET_S1_RKSaIcE' filepath='/usr/bin/../lib/gcc/x86_64-linux-gnu/4.9/../../../../include/c++/4.9/bits/basic_string.h' line='540' column='1' visibility='default' binding='global' size-in-bits='64' elf-symbol-id='_ZNSsC2IPcEET_S1_RKSaIcE' hash='6faa8831d3af3ad4'>
            <parameter type-id='type-id-117' is-artificial='yes'/>
            <parameter type-id='type-id-53' filepath='/usr/bin/../lib/gcc/x86_64-linux-gnu/4.9/../../../../include/c++/4.9/bits/basic_string.tcc' line='540' column='1'/>
            <parameter type-id='type-id-53' filepath='/usr/bin/../lib/gcc/x86_64-linux-gnu/4.9/../../../../include/c++/4.9/bits/basic_string.tcc' line='540' column='1'/>
            <parameter type-id='type-id-118' filepath='/usr/bin/../lib/gcc/x86_64-linux-gnu/4.9/../../../../include/c++/4.9/bits/basic_string.tcc' line='541' column='1'/>
            <return type-id='type-id-119'/>
          </function-decl>
        </member-function>
        <member-function access='public'>
          <function-decl name='append&lt;const char *&gt;' mangled-name='_ZNSs6appendIPKcEERSsT_S3_' filepath='/usr/bin/../lib/gcc/x86_64-linux-gnu/4.9/../../../../include/c++/4.9/bits/basic_string.h' line='1061' column='1' visibility='default' binding='global' size-in-bits='64' elf-symbol-id='_ZNSs6appendIPKcEERSsT_S3_' hash='3d5693612af11c46'>
            <parameter type-id='type-id-117' is-artificial='yes'/>
            <parameter type-id='type-id-18' filepath='/usr/bin/../lib/gcc/x86_64-linux-gnu/4.9/../../../../include/c++/4.9/bits/basic_string.h' line='1061' column='1'/>
            <parameter type-id='type-id-18' filepath='/usr/bin/../lib/gcc/x86_64-linux-gnu/4.9/../../../../include/c++/4.9/bits/basic_string.h' line='1061' column='1'/>
            <return type-id='type-id-120'/>
          </function-decl>
        </member-function>
        <member-function access='private' static='yes'>
          <function-decl name='_S_construct&lt;char *&gt;' mangled-name='_ZNSs12_S_constructIPcEES0_T_S1_RKSaIcE' filepath='/usr/bin/../lib/gcc/x86_64-linux-gnu/4.9/../../../../include/c++/4.9/bits/basic_string.h' line='1761' column='1' visibility='default' binding='global' size-in-bits='64' elf-symbol-id='_ZNSs12_S_constructIPcEES0_T_S1_RKSaIcE' hash='9895045035709c6f'>
            <parameter type-id='type-id-53' filepath='/usr/bin/../lib/gcc/x86_64-linux-gnu/4.9/../../../../include/c++/4.9/bits/basic_string.h' line='1761' column='1'/>
            <parameter type-id='type-id-53' filepath='/usr/bin/../lib/gcc/x86_64-linux-gnu/4.9/../../../../include/c++/4.9/bits/basic_string.h' line='1761' column='1'/>
            <parameter type-id='type-id-118' filepath='/usr/bin/../lib/gcc/x86_64-linux-gnu/4.9/../../../../include/c++/4.9/bits/basic_string.h' line='1761' column='1'/>
            <return type-id='type-id-53'/>
          </function-decl>
        </member-function>
        <member-function access='private' static='yes'>
          <function-decl name='_S_construct_aux&lt;char *&gt;' mangled-name='_ZNSs16_S_construct_auxIPcEES0_T_S1_RKSaIcESt12__false_type' filepath='/usr/bin/../lib/gcc/x86_64-linux-gnu/4.9/../../../../include/c++/4.9/bits/basic_string.h' line='1739' column='1' visibility='default' binding='global' size-in-bits='64' elf-symbol-id='_ZNSs16_S_construct_auxIPcEES0_T_S1_RKSaIcESt12__false_type' hash='9895045035709c6f'>
            <parameter type-id='type-id-53' filepath='/usr/bin/../lib/gcc/x86_64-linux-gnu/4.9/../../../../include/c++/4.9/bits/basic_string.h' line='1739' column='1'/>
            <parameter type-id='type-id-53' filepath='/usr/bin/../lib/gcc/x86_64-linux-gnu/4.9/../../../../include/c++/4.9/bits/basic_string.h' line='1739' column='1'/>
            <parameter type-id='type-id-118' filepath='/usr/bin/../lib/gcc/x86_64-linux-gnu/4.9/../../../../include/c++/4.9/bits/basic_string.h' line='1740' column='1'/>
            <parameter type-id='type-id-121' filepath='/usr/bin/../lib/gcc/x86_64-linux-gnu/4.9/../../../../include/c++/4.9/bits/basic_string.h' line='1740' column='1'/>
            <return type-id='type-id-53'/>
          </function-decl>
        </member-function>
        <member-function access='private' static='yes'>
          <function-decl name='_S_construct&lt;char *&gt;' mangled-name='_ZNSs12_S_constructIPcEES0_T_S1_RKSaIcESt20forward_iterator_tag' filepath='/usr/bin/../lib/gcc/x86_64-linux-gnu/4.9/../../../../include/c++/4.9/bits/basic_string.h' line='1777' column='1' visibility='default' binding='global' size-in-bits='64' elf-symbol-id='_ZNSs12_S_constructIPcEES0_T_S1_RKSaIcESt20forward_iterator_tag' hash='9895045035709c6f'>
            <parameter type-id='type-id-53' filepath='/usr/bin/../lib/gcc/x86_64-linux-gnu/4.9/../../../../include/c++/4.9/bits/basic_string.tcc' line='1777' column='1'/>
            <parameter type-id='type-id-53' filepath='/usr/bin/../lib/gcc/x86_64-linux-gnu/4.9/../../../../include/c++/4.9/bits/basic_string.tcc' line='1777' column='1'/>
            <parameter type-id='type-id-118' filepath='/usr/bin/../lib/gcc/x86_64-linux-gnu/4.9/../../../../include/c++/4.9/bits/basic_string.tcc' line='1777' column='1'/>
            <parameter type-id='type-id-122' filepath='/usr/bin/../lib/gcc/x86_64-linux-gnu/4.9/../../../../include/c++/4.9/bits/basic_string.tcc' line='1778' column='1'/>
            <return type-id='type-id-53'/>
          </function-decl>
        </member-function>
        <member-function access='public'>
          <function-decl name='basic_string&lt;const char *&gt;' mangled-name='_ZNSsC2IPKcEET_S2_RKSaIcE' filepath='/usr/bin/../lib/gcc/x86_64-linux-gnu/4.9/../../../../include/c++/4.9/bits/basic_string.h' line='540' column='1' visibility='default' binding='global' size-in-bits='64' elf-symbol-id='_ZNSsC2IPKcEET_S2_RKSaIcE' hash='3d5693612af11c46'>
            <parameter type-id='type-id-123' is-artificial='yes'/>
            <parameter type-id='type-id-18' filepath='/usr/bin/../lib/gcc/x86_64-linux-gnu/4.9/../../../../include/c++/4.9/bits/basic_string.tcc' line='540' column='1'/>
            <parameter type-id='type-id-18' filepath='/usr/bin/../lib/gcc/x86_64-linux-gnu/4.9/../../../../include/c++/4.9/bits/basic_string.tcc' line='540' column='1'/>
            <parameter type-id='type-id-118' filepath='/usr/bin/../lib/gcc/x86_64-linux-gnu/4.9/../../../../include/c++/4.9/bits/basic_string.tcc' line='541' column='1'/>
            <return type-id='type-id-119'/>
          </function-decl>
        </member-function>
        <member-function access='private' static='yes'>
          <function-decl name='_S_construct&lt;const char *&gt;' mangled-name='_ZNSs12_S_constructIPKcEEPcT_S3_RKSaIcE' filepath='/usr/bin/../lib/gcc/x86_64-linux-gnu/4.9/../../../../include/c++/4.9/bits/basic_string.h' line='1761' column='1' visibility='default' binding='global' size-in-bits='64' elf-symbol-id='_ZNSs12_S_constructIPKcEEPcT_S3_RKSaIcE' hash='21babdbcb7a34ebe'>
            <parameter type-id='type-id-18' filepath='/usr/bin/../lib/gcc/x86_64-linux-gnu/4.9/../../../../include/c++/4.9/bits/basic_string.h' line='1761' column='1'/>
            <parameter type-id='type-id-18' filepath='/usr/bin/../lib/gcc/x86_64-linux-gnu/4.9/../../../../include/c++/4.9/bits/basic_string.h' line='1761' column='1'/>
            <parameter type-id='type-id-118' filepath='/usr/bin/../lib/gcc/x86_64-linux-gnu/4.9/../../../../include/c++/4.9/bits/basic_string.h' line='1761' column='1'/>
            <return type-id='type-id-53'/>
          </function-decl>
        </member-function>
        <member-function access='private' static='yes'>
          <function-decl name='_S_construct_aux&lt;const char *&gt;' mangled-name='_ZNSs16_S_construct_auxIPKcEEPcT_S3_RKSaIcESt12__false_type' filepath='/usr/bin/../lib/gcc/x86_64-linux-gnu/4.9/../../../../include/c++/4.9/bits/basic_string.h' line='1739' column='1' visibility='default' binding='global' size-in-bits='64' elf-symbol-id='_ZNSs16_S_construct_auxIPKcEEPcT_S3_RKSaIcESt12__false_type' hash='21babdbcb7a34ebe'>
            <parameter type-id='type-id-18' filepath='/usr/bin/../lib/gcc/x86_64-linux-gnu/4.9/../../../../include/c++/4.9/bits/basic_string.h' line='1739' column='1'/>
            <parameter type-id='type-id-18' filepath='/usr/bin/../lib/gcc/x86_64-linux-gnu/4.9/../../../../include/c++/4.9/bits/basic_string.h' line='1739' column='1'/>
            <parameter type-id='type-id-118' filepath='/usr/bin/../lib/gcc/x86_64-linux-gnu/4.9/../../../../include/c++/4.9/bits/basic_string.h' line='1740' column='1'/>
            <parameter type-id='type-id-121' filepath='/usr/bin/../lib/gcc/x86_64-linux-gnu/4.9/../../../../include/c++/4.9/bits/basic_string.h' line='1740' column='1'/>
            <return type-id='type-id-53'/>
          </function-decl>
        </member-function>
        <member-function access='private' static='yes'>
          <function-decl name='_S_construct&lt;const char *&gt;' mangled-name='_ZNSs12_S_constructIPKcEEPcT_S3_RKSaIcESt20forward_iterator_tag' filepath='/usr/bin/../lib/gcc/x86_64-linux-gnu/4.9/../../../../include/c++/4.9/bits/basic_string.h' line='1777' column='1' visibility='default' binding='global' size-in-bits='64' elf-symbol-id='_ZNSs12_S_constructIPKcEEPcT_S3_RKSaIcESt20forward_iterator_tag' hash='21babdbcb7a34ebe'>
            <parameter type-id='type-id-18' filepath='/usr/bin/../lib/gcc/x86_64-linux-gnu/4.9/../../../../include/c++/4.9/bits/basic_string.tcc' line='1777' column='1'/>
            <parameter type-id='type-id-18' filepath='/usr/bin/../lib/gcc/x86_64-linux-gnu/4.9/../../../../include/c++/4.9/bits/basic_string.tcc' line='1777' column='1'/>
            <parameter type-id='type-id-118' filepath='/usr/bin/../lib/gcc/x86_64-linux-gnu/4.9/../../../../include/c++/4.9/bits/basic_string.tcc' line='1777' column='1'/>
            <parameter type-id='type-id-122' filepath='/usr/bin/../lib/gcc/x86_64-linux-gnu/4.9/../../../../include/c++/4.9/bits/basic_string.tcc' line='1778' column='1'/>
            <return type-id='type-id-53'/>
          </function-decl>
        </member-function>
        <member-function access='public'>
          <function-decl name='append&lt;char *&gt;' mangled-name='_ZNSs6appendIPcEERSsT_S2_' filepath='/usr/bin/../lib/gcc/x86_64-linux-gnu/4.9/../../../../include/c++/4.9/bits/basic_string.h' line='1061' column='1' visibility='default' binding='global' size-in-bits='64' elf-symbol-id='_ZNSs6appendIPcEERSsT_S2_' hash='6faa8831d3af3ad4'>
            <parameter type-id='type-id-124' is-artificial='yes'/>
            <parameter type-id='type-id-53' filepath='/usr/bin/../lib/gcc/x86_64-linux-gnu/4.9/../../../../include/c++/4.9/bits/basic_string.h' line='1061' column='1'/>
            <parameter type-id='type-id-53' filepath='/usr/bin/../lib/gcc/x86_64-linux-gnu/4.9/../../../../include/c++/4.9/bits/basic_string.h' line='1061' column='1'/>
            <return type-id='type-id-120'/>
          </function-decl>
        </member-function>
      </class-decl>
      <typedef-decl name='string' type-id='type-id-116' filepath='/usr/bin/../lib/gcc/x86_64-linux-gnu/4.9/../../../../include/c++/4.9/bits/stringfwd.h' line='62' column='1' id='type-id-125'/>
    </namespace-decl>
    <typedef-decl name='FILE' type-id='type-id-113' filepath='/usr/include/stdio.h' line='48' column='1' id='type-id-104'/>
    <typedef-decl name='__FILE' type-id='type-id-113' filepath='/usr/include/stdio.h' line='64' column='1' id='type-id-107'/>
    <function-decl name='rename' filepath='/usr/include/stdio.h' line='180' column='1' visibility='default' binding='global' size-in-bits='64' hash='5f03b5b551b5a51f'>
      <parameter type-id='type-id-18'/>
      <parameter type-id='type-id-18'/>
      <return type-id='type-id-8'/>
    </function-decl>
    <function-decl name='malloc' filepath='/usr/include/stdlib.h' line='466' column='1' visibility='default' binding='global' size-in-bits='64' hash='e0055d99adb0e173'>
      <parameter type-id='type-id-35'/>
      <return type-id='type-id-14'/>
    </function-decl>
    <function-decl name='free' filepath='/usr/include/stdlib.h' line='483' column='1' visibility='default' binding='global' size-in-bits='64' hash='7f32ffea222edbe7'>
      <parameter type-id='type-id-14'/>
      <return type-id='type-id-119'/>
    </function-decl>
    <function-decl name='getenv' filepath='/usr/include/stdlib.h' line='564' column='1' visibility='default' binding='global' size-in-bits='64' hash='bac6a89264ba699c'>
      <parameter type-id='type-id-18'/>
      <return type-id='type-id-53'/>
    </function-decl>
    <function-decl name='wcslen' filepath='/usr/include/wchar.h' line='287' column='1' visibility='default' binding='global' size-in-bits='64' hash='5411970340edbefd'>
      <parameter type-id='type-id-87'/>
      <return type-id='type-id-35'/>
    </function-decl>
    <namespace-decl name='boost'>
      <typedef-decl name='noncopyable' type-id='type-id-44' size-in-bits='8' filepath='src/third_party/boost-1.56.0/boost/core/noncopyable.hpp' line='44' column='1' id='type-id-126'/>
      <namespace-decl name='noncopyable_'>
        <class-decl name='noncopyable' visibility='default' size-in-bits='8' filepath='src/third_party/boost-1.56.0/boost/core/noncopyable.hpp' line='23' column='1' hash='0ef0f830838f423d' id='type-id-44'/>
      </namespace-decl>
      <namespace-decl name='filesystem'>
        <function-decl name='codecvt_error_category' mangled-name='_ZN5boost10filesystem22codecvt_error_categoryEv' filepath='src/third_party/boost-1.56.0/libs/filesystem/src/codecvt_error_category.cpp' line='77' column='1' visibility='default' binding='global' size-in-bits='64' elf-symbol-id='_ZN5boost10filesystem22codecvt_error_categoryEv' hash='43fa35073b692cf4'>
          <return type-id='type-id-63'/>
        </function-decl>
      </namespace-decl>
      <namespace-decl name='system'>
        <class-decl name='error_category' visibility='default' size-in-bits='64' filepath='src/third_party/boost-1.56.0/boost/system/error_code.hpp' line='185' column='1' hash='789b850edc988174' id='type-id-47'>
          <base-class access='public' layout-offset-in-bits='0' type-id='type-id-44'/>
          <member-function access='public' const='yes'>
            <function-decl name='operator==' mangled-name='_ZNK5boost6system14error_categoryeqERKS1_' filepath='src/third_party/boost-1.56.0/boost/system/error_code.hpp' line='198' column='1' visibility='default' binding='global' size-in-bits='64' elf-symbol-id='_ZNK5boost6system14error_categoryeqERKS1_' hash='7dc9ee065800ed80'>
              <parameter type-id='type-id-64' is-artificial='yes'/>
              <parameter type-id='type-id-63'/>
              <return type-id='type-id-1'/>
            </function-decl>
          </member-function>
          <member-function access='public' destructor='yes' vtable-offset='0'>
            <function-decl name='~error_category' filepath='src/third_party/boost-1.56.0/boost/system/error_code.hpp' line='188' column='1' visibility='default' binding='global' size-in-bits='64' hash='7f32ffea222edbe7'>
              <parameter type-id='type-id-48' is-artificial='yes'/>
              <return type-id='type-id-119'/>
            </function-decl>
          </member-function>
          <member-function access='public' destructor='yes' vtable-offset='0'>
            <function-decl name='~error_category' mangled-name='_ZN5boost6system14error_categoryD0Ev' filepath='src/third_party/boost-1.56.0/boost/system/error_code.hpp' line='188' column='1' visibility='default' binding='global' size-in-bits='64' elf-symbol-id='_ZN5boost6system14error_categoryD0Ev' hash='7f32ffea222edbe7'>
              <parameter type-id='type-id-48' is-artificial='yes'/>
              <return type-id='type-id-119'/>
            </function-decl>
          </member-function>
          <member-function access='public' destructor='yes' vtable-offset='0'>
            <function-decl name='~error_category' mangled-name='_ZN5boost6system14error_categoryD2Ev' filepath='src/third_party/boost-1.56.0/boost/system/error_code.hpp' line='188' column='1' visibility='default' binding='global' size-in-bits='64' elf-symbol-id='_ZN5boost6system14error_categoryD2Ev' hash='7f32ffea222edbe7'>
              <parameter type-id='type-id-48' is-artificial='yes'/>
              <return type-id='type-id-119'/>
            </function-decl>
          </member-function>
          <member-function access='public' const='yes' vtable-offset='2'>
            <function-decl name='name' mangled-name='_ZNK5boost6system14error_category4nameEv' filepath='src/third_party/boost-1.56.0/boost/system/error_code.hpp' line='190' column='1' visibility='default' binding='global' size-in-bits='64' hash='53885bde0aa65efe'>
              <parameter type-id='type-id-64' is-artificial='yes'/>
              <return type-id='type-id-18'/>
            </function-decl>
          </member-function>
          <member-function access='public' const='yes' vtable-offset='3'>
            <function-decl name='message' mangled-name='_ZNK5boost6system14error_category7messageEi' filepath='src/third_party/boost-1.56.0/boost/system/error_code.hpp' line='191' column='1' visibility='default' binding='global' size-in-bits='64' hash='388da3fa973fde78'>
              <parameter type-id='type-id-64' is-artificial='yes'/>
              <parameter type-id='type-id-8'/>
              <return type-id='type-id-125'/>
            </function-decl>
          </member-function>
          <member-function access='public' const='yes' vtable-offset='4'>
            <function-decl name='default_error_condition' mangled-name='_ZNK5boost6system14error_category23default_error_conditionEi' filepath='src/third_party/boost-1.56.0/boost/system/error_code.hpp' line='192' column='1' visibility='default' binding='global' size-in-bits='64' elf-symbol-id='_ZNK5boost6system14error_category23default_error_conditionEi' hash='388da3fa973fde78'>
              <parameter type-id='type-id-64' is-artificial='yes'/>
              <parameter type-id='type-id-8'/>
              <return type-id='type-id-51'/>
            </function-decl>
          </member-function>
          <member-function access='public' const='yes' vtable-offset='5'>
            <function-decl name='equivalent' mangled-name='_ZNK5boost6system14error_category10equivalentEiRKNS0_15error_conditionE' filepath='src/third_party/boost-1.56.0/boost/system/error_code.hpp' line='193' column='1' visibility='default' binding='global' size-in-bits='64' elf-symbol-id='_ZNK5boost6system14error_category10equivalentEiRKNS0_15error_conditionE' hash='9e65ea71fc344b89'>
              <parameter type-id='type-id-64' is-artificial='yes'/>
              <parameter type-id='type-id-8'/>
              <parameter type-id='type-id-69'/>
              <return type-id='type-id-1'/>
            </function-decl>
          </member-function>
          <member-function access='public' const='yes' vtable-offset='6'>
            <function-decl name='equivalent' mangled-name='_ZNK5boost6system14error_category10equivalentERKNS0_10error_codeEi' filepath='src/third_party/boost-1.56.0/boost/system/error_code.hpp' line='195' column='1' visibility='default' binding='global' size-in-bits='64' elf-symbol-id='_ZNK5boost6system14error_category10equivalentERKNS0_10error_codeEi' hash='75d9353326bc1b1d'>
              <parameter type-id='type-id-64' is-artificial='yes'/>
              <parameter type-id='type-id-66'/>
              <parameter type-id='type-id-8'/>
              <return type-id='type-id-1'/>
            </function-decl>
          </member-function>
        </class-decl>
        <class-decl name='error_code' visibility='default' size-in-bits='128' filepath='src/third_party/boost-1.56.0/boost/system/error_code.hpp' line='317' column='1' hash='da54e3ecfbec1dfb' id='type-id-49'>
          <member-type access='private'>
            <typedef-decl name='unspecified_bool_type' type-id='type-id-99' size-in-bits='64' filepath='src/third_party/boost-1.56.0/boost/system/error_code.hpp' line='359' column='1' hash='fd7a63c0c6c822c4' id='type-id-127'/>
          </member-type>
          <data-member access='private' layout-offset-in-bits='0'>
            <var-decl name='m_val' type-id='type-id-8' visibility='default' filepath='src/third_party/boost-1.56.0/boost/system/error_code.hpp' line='391' column='1'/>
          </data-member>
          <data-member access='private' layout-offset-in-bits='64'>
            <var-decl name='m_cat' type-id='type-id-64' visibility='default' filepath='src/third_party/boost-1.56.0/boost/system/error_code.hpp' line='392' column='1'/>
          </data-member>
          <member-function access='public' const='yes'>
            <function-decl name='category' mangled-name='_ZNK5boost6system10error_code8categoryEv' filepath='src/third_party/boost-1.56.0/boost/system/error_code.hpp' line='355' column='1' visibility='default' binding='global' size-in-bits='64' elf-symbol-id='_ZNK5boost6system10error_code8categoryEv' hash='43fa35073b692cf4'>
              <parameter type-id='type-id-67' is-artificial='yes'/>
              <return type-id='type-id-63'/>
            </function-decl>
          </member-function>
          <member-function access='public' const='yes'>
            <function-decl name='value' mangled-name='_ZNK5boost6system10error_code5valueEv' filepath='src/third_party/boost-1.56.0/boost/system/error_code.hpp' line='354' column='1' visibility='default' binding='global' size-in-bits='64' elf-symbol-id='_ZNK5boost6system10error_code5valueEv' hash='388da3fa973fde78'>
              <parameter type-id='type-id-67' is-artificial='yes'/>
              <return type-id='type-id-8'/>
            </function-decl>
          </member-function>
          <member-function access='public' const='yes'>
            <function-decl name='message' mangled-name='_ZNK5boost6system10error_code7messageEv' filepath='src/third_party/boost-1.56.0/boost/system/error_code.hpp' line='357' column='1' visibility='default' binding='global' size-in-bits='64' elf-symbol-id='_ZNK5boost6system10error_code7messageEv' hash='7f32ffea222edbe7'>
              <parameter type-id='type-id-67' is-artificial='yes'/>
              <return type-id='type-id-125'/>
            </function-decl>
          </member-function>
          <member-function access='public' constructor='yes'>
            <function-decl name='error_code' mangled-name='_ZN5boost6system10error_codeC2Ev' filepath='src/third_party/boost-1.56.0/boost/system/error_code.hpp' line='322' column='1' visibility='default' binding='global' size-in-bits='64' elf-symbol-id='_ZN5boost6system10error_codeC2Ev' hash='7f32ffea222edbe7'>
              <parameter type-id='type-id-50' is-artificial='yes'/>
              <return type-id='type-id-119'/>
            </function-decl>
          </member-function>
          <member-function access='public' constructor='yes'>
            <function-decl name='error_code' mangled-name='_ZN5boost6system10error_codeC2EiRKNS0_14error_categoryE' filepath='src/third_party/boost-1.56.0/boost/system/error_code.hpp' line='323' column='1' visibility='default' binding='global' size-in-bits='64' elf-symbol-id='_ZN5boost6system10error_codeC2EiRKNS0_14error_categoryE' hash='d12729ae32a5ca93'>
              <parameter type-id='type-id-50' is-artificial='yes'/>
              <parameter type-id='type-id-8'/>
              <parameter type-id='type-id-63'/>
              <return type-id='type-id-119'/>
            </function-decl>
          </member-function>
          <member-function access='public'>
            <function-decl name='assign' mangled-name='_ZN5boost6system10error_code6assignEiRKNS0_14error_categoryE' filepath='src/third_party/boost-1.56.0/boost/system/error_code.hpp' line='333' column='1' visibility='default' binding='global' size-in-bits='64' elf-symbol-id='_ZN5boost6system10error_code6assignEiRKNS0_14error_categoryE' hash='d12729ae32a5ca93'>
              <parameter type-id='type-id-50' is-artificial='yes'/>
              <parameter type-id='type-id-8'/>
              <parameter type-id='type-id-63'/>
              <return type-id='type-id-119'/>
            </function-decl>
          </member-function>
          <member-function access='public' const='yes'>
            <function-decl name='operator void (*)()' mangled-name='_ZNK5boost6system10error_codecvPFvvEEv' filepath='src/third_party/boost-1.56.0/boost/system/error_code.hpp' line='362' column='1' visibility='default' binding='global' size-in-bits='64' elf-symbol-id='_ZNK5boost6system10error_codecvPFvvEEv' hash='5695f5ce05a4c55f'>
              <parameter type-id='type-id-67' is-artificial='yes'/>
              <return type-id='type-id-127'/>
            </function-decl>
          </member-function>
          <member-function access='public'>
            <function-decl name='clear' mangled-name='_ZN5boost6system10error_code5clearEv' filepath='src/third_party/boost-1.56.0/boost/system/error_code.hpp' line='347' column='1' visibility='default' binding='global' size-in-bits='64' elf-symbol-id='_ZN5boost6system10error_code5clearEv' hash='7f32ffea222edbe7'>
              <parameter type-id='type-id-50' is-artificial='yes'/>
              <return type-id='type-id-119'/>
            </function-decl>
          </member-function>
          <member-function access='public' static='yes'>
            <function-decl name='unspecified_bool_true' mangled-name='_ZN5boost6system10error_code21unspecified_bool_trueEv' filepath='src/third_party/boost-1.56.0/boost/system/error_code.hpp' line='360' column='1' visibility='default' binding='global' size-in-bits='64' elf-symbol-id='_ZN5boost6system10error_code21unspecified_bool_trueEv' hash='7f32ffea222edbe7'>
              <return type-id='type-id-119'/>
            </function-decl>
          </member-function>
        </class-decl>
        <class-decl name='error_condition' visibility='default' size-in-bits='128' filepath='src/third_party/boost-1.56.0/boost/system/error_code.hpp' line='230' column='1' hash='bed1f5a4fdf7dca0' id='type-id-51'>
          <member-type access='private'>
            <typedef-decl name='unspecified_bool_type' type-id='type-id-99' size-in-bits='64' filepath='src/third_party/boost-1.56.0/boost/system/error_code.hpp' line='272' column='1' hash='fd7a63c0c6c822c4' id='type-id-128'/>
          </member-type>
          <data-member access='private' layout-offset-in-bits='0'>
            <var-decl name='m_val' type-id='type-id-8' visibility='default' filepath='src/third_party/boost-1.56.0/boost/system/error_code.hpp' line='304' column='1'/>
          </data-member>
          <data-member access='private' layout-offset-in-bits='64'>
            <var-decl name='m_cat' type-id='type-id-64' visibility='default' filepath='src/third_party/boost-1.56.0/boost/system/error_code.hpp' line='305' column='1'/>
          </data-member>
          <member-function access='public' constructor='yes'>
            <function-decl name='error_condition' mangled-name='_ZN5boost6system15error_conditionC2EiRKNS0_14error_categoryE' filepath='src/third_party/boost-1.56.0/boost/system/error_code.hpp' line='236' column='1' visibility='default' binding='global' size-in-bits='64' elf-symbol-id='_ZN5boost6system15error_conditionC2EiRKNS0_14error_categoryE' hash='d12729ae32a5ca93'>
              <parameter type-id='type-id-52' is-artificial='yes'/>
              <parameter type-id='type-id-8'/>
              <parameter type-id='type-id-63'/>
              <return type-id='type-id-119'/>
            </function-decl>
          </member-function>
        </class-decl>
        <function-decl name='operator==' mangled-name='_ZN5boost6systemeqERKNS0_15error_conditionES3_' filepath='src/third_party/boost-1.56.0/boost/system/error_code.hpp' line='288' column='1' visibility='default' binding='global' size-in-bits='64' elf-symbol-id='_ZN5boost6systemeqERKNS0_15error_conditionES3_' hash='4a3390772120f744'>
          <parameter type-id='type-id-69' filepath='src/third_party/boost-1.56.0/boost/system/error_code.hpp' line='288' column='1'/>
          <parameter type-id='type-id-69' filepath='src/third_party/boost-1.56.0/boost/system/error_code.hpp' line='289' column='1'/>
          <return type-id='type-id-1'/>
        </function-decl>
      </namespace-decl>
    </namespace-decl>
    <namespace-decl name=''>
      <class-decl name='codecvt_error_cat' visibility='default' size-in-bits='64' filepath='src/third_party/boost-1.56.0/libs/filesystem/src/codecvt_error_category.cpp' line='34' column='1' hash='cd1495737e0e8edf' id='type-id-57'>
        <base-class access='public' layout-offset-in-bits='0' type-id='type-id-47'/>
        <member-function access='public' const='yes' vtable-offset='2'>
          <function-decl name='name' mangled-name='_ZNK12_GLOBAL__N_117codecvt_error_cat4nameEv' filepath='src/third_party/boost-1.56.0/libs/filesystem/src/codecvt_error_category.cpp' line='38' column='1' visibility='default' binding='global' size-in-bits='64' hash='53885bde0aa65efe'>
            <parameter type-id='type-id-76' is-artificial='yes'/>
            <return type-id='type-id-18'/>
          </function-decl>
        </member-function>
        <member-function access='public' const='yes' vtable-offset='3'>
          <function-decl name='message' mangled-name='_ZNK12_GLOBAL__N_117codecvt_error_cat7messageEi' filepath='src/third_party/boost-1.56.0/libs/filesystem/src/codecvt_error_category.cpp' line='39' column='1' visibility='default' binding='global' size-in-bits='64' hash='388da3fa973fde78'>
            <parameter type-id='type-id-76' is-artificial='yes'/>
            <parameter type-id='type-id-8'/>
            <return type-id='type-id-125'/>
          </function-decl>
        </member-function>
      </class-decl>
    </namespace-decl>
    <type-decl name='variadic parameter type' id='type-id-129'/>
    <type-decl name='void' id='type-id-119'/>
    <pointer-type-def type-id='type-id-119' id='type-id-14'/>
    <function-type size-in-bits='64' hash='388da3fa973fde78' id='type-id-93'>
      <parameter type-id='type-id-14'/>
      <parameter type-id='type-id-14'/>
      <return type-id='type-id-8'/>
    </function-type>
    <function-type size-in-bits='64' hash='7f32ffea222edbe7' id='type-id-98'>
      <return type-id='type-id-119'/>
    </function-type>
    <class-decl name='__mbstate_t' is-struct='yes' naming-typedef-id='type-id-25' visibility='default' size-in-bits='64' filepath='/usr/include/wchar.h' line='82' column='1' hash='e97fe294ce223fec' id='type-id-19'>
      <member-type access='public'>
        <union-decl name='__anonymous_union__' visibility='default' size-in-bits='32' is-anonymous='yes' filepath='/usr/include/wchar.h' line='85' column='1' hash='db9d16b710a8f305' id='type-id-112'>
          <data-member access='public'>
            <var-decl name='__wch' type-id='type-id-13' visibility='default' filepath='/usr/include/wchar.h' line='88' column='1'/>
          </data-member>
          <data-member access='public'>
            <var-decl name='__wchb' type-id='type-id-3' visibility='default' filepath='/usr/include/wchar.h' line='92' column='1'/>
          </data-member>
        </union-decl>
      </member-type>
    </class-decl>
    <function-type method-class-id='type-id-47' const='yes' size-in-bits='64' hash='7dc9ee065800ed80' id='type-id-130'>
      <parameter type-id='type-id-64' is-artificial='yes'/>
      <parameter type-id='type-id-63'/>
      <return type-id='type-id-1'/>
    </function-type>
    <function-type method-class-id='type-id-47' const='yes' size-in-bits='64' hash='75d9353326bc1b1d' id='type-id-131'>
      <parameter type-id='type-id-64' is-artificial='yes'/>
      <parameter type-id='type-id-66'/>
      <parameter type-id='type-id-8'/>
      <return type-id='type-id-1'/>
    </function-type>
    <function-type method-class-id='type-id-47' const='yes' size-in-bits='64' hash='9e65ea71fc344b89' id='type-id-132'>
      <parameter type-id='type-id-64' is-artificial='yes'/>
      <parameter type-id='type-id-8'/>
      <parameter type-id='type-id-69'/>
      <return type-id='type-id-1'/>
    </function-type>
    <function-type method-class-id='type-id-47' const='yes' size-in-bits='64' hash='388da3fa973fde78' id='type-id-133'>
      <parameter type-id='type-id-64' is-artificial='yes'/>
      <parameter type-id='type-id-8'/>
      <return type-id='type-id-51'/>
    </function-type>
    <function-type method-class-id='type-id-116' size-in-bits='64' hash='9895045035709c6f' id='type-id-134'>
      <parameter type-id='type-id-53' filepath='/usr/bin/../lib/gcc/x86_64-linux-gnu/4.9/../../../../include/c++/4.9/bits/basic_string.h' line='1761' column='1'/>
      <parameter type-id='type-id-53' filepath='/usr/bin/../lib/gcc/x86_64-linux-gnu/4.9/../../../../include/c++/4.9/bits/basic_string.h' line='1761' column='1'/>
      <parameter type-id='type-id-118' filepath='/usr/bin/../lib/gcc/x86_64-linux-gnu/4.9/../../../../include/c++/4.9/bits/basic_string.h' line='1761' column='1'/>
      <return type-id='type-id-53'/>
    </function-type>
    <function-type method-class-id='type-id-116' size-in-bits='64' hash='9895045035709c6f' id='type-id-135'>
      <parameter type-id='type-id-53' filepath='/usr/bin/../lib/gcc/x86_64-linux-gnu/4.9/../../../../include/c++/4.9/bits/basic_string.h' line='1739' column='1'/>
      <parameter type-id='type-id-53' filepath='/usr/bin/../lib/gcc/x86_64-linux-gnu/4.9/../../../../include/c++/4.9/bits/basic_string.h' line='1739' column='1'/>
      <parameter type-id='type-id-118' filepath='/usr/bin/../lib/gcc/x86_64-linux-gnu/4.9/../../../../include/c++/4.9/bits/basic_string.h' line='1740' column='1'/>
      <parameter type-id='type-id-121' filepath='/usr/bin/../lib/gcc/x86_64-linux-gnu/4.9/../../../../include/c++/4.9/bits/basic_string.h' line='1740' column='1'/>
      <return type-id='type-id-53'/>
    </function-type>
    <function-type method-class-id='type-id-116' size-in-bits='64' hash='9895045035709c6f' id='type-id-136'>
      <parameter type-id='type-id-53' filepath='/usr/bin/../lib/gcc/x86_64-linux-gnu/4.9/../../../../include/c++/4.9/bits/basic_string.tcc' line='1777' column='1'/>
      <parameter type-id='type-id-53' filepath='/usr/bin/../lib/gcc/x86_64-linux-gnu/4.9/../../../../include/c++/4.9/bits/basic_string.tcc' line='1777' column='1'/>
      <parameter type-id='type-id-118' filepath='/usr/bin/../lib/gcc/x86_64-linux-gnu/4.9/../../../../include/c++/4.9/bits/basic_string.tcc' line='1777' column='1'/>
      <parameter type-id='type-id-122' filepath='/usr/bin/../lib/gcc/x86_64-linux-gnu/4.9/../../../../include/c++/4.9/bits/basic_string.tcc' line='1778' column='1'/>
      <return type-id='type-id-53'/>
    </function-type>
    <function-type method-class-id='type-id-116' size-in-bits='64' hash='21babdbcb7a34ebe' id='type-id-137'>
      <parameter type-id='type-id-18' filepath='/usr/bin/../lib/gcc/x86_64-linux-gnu/4.9/../../../../include/c++/4.9/bits/basic_string.h' line='1761' column='1'/>
      <parameter type-id='type-id-18' filepath='/usr/bin/../lib/gcc/x86_64-linux-gnu/4.9/../../../../include/c++/4.9/bits/basic_string.h' line='1761' column='1'/>
      <parameter type-id='type-id-118' filepath='/usr/bin/../lib/gcc/x86_64-linux-gnu/4.9/../../../../include/c++/4.9/bits/basic_string.h' line='1761' column='1'/>
      <return type-id='type-id-53'/>
    </function-type>
    <function-type method-class-id='type-id-116' size-in-bits='64' hash='21babdbcb7a34ebe' id='type-id-138'>
      <parameter type-id='type-id-18' filepath='/usr/bin/../lib/gcc/x86_64-linux-gnu/4.9/../../../../include/c++/4.9/bits/basic_string.h' line='1739' column='1'/>
      <parameter type-id='type-id-18' filepath='/usr/bin/../lib/gcc/x86_64-linux-gnu/4.9/../../../../include/c++/4.9/bits/basic_string.h' line='1739' column='1'/>
      <parameter type-id='type-id-118' filepath='/usr/bin/../lib/gcc/x86_64-linux-gnu/4.9/../../../../include/c++/4.9/bits/basic_string.h' line='1740' column='1'/>
      <parameter type-id='type-id-121' filepath='/usr/bin/../lib/gcc/x86_64-linux-gnu/4.9/../../../../include/c++/4.9/bits/basic_string.h' line='1740' column='1'/>
      <return type-id='type-id-53'/>
    </function-type>
    <function-type method-class-id='type-id-116' size-in-bits='64' hash='21babdbcb7a34ebe' id='type-id-139'>
      <parameter type-id='type-id-18' filepath='/usr/bin/../lib/gcc/x86_64-linux-gnu/4.9/../../../../include/c++/4.9/bits/basic_string.tcc' line='1777' column='1'/>
      <parameter type-id='type-id-18' filepath='/usr/bin/../lib/gcc/x86_64-linux-gnu/4.9/../../../../include/c++/4.9/bits/basic_string.tcc' line='1777' column='1'/>
      <parameter type-id='type-id-118' filepath='/usr/bin/../lib/gcc/x86_64-linux-gnu/4.9/../../../../include/c++/4.9/bits/basic_string.tcc' line='1777' column='1'/>
      <parameter type-id='type-id-122' filepath='/usr/bin/../lib/gcc/x86_64-linux-gnu/4.9/../../../../include/c++/4.9/bits/basic_string.tcc' line='1778' column='1'/>
      <return type-id='type-id-53'/>
    </function-type>
    <function-type method-class-id='type-id-47' const='yes' size-in-bits='64' hash='53885bde0aa65efe' id='type-id-140'>
      <parameter type-id='type-id-64' is-artificial='yes'/>
      <return type-id='type-id-18'/>
    </function-type>
    <function-type method-class-id='type-id-116' size-in-bits='64' hash='6faa8831d3af3ad4' id='type-id-141'>
      <parameter type-id='type-id-124' is-artificial='yes'/>
      <parameter type-id='type-id-53' filepath='/usr/bin/../lib/gcc/x86_64-linux-gnu/4.9/../../../../include/c++/4.9/bits/basic_string.h' line='1061' column='1'/>
      <parameter type-id='type-id-53' filepath='/usr/bin/../lib/gcc/x86_64-linux-gnu/4.9/../../../../include/c++/4.9/bits/basic_string.h' line='1061' column='1'/>
      <return type-id='type-id-120'/>
    </function-type>
    <function-type method-class-id='type-id-116' size-in-bits='64' hash='3d5693612af11c46' id='type-id-142'>
      <parameter type-id='type-id-117' is-artificial='yes'/>
      <parameter type-id='type-id-18' filepath='/usr/bin/../lib/gcc/x86_64-linux-gnu/4.9/../../../../include/c++/4.9/bits/basic_string.h' line='1061' column='1'/>
      <parameter type-id='type-id-18' filepath='/usr/bin/../lib/gcc/x86_64-linux-gnu/4.9/../../../../include/c++/4.9/bits/basic_string.h' line='1061' column='1'/>
      <return type-id='type-id-120'/>
    </function-type>
    <function-type method-class-id='type-id-47' const='yes' size-in-bits='64' hash='388da3fa973fde78' id='type-id-143'>
      <parameter type-id='type-id-64' is-artificial='yes'/>
      <parameter type-id='type-id-8'/>
      <return type-id='type-id-125'/>
    </function-type>
    <function-type method-class-id='type-id-47' size-in-bits='64' hash='7f32ffea222edbe7' id='type-id-144'>
      <parameter type-id='type-id-48' is-artificial='yes'/>
      <return type-id='type-id-119'/>
    </function-type>
    <function-type method-class-id='type-id-116' size-in-bits='64' hash='6faa8831d3af3ad4' id='type-id-145'>
      <parameter type-id='type-id-117' is-artificial='yes'/>
      <parameter type-id='type-id-53' filepath='/usr/bin/../lib/gcc/x86_64-linux-gnu/4.9/../../../../include/c++/4.9/bits/basic_string.tcc' line='540' column='1'/>
      <parameter type-id='type-id-53' filepath='/usr/bin/../lib/gcc/x86_64-linux-gnu/4.9/../../../../include/c++/4.9/bits/basic_string.tcc' line='540' column='1'/>
      <parameter type-id='type-id-118' filepath='/usr/bin/../lib/gcc/x86_64-linux-gnu/4.9/../../../../include/c++/4.9/bits/basic_string.tcc' line='541' column='1'/>
      <return type-id='type-id-119'/>
    </function-type>
    <function-type method-class-id='type-id-116' size-in-bits='64' hash='3d5693612af11c46' id='type-id-146'>
      <parameter type-id='type-id-123' is-artificial='yes'/>
      <parameter type-id='type-id-18' filepath='/usr/bin/../lib/gcc/x86_64-linux-gnu/4.9/../../../../include/c++/4.9/bits/basic_string.tcc' line='540' column='1'/>
      <parameter type-id='type-id-18' filepath='/usr/bin/../lib/gcc/x86_64-linux-gnu/4.9/../../../../include/c++/4.9/bits/basic_string.tcc' line='540' column='1'/>
      <parameter type-id='type-id-118' filepath='/usr/bin/../lib/gcc/x86_64-linux-gnu/4.9/../../../../include/c++/4.9/bits/basic_string.tcc' line='541' column='1'/>
      <return type-id='type-id-119'/>
    </function-type>
  </abi-instr>
  <abi-instr address-size='64' path='src/third_party/boost-1.56.0/libs/filesystem/src/operations.cpp' comp-dir-path='/home/andrew/Documents/10gen/dev/src/mongodb' language='LANG_C_plus_plus'>
    <typedef-decl name='_Atomic_word' type-id='type-id-8' size-in-bits='32' filepath='/usr/bin/../lib/gcc/x86_64-linux-gnu/4.9/../../../../include/x86_64-linux-gnu/c++/4.9/bits/atomic_word.h' line='32' column='1' hash='09d17c08f594edc7' id='type-id-147'/>
    <typedef-decl name='_G_fpos64_t' type-id='type-id-19' size-in-bits='64' filepath='/usr/include/_G_config.h' line='30' column='1' id='type-id-148'/>
    <typedef-decl name='__mode_t' type-id='type-id-13' size-in-bits='32' filepath='/usr/include/x86_64-linux-gnu/bits/types.h' line='129' column='1' hash='e66b43f97c38e87a' id='type-id-149'/>
    <typedef-decl name='fpos_t' type-id='type-id-148' size-in-bits='64' filepath='/usr/include/stdio.h' line='112' column='1' id='type-id-150'/>
    <typedef-decl name='mode_t' type-id='type-id-149' size-in-bits='32' filepath='/usr/include/x86_64-linux-gnu/sys/types.h' line='70' column='1' hash='e66b43f97c38e87a' id='type-id-151'/>
    <typedef-decl name='uintmax_t' type-id='type-id-34' size-in-bits='64' filepath='/usr/include/stdint.h' line='135' column='1' hash='8fdc5eea2983a729' id='type-id-152'/>
    <type-decl name='unnamed-enum-underlying-type-32' size-in-bits='32' alignment-in-bits='32' is-anonymous='yes' hash='5181a58e665b3619' id='type-id-153'/>
    <reference-type-def kind='lvalue' type-id='type-id-154' size-in-bits='64' hash='e19db267ac44b556' id='type-id-155'/>
    <pointer-type-def type-id='type-id-154' size-in-bits='64' hash='d25fb9bbf919b218' id='type-id-156'/>
    <reference-type-def kind='lvalue' type-id='type-id-157' size-in-bits='64' hash='9c0c84d44b5ee339' id='type-id-158'/>
    <reference-type-def kind='rvalue' type-id='type-id-157' size-in-bits='64' hash='6a617d67e2de0301' id='type-id-159'/>
    <pointer-type-def type-id='type-id-157' size-in-bits='64' hash='49ce24a983d58ef3' id='type-id-160'/>
    <reference-type-def kind='lvalue' type-id='type-id-161' size-in-bits='64' hash='f4b09dd1b44324ba' id='type-id-162'/>
    <pointer-type-def type-id='type-id-161' size-in-bits='64' hash='9ae25daa6fb15dde' id='type-id-163'/>
    <reference-type-def kind='lvalue' type-id='type-id-164' size-in-bits='64' hash='a5034a0e7981bfc2' id='type-id-165'/>
    <pointer-type-def type-id='type-id-164' size-in-bits='64' hash='6881c357fcc119bb' id='type-id-166'/>
    <reference-type-def kind='lvalue' type-id='type-id-167' size-in-bits='64' hash='e3d0b3da6031a464' id='type-id-168'/>
    <pointer-type-def type-id='type-id-167' size-in-bits='64' hash='488fb1499233a737' id='type-id-169'/>
    <reference-type-def kind='lvalue' type-id='type-id-170' size-in-bits='64' hash='aa2237a0fed79def' id='type-id-171'/>
    <reference-type-def kind='rvalue' type-id='type-id-170' size-in-bits='64' hash='5532a332ebfd9d42' id='type-id-172'/>
    <pointer-type-def type-id='type-id-170' size-in-bits='64' hash='e7187a72011eb60b' id='type-id-173'/>
    <reference-type-def kind='lvalue' type-id='type-id-174' size-in-bits='64' hash='c1d1be2240bbedde' id='type-id-175'/>
    <pointer-type-def type-id='type-id-174' size-in-bits='64' hash='9e4c6ed13ec05836' id='type-id-176'/>
    <reference-type-def kind='lvalue' type-id='type-id-176' size-in-bits='64' hash='31f67134ef79c705' id='type-id-177'/>
    <reference-type-def kind='lvalue' type-id='type-id-178' size-in-bits='64' hash='3505fc958f4e553b' id='type-id-179'/>
    <pointer-type-def type-id='type-id-178' size-in-bits='64' hash='9f005300b25295c6' id='type-id-180'/>
    <reference-type-def kind='lvalue' type-id='type-id-181' size-in-bits='64' hash='d667f186b918764f' id='type-id-182'/>
    <pointer-type-def type-id='type-id-181' size-in-bits='64' hash='a1937e32dbca88b8' id='type-id-183'/>
    <pointer-type-def type-id='type-id-184' size-in-bits='64' hash='0c0b24bdaacce0d1' id='type-id-185'/>
    <pointer-type-def type-id='type-id-186' size-in-bits='64' hash='798132c0e8b3cbd6' id='type-id-187'/>
    <reference-type-def kind='lvalue' type-id='type-id-188' size-in-bits='64' hash='802a2fe98c875c7b' id='type-id-189'/>
    <pointer-type-def type-id='type-id-188' size-in-bits='64' hash='d16cc64bab66b9f1' id='type-id-190'/>
    <reference-type-def kind='lvalue' type-id='type-id-190' size-in-bits='64' hash='16c89bea4085176e' id='type-id-191'/>
    <reference-type-def kind='lvalue' type-id='type-id-192' size-in-bits='64' hash='54199a9248c6bf47' id='type-id-193'/>
    <pointer-type-def type-id='type-id-192' size-in-bits='64' hash='722bc3120c90bfae' id='type-id-194'/>
    <reference-type-def kind='lvalue' type-id='type-id-195' size-in-bits='64' hash='1b06d06743d07d52' id='type-id-196'/>
    <pointer-type-def type-id='type-id-195' size-in-bits='64' hash='b76fa2ed4cc16294' id='type-id-197'/>
    <reference-type-def kind='lvalue' type-id='type-id-198' size-in-bits='64' hash='f542faa4954b0da7' id='type-id-199'/>
    <pointer-type-def type-id='type-id-200' size-in-bits='64' hash='122a796f9d78b70b' id='type-id-201'/>
    <pointer-type-def type-id='type-id-202' size-in-bits='64' hash='b57ccecb37b5f634' id='type-id-203'/>
    <pointer-type-def type-id='type-id-204' size-in-bits='64' hash='5cec61dc7cb4c781' id='type-id-205'/>
    <reference-type-def kind='lvalue' type-id='type-id-206' size-in-bits='64' hash='51ab83e9a218bf36' id='type-id-207'/>
    <pointer-type-def type-id='type-id-206' size-in-bits='64' hash='5458f1a39901a32d' id='type-id-208'/>
    <reference-type-def kind='lvalue' type-id='type-id-209' size-in-bits='64' hash='60625043307a5fb3' id='type-id-210'/>
    <reference-type-def kind='rvalue' type-id='type-id-209' size-in-bits='64' hash='d8ac349bf625379c' id='type-id-211'/>
    <pointer-type-def type-id='type-id-209' size-in-bits='64' hash='c19b74489529d179' id='type-id-212'/>
    <pointer-type-def type-id='type-id-213' size-in-bits='64' hash='ec4fb3c2e8e35e26' id='type-id-214'/>
    <reference-type-def kind='lvalue' type-id='type-id-215' size-in-bits='64' hash='8d155623d964bc8e' id='type-id-216'/>
    <reference-type-def kind='rvalue' type-id='type-id-215' size-in-bits='64' hash='7bf7baff74200726' id='type-id-217'/>
    <pointer-type-def type-id='type-id-215' size-in-bits='64' hash='ab7e3d8371bce0f6' id='type-id-218'/>
    <pointer-type-def type-id='type-id-219' size-in-bits='64' hash='ec4fb3c2e8e35e26#2' id='type-id-220'/>
    <reference-type-def kind='lvalue' type-id='type-id-49' size-in-bits='64' hash='aa1fd805b9e29837' id='type-id-221'/>
    <pointer-type-def type-id='type-id-222' size-in-bits='64' hash='889df339b4cec3d1' id='type-id-223'/>
    <reference-type-def kind='lvalue' type-id='type-id-2' size-in-bits='64' hash='ffc913127619398d' id='type-id-224'/>
    <qualified-type-def type-id='type-id-53' const='yes' hash='351aa155d9983c83' id='type-id-225'/>
    <reference-type-def kind='lvalue' type-id='type-id-225' size-in-bits='64' hash='a28c6f0c263296f1' id='type-id-226'/>
    <qualified-type-def type-id='type-id-154' const='yes' hash='8843e755aff9493d' id='type-id-227'/>
    <reference-type-def kind='lvalue' type-id='type-id-227' size-in-bits='64' hash='4db5310d698cb5b5' id='type-id-228'/>
    <pointer-type-def type-id='type-id-227' size-in-bits='64' hash='6107e25dea25d4c9' id='type-id-229'/>
    <qualified-type-def type-id='type-id-157' const='yes' hash='173e95aad8bf3e0d' id='type-id-230'/>
    <reference-type-def kind='lvalue' type-id='type-id-230' size-in-bits='64' hash='f812cc142a038176' id='type-id-231'/>
    <pointer-type-def type-id='type-id-230' size-in-bits='64' hash='bca3047a254337a8' id='type-id-232'/>
    <qualified-type-def type-id='type-id-161' const='yes' hash='b6ae999616d0fd25' id='type-id-233'/>
    <reference-type-def kind='lvalue' type-id='type-id-233' size-in-bits='64' hash='78b0ce8e98bd3bdb' id='type-id-234'/>
    <pointer-type-def type-id='type-id-233' size-in-bits='64' hash='935d99e043ae4790' id='type-id-235'/>
    <qualified-type-def type-id='type-id-164' const='yes' hash='4f4e1a33ab473d82' id='type-id-236'/>
    <reference-type-def kind='lvalue' type-id='type-id-236' size-in-bits='64' hash='6253b452c860d09d' id='type-id-237'/>
    <qualified-type-def type-id='type-id-167' const='yes' hash='3ea8f54b1ec771ee' id='type-id-238'/>
    <reference-type-def kind='lvalue' type-id='type-id-238' size-in-bits='64' hash='48b3413303182734' id='type-id-239'/>
    <qualified-type-def type-id='type-id-170' const='yes' hash='2950bb6143b1947d' id='type-id-240'/>
    <reference-type-def kind='lvalue' type-id='type-id-240' size-in-bits='64' hash='a1e25fb07e43e967' id='type-id-241'/>
    <pointer-type-def type-id='type-id-240' size-in-bits='64' hash='f47065404cad6a3d' id='type-id-242'/>
    <qualified-type-def type-id='type-id-178' const='yes' hash='2f93e2d08464381e' id='type-id-243'/>
    <reference-type-def kind='lvalue' type-id='type-id-243' size-in-bits='64' hash='1450e8fb9d7997f4' id='type-id-244'/>
    <pointer-type-def type-id='type-id-243' size-in-bits='64' hash='7142ce421dc407cb' id='type-id-245'/>
    <qualified-type-def type-id='type-id-181' const='yes' hash='65b858ced3774fcb' id='type-id-246'/>
    <reference-type-def kind='lvalue' type-id='type-id-246' size-in-bits='64' hash='8876c240c80bbfae' id='type-id-247'/>
    <pointer-type-def type-id='type-id-246' size-in-bits='64' hash='fd85d351b2c1b34b' id='type-id-248'/>
    <qualified-type-def type-id='type-id-184' const='yes' hash='2bcc3b23c68842e3' id='type-id-249'/>
    <reference-type-def kind='lvalue' type-id='type-id-249' size-in-bits='64' hash='8d6990e84c9fe149' id='type-id-250'/>
    <pointer-type-def type-id='type-id-249' size-in-bits='64' hash='ed3d34f3013c7589' id='type-id-251'/>
    <qualified-type-def type-id='type-id-186' const='yes' hash='7c5d0c40f1d6ce93' id='type-id-252'/>
    <pointer-type-def type-id='type-id-252' size-in-bits='64' hash='52296d799614e8e8' id='type-id-253'/>
    <qualified-type-def type-id='type-id-192' const='yes' hash='631bc121cb6404bd' id='type-id-254'/>
    <reference-type-def kind='lvalue' type-id='type-id-254' size-in-bits='64' hash='d89c30f19e944670' id='type-id-255'/>
    <pointer-type-def type-id='type-id-254' size-in-bits='64' hash='8d5a29cf878d89fc' id='type-id-256'/>
    <qualified-type-def type-id='type-id-195' const='yes' hash='1b7e68a9c8148d66' id='type-id-257'/>
    <reference-type-def kind='lvalue' type-id='type-id-257' size-in-bits='64' hash='deb8657b884404d8' id='type-id-258'/>
    <pointer-type-def type-id='type-id-257' size-in-bits='64' hash='feba8f1b6d05d774' id='type-id-259'/>
    <qualified-type-def type-id='type-id-260' const='yes' hash='704f5e5efff62eb9' id='type-id-261'/>
    <pointer-type-def type-id='type-id-261' size-in-bits='64' hash='0d0ce9b9b3a8c16c' id='type-id-262'/>
    <qualified-type-def type-id='type-id-202' const='yes' hash='436ecac9f226d3d9' id='type-id-263'/>
    <reference-type-def kind='lvalue' type-id='type-id-263' size-in-bits='64' hash='da4187505994b14a' id='type-id-264'/>
    <pointer-type-def type-id='type-id-263' size-in-bits='64' hash='a3bccd6f772ae242' id='type-id-265'/>
    <qualified-type-def type-id='type-id-204' const='yes' hash='cc41aaec4312e2bc' id='type-id-266'/>
    <reference-type-def kind='lvalue' type-id='type-id-266' size-in-bits='64' hash='ea8e74a180681653' id='type-id-267'/>
    <pointer-type-def type-id='type-id-266' size-in-bits='64' hash='3590705e7e6d4026' id='type-id-268'/>
    <qualified-type-def type-id='type-id-206' const='yes' hash='b95ada383dd0c82c' id='type-id-269'/>
    <reference-type-def kind='lvalue' type-id='type-id-269' size-in-bits='64' hash='cb7830ad19520e8f' id='type-id-270'/>
    <pointer-type-def type-id='type-id-269' size-in-bits='64' hash='e96590be6a522662' id='type-id-271'/>
    <qualified-type-def type-id='type-id-209' const='yes' hash='2eec7fa0d686b83e' id='type-id-272'/>
    <reference-type-def kind='lvalue' type-id='type-id-272' size-in-bits='64' hash='3aaf3893a3757f9b' id='type-id-273'/>
    <pointer-type-def type-id='type-id-272' size-in-bits='64' hash='62e91a2435ec69e2' id='type-id-274'/>
    <qualified-type-def type-id='type-id-215' const='yes' hash='53f4a6b71a50b8dc' id='type-id-275'/>
    <reference-type-def kind='lvalue' type-id='type-id-275' size-in-bits='64' hash='15b4aedca99e238d' id='type-id-276'/>
    <pointer-type-def type-id='type-id-275' size-in-bits='64' hash='42f2f78c3bd717fc' id='type-id-277'/>
    <qualified-type-def type-id='type-id-222' const='yes' hash='8a4d99171f787431' id='type-id-278'/>
    <pointer-type-def type-id='type-id-278' size-in-bits='64' hash='3182fbc1da77f6ba' id='type-id-279'/>
    <qualified-type-def type-id='type-id-150' const='yes' hash='d87781a5ad91b083' id='type-id-280'/>
    <pointer-type-def type-id='type-id-280' size-in-bits='64' hash='ee74b5604eccc979' id='type-id-281'/>
    <qualified-type-def type-id='type-id-282' const='yes' hash='c6c214a577a0a77a' id='type-id-283'/>
    <pointer-type-def type-id='type-id-283' size-in-bits='64' hash='6f9e42f78d3e4296' id='type-id-284'/>
    <qualified-type-def type-id='type-id-285' const='yes' hash='2ad6bc7d1e7689b9' id='type-id-286'/>
    <reference-type-def kind='lvalue' type-id='type-id-286' size-in-bits='64' hash='b2523ccce892e6be' id='type-id-287'/>
    <pointer-type-def type-id='type-id-286' size-in-bits='64' hash='ed86ae4cd5d6f24e' id='type-id-288'/>
    <qualified-type-def type-id='type-id-289' const='yes' hash='95a9f6add50c3f0a' id='type-id-290'/>
    <reference-type-def kind='lvalue' type-id='type-id-290' size-in-bits='64' hash='d9fe13de02e8a385' id='type-id-291'/>
    <pointer-type-def type-id='type-id-290' size-in-bits='64' hash='3e2258ad51c3adb0' id='type-id-292'/>
    <qualified-type-def type-id='type-id-293' const='yes' hash='e3f87b52dd81547b' id='type-id-294'/>
    <reference-type-def kind='lvalue' type-id='type-id-294' size-in-bits='64' hash='3c352768348ce69b' id='type-id-295'/>
    <pointer-type-def type-id='type-id-294' size-in-bits='64' hash='3477d686405267b2' id='type-id-296'/>
    <qualified-type-def type-id='type-id-296' const='yes' hash='75e174765af8e824' id='type-id-297'/>
    <pointer-type-def type-id='type-id-297' size-in-bits='64' hash='19fe589c5c5a8cd4' id='type-id-298'/>
    <pointer-type-def type-id='type-id-6' size-in-bits='64' hash='dd31f93f4361bc41' id='type-id-299'/>
    <pointer-type-def type-id='type-id-150' size-in-bits='64' hash='7d5bf80d5b25efb1' id='type-id-300'/>
    <qualified-type-def type-id='type-id-300' restrict='yes' hash='27e7da842baf24fa' id='type-id-301'/>
    <pointer-type-def type-id='type-id-8' size-in-bits='64' hash='3fd83b2c14ae2f2f' id='type-id-302'/>
    <pointer-type-def type-id='type-id-285' size-in-bits='64' hash='a4c72a099793bc6d' id='type-id-303'/>
    <pointer-type-def type-id='type-id-289' size-in-bits='64' hash='2304ffdef3af1c55' id='type-id-304'/>
    <pointer-type-def type-id='type-id-293' size-in-bits='64' hash='7d4ea9dc4c8b4efe' id='type-id-305'/>
    <reference-type-def kind='rvalue' type-id='type-id-306' size-in-bits='64' hash='4e7b8b4e7974a38d' id='type-id-307'/>
    <reference-type-def kind='rvalue' type-id='type-id-308' size-in-bits='64' hash='3a32f822efd20fd6#2' id='type-id-309'/>
    <reference-type-def kind='lvalue' type-id='type-id-14' size-in-bits='64' hash='fb592a4752ed7557' id='type-id-310'/>
    <pointer-type-def type-id='type-id-311' size-in-bits='64' id='type-id-312'/>
    <qualified-type-def type-id='type-id-312' restrict='yes' id='type-id-313'/>
    <pointer-type-def type-id='type-id-314' size-in-bits='64' id='type-id-315'/>
    <qualified-type-def type-id='type-id-315' restrict='yes' id='type-id-316'/>
    <qualified-type-def type-id='type-id-317' const='yes' id='type-id-318'/>
    <reference-type-def kind='lvalue' type-id='type-id-318' size-in-bits='64' id='type-id-319'/>
    <qualified-type-def type-id='type-id-320' const='yes' id='type-id-321'/>
    <reference-type-def kind='lvalue' type-id='type-id-321' size-in-bits='64' id='type-id-322'/>
    <qualified-type-def type-id='type-id-323' const='yes' id='type-id-324'/>
    <reference-type-def kind='lvalue' type-id='type-id-324' size-in-bits='64' id='type-id-325'/>
    <qualified-type-def type-id='type-id-326' const='yes' id='type-id-327'/>
    <reference-type-def kind='lvalue' type-id='type-id-327' size-in-bits='64' id='type-id-328'/>
    <qualified-type-def type-id='type-id-329' const='yes' id='type-id-330'/>
    <reference-type-def kind='lvalue' type-id='type-id-330' size-in-bits='64' id='type-id-118'/>
    <qualified-type-def type-id='type-id-331' const='yes' id='type-id-332'/>
    <reference-type-def kind='lvalue' type-id='type-id-332' size-in-bits='64' id='type-id-333'/>
    <qualified-type-def type-id='type-id-334' const='yes' id='type-id-335'/>
    <pointer-type-def type-id='type-id-335' size-in-bits='64' id='type-id-336'/>
    <pointer-type-def type-id='type-id-336' size-in-bits='64' id='type-id-337'/>
    <qualified-type-def type-id='type-id-338' const='yes' id='type-id-339'/>
    <reference-type-def kind='lvalue' type-id='type-id-339' size-in-bits='64' id='type-id-340'/>
    <qualified-type-def type-id='type-id-341' const='yes' id='type-id-342'/>
    <pointer-type-def type-id='type-id-343' size-in-bits='64' id='type-id-344'/>
    <reference-type-def kind='lvalue' type-id='type-id-331' size-in-bits='64' id='type-id-120'/>
    <pointer-type-def type-id='type-id-331' size-in-bits='64' id='type-id-117'/>
    <reference-type-def kind='lvalue' type-id='type-id-338' size-in-bits='64' id='type-id-345'/>
    <class-decl name='_IO_FILE' is-struct='yes' visibility='default' is-declaration-only='yes' id='type-id-346'/>
    <class-decl name='lconv' is-struct='yes' visibility='default' is-declaration-only='yes' id='type-id-343'/>
    <qualified-type-def type-id='type-id-14' restrict='yes' id='type-id-347'/>
    <qualified-type-def type-id='type-id-14' restrict='yes' id='type-id-348'/>
    <namespace-decl name='__gnu_cxx'>
      <function-decl name='__is_null_pointer&lt;char&gt;' mangled-name='_ZN9__gnu_cxx17__is_null_pointerIcEEbPT_' filepath='/usr/bin/../lib/gcc/x86_64-linux-gnu/4.9/../../../../include/c++/4.9/ext/type_traits.h' line='150' column='1' visibility='default' binding='global' size-in-bits='64' elf-symbol-id='_ZN9__gnu_cxx17__is_null_pointerIcEEbPT_' hash='89739079b00eb892'>
        <parameter type-id='type-id-53' filepath='/usr/bin/../lib/gcc/x86_64-linux-gnu/4.9/../../../../include/c++/4.9/ext/type_traits.h' line='150' column='1'/>
        <return type-id='type-id-1'/>
      </function-decl>
    </namespace-decl>
    <namespace-decl name='std'>
      <class-decl name='locale' visibility='default' size-in-bits='64' filepath='/usr/bin/../lib/gcc/x86_64-linux-gnu/4.9/../../../../include/c++/4.9/bits/locale_classes.h' line='62' column='1' hash='6b34eb9c7360bd54' id='type-id-285'>
        <member-type access='private'>
          <class-decl name='_Impl' visibility='default' size-in-bits='320' filepath='/usr/bin/../lib/gcc/x86_64-linux-gnu/4.9/../../../../include/c++/4.9/bits/locale_classes.h' line='475' column='1' hash='9fd48307c8f8d068' id='type-id-289'>
            <data-member access='private' layout-offset-in-bits='0'>
              <var-decl name='_M_refcount' type-id='type-id-147' visibility='default' filepath='/usr/bin/../lib/gcc/x86_64-linux-gnu/4.9/../../../../include/c++/4.9/bits/locale_classes.h' line='495' column='1'/>
            </data-member>
            <data-member access='private' layout-offset-in-bits='64'>
              <var-decl name='_M_facets' type-id='type-id-337' visibility='default' filepath='/usr/bin/../lib/gcc/x86_64-linux-gnu/4.9/../../../../include/c++/4.9/bits/locale_classes.h' line='496' column='1'/>
            </data-member>
            <data-member access='private' layout-offset-in-bits='128'>
              <var-decl name='_M_facets_size' type-id='type-id-349' visibility='default' filepath='/usr/bin/../lib/gcc/x86_64-linux-gnu/4.9/../../../../include/c++/4.9/bits/locale_classes.h' line='497' column='1'/>
            </data-member>
            <data-member access='private' layout-offset-in-bits='192'>
              <var-decl name='_M_caches' type-id='type-id-337' visibility='default' filepath='/usr/bin/../lib/gcc/x86_64-linux-gnu/4.9/../../../../include/c++/4.9/bits/locale_classes.h' line='498' column='1'/>
            </data-member>
            <data-member access='private' layout-offset-in-bits='256'>
              <var-decl name='_M_names' type-id='type-id-55' visibility='default' filepath='/usr/bin/../lib/gcc/x86_64-linux-gnu/4.9/../../../../include/c++/4.9/bits/locale_classes.h' line='499' column='1'/>
            </data-member>
          </class-decl>
        </member-type>
        <member-type access='private'>
          <class-decl name='id' visibility='default' size-in-bits='64' filepath='/usr/bin/../lib/gcc/x86_64-linux-gnu/4.9/../../../../include/c++/4.9/bits/locale_classes.h' line='436' column='1' hash='403559d1724a8799' id='type-id-293'>
            <data-member access='private' layout-offset-in-bits='0'>
              <var-decl name='_M_index' type-id='type-id-349' visibility='default' filepath='/usr/bin/../lib/gcc/x86_64-linux-gnu/4.9/../../../../include/c++/4.9/bits/locale_classes.h' line='453' column='1'/>
            </data-member>
          </class-decl>
        </member-type>
        <member-type access='private'>
          <typedef-decl name='category' type-id='type-id-8' size-in-bits='32' filepath='/usr/bin/../lib/gcc/x86_64-linux-gnu/4.9/../../../../include/c++/4.9/bits/locale_classes.h' line='67' column='1' hash='09d17c08f594edc7' id='type-id-350'/>
        </member-type>
        <member-type access='private'>
          <class-decl name='facet' visibility='default' is-declaration-only='yes' id='type-id-334'/>
        </member-type>
        <data-member access='private' layout-offset-in-bits='0'>
          <var-decl name='_M_impl' type-id='type-id-304' visibility='default' filepath='/usr/bin/../lib/gcc/x86_64-linux-gnu/4.9/../../../../include/c++/4.9/bits/locale_classes.h' line='280' column='1'/>
        </data-member>
        <member-function access='public'>
          <function-decl name='operator=' mangled-name='_ZNSt6localeaSERKS_' filepath='/usr/bin/../lib/gcc/x86_64-linux-gnu/4.9/../../../../include/c++/4.9/bits/locale_classes.h' line='192' column='1' visibility='default' binding='global' size-in-bits='64' hash='ba8d2cd652ffdf24'>
            <parameter type-id='type-id-303' is-artificial='yes'/>
            <parameter type-id='type-id-287'/>
            <return type-id='type-id-287'/>
          </function-decl>
        </member-function>
      </class-decl>
      <class-decl name='__false_type' is-struct='yes' visibility='default' size-in-bits='8' filepath='/usr/bin/../lib/gcc/x86_64-linux-gnu/4.9/../../../../include/c++/4.9/bits/cpp_type_traits.h' line='83' column='1' hash='b08b4c7c02bac847' id='type-id-121'/>
      <class-decl name='bidirectional_iterator_tag' is-struct='yes' visibility='default' size-in-bits='8' filepath='/usr/bin/../lib/gcc/x86_64-linux-gnu/4.9/../../../../include/c++/4.9/bits/stl_iterator_base_types.h' line='99' column='1' hash='b81b3b2f07587e8f' id='type-id-351'>
        <base-class access='public' layout-offset-in-bits='0' type-id='type-id-122'/>
      </class-decl>
      <class-decl name='forward_iterator_tag' is-struct='yes' visibility='default' size-in-bits='8' filepath='/usr/bin/../lib/gcc/x86_64-linux-gnu/4.9/../../../../include/c++/4.9/bits/stl_iterator_base_types.h' line='95' column='1' hash='1ce091bb5df7890a' id='type-id-122'>
        <base-class access='public' layout-offset-in-bits='0' type-id='type-id-352'/>
      </class-decl>
      <class-decl name='input_iterator_tag' is-struct='yes' visibility='default' size-in-bits='8' filepath='/usr/bin/../lib/gcc/x86_64-linux-gnu/4.9/../../../../include/c++/4.9/bits/stl_iterator_base_types.h' line='89' column='1' hash='1ba5e1fb131a0fbd' id='type-id-352'/>
      <class-decl name='iterator_traits&lt;char *&gt;' is-struct='yes' visibility='default' size-in-bits='8' filepath='/usr/bin/../lib/gcc/x86_64-linux-gnu/4.9/../../../../include/c++/4.9/bits/stl_iterator_base_types.h' line='175' column='1' hash='c4b76745d911ae21' id='type-id-353'>
        <member-type access='public'>
          <typedef-decl name='difference_type' type-id='type-id-355' size-in-bits='64' filepath='/usr/bin/../lib/gcc/x86_64-linux-gnu/4.9/../../../../include/c++/4.9/bits/stl_iterator_base_types.h' line='179' column='1' hash='b119fe0931d2ee10' id='type-id-354'/>
        </member-type>
        <member-type access='public'>
          <typedef-decl name='iterator_category' type-id='type-id-357' size-in-bits='8' filepath='/usr/bin/../lib/gcc/x86_64-linux-gnu/4.9/../../../../include/c++/4.9/bits/stl_iterator_base_types.h' line='177' column='1' id='type-id-356'/>
        </member-type>
        <member-type access='public'>
          <typedef-decl name='pointer' type-id='type-id-53' size-in-bits='64' filepath='/usr/bin/../lib/gcc/x86_64-linux-gnu/4.9/../../../../include/c++/4.9/bits/stl_iterator_base_types.h' line='180' column='1' hash='e533f42d1dd4942c' id='type-id-358'/>
        </member-type>
        <member-type access='public'>
          <typedef-decl name='reference' type-id='type-id-224' size-in-bits='64' filepath='/usr/bin/../lib/gcc/x86_64-linux-gnu/4.9/../../../../include/c++/4.9/bits/stl_iterator_base_types.h' line='181' column='1' hash='ffc913127619398d' id='type-id-359'/>
        </member-type>
      </class-decl>
      <class-decl name='random_access_iterator_tag' is-struct='yes' visibility='default' size-in-bits='8' filepath='/usr/bin/../lib/gcc/x86_64-linux-gnu/4.9/../../../../include/c++/4.9/bits/stl_iterator_base_types.h' line='103' column='1' hash='2cf237ece7bebf66' id='type-id-357'>
        <base-class access='public' layout-offset-in-bits='0' type-id='type-id-351'/>
      </class-decl>
      <class-decl name='remove_reference&lt;boost::filesystem::detail::dir_itr_imp *&amp;&gt;' is-struct='yes' visibility='default' size-in-bits='8' filepath='/usr/bin/../lib/gcc/x86_64-linux-gnu/4.9/../../../../include/c++/4.9/type_traits' line='1504' column='1' hash='7d3c8b232c9fbfe3' id='type-id-360'>
        <member-type access='public'>
          <typedef-decl name='type' type-id='type-id-176' size-in-bits='64' filepath='/usr/bin/../lib/gcc/x86_64-linux-gnu/4.9/../../../../include/c++/4.9/type_traits' line='1505' column='1' hash='9e4c6ed13ec05836' id='type-id-306'/>
        </member-type>
      </class-decl>
      <class-decl name='remove_reference&lt;boost::filesystem::filesystem_error::m_imp *&amp;&gt;' is-struct='yes' visibility='default' size-in-bits='8' filepath='/usr/bin/../lib/gcc/x86_64-linux-gnu/4.9/../../../../include/c++/4.9/type_traits' line='1504' column='1' hash='f8947dca8aa14535' id='type-id-361'>
        <member-type access='public'>
          <typedef-decl name='type' type-id='type-id-190' size-in-bits='64' filepath='/usr/bin/../lib/gcc/x86_64-linux-gnu/4.9/../../../../include/c++/4.9/type_traits' line='1505' column='1' hash='d16cc64bab66b9f1' id='type-id-308'/>
        </member-type>
      </class-decl>
      <typedef-decl name='ptrdiff_t' type-id='type-id-10' size-in-bits='64' filepath='/usr/bin/../lib/gcc/x86_64-linux-gnu/4.9/../../../../include/x86_64-linux-gnu/c++/4.9/bits/c++config.h' line='189' column='1' hash='b119fe0931d2ee10' id='type-id-355'/>
      <typedef-decl name='size_t' type-id='type-id-34' size-in-bits='64' filepath='/usr/bin/../lib/gcc/x86_64-linux-gnu/4.9/../../../../include/x86_64-linux-gnu/c++/4.9/bits/c++config.h' line='188' column='1' hash='8fdc5eea2983a729' id='type-id-349'/>
      <class-decl name='allocator&lt;char&gt;' visibility='default' is-declaration-only='yes' id='type-id-329'>
        <member-type access='private'>
          <typedef-decl name='size_type' type-id='type-id-349' size-in-bits='64' filepath='/usr/bin/../lib/gcc/x86_64-linux-gnu/4.9/../../../../include/c++/4.9/bits/allocator.h' line='95' column='1' hash='8fdc5eea2983a729' id='type-id-362'/>
        </member-type>
      </class-decl>
      <class-decl name='basic_string&lt;char, std::char_traits&lt;char&gt;, std::allocator&lt;char&gt; &gt;' visibility='default' is-declaration-only='yes' id='type-id-331'>
        <member-type access='private'>
          <typedef-decl name='size_type' type-id='type-id-362' size-in-bits='64' filepath='/usr/bin/../lib/gcc/x86_64-linux-gnu/4.9/../../../../include/c++/4.9/bits/basic_string.h' line='121' column='1' hash='8fdc5eea2983a729' id='type-id-363'/>
        </member-type>
        <member-function access='public'>
          <function-decl name='basic_string&lt;char *&gt;' mangled-name='_ZNSsC2IPcEET_S1_RKSaIcE' filepath='/usr/bin/../lib/gcc/x86_64-linux-gnu/4.9/../../../../include/c++/4.9/bits/basic_string.h' line='540' column='1' visibility='default' binding='global' size-in-bits='64' elf-symbol-id='_ZNSsC2IPcEET_S1_RKSaIcE' hash='6faa8831d3af3ad4'>
            <parameter type-id='type-id-117' is-artificial='yes'/>
            <parameter type-id='type-id-53' filepath='/usr/bin/../lib/gcc/x86_64-linux-gnu/4.9/../../../../include/c++/4.9/bits/basic_string.tcc' line='540' column='1'/>
            <parameter type-id='type-id-53' filepath='/usr/bin/../lib/gcc/x86_64-linux-gnu/4.9/../../../../include/c++/4.9/bits/basic_string.tcc' line='540' column='1'/>
            <parameter type-id='type-id-118' filepath='/usr/bin/../lib/gcc/x86_64-linux-gnu/4.9/../../../../include/c++/4.9/bits/basic_string.tcc' line='541' column='1'/>
            <return type-id='type-id-119'/>
          </function-decl>
        </member-function>
        <member-function access='public'>
          <function-decl name='append&lt;const char *&gt;' mangled-name='_ZNSs6appendIPKcEERSsT_S3_' filepath='/usr/bin/../lib/gcc/x86_64-linux-gnu/4.9/../../../../include/c++/4.9/bits/basic_string.h' line='1061' column='1' visibility='default' binding='global' size-in-bits='64' elf-symbol-id='_ZNSs6appendIPKcEERSsT_S3_' hash='3d5693612af11c46'>
            <parameter type-id='type-id-117' is-artificial='yes'/>
            <parameter type-id='type-id-18' filepath='/usr/bin/../lib/gcc/x86_64-linux-gnu/4.9/../../../../include/c++/4.9/bits/basic_string.h' line='1061' column='1'/>
            <parameter type-id='type-id-18' filepath='/usr/bin/../lib/gcc/x86_64-linux-gnu/4.9/../../../../include/c++/4.9/bits/basic_string.h' line='1061' column='1'/>
            <return type-id='type-id-120'/>
          </function-decl>
        </member-function>
        <member-function access='private' static='yes'>
          <function-decl name='_S_construct&lt;char *&gt;' mangled-name='_ZNSs12_S_constructIPcEES0_T_S1_RKSaIcE' filepath='/usr/bin/../lib/gcc/x86_64-linux-gnu/4.9/../../../../include/c++/4.9/bits/basic_string.h' line='1761' column='1' visibility='default' binding='global' size-in-bits='64' elf-symbol-id='_ZNSs12_S_constructIPcEES0_T_S1_RKSaIcE' hash='9895045035709c6f'>
            <parameter type-id='type-id-53' filepath='/usr/bin/../lib/gcc/x86_64-linux-gnu/4.9/../../../../include/c++/4.9/bits/basic_string.h' line='1761' column='1'/>
            <parameter type-id='type-id-53' filepath='/usr/bin/../lib/gcc/x86_64-linux-gnu/4.9/../../../../include/c++/4.9/bits/basic_string.h' line='1761' column='1'/>
            <parameter type-id='type-id-118' filepath='/usr/bin/../lib/gcc/x86_64-linux-gnu/4.9/../../../../include/c++/4.9/bits/basic_string.h' line='1761' column='1'/>
            <return type-id='type-id-53'/>
          </function-decl>
        </member-function>
        <member-function access='private' static='yes'>
          <function-decl name='_S_construct_aux&lt;char *&gt;' mangled-name='_ZNSs16_S_construct_auxIPcEES0_T_S1_RKSaIcESt12__false_type' filepath='/usr/bin/../lib/gcc/x86_64-linux-gnu/4.9/../../../../include/c++/4.9/bits/basic_string.h' line='1739' column='1' visibility='default' binding='global' size-in-bits='64' elf-symbol-id='_ZNSs16_S_construct_auxIPcEES0_T_S1_RKSaIcESt12__false_type' hash='9895045035709c6f'>
            <parameter type-id='type-id-53' filepath='/usr/bin/../lib/gcc/x86_64-linux-gnu/4.9/../../../../include/c++/4.9/bits/basic_string.h' line='1739' column='1'/>
            <parameter type-id='type-id-53' filepath='/usr/bin/../lib/gcc/x86_64-linux-gnu/4.9/../../../../include/c++/4.9/bits/basic_string.h' line='1739' column='1'/>
            <parameter type-id='type-id-118' filepath='/usr/bin/../lib/gcc/x86_64-linux-gnu/4.9/../../../../include/c++/4.9/bits/basic_string.h' line='1740' column='1'/>
            <parameter type-id='type-id-121' filepath='/usr/bin/../lib/gcc/x86_64-linux-gnu/4.9/../../../../include/c++/4.9/bits/basic_string.h' line='1740' column='1'/>
            <return type-id='type-id-53'/>
          </function-decl>
        </member-function>
        <member-function access='private' static='yes'>
          <function-decl name='_S_construct&lt;char *&gt;' mangled-name='_ZNSs12_S_constructIPcEES0_T_S1_RKSaIcESt20forward_iterator_tag' filepath='/usr/bin/../lib/gcc/x86_64-linux-gnu/4.9/../../../../include/c++/4.9/bits/basic_string.h' line='1777' column='1' visibility='default' binding='global' size-in-bits='64' elf-symbol-id='_ZNSs12_S_constructIPcEES0_T_S1_RKSaIcESt20forward_iterator_tag' hash='9895045035709c6f'>
            <parameter type-id='type-id-53' filepath='/usr/bin/../lib/gcc/x86_64-linux-gnu/4.9/../../../../include/c++/4.9/bits/basic_string.tcc' line='1777' column='1'/>
            <parameter type-id='type-id-53' filepath='/usr/bin/../lib/gcc/x86_64-linux-gnu/4.9/../../../../include/c++/4.9/bits/basic_string.tcc' line='1777' column='1'/>
            <parameter type-id='type-id-118' filepath='/usr/bin/../lib/gcc/x86_64-linux-gnu/4.9/../../../../include/c++/4.9/bits/basic_string.tcc' line='1777' column='1'/>
            <parameter type-id='type-id-122' filepath='/usr/bin/../lib/gcc/x86_64-linux-gnu/4.9/../../../../include/c++/4.9/bits/basic_string.tcc' line='1778' column='1'/>
            <return type-id='type-id-53'/>
          </function-decl>
        </member-function>
        <member-function access='public'>
          <function-decl name='basic_string&lt;const char *&gt;' mangled-name='_ZNSsC2IPKcEET_S2_RKSaIcE' filepath='/usr/bin/../lib/gcc/x86_64-linux-gnu/4.9/../../../../include/c++/4.9/bits/basic_string.h' line='540' column='1' visibility='default' binding='global' size-in-bits='64' elf-symbol-id='_ZNSsC2IPKcEET_S2_RKSaIcE' hash='3d5693612af11c46'>
            <parameter type-id='type-id-123' is-artificial='yes'/>
            <parameter type-id='type-id-18' filepath='/usr/bin/../lib/gcc/x86_64-linux-gnu/4.9/../../../../include/c++/4.9/bits/basic_string.tcc' line='540' column='1'/>
            <parameter type-id='type-id-18' filepath='/usr/bin/../lib/gcc/x86_64-linux-gnu/4.9/../../../../include/c++/4.9/bits/basic_string.tcc' line='540' column='1'/>
            <parameter type-id='type-id-118' filepath='/usr/bin/../lib/gcc/x86_64-linux-gnu/4.9/../../../../include/c++/4.9/bits/basic_string.tcc' line='541' column='1'/>
            <return type-id='type-id-119'/>
          </function-decl>
        </member-function>
        <member-function access='private' static='yes'>
          <function-decl name='_S_construct&lt;const char *&gt;' mangled-name='_ZNSs12_S_constructIPKcEEPcT_S3_RKSaIcE' filepath='/usr/bin/../lib/gcc/x86_64-linux-gnu/4.9/../../../../include/c++/4.9/bits/basic_string.h' line='1761' column='1' visibility='default' binding='global' size-in-bits='64' elf-symbol-id='_ZNSs12_S_constructIPKcEEPcT_S3_RKSaIcE' hash='21babdbcb7a34ebe'>
            <parameter type-id='type-id-18' filepath='/usr/bin/../lib/gcc/x86_64-linux-gnu/4.9/../../../../include/c++/4.9/bits/basic_string.h' line='1761' column='1'/>
            <parameter type-id='type-id-18' filepath='/usr/bin/../lib/gcc/x86_64-linux-gnu/4.9/../../../../include/c++/4.9/bits/basic_string.h' line='1761' column='1'/>
            <parameter type-id='type-id-118' filepath='/usr/bin/../lib/gcc/x86_64-linux-gnu/4.9/../../../../include/c++/4.9/bits/basic_string.h' line='1761' column='1'/>
            <return type-id='type-id-53'/>
          </function-decl>
        </member-function>
        <member-function access='private' static='yes'>
          <function-decl name='_S_construct_aux&lt;const char *&gt;' mangled-name='_ZNSs16_S_construct_auxIPKcEEPcT_S3_RKSaIcESt12__false_type' filepath='/usr/bin/../lib/gcc/x86_64-linux-gnu/4.9/../../../../include/c++/4.9/bits/basic_string.h' line='1739' column='1' visibility='default' binding='global' size-in-bits='64' elf-symbol-id='_ZNSs16_S_construct_auxIPKcEEPcT_S3_RKSaIcESt12__false_type' hash='21babdbcb7a34ebe'>
            <parameter type-id='type-id-18' filepath='/usr/bin/../lib/gcc/x86_64-linux-gnu/4.9/../../../../include/c++/4.9/bits/basic_string.h' line='1739' column='1'/>
            <parameter type-id='type-id-18' filepath='/usr/bin/../lib/gcc/x86_64-linux-gnu/4.9/../../../../include/c++/4.9/bits/basic_string.h' line='1739' column='1'/>
            <parameter type-id='type-id-118' filepath='/usr/bin/../lib/gcc/x86_64-linux-gnu/4.9/../../../../include/c++/4.9/bits/basic_string.h' line='1740' column='1'/>
            <parameter type-id='type-id-121' filepath='/usr/bin/../lib/gcc/x86_64-linux-gnu/4.9/../../../../include/c++/4.9/bits/basic_string.h' line='1740' column='1'/>
            <return type-id='type-id-53'/>
          </function-decl>
        </member-function>
        <member-function access='private' static='yes'>
          <function-decl name='_S_construct&lt;const char *&gt;' mangled-name='_ZNSs12_S_constructIPKcEEPcT_S3_RKSaIcESt20forward_iterator_tag' filepath='/usr/bin/../lib/gcc/x86_64-linux-gnu/4.9/../../../../include/c++/4.9/bits/basic_string.h' line='1777' column='1' visibility='default' binding='global' size-in-bits='64' elf-symbol-id='_ZNSs12_S_constructIPKcEEPcT_S3_RKSaIcESt20forward_iterator_tag' hash='21babdbcb7a34ebe'>
            <parameter type-id='type-id-18' filepath='/usr/bin/../lib/gcc/x86_64-linux-gnu/4.9/../../../../include/c++/4.9/bits/basic_string.tcc' line='1777' column='1'/>
            <parameter type-id='type-id-18' filepath='/usr/bin/../lib/gcc/x86_64-linux-gnu/4.9/../../../../include/c++/4.9/bits/basic_string.tcc' line='1777' column='1'/>
            <parameter type-id='type-id-118' filepath='/usr/bin/../lib/gcc/x86_64-linux-gnu/4.9/../../../../include/c++/4.9/bits/basic_string.tcc' line='1777' column='1'/>
            <parameter type-id='type-id-122' filepath='/usr/bin/../lib/gcc/x86_64-linux-gnu/4.9/../../../../include/c++/4.9/bits/basic_string.tcc' line='1778' column='1'/>
            <return type-id='type-id-53'/>
          </function-decl>
        </member-function>
        <member-function access='public'>
          <function-decl name='append&lt;char *&gt;' mangled-name='_ZNSs6appendIPcEERSsT_S2_' filepath='/usr/bin/../lib/gcc/x86_64-linux-gnu/4.9/../../../../include/c++/4.9/bits/basic_string.h' line='1061' column='1' visibility='default' binding='global' size-in-bits='64' elf-symbol-id='_ZNSs6appendIPcEERSsT_S2_' hash='6faa8831d3af3ad4'>
            <parameter type-id='type-id-124' is-artificial='yes'/>
            <parameter type-id='type-id-53' filepath='/usr/bin/../lib/gcc/x86_64-linux-gnu/4.9/../../../../include/c++/4.9/bits/basic_string.h' line='1061' column='1'/>
            <parameter type-id='type-id-53' filepath='/usr/bin/../lib/gcc/x86_64-linux-gnu/4.9/../../../../include/c++/4.9/bits/basic_string.h' line='1061' column='1'/>
            <return type-id='type-id-120'/>
          </function-decl>
        </member-function>
      </class-decl>
      <class-decl name='basic_string&lt;wchar_t, std::char_traits&lt;wchar_t&gt;, std::allocator&lt;wchar_t&gt; &gt;' visibility='default' is-declaration-only='yes' id='type-id-364'>
        <member-function access='public'>
          <function-decl name='append&lt;wchar_t *&gt;' mangled-name='_ZNSbIwSt11char_traitsIwESaIwEE6appendIPwEERS2_T_S6_' filepath='/usr/bin/../lib/gcc/x86_64-linux-gnu/4.9/../../../../include/c++/4.9/bits/basic_string.h' line='1061' column='1' visibility='default' binding='global' size-in-bits='64' elf-symbol-id='_ZNSbIwSt11char_traitsIwESaIwEE6appendIPwEERS2_T_S6_' hash='52964de53fd173e9'>
            <parameter type-id='type-id-365' is-artificial='yes'/>
            <parameter type-id='type-id-100' filepath='/usr/bin/../lib/gcc/x86_64-linux-gnu/4.9/../../../../include/c++/4.9/bits/basic_string.h' line='1061' column='1'/>
            <parameter type-id='type-id-100' filepath='/usr/bin/../lib/gcc/x86_64-linux-gnu/4.9/../../../../include/c++/4.9/bits/basic_string.h' line='1061' column='1'/>
            <return type-id='type-id-366'/>
          </function-decl>
        </member-function>
      </class-decl>
      <class-decl name='codecvt&lt;wchar_t, char, __mbstate_t&gt;' visibility='default' is-declaration-only='yes' id='type-id-367'/>
      <class-decl name='runtime_error' visibility='default' is-declaration-only='yes' id='type-id-368'/>
      <class-decl name='type_info' visibility='default' is-declaration-only='yes' id='type-id-369'/>
      <function-decl name='operator==&lt;char&gt;' mangled-name='_ZSteqIcEbRKSaIT_ES3_' filepath='/usr/bin/../lib/gcc/x86_64-linux-gnu/4.9/../../../../include/c++/4.9/bits/allocator.h' line='133' column='1' visibility='default' binding='global' size-in-bits='64' elf-symbol-id='_ZSteqIcEbRKSaIT_ES3_' hash='c7c710e908194b91'>
        <parameter type-id='type-id-118' filepath='/usr/bin/../lib/gcc/x86_64-linux-gnu/4.9/../../../../include/c++/4.9/bits/allocator.h' line='133' column='1'/>
        <parameter type-id='type-id-118' filepath='/usr/bin/../lib/gcc/x86_64-linux-gnu/4.9/../../../../include/c++/4.9/bits/allocator.h' line='133' column='1'/>
        <return type-id='type-id-1'/>
      </function-decl>
      <function-decl name='move&lt;boost::filesystem::detail::dir_itr_imp *&amp;&gt;' mangled-name='_ZSt4moveIRPN5boost10filesystem6detail11dir_itr_impEEONSt16remove_referenceIT_E4typeEOS7_' filepath='/usr/bin/../lib/gcc/x86_64-linux-gnu/4.9/../../../../include/c++/4.9/bits/move.h' line='101' column='1' visibility='default' binding='global' size-in-bits='64' elf-symbol-id='_ZSt4moveIRPN5boost10filesystem6detail11dir_itr_impEEONSt16remove_referenceIT_E4typeEOS7_' hash='aead9990a12ef2a6'>
        <parameter type-id='type-id-177' filepath='/usr/bin/../lib/gcc/x86_64-linux-gnu/4.9/../../../../include/c++/4.9/bits/move.h' line='101' column='1'/>
        <return type-id='type-id-307'/>
      </function-decl>
      <function-decl name='move&lt;boost::filesystem::filesystem_error::m_imp *&amp;&gt;' mangled-name='_ZSt4moveIRPN5boost10filesystem16filesystem_error5m_impEEONSt16remove_referenceIT_E4typeEOS7_' filepath='/usr/bin/../lib/gcc/x86_64-linux-gnu/4.9/../../../../include/c++/4.9/bits/move.h' line='101' column='1' visibility='default' binding='global' size-in-bits='64' elf-symbol-id='_ZSt4moveIRPN5boost10filesystem16filesystem_error5m_impEEONSt16remove_referenceIT_E4typeEOS7_' hash='8e1276aa610c823d'>
        <parameter type-id='type-id-191' filepath='/usr/bin/../lib/gcc/x86_64-linux-gnu/4.9/../../../../include/c++/4.9/bits/move.h' line='101' column='1'/>
        <return type-id='type-id-309'/>
      </function-decl>
      <function-decl name='swap&lt;boost::filesystem::detail::dir_itr_imp *&gt;' mangled-name='_ZSt4swapIPN5boost10filesystem6detail11dir_itr_impEEvRT_S6_' filepath='/usr/bin/../lib/gcc/x86_64-linux-gnu/4.9/../../../../include/c++/4.9/bits/move.h' line='166' column='1' visibility='default' binding='global' size-in-bits='64' elf-symbol-id='_ZSt4swapIPN5boost10filesystem6detail11dir_itr_impEEvRT_S6_' hash='0ccf57b27ec0c186'>
        <parameter type-id='type-id-177' filepath='/usr/bin/../lib/gcc/x86_64-linux-gnu/4.9/../../../../include/c++/4.9/bits/move.h' line='554' column='1'/>
        <parameter type-id='type-id-177' filepath='/usr/bin/../lib/gcc/x86_64-linux-gnu/4.9/../../../../include/c++/4.9/bits/move.h' line='554' column='1'/>
        <return type-id='type-id-119'/>
      </function-decl>
      <function-decl name='swap&lt;boost::filesystem::filesystem_error::m_imp *&gt;' mangled-name='_ZSt4swapIPN5boost10filesystem16filesystem_error5m_impEEvRT_S6_' filepath='/usr/bin/../lib/gcc/x86_64-linux-gnu/4.9/../../../../include/c++/4.9/bits/move.h' line='166' column='1' visibility='default' binding='global' size-in-bits='64' elf-symbol-id='_ZSt4swapIPN5boost10filesystem16filesystem_error5m_impEEvRT_S6_' hash='73f6a78c1f5b7c21'>
        <parameter type-id='type-id-191' filepath='/usr/bin/../lib/gcc/x86_64-linux-gnu/4.9/../../../../include/c++/4.9/bits/move.h' line='554' column='1'/>
        <parameter type-id='type-id-191' filepath='/usr/bin/../lib/gcc/x86_64-linux-gnu/4.9/../../../../include/c++/4.9/bits/move.h' line='554' column='1'/>
        <return type-id='type-id-119'/>
      </function-decl>
      <function-decl name='__distance&lt;char *&gt;' mangled-name='_ZSt10__distanceIPcENSt15iterator_traitsIT_E15difference_typeES2_S2_St26random_access_iterator_tag' filepath='/usr/bin/../lib/gcc/x86_64-linux-gnu/4.9/../../../../include/c++/4.9/bits/stl_iterator_base_funcs.h' line='90' column='1' visibility='default' binding='global' size-in-bits='64' elf-symbol-id='_ZSt10__distanceIPcENSt15iterator_traitsIT_E15difference_typeES2_S2_St26random_access_iterator_tag' hash='803f4010b6c6d6fa'>
        <parameter type-id='type-id-53' filepath='/usr/bin/../lib/gcc/x86_64-linux-gnu/4.9/../../../../include/c++/4.9/bits/stl_iterator_base_funcs.h' line='90' column='1'/>
        <parameter type-id='type-id-53' filepath='/usr/bin/../lib/gcc/x86_64-linux-gnu/4.9/../../../../include/c++/4.9/bits/stl_iterator_base_funcs.h' line='90' column='1'/>
        <parameter type-id='type-id-357' filepath='/usr/bin/../lib/gcc/x86_64-linux-gnu/4.9/../../../../include/c++/4.9/bits/stl_iterator_base_funcs.h' line='91' column='1'/>
        <return type-id='type-id-354'/>
      </function-decl>
      <function-decl name='distance&lt;char *&gt;' mangled-name='_ZSt8distanceIPcENSt15iterator_traitsIT_E15difference_typeES2_S2_' filepath='/usr/bin/../lib/gcc/x86_64-linux-gnu/4.9/../../../../include/c++/4.9/bits/stl_iterator_base_funcs.h' line='114' column='1' visibility='default' binding='global' size-in-bits='64' elf-symbol-id='_ZSt8distanceIPcENSt15iterator_traitsIT_E15difference_typeES2_S2_' hash='803f4010b6c6d6fa'>
        <parameter type-id='type-id-53' filepath='/usr/bin/../lib/gcc/x86_64-linux-gnu/4.9/../../../../include/c++/4.9/bits/stl_iterator_base_funcs.h' line='114' column='1'/>
        <parameter type-id='type-id-53' filepath='/usr/bin/../lib/gcc/x86_64-linux-gnu/4.9/../../../../include/c++/4.9/bits/stl_iterator_base_funcs.h' line='114' column='1'/>
        <return type-id='type-id-354'/>
      </function-decl>
      <function-decl name='__iterator_category&lt;char *&gt;' mangled-name='_ZSt19__iterator_categoryIPcENSt15iterator_traitsIT_E17iterator_categoryERKS2_' filepath='/usr/bin/../lib/gcc/x86_64-linux-gnu/4.9/../../../../include/c++/4.9/bits/stl_iterator_base_types.h' line='201' column='1' visibility='default' binding='global' size-in-bits='64' elf-symbol-id='_ZSt19__iterator_categoryIPcENSt15iterator_traitsIT_E17iterator_categoryERKS2_' hash='1d97c1e7f5b953b1'>
        <parameter type-id='type-id-226' filepath='/usr/bin/../lib/gcc/x86_64-linux-gnu/4.9/../../../../include/c++/4.9/bits/stl_iterator_base_types.h' line='201' column='1'/>
        <return type-id='type-id-356'/>
      </function-decl>
      <typedef-decl name='string' type-id='type-id-331' filepath='/usr/bin/../lib/gcc/x86_64-linux-gnu/4.9/../../../../include/c++/4.9/bits/stringfwd.h' line='62' column='1' id='type-id-338'/>
      <typedef-decl name='wstring' type-id='type-id-364' filepath='/usr/bin/../lib/gcc/x86_64-linux-gnu/4.9/../../../../include/c++/4.9/bits/stringfwd.h' line='68' column='1' id='type-id-341'/>
    </namespace-decl>
    <typedef-decl name='FILE' type-id='type-id-346' filepath='/usr/include/stdio.h' line='48' column='1' id='type-id-311'/>
    <typedef-decl name='__FILE' type-id='type-id-346' filepath='/usr/include/stdio.h' line='64' column='1' id='type-id-314'/>
    <function-decl name='memset' filepath='/usr/include/string.h' line='66' column='1' visibility='default' binding='global' size-in-bits='64' hash='b6a97d07f8261bc0'>
      <parameter type-id='type-id-14'/>
      <parameter type-id='type-id-8'/>
      <parameter type-id='type-id-35'/>
      <return type-id='type-id-14'/>
    </function-decl>
    <function-decl name='memcmp' filepath='/usr/include/string.h' line='69' column='1' visibility='default' binding='global' size-in-bits='64' hash='b6a97d07f8261bc0'>
      <parameter type-id='type-id-14'/>
      <parameter type-id='type-id-14'/>
      <parameter type-id='type-id-35'/>
      <return type-id='type-id-8'/>
    </function-decl>
    <function-decl name='strcpy' filepath='/usr/include/string.h' line='129' column='1' visibility='default' binding='global' size-in-bits='64' hash='e566a45c4b433007'>
      <parameter type-id='type-id-54'/>
      <parameter type-id='type-id-72'/>
      <return type-id='type-id-53'/>
    </function-decl>
    <function-decl name='strlen' filepath='/usr/include/string.h' line='398' column='1' visibility='default' binding='global' size-in-bits='64' hash='ed7b6a29124427dd'>
      <parameter type-id='type-id-18'/>
      <return type-id='type-id-35'/>
    </function-decl>
    <namespace-decl name='boost'>
      <class-decl name='iterator_core_access' visibility='default' size-in-bits='8' filepath='src/third_party/boost-1.56.0/boost/iterator/iterator_facade.hpp' line='469' column='1' hash='986bf4c95900e28a' id='type-id-200'>
        <member-function access='private' static='yes'>
          <function-decl name='dereference&lt;boost::filesystem::path::iterator&gt;' mangled-name='_ZN5boost20iterator_core_access11dereferenceINS_10filesystem4path8iteratorEEENT_9referenceERKS5_' filepath='src/third_party/boost-1.56.0/boost/iterator/iterator_facade.hpp' line='512' column='1' visibility='default' binding='global' size-in-bits='64' elf-symbol-id='_ZN5boost20iterator_core_access11dereferenceINS_10filesystem4path8iteratorEEENT_9referenceERKS5_' hash='a4dd72cee4574639'>
            <parameter type-id='type-id-258'/>
            <return type-id='type-id-370'/>
          </function-decl>
        </member-function>
        <member-function access='private' static='yes'>
          <function-decl name='increment&lt;boost::filesystem::path::iterator&gt;' mangled-name='_ZN5boost20iterator_core_access9incrementINS_10filesystem4path8iteratorEEEvRT_' filepath='src/third_party/boost-1.56.0/boost/iterator/iterator_facade.hpp' line='518' column='1' visibility='default' binding='global' size-in-bits='64' elf-symbol-id='_ZN5boost20iterator_core_access9incrementINS_10filesystem4path8iteratorEEEvRT_' hash='3752971c606a7f94'>
            <parameter type-id='type-id-196'/>
            <return type-id='type-id-119'/>
          </function-decl>
        </member-function>
        <member-function access='private' static='yes'>
          <function-decl name='equal&lt;boost::filesystem::path::iterator, boost::filesystem::path::iterator&gt;' mangled-name='_ZN5boost20iterator_core_access5equalINS_10filesystem4path8iteratorES4_EEbRKT_RKT0_N4mpl_5bool_ILb1EEE' filepath='src/third_party/boost-1.56.0/boost/iterator/iterator_facade.hpp' line='530' column='1' visibility='default' binding='global' size-in-bits='64' elf-symbol-id='_ZN5boost20iterator_core_access5equalINS_10filesystem4path8iteratorES4_EEbRKT_RKT0_N4mpl_5bool_ILb1EEE' hash='d732a381829dd4c0'>
            <parameter type-id='type-id-258'/>
            <parameter type-id='type-id-258'/>
            <parameter type-id='type-id-371'/>
            <return type-id='type-id-1'/>
          </function-decl>
        </member-function>
        <member-function access='private' static='yes'>
          <function-decl name='increment&lt;boost::filesystem::directory_iterator&gt;' mangled-name='_ZN5boost20iterator_core_access9incrementINS_10filesystem18directory_iteratorEEEvRT_' filepath='src/third_party/boost-1.56.0/boost/iterator/iterator_facade.hpp' line='518' column='1' visibility='default' binding='global' size-in-bits='64' elf-symbol-id='_ZN5boost20iterator_core_access9incrementINS_10filesystem18directory_iteratorEEEvRT_' hash='169464b5613654c7'>
            <parameter type-id='type-id-182'/>
            <return type-id='type-id-119'/>
          </function-decl>
        </member-function>
        <member-function access='private' static='yes'>
          <function-decl name='dereference&lt;boost::filesystem::directory_iterator&gt;' mangled-name='_ZN5boost20iterator_core_access11dereferenceINS_10filesystem18directory_iteratorEEENT_9referenceERKS4_' filepath='src/third_party/boost-1.56.0/boost/iterator/iterator_facade.hpp' line='512' column='1' visibility='default' binding='global' size-in-bits='64' elf-symbol-id='_ZN5boost20iterator_core_access11dereferenceINS_10filesystem18directory_iteratorEEENT_9referenceERKS4_' hash='c78f5829ef4c7fba'>
            <parameter type-id='type-id-247'/>
            <return type-id='type-id-372'/>
          </function-decl>
        </member-function>
        <member-function access='private' static='yes'>
          <function-decl name='equal&lt;boost::filesystem::directory_iterator, boost::filesystem::directory_iterator&gt;' mangled-name='_ZN5boost20iterator_core_access5equalINS_10filesystem18directory_iteratorES3_EEbRKT_RKT0_N4mpl_5bool_ILb1EEE' filepath='src/third_party/boost-1.56.0/boost/iterator/iterator_facade.hpp' line='530' column='1' visibility='default' binding='global' size-in-bits='64' elf-symbol-id='_ZN5boost20iterator_core_access5equalINS_10filesystem18directory_iteratorES3_EEbRKT_RKT0_N4mpl_5bool_ILb1EEE' hash='deb4f44f93b825ce'>
            <parameter type-id='type-id-247'/>
            <parameter type-id='type-id-247'/>
            <parameter type-id='type-id-371'/>
            <return type-id='type-id-1'/>
          </function-decl>
        </member-function>
        <member-function access='private' static='yes'>
          <function-decl name='decrement&lt;boost::filesystem::path::iterator&gt;' mangled-name='_ZN5boost20iterator_core_access9decrementINS_10filesystem4path8iteratorEEEvRT_' filepath='src/third_party/boost-1.56.0/boost/iterator/iterator_facade.hpp' line='524' column='1' visibility='default' binding='global' size-in-bits='64' elf-symbol-id='_ZN5boost20iterator_core_access9decrementINS_10filesystem4path8iteratorEEEvRT_' hash='3752971c606a7f94'>
            <parameter type-id='type-id-196'/>
            <return type-id='type-id-119'/>
          </function-decl>
        </member-function>
      </class-decl>
      <class-decl name='iterator_facade&lt;boost::filesystem::directory_iterator, boost::filesystem::directory_entry, boost::single_pass_traversal_tag, boost::filesystem::directory_entry &amp;, long&gt;' visibility='default' size-in-bits='8' filepath='src/third_party/boost-1.56.0/boost/iterator/iterator_facade.hpp' line='592' column='1' hash='add4a7f5ef11d634' id='type-id-202'>
        <member-type access='private'>
          <typedef-decl name='difference_type' type-id='type-id-10' size-in-bits='64' filepath='src/third_party/boost-1.56.0/boost/iterator/iterator_facade.hpp' line='631' column='1' hash='b119fe0931d2ee10' id='type-id-373'/>
        </member-type>
        <member-type access='private'>
          <typedef-decl name='pointer' type-id='type-id-375' size-in-bits='64' filepath='src/third_party/boost-1.56.0/boost/iterator/iterator_facade.hpp' line='633' column='1' hash='9f005300b25295c6' id='type-id-374'/>
        </member-type>
        <member-type access='private'>
          <typedef-decl name='reference' type-id='type-id-179' size-in-bits='64' filepath='src/third_party/boost-1.56.0/boost/iterator/iterator_facade.hpp' line='630' column='1' hash='3505fc958f4e553b' id='type-id-372'/>
        </member-type>
        <member-function access='public' const='yes'>
          <function-decl name='operator-&gt;' mangled-name='_ZNK5boost15iterator_facadeINS_10filesystem18directory_iteratorENS1_15directory_entryENS_25single_pass_traversal_tagERS3_lEptEv' filepath='src/third_party/boost-1.56.0/boost/iterator/iterator_facade.hpp' line='642' column='1' visibility='default' binding='global' size-in-bits='64' elf-symbol-id='_ZNK5boost15iterator_facadeINS_10filesystem18directory_iteratorENS1_15directory_entryENS_25single_pass_traversal_tagERS3_lEptEv' hash='db819fb993410dd1'>
            <parameter type-id='type-id-265' is-artificial='yes'/>
            <return type-id='type-id-374'/>
          </function-decl>
        </member-function>
        <member-function access='public'>
          <function-decl name='operator++' mangled-name='_ZN5boost15iterator_facadeINS_10filesystem18directory_iteratorENS1_15directory_entryENS_25single_pass_traversal_tagERS3_lEppEv' filepath='src/third_party/boost-1.56.0/boost/iterator/iterator_facade.hpp' line='658' column='1' visibility='default' binding='global' size-in-bits='64' elf-symbol-id='_ZN5boost15iterator_facadeINS_10filesystem18directory_iteratorENS1_15directory_entryENS_25single_pass_traversal_tagERS3_lEppEv' hash='169464b5613654c7'>
            <parameter type-id='type-id-203' is-artificial='yes'/>
            <return type-id='type-id-182'/>
          </function-decl>
        </member-function>
        <member-function access='private'>
          <function-decl name='derived' mangled-name='_ZN5boost15iterator_facadeINS_10filesystem18directory_iteratorENS1_15directory_entryENS_25single_pass_traversal_tagERS3_lE7derivedEv' filepath='src/third_party/boost-1.56.0/boost/iterator/iterator_facade.hpp' line='604' column='1' visibility='default' binding='global' size-in-bits='64' elf-symbol-id='_ZN5boost15iterator_facadeINS_10filesystem18directory_iteratorENS1_15directory_entryENS_25single_pass_traversal_tagERS3_lE7derivedEv' hash='169464b5613654c7'>
            <parameter type-id='type-id-203' is-artificial='yes'/>
            <return type-id='type-id-182'/>
          </function-decl>
        </member-function>
        <member-function access='private' const='yes'>
          <function-decl name='derived' mangled-name='_ZNK5boost15iterator_facadeINS_10filesystem18directory_iteratorENS1_15directory_entryENS_25single_pass_traversal_tagERS3_lE7derivedEv' filepath='src/third_party/boost-1.56.0/boost/iterator/iterator_facade.hpp' line='609' column='1' visibility='default' binding='global' size-in-bits='64' elf-symbol-id='_ZNK5boost15iterator_facadeINS_10filesystem18directory_iteratorENS1_15directory_entryENS_25single_pass_traversal_tagERS3_lE7derivedEv' hash='6d2581928d42bb26'>
            <parameter type-id='type-id-265' is-artificial='yes'/>
            <return type-id='type-id-247'/>
          </function-decl>
        </member-function>
        <member-function access='public' const='yes'>
          <function-decl name='operator*' mangled-name='_ZNK5boost15iterator_facadeINS_10filesystem18directory_iteratorENS1_15directory_entryENS_25single_pass_traversal_tagERS3_lEdeEv' filepath='src/third_party/boost-1.56.0/boost/iterator/iterator_facade.hpp' line='637' column='1' visibility='default' binding='global' size-in-bits='64' elf-symbol-id='_ZNK5boost15iterator_facadeINS_10filesystem18directory_iteratorENS1_15directory_entryENS_25single_pass_traversal_tagERS3_lEdeEv' hash='47c77028a57d9569'>
            <parameter type-id='type-id-265' is-artificial='yes'/>
            <return type-id='type-id-372'/>
          </function-decl>
        </member-function>
      </class-decl>
      <class-decl name='iterator_facade&lt;boost::filesystem::path::iterator, const boost::filesystem::path, boost::bidirectional_traversal_tag, const boost::filesystem::path &amp;, long&gt;' visibility='default' size-in-bits='8' filepath='src/third_party/boost-1.56.0/boost/iterator/iterator_facade.hpp' line='592' column='1' hash='1c345d1ffd43e3c5' id='type-id-204'>
        <member-type access='private'>
          <typedef-decl name='difference_type' type-id='type-id-10' size-in-bits='64' filepath='src/third_party/boost-1.56.0/boost/iterator/iterator_facade.hpp' line='631' column='1' hash='b119fe0931d2ee10' id='type-id-376'/>
        </member-type>
        <member-type access='private'>
          <typedef-decl name='pointer' type-id='type-id-378' size-in-bits='64' filepath='src/third_party/boost-1.56.0/boost/iterator/iterator_facade.hpp' line='633' column='1' hash='8d5a29cf878d89fc' id='type-id-377'/>
        </member-type>
        <member-type access='private'>
          <typedef-decl name='reference' type-id='type-id-255' size-in-bits='64' filepath='src/third_party/boost-1.56.0/boost/iterator/iterator_facade.hpp' line='630' column='1' hash='d89c30f19e944670' id='type-id-370'/>
        </member-type>
        <member-function access='public' const='yes'>
          <function-decl name='operator*' mangled-name='_ZNK5boost15iterator_facadeINS_10filesystem4path8iteratorEKS2_NS_27bidirectional_traversal_tagERS4_lEdeEv' filepath='src/third_party/boost-1.56.0/boost/iterator/iterator_facade.hpp' line='637' column='1' visibility='default' binding='global' size-in-bits='64' elf-symbol-id='_ZNK5boost15iterator_facadeINS_10filesystem4path8iteratorEKS2_NS_27bidirectional_traversal_tagERS4_lEdeEv' hash='163e19174fdd1315'>
            <parameter type-id='type-id-268' is-artificial='yes'/>
            <return type-id='type-id-370'/>
          </function-decl>
        </member-function>
        <member-function access='public'>
          <function-decl name='operator++' mangled-name='_ZN5boost15iterator_facadeINS_10filesystem4path8iteratorEKS2_NS_27bidirectional_traversal_tagERS4_lEppEv' filepath='src/third_party/boost-1.56.0/boost/iterator/iterator_facade.hpp' line='658' column='1' visibility='default' binding='global' size-in-bits='64' elf-symbol-id='_ZN5boost15iterator_facadeINS_10filesystem4path8iteratorEKS2_NS_27bidirectional_traversal_tagERS4_lEppEv' hash='3752971c606a7f94'>
            <parameter type-id='type-id-205' is-artificial='yes'/>
            <return type-id='type-id-196'/>
          </function-decl>
        </member-function>
        <member-function access='private' const='yes'>
          <function-decl name='derived' mangled-name='_ZNK5boost15iterator_facadeINS_10filesystem4path8iteratorEKS2_NS_27bidirectional_traversal_tagERS4_lE7derivedEv' filepath='src/third_party/boost-1.56.0/boost/iterator/iterator_facade.hpp' line='609' column='1' visibility='default' binding='global' size-in-bits='64' elf-symbol-id='_ZNK5boost15iterator_facadeINS_10filesystem4path8iteratorEKS2_NS_27bidirectional_traversal_tagERS4_lE7derivedEv' hash='ba4821e5d849a290'>
            <parameter type-id='type-id-268' is-artificial='yes'/>
            <return type-id='type-id-258'/>
          </function-decl>
        </member-function>
        <member-function access='private'>
          <function-decl name='derived' mangled-name='_ZN5boost15iterator_facadeINS_10filesystem4path8iteratorEKS2_NS_27bidirectional_traversal_tagERS4_lE7derivedEv' filepath='src/third_party/boost-1.56.0/boost/iterator/iterator_facade.hpp' line='604' column='1' visibility='default' binding='global' size-in-bits='64' elf-symbol-id='_ZN5boost15iterator_facadeINS_10filesystem4path8iteratorEKS2_NS_27bidirectional_traversal_tagERS4_lE7derivedEv' hash='3752971c606a7f94'>
            <parameter type-id='type-id-205' is-artificial='yes'/>
            <return type-id='type-id-196'/>
          </function-decl>
        </member-function>
        <member-function access='public'>
          <function-decl name='operator--' mangled-name='_ZN5boost15iterator_facadeINS_10filesystem4path8iteratorEKS2_NS_27bidirectional_traversal_tagERS4_lEmmEi' filepath='src/third_party/boost-1.56.0/boost/iterator/iterator_facade.hpp' line='681' column='1' visibility='default' binding='global' size-in-bits='64' elf-symbol-id='_ZN5boost15iterator_facadeINS_10filesystem4path8iteratorEKS2_NS_27bidirectional_traversal_tagERS4_lEmmEi' hash='388da3fa973fde78'>
            <parameter type-id='type-id-205' is-artificial='yes'/>
            <parameter type-id='type-id-8'/>
            <return type-id='type-id-195'/>
          </function-decl>
        </member-function>
        <member-function access='public' const='yes'>
          <function-decl name='operator-&gt;' mangled-name='_ZNK5boost15iterator_facadeINS_10filesystem4path8iteratorEKS2_NS_27bidirectional_traversal_tagERS4_lEptEv' filepath='src/third_party/boost-1.56.0/boost/iterator/iterator_facade.hpp' line='642' column='1' visibility='default' binding='global' size-in-bits='64' elf-symbol-id='_ZNK5boost15iterator_facadeINS_10filesystem4path8iteratorEKS2_NS_27bidirectional_traversal_tagERS4_lEptEv' hash='d0b5ac1fe71a3aa3'>
            <parameter type-id='type-id-268' is-artificial='yes'/>
            <return type-id='type-id-377'/>
          </function-decl>
        </member-function>
        <member-function access='public'>
          <function-decl name='operator--' mangled-name='_ZN5boost15iterator_facadeINS_10filesystem4path8iteratorEKS2_NS_27bidirectional_traversal_tagERS4_lEmmEv' filepath='src/third_party/boost-1.56.0/boost/iterator/iterator_facade.hpp' line='675' column='1' visibility='default' binding='global' size-in-bits='64' elf-symbol-id='_ZN5boost15iterator_facadeINS_10filesystem4path8iteratorEKS2_NS_27bidirectional_traversal_tagERS4_lEmmEv' hash='3752971c606a7f94'>
            <parameter type-id='type-id-205' is-artificial='yes'/>
            <return type-id='type-id-196'/>
          </function-decl>
        </member-function>
      </class-decl>
      <class-decl name='scoped_array&lt;char&gt;' visibility='default' size-in-bits='64' filepath='src/third_party/boost-1.56.0/boost/smart_ptr/scoped_array.hpp' line='39' column='1' hash='2d511e033d23e981' id='type-id-206'>
        <data-member access='private' layout-offset-in-bits='0'>
          <var-decl name='px' type-id='type-id-53' visibility='default' filepath='src/third_party/boost-1.56.0/boost/smart_ptr/scoped_array.hpp' line='43' column='1'/>
        </data-member>
        <member-function access='public'>
          <function-decl name='scoped_array' mangled-name='_ZN5boost12scoped_arrayIcEC2EPc' filepath='src/third_party/boost-1.56.0/boost/smart_ptr/scoped_array.hpp' line='57' column='1' visibility='default' binding='global' size-in-bits='64' elf-symbol-id='_ZN5boost12scoped_arrayIcEC2EPc' hash='02a096d257a5e00d'>
            <parameter type-id='type-id-208' is-artificial='yes'/>
            <parameter type-id='type-id-53'/>
            <return type-id='type-id-119'/>
          </function-decl>
        </member-function>
        <member-function access='public' const='yes'>
          <function-decl name='get' mangled-name='_ZNK5boost12scoped_arrayIcE3getEv' filepath='src/third_party/boost-1.56.0/boost/smart_ptr/scoped_array.hpp' line='85' column='1' visibility='default' binding='global' size-in-bits='64' elf-symbol-id='_ZNK5boost12scoped_arrayIcE3getEv' hash='02a096d257a5e00d'>
            <parameter type-id='type-id-271' is-artificial='yes'/>
            <return type-id='type-id-53'/>
          </function-decl>
        </member-function>
        <member-function access='public' destructor='yes'>
          <function-decl name='~scoped_array' mangled-name='_ZN5boost12scoped_arrayIcED2Ev' filepath='src/third_party/boost-1.56.0/boost/smart_ptr/scoped_array.hpp' line='64' column='1' visibility='default' binding='global' size-in-bits='64' elf-symbol-id='_ZN5boost12scoped_arrayIcED2Ev' hash='7f32ffea222edbe7'>
            <parameter type-id='type-id-208' is-artificial='yes'/>
            <return type-id='type-id-119'/>
          </function-decl>
        </member-function>
      </class-decl>
      <class-decl name='shared_ptr&lt;boost::filesystem::detail::dir_itr_imp&gt;' visibility='default' size-in-bits='128' filepath='src/third_party/boost-1.56.0/boost/smart_ptr/shared_ptr.hpp' line='323' column='1' hash='b3dca5519aeee023' id='type-id-209'>
        <member-type access='private'>
          <typedef-decl name='element_type' type-id='type-id-379' size-in-bits='320' filepath='src/third_party/boost-1.56.0/boost/smart_ptr/shared_ptr.hpp' line='332' column='1' id='type-id-213'/>
        </member-type>
        <data-member access='private' layout-offset-in-bits='0'>
          <var-decl name='px' type-id='type-id-214' visibility='default' filepath='src/third_party/boost-1.56.0/boost/smart_ptr/shared_ptr.hpp' line='723' column='1'/>
        </data-member>
        <data-member access='private' layout-offset-in-bits='64'>
          <var-decl name='pn' type-id='type-id-157' visibility='default' filepath='src/third_party/boost-1.56.0/boost/smart_ptr/shared_ptr.hpp' line='724' column='1'/>
        </data-member>
        <member-function access='public' const='yes'>
          <function-decl name='operator-&gt;' mangled-name='_ZNK5boost10shared_ptrINS_10filesystem6detail11dir_itr_impEEptEv' filepath='src/third_party/boost-1.56.0/boost/smart_ptr/shared_ptr.hpp' line='646' column='1' visibility='default' binding='global' size-in-bits='64' elf-symbol-id='_ZNK5boost10shared_ptrINS_10filesystem6detail11dir_itr_impEEptEv' hash='5fe2ed55636808ca#2'>
            <parameter type-id='type-id-274' is-artificial='yes'/>
            <return type-id='type-id-380'/>
          </function-decl>
        </member-function>
        <member-function access='public'>
          <function-decl name='reset' mangled-name='_ZN5boost10shared_ptrINS_10filesystem6detail11dir_itr_impEE5resetEv' filepath='src/third_party/boost-1.56.0/boost/smart_ptr/shared_ptr.hpp' line='612' column='1' visibility='default' binding='global' size-in-bits='64' elf-symbol-id='_ZN5boost10shared_ptrINS_10filesystem6detail11dir_itr_impEE5resetEv' hash='7f32ffea222edbe7'>
            <parameter type-id='type-id-212' is-artificial='yes'/>
            <return type-id='type-id-119'/>
          </function-decl>
        </member-function>
        <member-function access='public' const='yes'>
          <function-decl name='get' mangled-name='_ZNK5boost10shared_ptrINS_10filesystem6detail11dir_itr_impEE3getEv' filepath='src/third_party/boost-1.56.0/boost/smart_ptr/shared_ptr.hpp' line='661' column='1' visibility='default' binding='global' size-in-bits='64' elf-symbol-id='_ZNK5boost10shared_ptrINS_10filesystem6detail11dir_itr_impEE3getEv' hash='5cbbec6e1d2c61ba'>
            <parameter type-id='type-id-274' is-artificial='yes'/>
            <return type-id='type-id-214'/>
          </function-decl>
        </member-function>
        <member-function access='public'>
          <function-decl name='shared_ptr' mangled-name='_ZN5boost10shared_ptrINS_10filesystem6detail11dir_itr_impEEC2Ev' filepath='src/third_party/boost-1.56.0/boost/smart_ptr/shared_ptr.hpp' line='334' column='1' visibility='default' binding='global' size-in-bits='64' elf-symbol-id='_ZN5boost10shared_ptrINS_10filesystem6detail11dir_itr_impEEC2Ev' hash='7f32ffea222edbe7'>
            <parameter type-id='type-id-212' is-artificial='yes'/>
            <return type-id='type-id-119'/>
          </function-decl>
        </member-function>
        <member-function access='public'>
          <function-decl name='swap' mangled-name='_ZN5boost10shared_ptrINS_10filesystem6detail11dir_itr_impEE4swapERS4_' filepath='src/third_party/boost-1.56.0/boost/smart_ptr/shared_ptr.hpp' line='679' column='1' visibility='default' binding='global' size-in-bits='64' elf-symbol-id='_ZN5boost10shared_ptrINS_10filesystem6detail11dir_itr_impEE4swapERS4_' hash='0d29272b9133e260'>
            <parameter type-id='type-id-212' is-artificial='yes'/>
            <parameter type-id='type-id-210'/>
            <return type-id='type-id-119'/>
          </function-decl>
        </member-function>
        <member-function access='public' constructor='yes'>
          <function-decl name='shared_ptr&lt;boost::filesystem::detail::dir_itr_imp&gt;' mangled-name='_ZN5boost10shared_ptrINS_10filesystem6detail11dir_itr_impEEC2IS3_EEPT_' filepath='src/third_party/boost-1.56.0/boost/smart_ptr/shared_ptr.hpp' line='347' column='1' visibility='default' binding='global' size-in-bits='64' elf-symbol-id='_ZN5boost10shared_ptrINS_10filesystem6detail11dir_itr_impEEC2IS3_EEPT_' hash='5fe2ed55636808ca'>
            <parameter type-id='type-id-212' is-artificial='yes'/>
            <parameter type-id='type-id-176'/>
            <return type-id='type-id-119'/>
          </function-decl>
        </member-function>
      </class-decl>
      <class-decl name='shared_ptr&lt;boost::filesystem::filesystem_error::m_imp&gt;' visibility='default' size-in-bits='128' filepath='src/third_party/boost-1.56.0/boost/smart_ptr/shared_ptr.hpp' line='323' column='1' hash='292cc35dd6f0232e' id='type-id-215'>
        <member-type access='private'>
          <typedef-decl name='element_type' type-id='type-id-381' size-in-bits='192' filepath='src/third_party/boost-1.56.0/boost/smart_ptr/shared_ptr.hpp' line='332' column='1' id='type-id-219'/>
        </member-type>
        <data-member access='private' layout-offset-in-bits='0'>
          <var-decl name='px' type-id='type-id-220' visibility='default' filepath='src/third_party/boost-1.56.0/boost/smart_ptr/shared_ptr.hpp' line='723' column='1'/>
        </data-member>
        <data-member access='private' layout-offset-in-bits='64'>
          <var-decl name='pn' type-id='type-id-157' visibility='default' filepath='src/third_party/boost-1.56.0/boost/smart_ptr/shared_ptr.hpp' line='724' column='1'/>
        </data-member>
        <member-function access='public'>
          <function-decl name='shared_ptr' mangled-name='_ZN5boost10shared_ptrINS_10filesystem16filesystem_error5m_impEEC2Ev' filepath='src/third_party/boost-1.56.0/boost/smart_ptr/shared_ptr.hpp' line='334' column='1' visibility='default' binding='global' size-in-bits='64' elf-symbol-id='_ZN5boost10shared_ptrINS_10filesystem16filesystem_error5m_impEEC2Ev' hash='7f32ffea222edbe7'>
            <parameter type-id='type-id-218' is-artificial='yes'/>
            <return type-id='type-id-119'/>
          </function-decl>
        </member-function>
        <member-function access='public'>
          <function-decl name='reset&lt;boost::filesystem::filesystem_error::m_imp&gt;' mangled-name='_ZN5boost10shared_ptrINS_10filesystem16filesystem_error5m_impEE5resetIS3_EEvPT_' filepath='src/third_party/boost-1.56.0/boost/smart_ptr/shared_ptr.hpp' line='617' column='1' visibility='default' binding='global' size-in-bits='64' elf-symbol-id='_ZN5boost10shared_ptrINS_10filesystem16filesystem_error5m_impEE5resetIS3_EEvPT_' hash='47770069e19ddd92'>
            <parameter type-id='type-id-218' is-artificial='yes'/>
            <parameter type-id='type-id-190'/>
            <return type-id='type-id-119'/>
          </function-decl>
        </member-function>
        <member-function access='public'>
          <function-decl name='reset' mangled-name='_ZN5boost10shared_ptrINS_10filesystem16filesystem_error5m_impEE5resetEv' filepath='src/third_party/boost-1.56.0/boost/smart_ptr/shared_ptr.hpp' line='612' column='1' visibility='default' binding='global' size-in-bits='64' elf-symbol-id='_ZN5boost10shared_ptrINS_10filesystem16filesystem_error5m_impEE5resetEv' hash='7f32ffea222edbe7'>
            <parameter type-id='type-id-218' is-artificial='yes'/>
            <return type-id='type-id-119'/>
          </function-decl>
        </member-function>
        <member-function access='public' const='yes'>
          <function-decl name='get' mangled-name='_ZNK5boost10shared_ptrINS_10filesystem16filesystem_error5m_impEE3getEv' filepath='src/third_party/boost-1.56.0/boost/smart_ptr/shared_ptr.hpp' line='661' column='1' visibility='default' binding='global' size-in-bits='64' elf-symbol-id='_ZNK5boost10shared_ptrINS_10filesystem16filesystem_error5m_impEE3getEv' hash='5cbbec6e1d2c61ba'>
            <parameter type-id='type-id-277' is-artificial='yes'/>
            <return type-id='type-id-220'/>
          </function-decl>
        </member-function>
        <member-function access='public' const='yes'>
          <function-decl name='operator-&gt;' mangled-name='_ZNK5boost10shared_ptrINS_10filesystem16filesystem_error5m_impEEptEv' filepath='src/third_party/boost-1.56.0/boost/smart_ptr/shared_ptr.hpp' line='646' column='1' visibility='default' binding='global' size-in-bits='64' elf-symbol-id='_ZNK5boost10shared_ptrINS_10filesystem16filesystem_error5m_impEEptEv' hash='47770069e19ddd92#2'>
            <parameter type-id='type-id-277' is-artificial='yes'/>
            <return type-id='type-id-382'/>
          </function-decl>
        </member-function>
        <member-function access='public'>
          <function-decl name='swap' mangled-name='_ZN5boost10shared_ptrINS_10filesystem16filesystem_error5m_impEE4swapERS4_' filepath='src/third_party/boost-1.56.0/boost/smart_ptr/shared_ptr.hpp' line='679' column='1' visibility='default' binding='global' size-in-bits='64' elf-symbol-id='_ZN5boost10shared_ptrINS_10filesystem16filesystem_error5m_impEE4swapERS4_' hash='a18f05f2463bd157'>
            <parameter type-id='type-id-218' is-artificial='yes'/>
            <parameter type-id='type-id-216'/>
            <return type-id='type-id-119'/>
          </function-decl>
        </member-function>
        <member-function access='public' constructor='yes'>
          <function-decl name='shared_ptr&lt;boost::filesystem::filesystem_error::m_imp&gt;' mangled-name='_ZN5boost10shared_ptrINS_10filesystem16filesystem_error5m_impEEC2IS3_EEPT_' filepath='src/third_party/boost-1.56.0/boost/smart_ptr/shared_ptr.hpp' line='347' column='1' visibility='default' binding='global' size-in-bits='64' elf-symbol-id='_ZN5boost10shared_ptrINS_10filesystem16filesystem_error5m_impEEC2IS3_EEPT_' hash='47770069e19ddd92'>
            <parameter type-id='type-id-218' is-artificial='yes'/>
            <parameter type-id='type-id-190'/>
            <return type-id='type-id-119'/>
          </function-decl>
        </member-function>
      </class-decl>
      <class-decl name='enable_if_c&lt;true, boost::filesystem::path &amp;&gt;' is-struct='yes' visibility='default' size-in-bits='8' filepath='src/third_party/boost-1.56.0/boost/core/enable_if.hpp' line='28' column='1' hash='13ec00e0e2ce2630' id='type-id-383'>
        <member-type access='public'>
          <typedef-decl name='type' type-id='type-id-193' size-in-bits='64' filepath='src/third_party/boost-1.56.0/boost/core/enable_if.hpp' line='29' column='1' hash='54199a9248c6bf47' id='type-id-384'/>
        </member-type>
      </class-decl>
      <function-decl name='checked_delete&lt;boost::filesystem::detail::dir_itr_imp&gt;' mangled-name='_ZN5boost14checked_deleteINS_10filesystem6detail11dir_itr_impEEEvPT_' filepath='src/third_party/boost-1.56.0/boost/core/checked_delete.hpp' line='29' column='1' visibility='default' binding='global' size-in-bits='64' elf-symbol-id='_ZN5boost14checked_deleteINS_10filesystem6detail11dir_itr_impEEEvPT_' hash='5fe2ed55636808ca'>
        <parameter type-id='type-id-176' filepath='src/third_party/boost-1.56.0/boost/core/checked_delete.hpp' line='29' column='1'/>
        <return type-id='type-id-119'/>
      </function-decl>
      <function-decl name='checked_delete&lt;boost::filesystem::filesystem_error::m_imp&gt;' mangled-name='_ZN5boost14checked_deleteINS_10filesystem16filesystem_error5m_impEEEvPT_' filepath='src/third_party/boost-1.56.0/boost/core/checked_delete.hpp' line='29' column='1' visibility='default' binding='global' size-in-bits='64' elf-symbol-id='_ZN5boost14checked_deleteINS_10filesystem16filesystem_error5m_impEEEvPT_' hash='47770069e19ddd92'>
        <parameter type-id='type-id-190' filepath='src/third_party/boost-1.56.0/boost/core/checked_delete.hpp' line='29' column='1'/>
        <return type-id='type-id-119'/>
      </function-decl>
      <function-decl name='checked_array_delete&lt;char&gt;' mangled-name='_ZN5boost20checked_array_deleteIcEEvPT_' filepath='src/third_party/boost-1.56.0/boost/core/checked_delete.hpp' line='37' column='1' visibility='default' binding='global' size-in-bits='64' elf-symbol-id='_ZN5boost20checked_array_deleteIcEEvPT_' hash='02a096d257a5e00d'>
        <parameter type-id='type-id-53' filepath='src/third_party/boost-1.56.0/boost/core/checked_delete.hpp' line='37' column='1'/>
        <return type-id='type-id-119'/>
      </function-decl>
      <namespace-decl name='core'>
        <typedef-decl name='typeinfo' type-id='type-id-369' filepath='src/third_party/boost-1.56.0/boost/core/typeinfo.hpp' line='134' column='1' id='type-id-385'/>
      </namespace-decl>
      <namespace-decl name='filesystem'>
        <class-decl name='directory_entry' visibility='default' size-in-bits='192' filepath='src/third_party/boost-1.56.0/boost/filesystem/operations.hpp' line='670' column='1' hash='104d0067bffe0c3a' id='type-id-178'>
          <data-member access='private' layout-offset-in-bits='0'>
            <var-decl name='m_path' type-id='type-id-192' visibility='default' filepath='src/third_party/boost-1.56.0/boost/filesystem/operations.hpp' line='715' column='1'/>
          </data-member>
          <data-member access='private' layout-offset-in-bits='64'>
            <var-decl name='m_status' type-id='type-id-184' visibility='default' filepath='src/third_party/boost-1.56.0/boost/filesystem/operations.hpp' line='716' column='1'/>
          </data-member>
          <data-member access='private' layout-offset-in-bits='128'>
            <var-decl name='m_symlink_status' type-id='type-id-184' visibility='default' filepath='src/third_party/boost-1.56.0/boost/filesystem/operations.hpp' line='717' column='1'/>
          </data-member>
          <member-function access='private' const='yes'>
            <function-decl name='m_get_status' mangled-name='_ZNK5boost10filesystem15directory_entry12m_get_statusEPNS_6system10error_codeE' filepath='src/third_party/boost-1.56.0/boost/filesystem/operations.hpp' line='719' column='1' visibility='default' binding='global' size-in-bits='64' elf-symbol-id='_ZNK5boost10filesystem15directory_entry12m_get_statusEPNS_6system10error_codeE' hash='69d1383cc636e9cf'>
              <parameter type-id='type-id-245' is-artificial='yes'/>
              <parameter type-id='type-id-50'/>
              <return type-id='type-id-184'/>
            </function-decl>
          </member-function>
          <member-function access='private' const='yes'>
            <function-decl name='m_get_symlink_status' mangled-name='_ZNK5boost10filesystem15directory_entry20m_get_symlink_statusEPNS_6system10error_codeE' filepath='src/third_party/boost-1.56.0/boost/filesystem/operations.hpp' line='720' column='1' visibility='default' binding='global' size-in-bits='64' elf-symbol-id='_ZNK5boost10filesystem15directory_entry20m_get_symlink_statusEPNS_6system10error_codeE' hash='69d1383cc636e9cf'>
              <parameter type-id='type-id-245' is-artificial='yes'/>
              <parameter type-id='type-id-50'/>
              <return type-id='type-id-184'/>
            </function-decl>
          </member-function>
          <member-function access='public' const='yes'>
            <function-decl name='path' mangled-name='_ZNK5boost10filesystem15directory_entry4pathEv' filepath='src/third_party/boost-1.56.0/boost/filesystem/operations.hpp' line='701' column='1' visibility='default' binding='global' size-in-bits='64' elf-symbol-id='_ZNK5boost10filesystem15directory_entry4pathEv' hash='163e19174fdd1315'>
              <parameter type-id='type-id-245' is-artificial='yes'/>
              <return type-id='type-id-255'/>
            </function-decl>
          </member-function>
          <member-function access='public'>
            <function-decl name='assign' mangled-name='_ZN5boost10filesystem15directory_entry6assignERKNS0_4pathENS0_11file_statusES5_' filepath='src/third_party/boost-1.56.0/boost/filesystem/operations.hpp' line='682' column='1' visibility='default' binding='global' size-in-bits='64' elf-symbol-id='_ZN5boost10filesystem15directory_entry6assignERKNS0_4pathENS0_11file_statusES5_' hash='163e19174fdd1315'>
              <parameter type-id='type-id-180' is-artificial='yes'/>
              <parameter type-id='type-id-255'/>
              <parameter type-id='type-id-184'/>
              <parameter type-id='type-id-184'/>
              <return type-id='type-id-119'/>
            </function-decl>
          </member-function>
          <member-function access='public'>
            <function-decl name='replace_filename' mangled-name='_ZN5boost10filesystem15directory_entry16replace_filenameERKNS0_4pathENS0_11file_statusES5_' filepath='src/third_party/boost-1.56.0/boost/filesystem/operations.hpp' line='686' column='1' visibility='default' binding='global' size-in-bits='64' elf-symbol-id='_ZN5boost10filesystem15directory_entry16replace_filenameERKNS0_4pathENS0_11file_statusES5_' hash='163e19174fdd1315'>
              <parameter type-id='type-id-180' is-artificial='yes'/>
              <parameter type-id='type-id-255'/>
              <parameter type-id='type-id-184'/>
              <parameter type-id='type-id-184'/>
              <return type-id='type-id-119'/>
            </function-decl>
          </member-function>
          <member-function access='public' constructor='yes'>
            <function-decl name='directory_entry' mangled-name='_ZN5boost10filesystem15directory_entryC2Ev' filepath='src/third_party/boost-1.56.0/boost/filesystem/operations.hpp' line='676' column='1' visibility='default' binding='global' size-in-bits='64' elf-symbol-id='_ZN5boost10filesystem15directory_entryC2Ev' hash='7f32ffea222edbe7'>
              <parameter type-id='type-id-180' is-artificial='yes'/>
              <return type-id='type-id-119'/>
            </function-decl>
          </member-function>
        </class-decl>
        <class-decl name='directory_iterator' visibility='default' size-in-bits='128' filepath='src/third_party/boost-1.56.0/boost/filesystem/operations.hpp' line='780' column='1' hash='f3845b9cebc117c0' id='type-id-181'>
          <base-class access='public' layout-offset-in-bits='0' type-id='type-id-202'/>
          <data-member access='private' layout-offset-in-bits='0'>
            <var-decl name='m_imp' type-id='type-id-209' visibility='default' filepath='src/third_party/boost-1.56.0/boost/filesystem/operations.hpp' line='816' column='1'/>
          </data-member>
          <member-function access='public' constructor='yes'>
            <function-decl name='directory_iterator' mangled-name='_ZN5boost10filesystem18directory_iteratorC2Ev' filepath='src/third_party/boost-1.56.0/boost/filesystem/operations.hpp' line='787' column='1' visibility='default' binding='global' size-in-bits='64' elf-symbol-id='_ZN5boost10filesystem18directory_iteratorC2Ev' hash='7f32ffea222edbe7'>
              <parameter type-id='type-id-183' is-artificial='yes'/>
              <return type-id='type-id-119'/>
            </function-decl>
          </member-function>
          <member-function access='public' destructor='yes'>
            <function-decl name='~directory_iterator' mangled-name='_ZN5boost10filesystem18directory_iteratorD2Ev' filepath='src/third_party/boost-1.56.0/boost/filesystem/operations.hpp' line='799' column='1' visibility='default' binding='global' size-in-bits='64' elf-symbol-id='_ZN5boost10filesystem18directory_iteratorD2Ev' hash='7f32ffea222edbe7'>
              <parameter type-id='type-id-183' is-artificial='yes'/>
              <return type-id='type-id-119'/>
            </function-decl>
          </member-function>
          <member-function access='public'>
            <function-decl name='increment' mangled-name='_ZN5boost10filesystem18directory_iterator9incrementERNS_6system10error_codeE' filepath='src/third_party/boost-1.56.0/boost/filesystem/operations.hpp' line='801' column='1' visibility='default' binding='global' size-in-bits='64' elf-symbol-id='_ZN5boost10filesystem18directory_iterator9incrementERNS_6system10error_codeE' hash='e79085ccd13a2322'>
              <parameter type-id='type-id-183' is-artificial='yes'/>
              <parameter type-id='type-id-221'/>
              <return type-id='type-id-182'/>
            </function-decl>
          </member-function>
          <member-function access='public' constructor='yes'>
            <function-decl name='directory_iterator' mangled-name='_ZN5boost10filesystem18directory_iteratorC2ERKNS0_4pathE' filepath='src/third_party/boost-1.56.0/boost/filesystem/operations.hpp' line='791' column='1' visibility='default' binding='global' size-in-bits='64' elf-symbol-id='_ZN5boost10filesystem18directory_iteratorC2ERKNS0_4pathE' hash='163e19174fdd1315'>
              <parameter type-id='type-id-183' is-artificial='yes'/>
              <parameter type-id='type-id-255'/>
              <return type-id='type-id-119'/>
            </function-decl>
          </member-function>
          <member-function access='private'>
            <function-decl name='increment' mangled-name='_ZN5boost10filesystem18directory_iterator9incrementEv' filepath='src/third_party/boost-1.56.0/boost/filesystem/operations.hpp' line='829' column='1' visibility='default' binding='global' size-in-bits='64' elf-symbol-id='_ZN5boost10filesystem18directory_iterator9incrementEv' hash='7f32ffea222edbe7'>
              <parameter type-id='type-id-183' is-artificial='yes'/>
              <return type-id='type-id-119'/>
            </function-decl>
          </member-function>
          <member-function access='private' const='yes'>
            <function-decl name='dereference' mangled-name='_ZNK5boost10filesystem18directory_iterator11dereferenceEv' filepath='src/third_party/boost-1.56.0/boost/filesystem/operations.hpp' line='823' column='1' visibility='default' binding='global' size-in-bits='64' elf-symbol-id='_ZNK5boost10filesystem18directory_iterator11dereferenceEv' hash='47c77028a57d9569'>
              <parameter type-id='type-id-248' is-artificial='yes'/>
              <return type-id='type-id-372'/>
            </function-decl>
          </member-function>
          <member-function access='private' const='yes'>
            <function-decl name='equal' mangled-name='_ZNK5boost10filesystem18directory_iterator5equalERKS1_' filepath='src/third_party/boost-1.56.0/boost/filesystem/operations.hpp' line='831' column='1' visibility='default' binding='global' size-in-bits='64' elf-symbol-id='_ZNK5boost10filesystem18directory_iterator5equalERKS1_' hash='afa3674094030909'>
              <parameter type-id='type-id-248' is-artificial='yes'/>
              <parameter type-id='type-id-247'/>
              <return type-id='type-id-1'/>
            </function-decl>
          </member-function>
        </class-decl>
        <class-decl name='file_status' visibility='default' size-in-bits='64' filepath='src/third_party/boost-1.56.0/boost/filesystem/operations.hpp' line='256' column='1' hash='691129c47ec4f10e' id='type-id-184'>
          <data-member access='private' layout-offset-in-bits='0'>
            <var-decl name='m_value' type-id='type-id-386' visibility='default' filepath='src/third_party/boost-1.56.0/boost/filesystem/operations.hpp' line='276' column='1'/>
          </data-member>
          <data-member access='private' layout-offset-in-bits='32'>
            <var-decl name='m_perms' type-id='type-id-198' visibility='default' filepath='src/third_party/boost-1.56.0/boost/filesystem/operations.hpp' line='277' column='1'/>
          </data-member>
          <member-function access='public' const='yes'>
            <function-decl name='type' mangled-name='_ZNK5boost10filesystem11file_status4typeEv' filepath='src/third_party/boost-1.56.0/boost/filesystem/operations.hpp' line='264' column='1' visibility='default' binding='global' size-in-bits='64' elf-symbol-id='_ZNK5boost10filesystem11file_status4typeEv' hash='328c678f3f16c40d'>
              <parameter type-id='type-id-251' is-artificial='yes'/>
              <return type-id='type-id-386'/>
            </function-decl>
          </member-function>
          <member-function access='public' const='yes'>
            <function-decl name='permissions' mangled-name='_ZNK5boost10filesystem11file_status11permissionsEv' filepath='src/third_party/boost-1.56.0/boost/filesystem/operations.hpp' line='265' column='1' visibility='default' binding='global' size-in-bits='64' elf-symbol-id='_ZNK5boost10filesystem11file_status11permissionsEv' hash='df05cb43da088d5a'>
              <parameter type-id='type-id-251' is-artificial='yes'/>
              <return type-id='type-id-198'/>
            </function-decl>
          </member-function>
          <member-function access='public' constructor='yes'>
            <function-decl name='file_status' mangled-name='_ZN5boost10filesystem11file_statusC2ENS0_9file_typeENS0_5permsE' filepath='src/third_party/boost-1.56.0/boost/filesystem/operations.hpp' line='260' column='1' visibility='default' binding='global' size-in-bits='64' elf-symbol-id='_ZN5boost10filesystem11file_statusC2ENS0_9file_typeENS0_5permsE' hash='82a02f3860b56fbc'>
              <parameter type-id='type-id-185' is-artificial='yes'/>
              <parameter type-id='type-id-386'/>
              <parameter type-id='type-id-198'/>
              <return type-id='type-id-119'/>
            </function-decl>
          </member-function>
          <member-function access='public' constructor='yes'>
            <function-decl name='file_status' mangled-name='_ZN5boost10filesystem11file_statusC2Ev' filepath='src/third_party/boost-1.56.0/boost/filesystem/operations.hpp' line='259' column='1' visibility='default' binding='global' size-in-bits='64' elf-symbol-id='_ZN5boost10filesystem11file_statusC2Ev' hash='7f32ffea222edbe7'>
              <parameter type-id='type-id-185' is-artificial='yes'/>
              <return type-id='type-id-119'/>
            </function-decl>
          </member-function>
        </class-decl>
        <class-decl name='filesystem_error' visibility='default' size-in-bits='448' filepath='src/third_party/boost-1.56.0/boost/filesystem/operations.hpp' line='64' column='1' hash='ef4b40c46a6b9167' id='type-id-186'>
          <base-class access='public' layout-offset-in-bits='0' type-id='type-id-222'/>
          <member-type access='private'>
            <class-decl name='m_imp' is-struct='yes' visibility='default' size-in-bits='192' filepath='src/third_party/boost-1.56.0/boost/filesystem/operations.hpp' line='159' column='1' hash='9a5931e2e8fd885a' id='type-id-188'>
              <data-member access='public' layout-offset-in-bits='0'>
                <var-decl name='m_path1' type-id='type-id-192' visibility='default' filepath='src/third_party/boost-1.56.0/boost/filesystem/operations.hpp' line='161' column='1'/>
              </data-member>
              <data-member access='public' layout-offset-in-bits='64'>
                <var-decl name='m_path2' type-id='type-id-192' visibility='default' filepath='src/third_party/boost-1.56.0/boost/filesystem/operations.hpp' line='162' column='1'/>
              </data-member>
              <data-member access='public' layout-offset-in-bits='128'>
                <var-decl name='m_what' type-id='type-id-338' visibility='default' filepath='src/third_party/boost-1.56.0/boost/filesystem/operations.hpp' line='163' column='1'/>
              </data-member>
            </class-decl>
          </member-type>
          <data-member access='private' layout-offset-in-bits='320'>
            <var-decl name='m_imp_ptr' type-id='type-id-215' visibility='default' filepath='src/third_party/boost-1.56.0/boost/filesystem/operations.hpp' line='165' column='1'/>
          </data-member>
          <member-function access='public' constructor='yes'>
            <function-decl name='filesystem_error' mangled-name='_ZN5boost10filesystem16filesystem_errorC2ERKSsRKNS0_4pathENS_6system10error_codeE' filepath='src/third_party/boost-1.56.0/boost/filesystem/operations.hpp' line='87' column='1' visibility='default' binding='global' size-in-bits='64' elf-symbol-id='_ZN5boost10filesystem16filesystem_errorC2ERKSsRKNS0_4pathENS_6system10error_codeE' hash='163e19174fdd1315'>
              <parameter type-id='type-id-187' is-artificial='yes'/>
              <parameter type-id='type-id-340'/>
              <parameter type-id='type-id-255'/>
              <parameter type-id='type-id-49'/>
              <return type-id='type-id-119'/>
            </function-decl>
          </member-function>
          <member-function access='public' constructor='yes'>
            <function-decl name='filesystem_error' mangled-name='_ZN5boost10filesystem16filesystem_errorC2ERKSsRKNS0_4pathES6_NS_6system10error_codeE' filepath='src/third_party/boost-1.56.0/boost/filesystem/operations.hpp' line='100' column='1' visibility='default' binding='global' size-in-bits='64' elf-symbol-id='_ZN5boost10filesystem16filesystem_errorC2ERKSsRKNS0_4pathES6_NS_6system10error_codeE' hash='0cb27ebaac645e48'>
              <parameter type-id='type-id-187' is-artificial='yes'/>
              <parameter type-id='type-id-340'/>
              <parameter type-id='type-id-255'/>
              <parameter type-id='type-id-255'/>
              <parameter type-id='type-id-49'/>
              <return type-id='type-id-119'/>
            </function-decl>
          </member-function>
          <member-function access='public' constructor='yes'>
            <function-decl name='filesystem_error' mangled-name='_ZN5boost10filesystem16filesystem_errorC2ERKSsNS_6system10error_codeE' filepath='src/third_party/boost-1.56.0/boost/filesystem/operations.hpp' line='76' column='1' visibility='default' binding='global' size-in-bits='64' elf-symbol-id='_ZN5boost10filesystem16filesystem_errorC2ERKSsNS_6system10error_codeE' hash='7f32ffea222edbe7'>
              <parameter type-id='type-id-187' is-artificial='yes'/>
              <parameter type-id='type-id-340'/>
              <parameter type-id='type-id-49'/>
              <return type-id='type-id-119'/>
            </function-decl>
          </member-function>
          <member-function access='public' destructor='yes' vtable-offset='0'>
            <function-decl name='~filesystem_error' filepath='src/third_party/boost-1.56.0/boost/filesystem/operations.hpp' line='114' column='1' visibility='default' binding='global' size-in-bits='64' hash='7f32ffea222edbe7'>
              <parameter type-id='type-id-187' is-artificial='yes'/>
              <return type-id='type-id-119'/>
            </function-decl>
          </member-function>
          <member-function access='public' destructor='yes' vtable-offset='0'>
            <function-decl name='~filesystem_error' mangled-name='_ZN5boost10filesystem16filesystem_errorD0Ev' filepath='src/third_party/boost-1.56.0/boost/filesystem/operations.hpp' line='114' column='1' visibility='default' binding='global' size-in-bits='64' elf-symbol-id='_ZN5boost10filesystem16filesystem_errorD0Ev' hash='7f32ffea222edbe7'>
              <parameter type-id='type-id-187' is-artificial='yes'/>
              <return type-id='type-id-119'/>
            </function-decl>
          </member-function>
          <member-function access='public' destructor='yes' vtable-offset='0'>
            <function-decl name='~filesystem_error' mangled-name='_ZN5boost10filesystem16filesystem_errorD2Ev' filepath='src/third_party/boost-1.56.0/boost/filesystem/operations.hpp' line='114' column='1' visibility='default' binding='global' size-in-bits='64' elf-symbol-id='_ZN5boost10filesystem16filesystem_errorD2Ev' hash='7f32ffea222edbe7'>
              <parameter type-id='type-id-187' is-artificial='yes'/>
              <return type-id='type-id-119'/>
            </function-decl>
          </member-function>
          <member-function access='public' const='yes' vtable-offset='2'>
            <function-decl name='what' mangled-name='_ZNK5boost10filesystem16filesystem_error4whatEv' filepath='src/third_party/boost-1.56.0/boost/filesystem/operations.hpp' line='127' column='1' visibility='default' binding='global' size-in-bits='64' elf-symbol-id='_ZNK5boost10filesystem16filesystem_error4whatEv' hash='53885bde0aa65efe'>
              <parameter type-id='type-id-253' is-artificial='yes'/>
              <return type-id='type-id-18'/>
            </function-decl>
          </member-function>
        </class-decl>
        <class-decl name='path' visibility='default' size-in-bits='64' filepath='src/third_party/boost-1.56.0/boost/filesystem/path.hpp' line='55' column='1' hash='2464ff697f2e6ee0' id='type-id-192'>
          <member-type access='private'>
            <class-decl name='iterator' visibility='default' size-in-bits='192' filepath='src/third_party/boost-1.56.0/boost/filesystem/path.hpp' line='569' column='1' hash='09df802e5f529838' id='type-id-195'>
              <base-class access='public' layout-offset-in-bits='0' type-id='type-id-204'/>
              <data-member access='private' layout-offset-in-bits='0'>
                <var-decl name='m_element' type-id='type-id-192' visibility='default' filepath='src/third_party/boost-1.56.0/boost/filesystem/path.hpp' line='593' column='1'/>
              </data-member>
              <data-member access='private' layout-offset-in-bits='64'>
                <var-decl name='m_path_ptr' type-id='type-id-256' visibility='default' filepath='src/third_party/boost-1.56.0/boost/filesystem/path.hpp' line='594' column='1'/>
              </data-member>
              <data-member access='private' layout-offset-in-bits='128'>
                <var-decl name='m_pos' type-id='type-id-363' visibility='default' filepath='src/third_party/boost-1.56.0/boost/filesystem/path.hpp' line='595' column='1'/>
              </data-member>
              <member-function access='private' const='yes'>
                <function-decl name='dereference' mangled-name='_ZNK5boost10filesystem4path8iterator11dereferenceEv' filepath='src/third_party/boost-1.56.0/boost/filesystem/path.hpp' line='581' column='1' visibility='default' binding='global' size-in-bits='64' elf-symbol-id='_ZNK5boost10filesystem4path8iterator11dereferenceEv' hash='163e19174fdd1315'>
                  <parameter type-id='type-id-259' is-artificial='yes'/>
                  <return type-id='type-id-255'/>
                </function-decl>
              </member-function>
              <member-function access='private'>
                <function-decl name='increment' mangled-name='_ZN5boost10filesystem4path8iterator9incrementEv' filepath='src/third_party/boost-1.56.0/boost/filesystem/path.hpp' line='590' column='1' visibility='default' binding='global' size-in-bits='64' elf-symbol-id='_ZN5boost10filesystem4path8iterator9incrementEv' hash='7f32ffea222edbe7'>
                  <parameter type-id='type-id-197' is-artificial='yes'/>
                  <return type-id='type-id-119'/>
                </function-decl>
              </member-function>
              <member-function access='private' const='yes'>
                <function-decl name='equal' mangled-name='_ZNK5boost10filesystem4path8iterator5equalERKS2_' filepath='src/third_party/boost-1.56.0/boost/filesystem/path.hpp' line='583' column='1' visibility='default' binding='global' size-in-bits='64' elf-symbol-id='_ZNK5boost10filesystem4path8iterator5equalERKS2_' hash='872ff89c63d05320'>
                  <parameter type-id='type-id-259' is-artificial='yes'/>
                  <parameter type-id='type-id-258'/>
                  <return type-id='type-id-1'/>
                </function-decl>
              </member-function>
              <member-function access='private'>
                <function-decl name='decrement' mangled-name='_ZN5boost10filesystem4path8iterator9decrementEv' filepath='src/third_party/boost-1.56.0/boost/filesystem/path.hpp' line='591' column='1' visibility='default' binding='global' size-in-bits='64' elf-symbol-id='_ZN5boost10filesystem4path8iterator9decrementEv' hash='7f32ffea222edbe7'>
                  <parameter type-id='type-id-197' is-artificial='yes'/>
                  <return type-id='type-id-119'/>
                </function-decl>
              </member-function>
            </class-decl>
          </member-type>
          <member-type access='private'>
            <typedef-decl name='value_type' type-id='type-id-2' size-in-bits='8' filepath='src/third_party/boost-1.56.0/boost/filesystem/path.hpp' line='66' column='1' hash='65b2d157027b431a' id='type-id-260'/>
          </member-type>
          <member-type access='private'>
            <typedef-decl name='codecvt_type' type-id='type-id-367' filepath='src/third_party/boost-1.56.0/boost/filesystem/path.hpp' line='71' column='1' id='type-id-320'/>
          </member-type>
          <member-type access='private'>
            <typedef-decl name='codecvt_type' type-id='type-id-388' filepath='src/third_party/boost-1.56.0/boost/filesystem/path.hpp' line='71' column='1' id='type-id-387'/>
          </member-type>
          <member-type access='private'>
            <typedef-decl name='codecvt_type' type-id='type-id-390' filepath='src/third_party/boost-1.56.0/boost/filesystem/path.hpp' line='71' column='1' id='type-id-389'/>
          </member-type>
          <member-type access='private'>
            <typedef-decl name='string_type' type-id='type-id-331' filepath='src/third_party/boost-1.56.0/boost/filesystem/path.hpp' line='69' column='1' id='type-id-323'/>
          </member-type>
          <member-type access='private'>
            <typedef-decl name='string_type' type-id='type-id-392' filepath='src/third_party/boost-1.56.0/boost/filesystem/path.hpp' line='69' column='1' id='type-id-391'/>
          </member-type>
          <member-type access='private'>
            <typedef-decl name='string_type' type-id='type-id-394' filepath='src/third_party/boost-1.56.0/boost/filesystem/path.hpp' line='69' column='1' id='type-id-393'/>
          </member-type>
          <data-member access='private' layout-offset-in-bits='0'>
            <var-decl name='m_pathname' type-id='type-id-323' visibility='default' filepath='src/third_party/boost-1.56.0/boost/filesystem/path.hpp' line='528' column='1'/>
          </data-member>
          <member-function access='public' constructor='yes'>
            <function-decl name='path' mangled-name='_ZN5boost10filesystem4pathC2EPKc' filepath='src/third_party/boost-1.56.0/boost/filesystem/path.hpp' line='150' column='1' visibility='default' binding='global' size-in-bits='64' elf-symbol-id='_ZN5boost10filesystem4pathC2EPKc' hash='9dd23d065c046b84'>
              <parameter type-id='type-id-194' is-artificial='yes'/>
              <parameter type-id='type-id-262'/>
              <return type-id='type-id-119'/>
            </function-decl>
          </member-function>
          <member-function access='public' const='yes'>
            <function-decl name='is_absolute' mangled-name='_ZNK5boost10filesystem4path11is_absoluteEv' filepath='src/third_party/boost-1.56.0/boost/filesystem/path.hpp' line='450' column='1' visibility='default' binding='global' size-in-bits='64' elf-symbol-id='_ZNK5boost10filesystem4path11is_absoluteEv' hash='c7c710e908194b91'>
              <parameter type-id='type-id-256' is-artificial='yes'/>
              <return type-id='type-id-1'/>
            </function-decl>
          </member-function>
          <member-function access='public' constructor='yes'>
            <function-decl name='path' mangled-name='_ZN5boost10filesystem4pathC2ERKS1_' filepath='src/third_party/boost-1.56.0/boost/filesystem/path.hpp' line='132' column='1' visibility='default' binding='global' size-in-bits='64' elf-symbol-id='_ZN5boost10filesystem4pathC2ERKS1_' hash='163e19174fdd1315'>
              <parameter type-id='type-id-194' is-artificial='yes'/>
              <parameter type-id='type-id-255'/>
              <return type-id='type-id-119'/>
            </function-decl>
          </member-function>
          <member-function access='public' const='yes'>
            <function-decl name='empty' mangled-name='_ZNK5boost10filesystem4path5emptyEv' filepath='src/third_party/boost-1.56.0/boost/filesystem/path.hpp' line='441' column='1' visibility='default' binding='global' size-in-bits='64' elf-symbol-id='_ZNK5boost10filesystem4path5emptyEv' hash='c7c710e908194b91'>
              <parameter type-id='type-id-256' is-artificial='yes'/>
              <return type-id='type-id-1'/>
            </function-decl>
          </member-function>
          <member-function access='public' constructor='yes'>
            <function-decl name='path' mangled-name='_ZN5boost10filesystem4pathC2Ev' filepath='src/third_party/boost-1.56.0/boost/filesystem/path.hpp' line='130' column='1' visibility='default' binding='global' size-in-bits='64' elf-symbol-id='_ZN5boost10filesystem4pathC2Ev' hash='7f32ffea222edbe7'>
              <parameter type-id='type-id-194' is-artificial='yes'/>
              <return type-id='type-id-119'/>
            </function-decl>
          </member-function>
          <member-function access='public'>
            <function-decl name='clear' mangled-name='_ZN5boost10filesystem4path5clearEv' filepath='src/third_party/boost-1.56.0/boost/filesystem/path.hpp' line='325' column='1' visibility='default' binding='global' size-in-bits='64' elf-symbol-id='_ZN5boost10filesystem4path5clearEv' hash='7f32ffea222edbe7'>
              <parameter type-id='type-id-194' is-artificial='yes'/>
              <return type-id='type-id-119'/>
            </function-decl>
          </member-function>
          <member-function access='public'>
            <function-decl name='operator=' mangled-name='_ZN5boost10filesystem4pathaSERKS1_' filepath='src/third_party/boost-1.56.0/boost/filesystem/path.hpp' line='184' column='1' visibility='default' binding='global' size-in-bits='64' elf-symbol-id='_ZN5boost10filesystem4pathaSERKS1_' hash='6809054422aec0c5'>
              <parameter type-id='type-id-194' is-artificial='yes'/>
              <parameter type-id='type-id-255'/>
              <return type-id='type-id-193'/>
            </function-decl>
          </member-function>
          <member-function access='public' const='yes'>
            <function-decl name='c_str' mangled-name='_ZNK5boost10filesystem4path5c_strEv' filepath='src/third_party/boost-1.56.0/boost/filesystem/path.hpp' line='358' column='1' visibility='default' binding='global' size-in-bits='64' elf-symbol-id='_ZNK5boost10filesystem4path5c_strEv' hash='9dd23d065c046b84'>
              <parameter type-id='type-id-256' is-artificial='yes'/>
              <return type-id='type-id-262'/>
            </function-decl>
          </member-function>
          <member-function access='public'>
            <function-decl name='operator=&lt;char *&gt;' mangled-name='_ZN5boost10filesystem4pathaSIPcEENS_9enable_ifINS0_11path_traits11is_pathableINS_5decayIT_E4typeEEERS1_E4typeERKS8_' filepath='src/third_party/boost-1.56.0/boost/filesystem/path.hpp' line='199' column='1' visibility='default' binding='global' size-in-bits='64' elf-symbol-id='_ZN5boost10filesystem4pathaSIPcEENS_9enable_ifINS0_11path_traits11is_pathableINS_5decayIT_E4typeEEERS1_E4typeERKS8_' hash='6a9c663333cd7c29'>
              <parameter type-id='type-id-194' is-artificial='yes'/>
              <parameter type-id='type-id-226'/>
              <return type-id='type-id-384'/>
            </function-decl>
          </member-function>
          <member-function access='public'>
            <function-decl name='assign&lt;char *&gt;' mangled-name='_ZN5boost10filesystem4path6assignIPcEERS1_T_S5_' filepath='src/third_party/boost-1.56.0/boost/filesystem/path.hpp' line='221' column='1' visibility='default' binding='global' size-in-bits='64' elf-symbol-id='_ZN5boost10filesystem4path6assignIPcEERS1_T_S5_' hash='eedc2a1726473882'>
              <parameter type-id='type-id-194' is-artificial='yes'/>
              <parameter type-id='type-id-53'/>
              <parameter type-id='type-id-53'/>
              <return type-id='type-id-193'/>
            </function-decl>
          </member-function>
          <member-function access='public' const='yes'>
            <function-decl name='native' mangled-name='_ZNK5boost10filesystem4path6nativeEv' filepath='src/third_party/boost-1.56.0/boost/filesystem/path.hpp' line='357' column='1' visibility='default' binding='global' size-in-bits='64' elf-symbol-id='_ZNK5boost10filesystem4path6nativeEv' hash='7f32ffea222edbe7'>
              <parameter type-id='type-id-256' is-artificial='yes'/>
              <return type-id='type-id-325'/>
            </function-decl>
          </member-function>
          <member-function access='public' constructor='yes'>
            <function-decl name='path' mangled-name='_ZN5boost10filesystem4pathC2ERKSs' filepath='src/third_party/boost-1.56.0/boost/filesystem/path.hpp' line='151' column='1' visibility='default' binding='global' size-in-bits='64' elf-symbol-id='_ZN5boost10filesystem4pathC2ERKSs' hash='7f32ffea222edbe7'>
              <parameter type-id='type-id-194' is-artificial='yes'/>
              <parameter type-id='type-id-333'/>
              <return type-id='type-id-119'/>
            </function-decl>
          </member-function>
          <member-function access='public'>
            <function-decl name='assign&lt;char *&gt;' mangled-name='_ZN5boost10filesystem4path6assignIPcEERS1_T_S5_RKSt7codecvtIwc11__mbstate_tE' filepath='src/third_party/boost-1.56.0/boost/filesystem/path.hpp' line='227' column='1' visibility='default' binding='global' size-in-bits='64' elf-symbol-id='_ZN5boost10filesystem4path6assignIPcEERS1_T_S5_RKSt7codecvtIwc11__mbstate_tE' hash='eedc2a1726473882'>
              <parameter type-id='type-id-194' is-artificial='yes'/>
              <parameter type-id='type-id-53'/>
              <parameter type-id='type-id-53'/>
              <parameter type-id='type-id-322'/>
              <return type-id='type-id-193'/>
            </function-decl>
          </member-function>
          <member-function access='public' const='yes'>
            <function-decl name='string' mangled-name='_ZNK5boost10filesystem4path6stringEv' filepath='src/third_party/boost-1.56.0/boost/filesystem/path.hpp' line='383' column='1' visibility='default' binding='global' size-in-bits='64' elf-symbol-id='_ZNK5boost10filesystem4path6stringEv' hash='7f32ffea222edbe7'>
              <parameter type-id='type-id-256' is-artificial='yes'/>
              <return type-id='type-id-340'/>
            </function-decl>
          </member-function>
          <member-function access='public' const='yes'>
            <function-decl name='has_root_directory' mangled-name='_ZNK5boost10filesystem4path18has_root_directoryEv' filepath='src/third_party/boost-1.56.0/boost/filesystem/path.hpp' line='444' column='1' visibility='default' binding='global' size-in-bits='64' elf-symbol-id='_ZNK5boost10filesystem4path18has_root_directoryEv' hash='c7c710e908194b91'>
              <parameter type-id='type-id-256' is-artificial='yes'/>
              <return type-id='type-id-1'/>
            </function-decl>
          </member-function>
          <member-function access='public'>
            <function-decl name='operator/=' mangled-name='_ZN5boost10filesystem4pathdVERKS1_' filepath='src/third_party/boost-1.56.0/boost/filesystem/path.hpp' line='293' column='1' visibility='default' binding='global' size-in-bits='64' elf-symbol-id='_ZN5boost10filesystem4pathdVERKS1_' hash='6809054422aec0c5'>
              <parameter type-id='type-id-194' is-artificial='yes'/>
              <parameter type-id='type-id-255'/>
              <return type-id='type-id-193'/>
            </function-decl>
          </member-function>
          <member-function access='private'>
            <function-decl name='m_append_separator_if_needed' mangled-name='_ZN5boost10filesystem4path28m_append_separator_if_neededEv' filepath='src/third_party/boost-1.56.0/boost/filesystem/path.hpp' line='534' column='1' visibility='default' binding='global' size-in-bits='64' elf-symbol-id='_ZN5boost10filesystem4path28m_append_separator_if_neededEv' hash='e0055d99adb0e173#2'>
              <parameter type-id='type-id-194' is-artificial='yes'/>
              <return type-id='type-id-363'/>
            </function-decl>
          </member-function>
          <member-function access='public'>
            <function-decl name='operator/=' mangled-name='_ZN5boost10filesystem4pathdVEPKc' filepath='src/third_party/boost-1.56.0/boost/filesystem/path.hpp' line='295' column='1' visibility='default' binding='global' size-in-bits='64' elf-symbol-id='_ZN5boost10filesystem4pathdVEPKc' hash='9de9ea3374606299'>
              <parameter type-id='type-id-194' is-artificial='yes'/>
              <parameter type-id='type-id-262'/>
              <return type-id='type-id-193'/>
            </function-decl>
          </member-function>
          <member-function access='public' const='yes'>
            <function-decl name='compare' mangled-name='_ZNK5boost10filesystem4path7compareERKS1_' filepath='src/third_party/boost-1.56.0/boost/filesystem/path.hpp' line='423' column='1' visibility='default' binding='global' size-in-bits='64' elf-symbol-id='_ZNK5boost10filesystem4path7compareERKS1_' hash='80fe3a5f34b19c6f'>
              <parameter type-id='type-id-256' is-artificial='yes'/>
              <parameter type-id='type-id-255'/>
              <return type-id='type-id-8'/>
            </function-decl>
          </member-function>
          <member-function access='public' const='yes'>
            <function-decl name='begin' mangled-name='_ZNK5boost10filesystem4path5beginEv' filepath='src/third_party/boost-1.56.0/boost/filesystem/path.hpp' line='465' column='1' visibility='default' binding='global' size-in-bits='64' elf-symbol-id='_ZNK5boost10filesystem4path5beginEv' hash='7f32ffea222edbe7'>
              <parameter type-id='type-id-256' is-artificial='yes'/>
              <return type-id='type-id-195'/>
            </function-decl>
          </member-function>
          <member-function access='public' const='yes'>
            <function-decl name='end' mangled-name='_ZNK5boost10filesystem4path3endEv' filepath='src/third_party/boost-1.56.0/boost/filesystem/path.hpp' line='466' column='1' visibility='default' binding='global' size-in-bits='64' elf-symbol-id='_ZNK5boost10filesystem4path3endEv' hash='7f32ffea222edbe7'>
              <parameter type-id='type-id-256' is-artificial='yes'/>
              <return type-id='type-id-195'/>
            </function-decl>
          </member-function>
          <member-function access='private'>
            <function-decl name='m_erase_redundant_separator' mangled-name='_ZN5boost10filesystem4path27m_erase_redundant_separatorEm' filepath='src/third_party/boost-1.56.0/boost/filesystem/path.hpp' line='538' column='1' visibility='default' binding='global' size-in-bits='64' elf-symbol-id='_ZN5boost10filesystem4path27m_erase_redundant_separatorEm' hash='e0055d99adb0e173'>
              <parameter type-id='type-id-194' is-artificial='yes'/>
              <parameter type-id='type-id-363'/>
              <return type-id='type-id-119'/>
            </function-decl>
          </member-function>
          <member-function access='public'>
            <function-decl name='remove_filename' mangled-name='_ZN5boost10filesystem4path15remove_filenameEv' filepath='src/third_party/boost-1.56.0/boost/filesystem/path.hpp' line='332' column='1' visibility='default' binding='global' size-in-bits='64' elf-symbol-id='_ZN5boost10filesystem4path15remove_filenameEv' hash='3638d6630be4ad96'>
              <parameter type-id='type-id-194' is-artificial='yes'/>
              <return type-id='type-id-193'/>
            </function-decl>
          </member-function>
          <member-function access='private' const='yes'>
            <function-decl name='m_parent_path_end' mangled-name='_ZNK5boost10filesystem4path17m_parent_path_endEv' filepath='src/third_party/boost-1.56.0/boost/filesystem/path.hpp' line='539' column='1' visibility='default' binding='global' size-in-bits='64' elf-symbol-id='_ZNK5boost10filesystem4path17m_parent_path_endEv' hash='e0055d99adb0e173'>
              <parameter type-id='type-id-256' is-artificial='yes'/>
              <return type-id='type-id-363'/>
            </function-decl>
          </member-function>
          <member-function access='public'>
            <function-decl name='replace_extension' mangled-name='_ZN5boost10filesystem4path17replace_extensionERKS1_' filepath='src/third_party/boost-1.56.0/boost/filesystem/path.hpp' line='333' column='1' visibility='default' binding='global' size-in-bits='64' elf-symbol-id='_ZN5boost10filesystem4path17replace_extensionERKS1_' hash='6809054422aec0c5'>
              <parameter type-id='type-id-194' is-artificial='yes'/>
              <parameter type-id='type-id-255'/>
              <return type-id='type-id-193'/>
            </function-decl>
          </member-function>
          <member-function access='public' const='yes'>
            <function-decl name='extension' mangled-name='_ZNK5boost10filesystem4path9extensionEv' filepath='src/third_party/boost-1.56.0/boost/filesystem/path.hpp' line='437' column='1' visibility='default' binding='global' size-in-bits='64' elf-symbol-id='_ZNK5boost10filesystem4path9extensionEv' hash='7f32ffea222edbe7'>
              <parameter type-id='type-id-256' is-artificial='yes'/>
              <return type-id='type-id-192'/>
            </function-decl>
          </member-function>
          <member-function access='public' const='yes'>
            <function-decl name='root_path' mangled-name='_ZNK5boost10filesystem4path9root_pathEv' filepath='src/third_party/boost-1.56.0/boost/filesystem/path.hpp' line='429' column='1' visibility='default' binding='global' size-in-bits='64' elf-symbol-id='_ZNK5boost10filesystem4path9root_pathEv' hash='7f32ffea222edbe7'>
              <parameter type-id='type-id-256' is-artificial='yes'/>
              <return type-id='type-id-192'/>
            </function-decl>
          </member-function>
          <member-function access='public' const='yes'>
            <function-decl name='root_name' mangled-name='_ZNK5boost10filesystem4path9root_nameEv' filepath='src/third_party/boost-1.56.0/boost/filesystem/path.hpp' line='430' column='1' visibility='default' binding='global' size-in-bits='64' elf-symbol-id='_ZNK5boost10filesystem4path9root_nameEv' hash='7f32ffea222edbe7'>
              <parameter type-id='type-id-256' is-artificial='yes'/>
              <return type-id='type-id-192'/>
            </function-decl>
          </member-function>
          <member-function access='public' const='yes'>
            <function-decl name='root_directory' mangled-name='_ZNK5boost10filesystem4path14root_directoryEv' filepath='src/third_party/boost-1.56.0/boost/filesystem/path.hpp' line='432' column='1' visibility='default' binding='global' size-in-bits='64' elf-symbol-id='_ZNK5boost10filesystem4path14root_directoryEv' hash='7f32ffea222edbe7'>
              <parameter type-id='type-id-256' is-artificial='yes'/>
              <return type-id='type-id-192'/>
            </function-decl>
          </member-function>
          <member-function access='public'>
            <function-decl name='path&lt;const char *&gt;' mangled-name='_ZN5boost10filesystem4pathC2IPKcEET_S5_' filepath='src/third_party/boost-1.56.0/boost/filesystem/path.hpp' line='161' column='1' visibility='default' binding='global' size-in-bits='64' elf-symbol-id='_ZN5boost10filesystem4pathC2IPKcEET_S5_' hash='3d5693612af11c46'>
              <parameter type-id='type-id-194' is-artificial='yes'/>
              <parameter type-id='type-id-18'/>
              <parameter type-id='type-id-18'/>
              <return type-id='type-id-119'/>
            </function-decl>
          </member-function>
          <member-function access='public' const='yes'>
            <function-decl name='relative_path' mangled-name='_ZNK5boost10filesystem4path13relative_pathEv' filepath='src/third_party/boost-1.56.0/boost/filesystem/path.hpp' line='433' column='1' visibility='default' binding='global' size-in-bits='64' elf-symbol-id='_ZNK5boost10filesystem4path13relative_pathEv' hash='7f32ffea222edbe7'>
              <parameter type-id='type-id-256' is-artificial='yes'/>
              <return type-id='type-id-192'/>
            </function-decl>
          </member-function>
          <member-function access='public' const='yes'>
            <function-decl name='parent_path' mangled-name='_ZNK5boost10filesystem4path11parent_pathEv' filepath='src/third_party/boost-1.56.0/boost/filesystem/path.hpp' line='434' column='1' visibility='default' binding='global' size-in-bits='64' elf-symbol-id='_ZNK5boost10filesystem4path11parent_pathEv' hash='7f32ffea222edbe7'>
              <parameter type-id='type-id-256' is-artificial='yes'/>
              <return type-id='type-id-192'/>
            </function-decl>
          </member-function>
          <member-function access='public' const='yes'>
            <function-decl name='filename' mangled-name='_ZNK5boost10filesystem4path8filenameEv' filepath='src/third_party/boost-1.56.0/boost/filesystem/path.hpp' line='435' column='1' visibility='default' binding='global' size-in-bits='64' elf-symbol-id='_ZNK5boost10filesystem4path8filenameEv' hash='7f32ffea222edbe7'>
              <parameter type-id='type-id-256' is-artificial='yes'/>
              <return type-id='type-id-192'/>
            </function-decl>
          </member-function>
          <member-function access='public' const='yes'>
            <function-decl name='stem' mangled-name='_ZNK5boost10filesystem4path4stemEv' filepath='src/third_party/boost-1.56.0/boost/filesystem/path.hpp' line='436' column='1' visibility='default' binding='global' size-in-bits='64' elf-symbol-id='_ZNK5boost10filesystem4path4stemEv' hash='7f32ffea222edbe7'>
              <parameter type-id='type-id-256' is-artificial='yes'/>
              <return type-id='type-id-192'/>
            </function-decl>
          </member-function>
          <member-function access='private'>
            <function-decl name='m_normalize' mangled-name='_ZN5boost10filesystem4path11m_normalizeEv' filepath='src/third_party/boost-1.56.0/boost/filesystem/path.hpp' line='541' column='1' visibility='default' binding='global' size-in-bits='64' elf-symbol-id='_ZN5boost10filesystem4path11m_normalizeEv' hash='3638d6630be4ad96'>
              <parameter type-id='type-id-194' is-artificial='yes'/>
              <return type-id='type-id-193'/>
            </function-decl>
          </member-function>
          <member-function access='public'>
            <function-decl name='operator=&lt;std::basic_string&lt;char&gt; &gt;' mangled-name='_ZN5boost10filesystem4pathaSISsEENS_9enable_ifINS0_11path_traits11is_pathableINS_5decayIT_E4typeEEERS1_E4typeERKS7_' filepath='src/third_party/boost-1.56.0/boost/filesystem/path.hpp' line='199' column='1' visibility='default' binding='global' size-in-bits='64' elf-symbol-id='_ZN5boost10filesystem4pathaSISsEENS_9enable_ifINS0_11path_traits11is_pathableINS_5decayIT_E4typeEEERS1_E4typeERKS7_' hash='3638d6630be4ad96'>
              <parameter type-id='type-id-194' is-artificial='yes'/>
              <parameter type-id='type-id-333'/>
              <return type-id='type-id-384'/>
            </function-decl>
          </member-function>
          <member-function access='private' static='yes'>
            <function-decl name='m_path_iterator_increment' mangled-name='_ZN5boost10filesystem4path25m_path_iterator_incrementERNS1_8iteratorE' filepath='src/third_party/boost-1.56.0/boost/filesystem/path.hpp' line='549' column='1' visibility='default' binding='global' size-in-bits='64' elf-symbol-id='_ZN5boost10filesystem4path25m_path_iterator_incrementERNS1_8iteratorE' hash='3752971c606a7f94'>
              <parameter type-id='type-id-196'/>
              <return type-id='type-id-119'/>
            </function-decl>
          </member-function>
          <member-function access='private' static='yes'>
            <function-decl name='m_path_iterator_decrement' mangled-name='_ZN5boost10filesystem4path25m_path_iterator_decrementERNS1_8iteratorE' filepath='src/third_party/boost-1.56.0/boost/filesystem/path.hpp' line='550' column='1' visibility='default' binding='global' size-in-bits='64' elf-symbol-id='_ZN5boost10filesystem4path25m_path_iterator_decrementERNS1_8iteratorE' hash='3752971c606a7f94'>
              <parameter type-id='type-id-196'/>
              <return type-id='type-id-119'/>
            </function-decl>
          </member-function>
          <member-function access='public' static='yes'>
            <function-decl name='codecvt' mangled-name='_ZN5boost10filesystem4path7codecvtEv' filepath='src/third_party/boost-1.56.0/boost/filesystem/path.hpp' line='471' column='1' visibility='default' binding='global' size-in-bits='64' elf-symbol-id='_ZN5boost10filesystem4path7codecvtEv' hash='7f32ffea222edbe7'>
              <return type-id='type-id-322'/>
            </function-decl>
          </member-function>
          <member-function access='public' static='yes'>
            <function-decl name='imbue' mangled-name='_ZN5boost10filesystem4path5imbueERKSt6locale' filepath='src/third_party/boost-1.56.0/boost/filesystem/path.hpp' line='470' column='1' visibility='default' binding='global' size-in-bits='64' elf-symbol-id='_ZN5boost10filesystem4path5imbueERKSt6locale' hash='81edaeb7d812470b'>
              <parameter type-id='type-id-287'/>
              <return type-id='type-id-285'/>
            </function-decl>
          </member-function>
          <member-function access='public' const='yes'>
            <function-decl name='wstring' mangled-name='_ZNK5boost10filesystem4path7wstringEv' filepath='src/third_party/boost-1.56.0/boost/filesystem/path.hpp' line='386' column='1' visibility='default' binding='global' size-in-bits='64' elf-symbol-id='_ZNK5boost10filesystem4path7wstringEv' hash='7f32ffea222edbe7'>
              <parameter type-id='type-id-256' is-artificial='yes'/>
              <return type-id='type-id-342'/>
            </function-decl>
          </member-function>
          <member-function access='public'>
            <function-decl name='path&lt;std::basic_string&lt;wchar_t&gt; &gt;' mangled-name='_ZN5boost10filesystem4pathC2ISbIwSt11char_traitsIwESaIwEEEERKT_PNS_9enable_ifINS0_11path_traits11is_pathableINS_5decayIS7_E4typeEEEvE4typeE' filepath='src/third_party/boost-1.56.0/boost/filesystem/path.hpp' line='135' column='1' visibility='default' binding='global' size-in-bits='64' elf-symbol-id='_ZN5boost10filesystem4pathC2ISbIwSt11char_traitsIwESaIwEEEERKT_PNS_9enable_ifINS0_11path_traits11is_pathableINS_5decayIS7_E4typeEEEvE4typeE' hash='7f32ffea222edbe7'>
              <parameter type-id='type-id-194' is-artificial='yes'/>
              <parameter type-id='type-id-395'/>
              <parameter type-id='type-id-396'/>
              <return type-id='type-id-119'/>
            </function-decl>
          </member-function>
          <member-function access='public' const='yes'>
            <function-decl name='wstring' mangled-name='_ZNK5boost10filesystem4path7wstringERKSt7codecvtIwc11__mbstate_tE' filepath='src/third_party/boost-1.56.0/boost/filesystem/path.hpp' line='387' column='1' visibility='default' binding='global' size-in-bits='64' elf-symbol-id='_ZNK5boost10filesystem4path7wstringERKSt7codecvtIwc11__mbstate_tE' hash='7f32ffea222edbe7'>
              <parameter type-id='type-id-256' is-artificial='yes'/>
              <parameter type-id='type-id-322'/>
              <return type-id='type-id-342'/>
            </function-decl>
          </member-function>
        </class-decl>
        <enum-decl name='copy_option' size-in-bits='32' alignment-in-bits='32' filepath='src/third_party/boost-1.56.0/boost/filesystem/operations.hpp' line='304' column='1' hash='a837949d2c075c87' id='type-id-397'>
          <underlying-type type-id='type-id-153'/>
          <enumerator name='none' value='0'/>
          <enumerator name='fail_if_exists' value='0'/>
          <enumerator name='overwrite_if_exists' value='1'/>
        </enum-decl>
        <enum-decl name='file_type' size-in-bits='32' alignment-in-bits='32' filepath='src/third_party/boost-1.56.0/boost/filesystem/operations.hpp' line='172' column='1' hash='064f74cb60dc2f73' id='type-id-386'>
          <underlying-type type-id='type-id-153'/>
          <enumerator name='status_error' value='0'/>
          <enumerator name='status_unknown' value='0'/>
          <enumerator name='file_not_found' value='1'/>
          <enumerator name='regular_file' value='2'/>
          <enumerator name='directory_file' value='3'/>
          <enumerator name='symlink_file' value='4'/>
          <enumerator name='block_file' value='5'/>
          <enumerator name='character_file' value='6'/>
          <enumerator name='fifo_file' value='7'/>
          <enumerator name='socket_file' value='8'/>
          <enumerator name='reparse_file' value='9'/>
          <enumerator name='type_unknown' value='10'/>
          <enumerator name='_detail_directory_symlink' value='11'/>
        </enum-decl>
        <enum-decl name='perms' size-in-bits='32' alignment-in-bits='32' filepath='src/third_party/boost-1.56.0/boost/filesystem/operations.hpp' line='198' column='1' hash='9e85a92882e94023' id='type-id-198'>
          <underlying-type type-id='type-id-153'/>
          <enumerator name='no_perms' value='0'/>
          <enumerator name='owner_read' value='256'/>
          <enumerator name='owner_write' value='128'/>
          <enumerator name='owner_exe' value='64'/>
          <enumerator name='owner_all' value='448'/>
          <enumerator name='group_read' value='32'/>
          <enumerator name='group_write' value='16'/>
          <enumerator name='group_exe' value='8'/>
          <enumerator name='group_all' value='56'/>
          <enumerator name='others_read' value='4'/>
          <enumerator name='others_write' value='2'/>
          <enumerator name='others_exe' value='1'/>
          <enumerator name='others_all' value='7'/>
          <enumerator name='all_all' value='511'/>
          <enumerator name='set_uid_on_exe' value='2048'/>
          <enumerator name='set_gid_on_exe' value='1024'/>
          <enumerator name='sticky_bit' value='512'/>
          <enumerator name='perms_mask' value='4095'/>
          <enumerator name='perms_not_known' value='65535'/>
          <enumerator name='add_perms' value='4096'/>
          <enumerator name='remove_perms' value='8192'/>
          <enumerator name='symlink_perms' value='16384'/>
        </enum-decl>
        <class-decl name='space_info' is-struct='yes' visibility='default' size-in-bits='192' filepath='src/third_party/boost-1.56.0/boost/filesystem/operations.hpp' line='296' column='1' hash='ddb6d1e89307108f' id='type-id-398'>
          <data-member access='public' layout-offset-in-bits='0'>
            <var-decl name='capacity' type-id='type-id-152' visibility='default' filepath='src/third_party/boost-1.56.0/boost/filesystem/operations.hpp' line='299' column='1'/>
          </data-member>
          <data-member access='public' layout-offset-in-bits='64'>
            <var-decl name='free' type-id='type-id-152' visibility='default' filepath='src/third_party/boost-1.56.0/boost/filesystem/operations.hpp' line='300' column='1'/>
          </data-member>
          <data-member access='public' layout-offset-in-bits='128'>
            <var-decl name='available' type-id='type-id-152' visibility='default' filepath='src/third_party/boost-1.56.0/boost/filesystem/operations.hpp' line='301' column='1'/>
          </data-member>
        </class-decl>
        <function-decl name='operator&amp;' mangled-name='_ZN5boost10filesystemanENS0_5permsES1_' filepath='src/third_party/boost-1.56.0/boost/filesystem/operations.hpp' line='250' column='1' visibility='default' binding='global' size-in-bits='64' elf-symbol-id='_ZN5boost10filesystemanENS0_5permsES1_' hash='71aae249fd78d6cf'>
          <parameter type-id='type-id-198' filepath='src/third_party/boost-1.56.0/boost/filesystem/operations.hpp' line='250' column='1'/>
          <parameter type-id='type-id-198' filepath='src/third_party/boost-1.56.0/boost/filesystem/operations.hpp' line='250' column='1'/>
          <return type-id='type-id-198'/>
        </function-decl>
        <function-decl name='operator|' mangled-name='_ZN5boost10filesystemorENS0_5permsES1_' filepath='src/third_party/boost-1.56.0/boost/filesystem/operations.hpp' line='250' column='1' visibility='default' binding='global' size-in-bits='64' elf-symbol-id='_ZN5boost10filesystemorENS0_5permsES1_' hash='71aae249fd78d6cf'>
          <parameter type-id='type-id-198' filepath='src/third_party/boost-1.56.0/boost/filesystem/operations.hpp' line='250' column='1'/>
          <parameter type-id='type-id-198' filepath='src/third_party/boost-1.56.0/boost/filesystem/operations.hpp' line='250' column='1'/>
          <return type-id='type-id-198'/>
        </function-decl>
        <function-decl name='operator~' mangled-name='_ZN5boost10filesystemcoENS0_5permsE' filepath='src/third_party/boost-1.56.0/boost/filesystem/operations.hpp' line='250' column='1' visibility='default' binding='global' size-in-bits='64' elf-symbol-id='_ZN5boost10filesystemcoENS0_5permsE' hash='5dac84ade855e315'>
          <parameter type-id='type-id-198' filepath='src/third_party/boost-1.56.0/boost/filesystem/operations.hpp' line='250' column='1'/>
          <return type-id='type-id-198'/>
        </function-decl>
        <function-decl name='operator|=' mangled-name='_ZN5boost10filesystemoRERNS0_5permsES1_' filepath='src/third_party/boost-1.56.0/boost/filesystem/operations.hpp' line='250' column='1' visibility='default' binding='global' size-in-bits='64' elf-symbol-id='_ZN5boost10filesystemoRERNS0_5permsES1_' hash='60246736b901486a'>
          <parameter type-id='type-id-199' filepath='src/third_party/boost-1.56.0/boost/filesystem/operations.hpp' line='250' column='1'/>
          <parameter type-id='type-id-198' filepath='src/third_party/boost-1.56.0/boost/filesystem/operations.hpp' line='250' column='1'/>
          <return type-id='type-id-199'/>
        </function-decl>
        <function-decl name='type_present' mangled-name='_ZN5boost10filesystem12type_presentENS0_11file_statusE' filepath='src/third_party/boost-1.56.0/boost/filesystem/operations.hpp' line='280' column='1' visibility='default' binding='global' size-in-bits='64' elf-symbol-id='_ZN5boost10filesystem12type_presentENS0_11file_statusE' hash='c7c710e908194b91'>
          <parameter type-id='type-id-184' filepath='src/third_party/boost-1.56.0/boost/filesystem/operations.hpp' line='288' column='1'/>
          <return type-id='type-id-1'/>
        </function-decl>
        <function-decl name='permissions_present' mangled-name='_ZN5boost10filesystem19permissions_presentENS0_11file_statusE' filepath='src/third_party/boost-1.56.0/boost/filesystem/operations.hpp' line='281' column='1' visibility='default' binding='global' size-in-bits='64' elf-symbol-id='_ZN5boost10filesystem19permissions_presentENS0_11file_statusE' hash='c7c710e908194b91'>
          <parameter type-id='type-id-184' filepath='src/third_party/boost-1.56.0/boost/filesystem/operations.hpp' line='288' column='1'/>
          <return type-id='type-id-1'/>
        </function-decl>
        <function-decl name='status_known' mangled-name='_ZN5boost10filesystem12status_knownENS0_11file_statusE' filepath='src/third_party/boost-1.56.0/boost/filesystem/operations.hpp' line='283' column='1' visibility='default' binding='global' size-in-bits='64' elf-symbol-id='_ZN5boost10filesystem12status_knownENS0_11file_statusE' hash='c7c710e908194b91'>
          <parameter type-id='type-id-184' filepath='src/third_party/boost-1.56.0/boost/filesystem/operations.hpp' line='288' column='1'/>
          <return type-id='type-id-1'/>
        </function-decl>
        <function-decl name='is_regular_file' mangled-name='_ZN5boost10filesystem15is_regular_fileENS0_11file_statusE' filepath='src/third_party/boost-1.56.0/boost/filesystem/operations.hpp' line='286' column='1' visibility='default' binding='global' size-in-bits='64' elf-symbol-id='_ZN5boost10filesystem15is_regular_fileENS0_11file_statusE' hash='c7c710e908194b91'>
          <parameter type-id='type-id-184' filepath='src/third_party/boost-1.56.0/boost/filesystem/operations.hpp' line='288' column='1'/>
          <return type-id='type-id-1'/>
        </function-decl>
        <function-decl name='is_directory' mangled-name='_ZN5boost10filesystem12is_directoryENS0_11file_statusE' filepath='src/third_party/boost-1.56.0/boost/filesystem/operations.hpp' line='287' column='1' visibility='default' binding='global' size-in-bits='64' elf-symbol-id='_ZN5boost10filesystem12is_directoryENS0_11file_statusE' hash='c7c710e908194b91'>
          <parameter type-id='type-id-184' filepath='src/third_party/boost-1.56.0/boost/filesystem/operations.hpp' line='288' column='1'/>
          <return type-id='type-id-1'/>
        </function-decl>
        <function-decl name='is_symlink' mangled-name='_ZN5boost10filesystem10is_symlinkENS0_11file_statusE' filepath='src/third_party/boost-1.56.0/boost/filesystem/operations.hpp' line='288' column='1' visibility='default' binding='global' size-in-bits='64' elf-symbol-id='_ZN5boost10filesystem10is_symlinkENS0_11file_statusE' hash='c7c710e908194b91'>
          <parameter type-id='type-id-184' filepath='src/third_party/boost-1.56.0/boost/filesystem/operations.hpp' line='288' column='1'/>
          <return type-id='type-id-1'/>
        </function-decl>
        <function-decl name='status' mangled-name='_ZN5boost10filesystem6statusERKNS0_4pathERNS_6system10error_codeE' filepath='src/third_party/boost-1.56.0/boost/filesystem/operations.hpp' line='392' column='1' visibility='default' binding='global' size-in-bits='64' elf-symbol-id='_ZN5boost10filesystem6statusERKNS0_4pathERNS_6system10error_codeE' hash='f9d260a0f6548879'>
          <parameter type-id='type-id-255' filepath='src/third_party/boost-1.56.0/boost/filesystem/operations.hpp' line='392' column='1'/>
          <parameter type-id='type-id-221' filepath='src/third_party/boost-1.56.0/boost/filesystem/operations.hpp' line='392' column='1'/>
          <return type-id='type-id-184'/>
        </function-decl>
        <function-decl name='symlink_status' mangled-name='_ZN5boost10filesystem14symlink_statusERKNS0_4pathERNS_6system10error_codeE' filepath='src/third_party/boost-1.56.0/boost/filesystem/operations.hpp' line='397' column='1' visibility='default' binding='global' size-in-bits='64' elf-symbol-id='_ZN5boost10filesystem14symlink_statusERKNS0_4pathERNS_6system10error_codeE' hash='f9d260a0f6548879'>
          <parameter type-id='type-id-255' filepath='src/third_party/boost-1.56.0/boost/filesystem/operations.hpp' line='392' column='1'/>
          <parameter type-id='type-id-221' filepath='src/third_party/boost-1.56.0/boost/filesystem/operations.hpp' line='392' column='1'/>
          <return type-id='type-id-184'/>
        </function-decl>
        <function-decl name='is_directory' mangled-name='_ZN5boost10filesystem12is_directoryERKNS0_4pathE' filepath='src/third_party/boost-1.56.0/boost/filesystem/operations.hpp' line='405' column='1' visibility='default' binding='global' size-in-bits='64' elf-symbol-id='_ZN5boost10filesystem12is_directoryERKNS0_4pathE' hash='a5301eaffe66a9c3'>
          <parameter type-id='type-id-255' filepath='src/third_party/boost-1.56.0/boost/filesystem/operations.hpp' line='405' column='1'/>
          <return type-id='type-id-1'/>
        </function-decl>
        <function-decl name='is_directory' mangled-name='_ZN5boost10filesystem12is_directoryERKNS0_4pathERNS_6system10error_codeE' filepath='src/third_party/boost-1.56.0/boost/filesystem/operations.hpp' line='407' column='1' visibility='default' binding='global' size-in-bits='64' elf-symbol-id='_ZN5boost10filesystem12is_directoryERKNS0_4pathERNS_6system10error_codeE' hash='2f583a512aef4b53'>
          <parameter type-id='type-id-255' filepath='src/third_party/boost-1.56.0/boost/filesystem/operations.hpp' line='513' column='1'/>
          <parameter type-id='type-id-221' filepath='src/third_party/boost-1.56.0/boost/filesystem/operations.hpp' line='513' column='1'/>
          <return type-id='type-id-1'/>
        </function-decl>
        <function-decl name='copy_directory' mangled-name='_ZN5boost10filesystem14copy_directoryERKNS0_4pathES3_RNS_6system10error_codeE' filepath='src/third_party/boost-1.56.0/boost/filesystem/operations.hpp' line='487' column='1' visibility='default' binding='global' size-in-bits='64' elf-symbol-id='_ZN5boost10filesystem14copy_directoryERKNS0_4pathES3_RNS_6system10error_codeE' hash='93af5b683d8dc72b'>
          <parameter type-id='type-id-255' filepath='src/third_party/boost-1.56.0/boost/filesystem/operations.hpp' line='507' column='1'/>
          <parameter type-id='type-id-255' filepath='src/third_party/boost-1.56.0/boost/filesystem/operations.hpp' line='507' column='1'/>
          <parameter type-id='type-id-221' filepath='src/third_party/boost-1.56.0/boost/filesystem/operations.hpp' line='507' column='1'/>
          <return type-id='type-id-119'/>
        </function-decl>
        <function-decl name='copy_file' mangled-name='_ZN5boost10filesystem9copy_fileERKNS0_4pathES3_NS0_11copy_optionERNS_6system10error_codeE' filepath='src/third_party/boost-1.56.0/boost/filesystem/operations.hpp' line='497' column='1' visibility='default' binding='global' size-in-bits='64' elf-symbol-id='_ZN5boost10filesystem9copy_fileERKNS0_4pathES3_NS0_11copy_optionERNS_6system10error_codeE' hash='c6c19e27c17e8ef2'>
          <parameter type-id='type-id-255' filepath='src/third_party/boost-1.56.0/boost/filesystem/operations.hpp' line='497' column='1'/>
          <parameter type-id='type-id-255' filepath='src/third_party/boost-1.56.0/boost/filesystem/operations.hpp' line='497' column='1'/>
          <parameter type-id='type-id-397' filepath='src/third_party/boost-1.56.0/boost/filesystem/operations.hpp' line='498' column='1'/>
          <parameter type-id='type-id-221' filepath='src/third_party/boost-1.56.0/boost/filesystem/operations.hpp' line='498' column='1'/>
          <return type-id='type-id-119'/>
        </function-decl>
        <function-decl name='copy_symlink' mangled-name='_ZN5boost10filesystem12copy_symlinkERKNS0_4pathES3_RNS_6system10error_codeE' filepath='src/third_party/boost-1.56.0/boost/filesystem/operations.hpp' line='507' column='1' visibility='default' binding='global' size-in-bits='64' elf-symbol-id='_ZN5boost10filesystem12copy_symlinkERKNS0_4pathES3_RNS_6system10error_codeE' hash='93af5b683d8dc72b'>
          <parameter type-id='type-id-255' filepath='src/third_party/boost-1.56.0/boost/filesystem/operations.hpp' line='507' column='1'/>
          <parameter type-id='type-id-255' filepath='src/third_party/boost-1.56.0/boost/filesystem/operations.hpp' line='507' column='1'/>
          <parameter type-id='type-id-221' filepath='src/third_party/boost-1.56.0/boost/filesystem/operations.hpp' line='507' column='1'/>
          <return type-id='type-id-119'/>
        </function-decl>
        <function-decl name='create_directories' mangled-name='_ZN5boost10filesystem18create_directoriesERKNS0_4pathERNS_6system10error_codeE' filepath='src/third_party/boost-1.56.0/boost/filesystem/operations.hpp' line='513' column='1' visibility='default' binding='global' size-in-bits='64' elf-symbol-id='_ZN5boost10filesystem18create_directoriesERKNS0_4pathERNS_6system10error_codeE' hash='2f583a512aef4b53'>
          <parameter type-id='type-id-255' filepath='src/third_party/boost-1.56.0/boost/filesystem/operations.hpp' line='513' column='1'/>
          <parameter type-id='type-id-221' filepath='src/third_party/boost-1.56.0/boost/filesystem/operations.hpp' line='513' column='1'/>
          <return type-id='type-id-1'/>
        </function-decl>
        <function-decl name='current_path' mangled-name='_ZN5boost10filesystem12current_pathEv' filepath='src/third_party/boost-1.56.0/boost/filesystem/operations.hpp' line='540' column='1' visibility='default' binding='global' size-in-bits='64' elf-symbol-id='_ZN5boost10filesystem12current_pathEv' hash='7f32ffea222edbe7'>
          <return type-id='type-id-192'/>
        </function-decl>
        <namespace-decl name='detail'>
          <class-decl name='dir_itr_imp' is-struct='yes' visibility='default' size-in-bits='320' filepath='src/third_party/boost-1.56.0/boost/filesystem/operations.hpp' line='741' column='1' hash='e8d34d546c7a9f64' id='type-id-174'>
            <data-member access='public' layout-offset-in-bits='0'>
              <var-decl name='dir_entry' type-id='type-id-178' visibility='default' filepath='src/third_party/boost-1.56.0/boost/filesystem/operations.hpp' line='743' column='1'/>
            </data-member>
            <data-member access='public' layout-offset-in-bits='192'>
              <var-decl name='handle' type-id='type-id-14' visibility='default' filepath='src/third_party/boost-1.56.0/boost/filesystem/operations.hpp' line='744' column='1'/>
            </data-member>
            <data-member access='public' layout-offset-in-bits='256'>
              <var-decl name='buffer' type-id='type-id-14' visibility='default' filepath='src/third_party/boost-1.56.0/boost/filesystem/operations.hpp' line='747' column='1'/>
            </data-member>
            <member-function access='public' constructor='yes'>
              <function-decl name='dir_itr_imp' mangled-name='_ZN5boost10filesystem6detail11dir_itr_impC2Ev' filepath='src/third_party/boost-1.56.0/boost/filesystem/operations.hpp' line='750' column='1' visibility='default' binding='global' size-in-bits='64' elf-symbol-id='_ZN5boost10filesystem6detail11dir_itr_impC2Ev' hash='7f32ffea222edbe7'>
                <parameter type-id='type-id-176' is-artificial='yes'/>
                <return type-id='type-id-119'/>
              </function-decl>
            </member-function>
            <member-function access='public' destructor='yes'>
              <function-decl name='~dir_itr_imp' mangled-name='_ZN5boost10filesystem6detail11dir_itr_impD2Ev' filepath='src/third_party/boost-1.56.0/boost/filesystem/operations.hpp' line='756' column='1' visibility='default' binding='global' size-in-bits='64' elf-symbol-id='_ZN5boost10filesystem6detail11dir_itr_impD2Ev' hash='7f32ffea222edbe7'>
                <parameter type-id='type-id-176' is-artificial='yes'/>
                <return type-id='type-id-119'/>
              </function-decl>
            </member-function>
          </class-decl>
          <function-decl name='possible_large_file_size_support' mangled-name='_ZN5boost10filesystem6detail32possible_large_file_size_supportEv' filepath='src/third_party/boost-1.56.0/libs/filesystem/src/operations.cpp' line='764' column='1' visibility='default' binding='global' size-in-bits='64' elf-symbol-id='_ZN5boost10filesystem6detail32possible_large_file_size_supportEv' hash='c7c710e908194b91'>
            <return type-id='type-id-1'/>
          </function-decl>
          <function-decl name='canonical' mangled-name='_ZN5boost10filesystem6detail9canonicalERKNS0_4pathES4_PNS_6system10error_codeE' filepath='src/third_party/boost-1.56.0/libs/filesystem/src/operations.cpp' line='775' column='1' visibility='default' binding='global' size-in-bits='64' elf-symbol-id='_ZN5boost10filesystem6detail9canonicalERKNS0_4pathES4_PNS_6system10error_codeE' hash='65ef8b1f0a7a4d0e'>
            <parameter type-id='type-id-255' filepath='src/third_party/boost-1.56.0/libs/filesystem/src/operations.cpp' line='775' column='1'/>
            <parameter type-id='type-id-255' filepath='src/third_party/boost-1.56.0/libs/filesystem/src/operations.cpp' line='775' column='1'/>
            <parameter type-id='type-id-50' filepath='src/third_party/boost-1.56.0/libs/filesystem/src/operations.cpp' line='775' column='1'/>
            <return type-id='type-id-192'/>
          </function-decl>
          <function-decl name='copy' mangled-name='_ZN5boost10filesystem6detail4copyERKNS0_4pathES4_PNS_6system10error_codeE' filepath='src/third_party/boost-1.56.0/libs/filesystem/src/operations.cpp' line='857' column='1' visibility='default' binding='global' size-in-bits='64' elf-symbol-id='_ZN5boost10filesystem6detail4copyERKNS0_4pathES4_PNS_6system10error_codeE' hash='65ef8b1f0a7a4d0e'>
            <parameter type-id='type-id-255' filepath='src/third_party/boost-1.56.0/libs/filesystem/src/operations.cpp' line='857' column='1'/>
            <parameter type-id='type-id-255' filepath='src/third_party/boost-1.56.0/libs/filesystem/src/operations.cpp' line='857' column='1'/>
            <parameter type-id='type-id-50' filepath='src/third_party/boost-1.56.0/libs/filesystem/src/operations.cpp' line='857' column='1'/>
            <return type-id='type-id-119'/>
          </function-decl>
          <function-decl name='copy_directory' mangled-name='_ZN5boost10filesystem6detail14copy_directoryERKNS0_4pathES4_PNS_6system10error_codeE' filepath='src/third_party/boost-1.56.0/libs/filesystem/src/operations.cpp' line='884' column='1' visibility='default' binding='global' size-in-bits='64' elf-symbol-id='_ZN5boost10filesystem6detail14copy_directoryERKNS0_4pathES4_PNS_6system10error_codeE' hash='65ef8b1f0a7a4d0e'>
            <parameter type-id='type-id-255' filepath='src/third_party/boost-1.56.0/libs/filesystem/src/operations.cpp' line='857' column='1'/>
            <parameter type-id='type-id-255' filepath='src/third_party/boost-1.56.0/libs/filesystem/src/operations.cpp' line='857' column='1'/>
            <parameter type-id='type-id-50' filepath='src/third_party/boost-1.56.0/libs/filesystem/src/operations.cpp' line='857' column='1'/>
            <return type-id='type-id-119'/>
          </function-decl>
          <function-decl name='copy_file' mangled-name='_ZN5boost10filesystem6detail9copy_fileERKNS0_4pathES4_NS0_11copy_optionEPNS_6system10error_codeE' filepath='src/third_party/boost-1.56.0/libs/filesystem/src/operations.cpp' line='894' column='1' visibility='default' binding='global' size-in-bits='64' elf-symbol-id='_ZN5boost10filesystem6detail9copy_fileERKNS0_4pathES4_NS0_11copy_optionEPNS_6system10error_codeE' hash='6500fcd9a109c514'>
            <parameter type-id='type-id-255' filepath='src/third_party/boost-1.56.0/libs/filesystem/src/operations.cpp' line='894' column='1'/>
            <parameter type-id='type-id-255' filepath='src/third_party/boost-1.56.0/libs/filesystem/src/operations.cpp' line='894' column='1'/>
            <parameter type-id='type-id-397' filepath='src/third_party/boost-1.56.0/libs/filesystem/src/operations.cpp' line='895' column='1'/>
            <parameter type-id='type-id-50' filepath='src/third_party/boost-1.56.0/libs/filesystem/src/operations.cpp' line='896' column='1'/>
            <return type-id='type-id-119'/>
          </function-decl>
          <function-decl name='copy_symlink' mangled-name='_ZN5boost10filesystem6detail12copy_symlinkERKNS0_4pathES4_PNS_6system10error_codeE' filepath='src/third_party/boost-1.56.0/libs/filesystem/src/operations.cpp' line='904' column='1' visibility='default' binding='global' size-in-bits='64' elf-symbol-id='_ZN5boost10filesystem6detail12copy_symlinkERKNS0_4pathES4_PNS_6system10error_codeE' hash='65ef8b1f0a7a4d0e'>
            <parameter type-id='type-id-255' filepath='src/third_party/boost-1.56.0/libs/filesystem/src/operations.cpp' line='857' column='1'/>
            <parameter type-id='type-id-255' filepath='src/third_party/boost-1.56.0/libs/filesystem/src/operations.cpp' line='857' column='1'/>
            <parameter type-id='type-id-50' filepath='src/third_party/boost-1.56.0/libs/filesystem/src/operations.cpp' line='857' column='1'/>
            <return type-id='type-id-119'/>
          </function-decl>
          <function-decl name='create_directories' mangled-name='_ZN5boost10filesystem6detail18create_directoriesERKNS0_4pathEPNS_6system10error_codeE' filepath='src/third_party/boost-1.56.0/libs/filesystem/src/operations.cpp' line='921' column='1' visibility='default' binding='global' size-in-bits='64' elf-symbol-id='_ZN5boost10filesystem6detail18create_directoriesERKNS0_4pathEPNS_6system10error_codeE' hash='b29833b5238c504f'>
            <parameter type-id='type-id-255' filepath='src/third_party/boost-1.56.0/libs/filesystem/src/operations.cpp' line='921' column='1'/>
            <parameter type-id='type-id-50' filepath='src/third_party/boost-1.56.0/libs/filesystem/src/operations.cpp' line='921' column='1'/>
            <return type-id='type-id-1'/>
          </function-decl>
          <function-decl name='create_directory' mangled-name='_ZN5boost10filesystem6detail16create_directoryERKNS0_4pathEPNS_6system10error_codeE' filepath='src/third_party/boost-1.56.0/libs/filesystem/src/operations.cpp' line='961' column='1' visibility='default' binding='global' size-in-bits='64' elf-symbol-id='_ZN5boost10filesystem6detail16create_directoryERKNS0_4pathEPNS_6system10error_codeE' hash='b29833b5238c504f'>
            <parameter type-id='type-id-255' filepath='src/third_party/boost-1.56.0/libs/filesystem/src/operations.cpp' line='921' column='1'/>
            <parameter type-id='type-id-50' filepath='src/third_party/boost-1.56.0/libs/filesystem/src/operations.cpp' line='921' column='1'/>
            <return type-id='type-id-1'/>
          </function-decl>
          <function-decl name='create_directory_symlink' mangled-name='_ZN5boost10filesystem6detail24create_directory_symlinkERKNS0_4pathES4_PNS_6system10error_codeE' filepath='src/third_party/boost-1.56.0/libs/filesystem/src/operations.cpp' line='990' column='1' visibility='default' binding='global' size-in-bits='64' elf-symbol-id='_ZN5boost10filesystem6detail24create_directory_symlinkERKNS0_4pathES4_PNS_6system10error_codeE' hash='65ef8b1f0a7a4d0e'>
            <parameter type-id='type-id-255' filepath='src/third_party/boost-1.56.0/libs/filesystem/src/operations.cpp' line='857' column='1'/>
            <parameter type-id='type-id-255' filepath='src/third_party/boost-1.56.0/libs/filesystem/src/operations.cpp' line='857' column='1'/>
            <parameter type-id='type-id-50' filepath='src/third_party/boost-1.56.0/libs/filesystem/src/operations.cpp' line='857' column='1'/>
            <return type-id='type-id-119'/>
          </function-decl>
          <function-decl name='create_hard_link' mangled-name='_ZN5boost10filesystem6detail16create_hard_linkERKNS0_4pathES4_PNS_6system10error_codeE' filepath='src/third_party/boost-1.56.0/libs/filesystem/src/operations.cpp' line='1014' column='1' visibility='default' binding='global' size-in-bits='64' elf-symbol-id='_ZN5boost10filesystem6detail16create_hard_linkERKNS0_4pathES4_PNS_6system10error_codeE' hash='65ef8b1f0a7a4d0e'>
            <parameter type-id='type-id-255' filepath='src/third_party/boost-1.56.0/libs/filesystem/src/operations.cpp' line='857' column='1'/>
            <parameter type-id='type-id-255' filepath='src/third_party/boost-1.56.0/libs/filesystem/src/operations.cpp' line='857' column='1'/>
            <parameter type-id='type-id-50' filepath='src/third_party/boost-1.56.0/libs/filesystem/src/operations.cpp' line='857' column='1'/>
            <return type-id='type-id-119'/>
          </function-decl>
          <function-decl name='create_symlink' mangled-name='_ZN5boost10filesystem6detail14create_symlinkERKNS0_4pathES4_PNS_6system10error_codeE' filepath='src/third_party/boost-1.56.0/libs/filesystem/src/operations.cpp' line='1038' column='1' visibility='default' binding='global' size-in-bits='64' elf-symbol-id='_ZN5boost10filesystem6detail14create_symlinkERKNS0_4pathES4_PNS_6system10error_codeE' hash='65ef8b1f0a7a4d0e'>
            <parameter type-id='type-id-255' filepath='src/third_party/boost-1.56.0/libs/filesystem/src/operations.cpp' line='857' column='1'/>
            <parameter type-id='type-id-255' filepath='src/third_party/boost-1.56.0/libs/filesystem/src/operations.cpp' line='857' column='1'/>
            <parameter type-id='type-id-50' filepath='src/third_party/boost-1.56.0/libs/filesystem/src/operations.cpp' line='857' column='1'/>
            <return type-id='type-id-119'/>
          </function-decl>
          <function-decl name='current_path' mangled-name='_ZN5boost10filesystem6detail12current_pathEPNS_6system10error_codeE' filepath='src/third_party/boost-1.56.0/libs/filesystem/src/operations.cpp' line='1060' column='1' visibility='default' binding='global' size-in-bits='64' elf-symbol-id='_ZN5boost10filesystem6detail12current_pathEPNS_6system10error_codeE' hash='69d1383cc636e9cf'>
            <parameter type-id='type-id-50' filepath='src/third_party/boost-1.56.0/libs/filesystem/src/operations.cpp' line='1266' column='1'/>
            <return type-id='type-id-192'/>
          </function-decl>
          <function-decl name='current_path' mangled-name='_ZN5boost10filesystem6detail12current_pathERKNS0_4pathEPNS_6system10error_codeE' filepath='src/third_party/boost-1.56.0/libs/filesystem/src/operations.cpp' line='1101' column='1' visibility='default' binding='global' size-in-bits='64' elf-symbol-id='_ZN5boost10filesystem6detail12current_pathERKNS0_4pathEPNS_6system10error_codeE' hash='e2bb4aa31bf09068'>
            <parameter type-id='type-id-255' filepath='src/third_party/boost-1.56.0/libs/filesystem/src/operations.cpp' line='1101' column='1'/>
            <parameter type-id='type-id-50' filepath='src/third_party/boost-1.56.0/libs/filesystem/src/operations.cpp' line='1101' column='1'/>
            <return type-id='type-id-119'/>
          </function-decl>
          <function-decl name='equivalent' mangled-name='_ZN5boost10filesystem6detail10equivalentERKNS0_4pathES4_PNS_6system10error_codeE' filepath='src/third_party/boost-1.56.0/libs/filesystem/src/operations.cpp' line='1108' column='1' visibility='default' binding='global' size-in-bits='64' elf-symbol-id='_ZN5boost10filesystem6detail10equivalentERKNS0_4pathES4_PNS_6system10error_codeE' hash='7ef241bf668cf60b'>
            <parameter type-id='type-id-255' filepath='src/third_party/boost-1.56.0/libs/filesystem/src/operations.cpp' line='1108' column='1'/>
            <parameter type-id='type-id-255' filepath='src/third_party/boost-1.56.0/libs/filesystem/src/operations.cpp' line='1108' column='1'/>
            <parameter type-id='type-id-50' filepath='src/third_party/boost-1.56.0/libs/filesystem/src/operations.cpp' line='1108' column='1'/>
            <return type-id='type-id-1'/>
          </function-decl>
          <function-decl name='file_size' mangled-name='_ZN5boost10filesystem6detail9file_sizeERKNS0_4pathEPNS_6system10error_codeE' filepath='src/third_party/boost-1.56.0/libs/filesystem/src/operations.cpp' line='1201' column='1' visibility='default' binding='global' size-in-bits='64' elf-symbol-id='_ZN5boost10filesystem6detail9file_sizeERKNS0_4pathEPNS_6system10error_codeE' hash='0e3a6fb94d99bb21'>
            <parameter type-id='type-id-255' filepath='src/third_party/boost-1.56.0/libs/filesystem/src/operations.cpp' line='1201' column='1'/>
            <parameter type-id='type-id-50' filepath='src/third_party/boost-1.56.0/libs/filesystem/src/operations.cpp' line='1201' column='1'/>
            <return type-id='type-id-152'/>
          </function-decl>
          <function-decl name='hard_link_count' mangled-name='_ZN5boost10filesystem6detail15hard_link_countERKNS0_4pathEPNS_6system10error_codeE' filepath='src/third_party/boost-1.56.0/libs/filesystem/src/operations.cpp' line='1237' column='1' visibility='default' binding='global' size-in-bits='64' elf-symbol-id='_ZN5boost10filesystem6detail15hard_link_countERKNS0_4pathEPNS_6system10error_codeE' hash='0e3a6fb94d99bb21'>
            <parameter type-id='type-id-255' filepath='src/third_party/boost-1.56.0/libs/filesystem/src/operations.cpp' line='1201' column='1'/>
            <parameter type-id='type-id-50' filepath='src/third_party/boost-1.56.0/libs/filesystem/src/operations.cpp' line='1201' column='1'/>
            <return type-id='type-id-152'/>
          </function-decl>
          <function-decl name='initial_path' mangled-name='_ZN5boost10filesystem6detail12initial_pathEPNS_6system10error_codeE' filepath='src/third_party/boost-1.56.0/libs/filesystem/src/operations.cpp' line='1266' column='1' visibility='default' binding='global' size-in-bits='64' elf-symbol-id='_ZN5boost10filesystem6detail12initial_pathEPNS_6system10error_codeE' hash='69d1383cc636e9cf'>
            <parameter type-id='type-id-50' filepath='src/third_party/boost-1.56.0/libs/filesystem/src/operations.cpp' line='1266' column='1'/>
            <return type-id='type-id-192'/>
          </function-decl>
          <function-decl name='is_empty' mangled-name='_ZN5boost10filesystem6detail8is_emptyERKNS0_4pathEPNS_6system10error_codeE' filepath='src/third_party/boost-1.56.0/libs/filesystem/src/operations.cpp' line='1276' column='1' visibility='default' binding='global' size-in-bits='64' elf-symbol-id='_ZN5boost10filesystem6detail8is_emptyERKNS0_4pathEPNS_6system10error_codeE' hash='b29833b5238c504f'>
            <parameter type-id='type-id-255' filepath='src/third_party/boost-1.56.0/libs/filesystem/src/operations.cpp' line='921' column='1'/>
            <parameter type-id='type-id-50' filepath='src/third_party/boost-1.56.0/libs/filesystem/src/operations.cpp' line='921' column='1'/>
            <return type-id='type-id-1'/>
          </function-decl>
          <function-decl name='last_write_time' mangled-name='_ZN5boost10filesystem6detail15last_write_timeERKNS0_4pathEPNS_6system10error_codeE' filepath='src/third_party/boost-1.56.0/libs/filesystem/src/operations.cpp' line='1303' column='1' visibility='default' binding='global' size-in-bits='64' elf-symbol-id='_ZN5boost10filesystem6detail15last_write_timeERKNS0_4pathEPNS_6system10error_codeE' hash='53de53fc9b859590'>
            <parameter type-id='type-id-255' filepath='src/third_party/boost-1.56.0/libs/filesystem/src/operations.cpp' line='1303' column='1'/>
            <parameter type-id='type-id-50' filepath='src/third_party/boost-1.56.0/libs/filesystem/src/operations.cpp' line='1303' column='1'/>
            <return type-id='type-id-36'/>
          </function-decl>
          <function-decl name='last_write_time' mangled-name='_ZN5boost10filesystem6detail15last_write_timeERKNS0_4pathElPNS_6system10error_codeE' filepath='src/third_party/boost-1.56.0/libs/filesystem/src/operations.cpp' line='1335' column='1' visibility='default' binding='global' size-in-bits='64' elf-symbol-id='_ZN5boost10filesystem6detail15last_write_timeERKNS0_4pathElPNS_6system10error_codeE' hash='1bebcfe8d84b44be'>
            <parameter type-id='type-id-255' filepath='src/third_party/boost-1.56.0/libs/filesystem/src/operations.cpp' line='1335' column='1'/>
            <parameter type-id='type-id-81' filepath='src/third_party/boost-1.56.0/libs/filesystem/src/operations.cpp' line='1335' column='1'/>
            <parameter type-id='type-id-50' filepath='src/third_party/boost-1.56.0/libs/filesystem/src/operations.cpp' line='1336' column='1'/>
            <return type-id='type-id-119'/>
          </function-decl>
          <function-decl name='mode_cast' mangled-name='_ZN5boost10filesystem6detail9mode_castENS0_5permsE' filepath='src/third_party/boost-1.56.0/libs/filesystem/src/operations.cpp' line='1371' column='1' visibility='default' binding='global' size-in-bits='64' elf-symbol-id='_ZN5boost10filesystem6detail9mode_castENS0_5permsE' hash='c1596e1c0d8f81a6'>
            <parameter type-id='type-id-198' filepath='src/third_party/boost-1.56.0/libs/filesystem/src/operations.cpp' line='1371' column='1'/>
            <return type-id='type-id-151'/>
          </function-decl>
          <function-decl name='permissions' mangled-name='_ZN5boost10filesystem6detail11permissionsERKNS0_4pathENS0_5permsEPNS_6system10error_codeE' filepath='src/third_party/boost-1.56.0/libs/filesystem/src/operations.cpp' line='1375' column='1' visibility='default' binding='global' size-in-bits='64' elf-symbol-id='_ZN5boost10filesystem6detail11permissionsERKNS0_4pathENS0_5permsEPNS_6system10error_codeE' hash='baeed7d2ccb10b05'>
            <parameter type-id='type-id-255' filepath='src/third_party/boost-1.56.0/libs/filesystem/src/operations.cpp' line='1375' column='1'/>
            <parameter type-id='type-id-198' filepath='src/third_party/boost-1.56.0/libs/filesystem/src/operations.cpp' line='1375' column='1'/>
            <parameter type-id='type-id-50' filepath='src/third_party/boost-1.56.0/libs/filesystem/src/operations.cpp' line='1375' column='1'/>
            <return type-id='type-id-119'/>
          </function-decl>
          <function-decl name='read_symlink' mangled-name='_ZN5boost10filesystem6detail12read_symlinkERKNS0_4pathEPNS_6system10error_codeE' filepath='src/third_party/boost-1.56.0/libs/filesystem/src/operations.cpp' line='1458' column='1' visibility='default' binding='global' size-in-bits='64' elf-symbol-id='_ZN5boost10filesystem6detail12read_symlinkERKNS0_4pathEPNS_6system10error_codeE' hash='e2bb4aa31bf09068'>
            <parameter type-id='type-id-255' filepath='src/third_party/boost-1.56.0/libs/filesystem/src/operations.cpp' line='1458' column='1'/>
            <parameter type-id='type-id-50' filepath='src/third_party/boost-1.56.0/libs/filesystem/src/operations.cpp' line='1458' column='1'/>
            <return type-id='type-id-192'/>
          </function-decl>
          <function-decl name='remove' mangled-name='_ZN5boost10filesystem6detail6removeERKNS0_4pathEPNS_6system10error_codeE' filepath='src/third_party/boost-1.56.0/libs/filesystem/src/operations.cpp' line='1521' column='1' visibility='default' binding='global' size-in-bits='64' elf-symbol-id='_ZN5boost10filesystem6detail6removeERKNS0_4pathEPNS_6system10error_codeE' hash='b29833b5238c504f'>
            <parameter type-id='type-id-255' filepath='src/third_party/boost-1.56.0/libs/filesystem/src/operations.cpp' line='921' column='1'/>
            <parameter type-id='type-id-50' filepath='src/third_party/boost-1.56.0/libs/filesystem/src/operations.cpp' line='921' column='1'/>
            <return type-id='type-id-1'/>
          </function-decl>
          <function-decl name='remove_all' mangled-name='_ZN5boost10filesystem6detail10remove_allERKNS0_4pathEPNS_6system10error_codeE' filepath='src/third_party/boost-1.56.0/libs/filesystem/src/operations.cpp' line='1537' column='1' visibility='default' binding='global' size-in-bits='64' elf-symbol-id='_ZN5boost10filesystem6detail10remove_allERKNS0_4pathEPNS_6system10error_codeE' hash='0e3a6fb94d99bb21'>
            <parameter type-id='type-id-255' filepath='src/third_party/boost-1.56.0/libs/filesystem/src/operations.cpp' line='1201' column='1'/>
            <parameter type-id='type-id-50' filepath='src/third_party/boost-1.56.0/libs/filesystem/src/operations.cpp' line='1201' column='1'/>
            <return type-id='type-id-152'/>
          </function-decl>
          <function-decl name='rename' mangled-name='_ZN5boost10filesystem6detail6renameERKNS0_4pathES4_PNS_6system10error_codeE' filepath='src/third_party/boost-1.56.0/libs/filesystem/src/operations.cpp' line='1551' column='1' visibility='default' binding='global' size-in-bits='64' elf-symbol-id='_ZN5boost10filesystem6detail6renameERKNS0_4pathES4_PNS_6system10error_codeE' hash='65ef8b1f0a7a4d0e'>
            <parameter type-id='type-id-255' filepath='src/third_party/boost-1.56.0/libs/filesystem/src/operations.cpp' line='857' column='1'/>
            <parameter type-id='type-id-255' filepath='src/third_party/boost-1.56.0/libs/filesystem/src/operations.cpp' line='857' column='1'/>
            <parameter type-id='type-id-50' filepath='src/third_party/boost-1.56.0/libs/filesystem/src/operations.cpp' line='857' column='1'/>
            <return type-id='type-id-119'/>
          </function-decl>
          <function-decl name='resize_file' mangled-name='_ZN5boost10filesystem6detail11resize_fileERKNS0_4pathEmPNS_6system10error_codeE' filepath='src/third_party/boost-1.56.0/libs/filesystem/src/operations.cpp' line='1558' column='1' visibility='default' binding='global' size-in-bits='64' elf-symbol-id='_ZN5boost10filesystem6detail11resize_fileERKNS0_4pathEmPNS_6system10error_codeE' hash='3a0e4b2cd23903ce'>
            <parameter type-id='type-id-255' filepath='src/third_party/boost-1.56.0/libs/filesystem/src/operations.cpp' line='1558' column='1'/>
            <parameter type-id='type-id-152' filepath='src/third_party/boost-1.56.0/libs/filesystem/src/operations.cpp' line='1558' column='1'/>
            <parameter type-id='type-id-50' filepath='src/third_party/boost-1.56.0/libs/filesystem/src/operations.cpp' line='1558' column='1'/>
            <return type-id='type-id-119'/>
          </function-decl>
          <function-decl name='space' mangled-name='_ZN5boost10filesystem6detail5spaceERKNS0_4pathEPNS_6system10error_codeE' filepath='src/third_party/boost-1.56.0/libs/filesystem/src/operations.cpp' line='1564' column='1' visibility='default' binding='global' size-in-bits='64' elf-symbol-id='_ZN5boost10filesystem6detail5spaceERKNS0_4pathEPNS_6system10error_codeE' hash='e2bb4aa31bf09068'>
            <parameter type-id='type-id-255' filepath='src/third_party/boost-1.56.0/libs/filesystem/src/operations.cpp' line='1564' column='1'/>
            <parameter type-id='type-id-50' filepath='src/third_party/boost-1.56.0/libs/filesystem/src/operations.cpp' line='1564' column='1'/>
            <return type-id='type-id-398'/>
          </function-decl>
          <function-decl name='status' mangled-name='_ZN5boost10filesystem6detail6statusERKNS0_4pathEPNS_6system10error_codeE' filepath='src/third_party/boost-1.56.0/libs/filesystem/src/operations.cpp' line='1608' column='1' visibility='default' binding='global' size-in-bits='64' elf-symbol-id='_ZN5boost10filesystem6detail6statusERKNS0_4pathEPNS_6system10error_codeE' hash='e2bb4aa31bf09068'>
            <parameter type-id='type-id-255' filepath='src/third_party/boost-1.56.0/libs/filesystem/src/operations.cpp' line='1688' column='1'/>
            <parameter type-id='type-id-50' filepath='src/third_party/boost-1.56.0/libs/filesystem/src/operations.cpp' line='1688' column='1'/>
            <return type-id='type-id-184'/>
          </function-decl>
          <function-decl name='symlink_status' mangled-name='_ZN5boost10filesystem6detail14symlink_statusERKNS0_4pathEPNS_6system10error_codeE' filepath='src/third_party/boost-1.56.0/libs/filesystem/src/operations.cpp' line='1688' column='1' visibility='default' binding='global' size-in-bits='64' elf-symbol-id='_ZN5boost10filesystem6detail14symlink_statusERKNS0_4pathEPNS_6system10error_codeE' hash='e2bb4aa31bf09068'>
            <parameter type-id='type-id-255' filepath='src/third_party/boost-1.56.0/libs/filesystem/src/operations.cpp' line='1688' column='1'/>
            <parameter type-id='type-id-50' filepath='src/third_party/boost-1.56.0/libs/filesystem/src/operations.cpp' line='1688' column='1'/>
            <return type-id='type-id-184'/>
          </function-decl>
          <function-decl name='temp_directory_path' mangled-name='_ZN5boost10filesystem6detail19temp_directory_pathEPNS_6system10error_codeE' filepath='src/third_party/boost-1.56.0/libs/filesystem/src/operations.cpp' line='1755' column='1' visibility='default' binding='global' size-in-bits='64' elf-symbol-id='_ZN5boost10filesystem6detail19temp_directory_pathEPNS_6system10error_codeE' hash='69d1383cc636e9cf'>
            <parameter type-id='type-id-50' filepath='src/third_party/boost-1.56.0/libs/filesystem/src/operations.cpp' line='1266' column='1'/>
            <return type-id='type-id-192'/>
          </function-decl>
          <function-decl name='system_complete' mangled-name='_ZN5boost10filesystem6detail15system_completeERKNS0_4pathEPNS_6system10error_codeE' filepath='src/third_party/boost-1.56.0/libs/filesystem/src/operations.cpp' line='1803' column='1' visibility='default' binding='global' size-in-bits='64' elf-symbol-id='_ZN5boost10filesystem6detail15system_completeERKNS0_4pathEPNS_6system10error_codeE' hash='e2bb4aa31bf09068'>
            <parameter type-id='type-id-255' filepath='src/third_party/boost-1.56.0/libs/filesystem/src/operations.cpp' line='1458' column='1'/>
            <parameter type-id='type-id-50' filepath='src/third_party/boost-1.56.0/libs/filesystem/src/operations.cpp' line='1458' column='1'/>
            <return type-id='type-id-192'/>
          </function-decl>
          <function-decl name='dir_itr_close' mangled-name='_ZN5boost10filesystem6detail13dir_itr_closeERPvS3_' filepath='src/third_party/boost-1.56.0/libs/filesystem/src/operations.cpp' line='2120' column='1' visibility='default' binding='global' size-in-bits='64' elf-symbol-id='_ZN5boost10filesystem6detail13dir_itr_closeERPvS3_' hash='881e949315436a97'>
            <parameter type-id='type-id-310' filepath='src/third_party/boost-1.56.0/libs/filesystem/src/operations.cpp' line='2121' column='1'/>
            <parameter type-id='type-id-310' filepath='src/third_party/boost-1.56.0/libs/filesystem/src/operations.cpp' line='2123' column='1'/>
            <return type-id='type-id-49'/>
          </function-decl>
          <function-decl name='directory_iterator_construct' mangled-name='_ZN5boost10filesystem6detail28directory_iterator_constructERNS0_18directory_iteratorERKNS0_4pathEPNS_6system10error_codeE' filepath='src/third_party/boost-1.56.0/libs/filesystem/src/operations.cpp' line='2146' column='1' visibility='default' binding='global' size-in-bits='64' elf-symbol-id='_ZN5boost10filesystem6detail28directory_iterator_constructERNS0_18directory_iteratorERKNS0_4pathEPNS_6system10error_codeE' hash='57c1420c71cd8423'>
            <parameter type-id='type-id-182' filepath='src/third_party/boost-1.56.0/libs/filesystem/src/operations.cpp' line='2146' column='1'/>
            <parameter type-id='type-id-255' filepath='src/third_party/boost-1.56.0/libs/filesystem/src/operations.cpp' line='2147' column='1'/>
            <parameter type-id='type-id-50' filepath='src/third_party/boost-1.56.0/libs/filesystem/src/operations.cpp' line='2147' column='1'/>
            <return type-id='type-id-119'/>
          </function-decl>
          <function-decl name='directory_iterator_increment' mangled-name='_ZN5boost10filesystem6detail28directory_iterator_incrementERNS0_18directory_iteratorEPNS_6system10error_codeE' filepath='src/third_party/boost-1.56.0/libs/filesystem/src/operations.cpp' line='2182' column='1' visibility='default' binding='global' size-in-bits='64' elf-symbol-id='_ZN5boost10filesystem6detail28directory_iterator_incrementERNS0_18directory_iteratorEPNS_6system10error_codeE' hash='c62945ed4b59f331'>
            <parameter type-id='type-id-182' filepath='src/third_party/boost-1.56.0/libs/filesystem/src/operations.cpp' line='2182' column='1'/>
            <parameter type-id='type-id-50' filepath='src/third_party/boost-1.56.0/libs/filesystem/src/operations.cpp' line='2183' column='1'/>
            <return type-id='type-id-119'/>
          </function-decl>
        </namespace-decl>
        <function-decl name='operator==' mangled-name='_ZN5boost10filesystemeqERKNS0_4pathES3_' filepath='src/third_party/boost-1.56.0/boost/filesystem/path.hpp' line='615' column='1' visibility='default' binding='global' size-in-bits='64' elf-symbol-id='_ZN5boost10filesystemeqERKNS0_4pathES3_' hash='8dc5cbec7fc52fb5'>
          <parameter type-id='type-id-255' filepath='src/third_party/boost-1.56.0/boost/filesystem/path.hpp' line='615' column='1'/>
          <parameter type-id='type-id-255' filepath='src/third_party/boost-1.56.0/boost/filesystem/path.hpp' line='615' column='1'/>
          <return type-id='type-id-1'/>
        </function-decl>
        <function-decl name='operator!=' mangled-name='_ZN5boost10filesystemneERKNS0_4pathES3_' filepath='src/third_party/boost-1.56.0/boost/filesystem/path.hpp' line='621' column='1' visibility='default' binding='global' size-in-bits='64' elf-symbol-id='_ZN5boost10filesystemneERKNS0_4pathES3_' hash='8dc5cbec7fc52fb5'>
          <parameter type-id='type-id-255' filepath='src/third_party/boost-1.56.0/boost/filesystem/path.hpp' line='615' column='1'/>
          <parameter type-id='type-id-255' filepath='src/third_party/boost-1.56.0/boost/filesystem/path.hpp' line='615' column='1'/>
          <return type-id='type-id-1'/>
        </function-decl>
        <function-decl name='operator/' mangled-name='_ZN5boost10filesystemdvERKNS0_4pathES3_' filepath='src/third_party/boost-1.56.0/boost/filesystem/path.hpp' line='648' column='1' visibility='default' binding='global' size-in-bits='64' elf-symbol-id='_ZN5boost10filesystemdvERKNS0_4pathES3_' hash='0cb27ebaac645e48'>
          <parameter type-id='type-id-255' filepath='src/third_party/boost-1.56.0/libs/filesystem/src/operations.cpp' line='708' column='1'/>
          <parameter type-id='type-id-255' filepath='src/third_party/boost-1.56.0/libs/filesystem/src/operations.cpp' line='708' column='1'/>
          <return type-id='type-id-192'/>
        </function-decl>
        <namespace-decl name='path_traits'>
          <typedef-decl name='codecvt_type' type-id='type-id-367' filepath='src/third_party/boost-1.56.0/boost/filesystem/path_traits.hpp' line='52' column='1' id='type-id-326'/>
          <function-decl name='convert' mangled-name='_ZN5boost10filesystem11path_traits7convertEPKcS3_RSsRKSt7codecvtIwc11__mbstate_tE' filepath='src/third_party/boost-1.56.0/boost/filesystem/path_traits.hpp' line='130' column='1' visibility='default' binding='global' size-in-bits='64' elf-symbol-id='_ZN5boost10filesystem11path_traits7convertEPKcS3_RSsRKSt7codecvtIwc11__mbstate_tE' hash='3d5693612af11c46'>
            <parameter type-id='type-id-18' filepath='src/third_party/boost-1.56.0/boost/filesystem/path_traits.hpp' line='130' column='1'/>
            <parameter type-id='type-id-18' filepath='src/third_party/boost-1.56.0/boost/filesystem/path_traits.hpp' line='130' column='1'/>
            <parameter type-id='type-id-345' filepath='src/third_party/boost-1.56.0/boost/filesystem/path_traits.hpp' line='130' column='1'/>
            <parameter type-id='type-id-328' filepath='src/third_party/boost-1.56.0/boost/filesystem/path_traits.hpp' line='131' column='1'/>
            <return type-id='type-id-119'/>
          </function-decl>
          <function-decl name='convert' mangled-name='_ZN5boost10filesystem11path_traits7convertEPKcRSsRKSt7codecvtIwc11__mbstate_tE' filepath='src/third_party/boost-1.56.0/boost/filesystem/path_traits.hpp' line='139' column='1' visibility='default' binding='global' size-in-bits='64' elf-symbol-id='_ZN5boost10filesystem11path_traits7convertEPKcRSsRKSt7codecvtIwc11__mbstate_tE' hash='53885bde0aa65efe'>
            <parameter type-id='type-id-18' filepath='src/third_party/boost-1.56.0/boost/filesystem/path_traits.hpp' line='139' column='1'/>
            <parameter type-id='type-id-345' filepath='src/third_party/boost-1.56.0/boost/filesystem/path_traits.hpp' line='140' column='1'/>
            <parameter type-id='type-id-328' filepath='src/third_party/boost-1.56.0/boost/filesystem/path_traits.hpp' line='141' column='1'/>
            <return type-id='type-id-119'/>
          </function-decl>
          <function-decl name='dispatch&lt;char, std::basic_string&lt;char&gt; &gt;' mangled-name='_ZN5boost10filesystem11path_traits8dispatchIcSsEEvRKPT_RT0_RKSt7codecvtIwc11__mbstate_tE' filepath='src/third_party/boost-1.56.0/boost/filesystem/path_traits.hpp' line='211' column='1' visibility='default' binding='global' size-in-bits='64' elf-symbol-id='_ZN5boost10filesystem11path_traits8dispatchIcSsEEvRKPT_RT0_RKSt7codecvtIwc11__mbstate_tE' hash='1d97c1e7f5b953b1'>
            <parameter type-id='type-id-226' filepath='src/third_party/boost-1.56.0/boost/filesystem/path_traits.hpp' line='211' column='1'/>
            <parameter type-id='type-id-120' filepath='src/third_party/boost-1.56.0/boost/filesystem/path_traits.hpp' line='211' column='1'/>
            <parameter type-id='type-id-328' filepath='src/third_party/boost-1.56.0/boost/filesystem/path_traits.hpp' line='211' column='1'/>
            <return type-id='type-id-119'/>
          </function-decl>
          <function-decl name='dispatch' mangled-name='_ZN5boost10filesystem11path_traits8dispatchERKNS0_15directory_entryERSsRKSt7codecvtIwc11__mbstate_tE' filepath='src/third_party/boost-1.56.0/libs/filesystem/src/operations.cpp' line='1877' column='1' visibility='default' binding='global' size-in-bits='64' elf-symbol-id='_ZN5boost10filesystem11path_traits8dispatchERKNS0_15directory_entryERSsRKSt7codecvtIwc11__mbstate_tE' hash='66609d292eb12725'>
            <parameter type-id='type-id-244' filepath='src/third_party/boost-1.56.0/libs/filesystem/src/operations.cpp' line='1877' column='1'/>
            <parameter type-id='type-id-345' filepath='src/third_party/boost-1.56.0/libs/filesystem/src/operations.cpp' line='1881' column='1'/>
            <parameter type-id='type-id-328' filepath='src/third_party/boost-1.56.0/libs/filesystem/src/operations.cpp' line='1883' column='1'/>
            <return type-id='type-id-119'/>
          </function-decl>
        </namespace-decl>
        <function-decl name='absolute' mangled-name='_ZN5boost10filesystem8absoluteERKNS0_4pathES3_' filepath='src/third_party/boost-1.56.0/libs/filesystem/src/operations.cpp' line='708' column='1' visibility='default' binding='global' size-in-bits='64' elf-symbol-id='_ZN5boost10filesystem8absoluteERKNS0_4pathES3_' hash='0cb27ebaac645e48'>
          <parameter type-id='type-id-255' filepath='src/third_party/boost-1.56.0/libs/filesystem/src/operations.cpp' line='708' column='1'/>
          <parameter type-id='type-id-255' filepath='src/third_party/boost-1.56.0/libs/filesystem/src/operations.cpp' line='708' column='1'/>
          <return type-id='type-id-192'/>
        </function-decl>
      </namespace-decl>
      <namespace-decl name='iterators'>
        <class-decl name='enabled&lt;true&gt;' is-struct='yes' visibility='default' size-in-bits='8' filepath='src/third_party/boost-1.56.0/boost/iterator/detail/enable_if.hpp' line='30' column='1' hash='3c549a08bf0c9cdf' id='type-id-399'>
          <member-type access='public'>
            <class-decl name='base&lt;bool&gt;' is-struct='yes' visibility='default' size-in-bits='8' filepath='src/third_party/boost-1.56.0/boost/iterator/detail/enable_if.hpp' line='33' column='1' hash='e11397aaa8685ca3' id='type-id-400'>
              <member-type access='public'>
                <typedef-decl name='type' type-id='type-id-1' size-in-bits='8' filepath='src/third_party/boost-1.56.0/boost/iterator/detail/enable_if.hpp' line='35' column='1' hash='5ba96bb22f4237fb' id='type-id-401'/>
              </member-type>
            </class-decl>
          </member-type>
        </class-decl>
      </namespace-decl>
      <function-decl name='operator==&lt;boost::filesystem::directory_iterator, boost::filesystem::directory_entry, boost::single_pass_traversal_tag, boost::filesystem::directory_entry &amp;, long, boost::filesystem::directory_iterator, boost::filesystem::directory_entry, boost::single_pass_traversal_tag, boost::filesystem::directory_entry &amp;, long&gt;' mangled-name='_ZN5boosteqINS_10filesystem18directory_iteratorENS1_15directory_entryENS_25single_pass_traversal_tagERS3_lS2_S3_S4_S5_lEENS_6detail23enable_if_interoperableIT_T4_NS_3mpl6apply2INS6_12always_bool2ES8_S9_E4typeEE4typeERKNS_15iterator_facadeIS8_T0_T1_T2_T3_EERKNSH_IS9_T5_T6_T7_T8_EE' filepath='src/third_party/boost-1.56.0/boost/iterator/iterator_facade.hpp' line='832' column='1' visibility='default' binding='global' size-in-bits='64' elf-symbol-id='_ZN5boosteqINS_10filesystem18directory_iteratorENS1_15directory_entryENS_25single_pass_traversal_tagERS3_lS2_S3_S4_S5_lEENS_6detail23enable_if_interoperableIT_T4_NS_3mpl6apply2INS6_12always_bool2ES8_S9_E4typeEE4typeERKNS_15iterator_facadeIS8_T0_T1_T2_T3_EERKNSH_IS9_T5_T6_T7_T8_EE' hash='5bde4c4923a0fc4b'>
        <parameter type-id='type-id-264' filepath='src/third_party/boost-1.56.0/boost/iterator/iterator_facade.hpp' line='833' column='1'/>
        <parameter type-id='type-id-264' filepath='src/third_party/boost-1.56.0/boost/iterator/iterator_facade.hpp' line='833' column='1'/>
        <return type-id='type-id-401'/>
      </function-decl>
      <function-decl name='operator!=&lt;boost::filesystem::directory_iterator, boost::filesystem::directory_entry, boost::single_pass_traversal_tag, boost::filesystem::directory_entry &amp;, long, boost::filesystem::directory_iterator, boost::filesystem::directory_entry, boost::single_pass_traversal_tag, boost::filesystem::directory_entry &amp;, long&gt;' mangled-name='_ZN5boostneINS_10filesystem18directory_iteratorENS1_15directory_entryENS_25single_pass_traversal_tagERS3_lS2_S3_S4_S5_lEENS_6detail23enable_if_interoperableIT_T4_NS_3mpl6apply2INS6_12always_bool2ES8_S9_E4typeEE4typeERKNS_15iterator_facadeIS8_T0_T1_T2_T3_EERKNSH_IS9_T5_T6_T7_T8_EE' filepath='src/third_party/boost-1.56.0/boost/iterator/iterator_facade.hpp' line='833' column='1' visibility='default' binding='global' size-in-bits='64' elf-symbol-id='_ZN5boostneINS_10filesystem18directory_iteratorENS1_15directory_entryENS_25single_pass_traversal_tagERS3_lS2_S3_S4_S5_lEENS_6detail23enable_if_interoperableIT_T4_NS_3mpl6apply2INS6_12always_bool2ES8_S9_E4typeEE4typeERKNS_15iterator_facadeIS8_T0_T1_T2_T3_EERKNSH_IS9_T5_T6_T7_T8_EE' hash='5bde4c4923a0fc4b'>
        <parameter type-id='type-id-264' filepath='src/third_party/boost-1.56.0/boost/iterator/iterator_facade.hpp' line='833' column='1'/>
        <parameter type-id='type-id-264' filepath='src/third_party/boost-1.56.0/boost/iterator/iterator_facade.hpp' line='833' column='1'/>
        <return type-id='type-id-401'/>
      </function-decl>
      <function-decl name='operator!=&lt;boost::filesystem::path::iterator, const boost::filesystem::path, boost::bidirectional_traversal_tag, const boost::filesystem::path &amp;, long, boost::filesystem::path::iterator, const boost::filesystem::path, boost::bidirectional_traversal_tag, const boost::filesystem::path &amp;, long&gt;' mangled-name='_ZN5boostneINS_10filesystem4path8iteratorEKS2_NS_27bidirectional_traversal_tagERS4_lS3_S4_S5_S6_lEENS_6detail23enable_if_interoperableIT_T4_NS_3mpl6apply2INS7_12always_bool2ES9_SA_E4typeEE4typeERKNS_15iterator_facadeIS9_T0_T1_T2_T3_EERKNSI_ISA_T5_T6_T7_T8_EE' filepath='src/third_party/boost-1.56.0/boost/iterator/iterator_facade.hpp' line='833' column='1' visibility='default' binding='global' size-in-bits='64' elf-symbol-id='_ZN5boostneINS_10filesystem4path8iteratorEKS2_NS_27bidirectional_traversal_tagERS4_lS3_S4_S5_S6_lEENS_6detail23enable_if_interoperableIT_T4_NS_3mpl6apply2INS7_12always_bool2ES9_SA_E4typeEE4typeERKNS_15iterator_facadeIS9_T0_T1_T2_T3_EERKNSI_ISA_T5_T6_T7_T8_EE' hash='176b9533a06a9ac9'>
        <parameter type-id='type-id-267' filepath='src/third_party/boost-1.56.0/boost/iterator/iterator_facade.hpp' line='833' column='1'/>
        <parameter type-id='type-id-267' filepath='src/third_party/boost-1.56.0/boost/iterator/iterator_facade.hpp' line='833' column='1'/>
        <return type-id='type-id-401'/>
      </function-decl>
      <namespace-decl name='mpl'>
        <class-decl name='if_&lt;boost::detail::use_operator_brackets_proxy&lt;boost::filesystem::directory_entry, boost::filesystem::directory_entry &amp;&gt;, boost::detail::operator_brackets_proxy&lt;boost::filesystem::directory_iterator&gt;, boost::filesystem::directory_entry&gt;' is-struct='yes' visibility='default' size-in-bits='8' filepath='src/third_party/boost-1.56.0/boost/mpl/if.hpp' line='55' column='1' hash='0f36dd2d362e117a' id='type-id-402'>
          <member-type access='public'>
            <typedef-decl name='type' type-id='type-id-404' filepath='src/third_party/boost-1.56.0/boost/mpl/if.hpp' line='70' column='1' id='type-id-403'/>
          </member-type>
        </class-decl>
        <class-decl name='if_&lt;boost::detail::use_operator_brackets_proxy&lt;const boost::filesystem::path, const boost::filesystem::path &amp;&gt;, boost::detail::operator_brackets_proxy&lt;boost::filesystem::path::iterator&gt;, const boost::filesystem::path&gt;' is-struct='yes' visibility='default' size-in-bits='8' filepath='src/third_party/boost-1.56.0/boost/mpl/if.hpp' line='55' column='1' hash='9239d33083eec5ef' id='type-id-405'>
          <member-type access='public'>
            <typedef-decl name='type' type-id='type-id-407' filepath='src/third_party/boost-1.56.0/boost/mpl/if.hpp' line='70' column='1' id='type-id-406'/>
          </member-type>
          <member-type access='public'>
            <typedef-decl name='type' type-id='type-id-409' filepath='src/third_party/boost-1.56.0/boost/mpl/if.hpp' line='70' column='1' id='type-id-408'/>
          </member-type>
        </class-decl>
        <class-decl name='if_c&lt;true, boost::detail::operator_brackets_proxy&lt;boost::filesystem::directory_iterator&gt;, boost::filesystem::directory_entry&gt;' is-struct='yes' visibility='default' size-in-bits='8' filepath='src/third_party/boost-1.56.0/boost/mpl/if.hpp' line='34' column='1' hash='03ee458f5dff754b' id='type-id-410'>
          <member-type access='public'>
            <typedef-decl name='type' type-id='type-id-411' filepath='src/third_party/boost-1.56.0/boost/mpl/if.hpp' line='36' column='1' id='type-id-404'/>
          </member-type>
        </class-decl>
        <class-decl name='if_c&lt;true, boost::detail::operator_brackets_proxy&lt;boost::filesystem::path::iterator&gt;, const boost::filesystem::path&gt;' is-struct='yes' visibility='default' size-in-bits='8' filepath='src/third_party/boost-1.56.0/boost/mpl/if.hpp' line='34' column='1' hash='790d9f22745466fb' id='type-id-412'>
          <member-type access='public'>
            <typedef-decl name='type' type-id='type-id-413' filepath='src/third_party/boost-1.56.0/boost/mpl/if.hpp' line='36' column='1' id='type-id-407'/>
          </member-type>
          <member-type access='public'>
            <typedef-decl name='type' type-id='type-id-414' filepath='src/third_party/boost-1.56.0/boost/mpl/if.hpp' line='36' column='1' id='type-id-409'/>
          </member-type>
        </class-decl>
      </namespace-decl>
      <function-decl name='operator==&lt;boost::filesystem::detail::dir_itr_imp, boost::filesystem::detail::dir_itr_imp&gt;' mangled-name='_ZN5boosteqINS_10filesystem6detail11dir_itr_impES3_EEbRKNS_10shared_ptrIT_EERKNS4_IT0_EE' filepath='src/third_party/boost-1.56.0/boost/smart_ptr/shared_ptr.hpp' line='728' column='1' visibility='default' binding='global' size-in-bits='64' elf-symbol-id='_ZN5boosteqINS_10filesystem6detail11dir_itr_impES3_EEbRKNS_10shared_ptrIT_EERKNS4_IT0_EE' hash='b5eabc3b5dfc43b2'>
        <parameter type-id='type-id-273' filepath='src/third_party/boost-1.56.0/boost/smart_ptr/shared_ptr.hpp' line='728' column='1'/>
        <parameter type-id='type-id-273' filepath='src/third_party/boost-1.56.0/boost/smart_ptr/shared_ptr.hpp' line='728' column='1'/>
        <return type-id='type-id-1'/>
      </function-decl>
      <namespace-decl name='system'>
        <class-decl name='system_error' visibility='default' size-in-bits='320' filepath='src/third_party/boost-1.56.0/boost/system/system_error.hpp' line='22' column='1' hash='50371aa8a8ad789f' id='type-id-222'>
          <base-class access='public' layout-offset-in-bits='0' type-id='type-id-368'/>
          <data-member access='private' layout-offset-in-bits='128'>
            <var-decl name='m_error_code' type-id='type-id-49' visibility='default' filepath='src/third_party/boost-1.56.0/boost/system/system_error.hpp' line='53' column='1'/>
          </data-member>
          <data-member access='private' layout-offset-in-bits='256'>
            <var-decl name='m_what' type-id='type-id-338' visibility='default' filepath='src/third_party/boost-1.56.0/boost/system/system_error.hpp' line='54' column='1'/>
          </data-member>
          <member-function access='public' constructor='yes'>
            <function-decl name='system_error' mangled-name='_ZN5boost6system12system_errorC2ENS0_10error_codeERKSs' filepath='src/third_party/boost-1.56.0/boost/system/system_error.hpp' line='30' column='1' visibility='default' binding='global' size-in-bits='64' elf-symbol-id='_ZN5boost6system12system_errorC2ENS0_10error_codeERKSs' hash='7f32ffea222edbe7'>
              <parameter type-id='type-id-223' is-artificial='yes'/>
              <parameter type-id='type-id-49'/>
              <parameter type-id='type-id-340'/>
              <return type-id='type-id-119'/>
            </function-decl>
          </member-function>
          <member-function access='public' constructor='yes'>
            <function-decl name='system_error' mangled-name='_ZN5boost6system12system_errorC2EiRKNS0_14error_categoryEPKc' filepath='src/third_party/boost-1.56.0/boost/system/system_error.hpp' line='43' column='1' visibility='default' binding='global' size-in-bits='64' elf-symbol-id='_ZN5boost6system12system_errorC2EiRKNS0_14error_categoryEPKc' hash='dbde26dd4edf1fe0'>
              <parameter type-id='type-id-223' is-artificial='yes'/>
              <parameter type-id='type-id-8'/>
              <parameter type-id='type-id-63'/>
              <parameter type-id='type-id-18'/>
              <return type-id='type-id-119'/>
            </function-decl>
          </member-function>
          <member-function access='public' destructor='yes' vtable-offset='0'>
            <function-decl name='~system_error' filepath='src/third_party/boost-1.56.0/boost/system/system_error.hpp' line='47' column='1' visibility='default' binding='global' size-in-bits='64' hash='7f32ffea222edbe7'>
              <parameter type-id='type-id-223' is-artificial='yes'/>
              <return type-id='type-id-119'/>
            </function-decl>
          </member-function>
          <member-function access='public' destructor='yes' vtable-offset='0'>
            <function-decl name='~system_error' mangled-name='_ZN5boost6system12system_errorD0Ev' filepath='src/third_party/boost-1.56.0/boost/system/system_error.hpp' line='47' column='1' visibility='default' binding='global' size-in-bits='64' elf-symbol-id='_ZN5boost6system12system_errorD0Ev' hash='7f32ffea222edbe7'>
              <parameter type-id='type-id-223' is-artificial='yes'/>
              <return type-id='type-id-119'/>
            </function-decl>
          </member-function>
          <member-function access='public' destructor='yes' vtable-offset='0'>
            <function-decl name='~system_error' mangled-name='_ZN5boost6system12system_errorD2Ev' filepath='src/third_party/boost-1.56.0/boost/system/system_error.hpp' line='47' column='1' visibility='default' binding='global' size-in-bits='64' elf-symbol-id='_ZN5boost6system12system_errorD2Ev' hash='7f32ffea222edbe7'>
              <parameter type-id='type-id-223' is-artificial='yes'/>
              <return type-id='type-id-119'/>
            </function-decl>
          </member-function>
          <member-function access='public' const='yes' vtable-offset='2'>
            <function-decl name='what' mangled-name='_ZNK5boost6system12system_error4whatEv' filepath='src/third_party/boost-1.56.0/boost/system/system_error.hpp' line='50' column='1' visibility='default' binding='global' size-in-bits='64' elf-symbol-id='_ZNK5boost6system12system_error4whatEv' hash='53885bde0aa65efe'>
              <parameter type-id='type-id-279' is-artificial='yes'/>
              <return type-id='type-id-18'/>
            </function-decl>
          </member-function>
        </class-decl>
        <function-decl name='system_category' mangled-name='_ZN5boost6system15system_categoryEv' filepath='src/third_party/boost-1.56.0/boost/system/error_code.hpp' line='212' column='1' visibility='default' binding='global' size-in-bits='64' hash='43fa35073b692cf4'>
          <return type-id='type-id-63'/>
        </function-decl>
      </namespace-decl>
      <namespace-decl name='detail'>
        <class-decl name='shared_count' visibility='default' size-in-bits='64' filepath='src/third_party/boost-1.56.0/boost/smart_ptr/detail/shared_count.hpp' line='100' column='1' hash='451860ab6d9cb6de' id='type-id-157'>
          <data-member access='private' layout-offset-in-bits='0'>
            <var-decl name='pi_' type-id='type-id-163' visibility='default' filepath='src/third_party/boost-1.56.0/boost/smart_ptr/detail/shared_count.hpp' line='104' column='1'/>
          </data-member>
          <member-function access='public' destructor='yes'>
            <function-decl name='~shared_count' mangled-name='_ZN5boost6detail12shared_countD2Ev' filepath='src/third_party/boost-1.56.0/boost/smart_ptr/detail/shared_count.hpp' line='441' column='1' visibility='default' binding='global' size-in-bits='64' elf-symbol-id='_ZN5boost6detail12shared_countD2Ev' hash='7f32ffea222edbe7'>
              <parameter type-id='type-id-160' is-artificial='yes'/>
              <return type-id='type-id-119'/>
            </function-decl>
          </member-function>
          <member-function access='public'>
            <function-decl name='swap' mangled-name='_ZN5boost6detail12shared_count4swapERS1_' filepath='src/third_party/boost-1.56.0/boost/smart_ptr/detail/shared_count.hpp' line='486' column='1' visibility='default' binding='global' size-in-bits='64' elf-symbol-id='_ZN5boost6detail12shared_count4swapERS1_' hash='b1b84448cee7e029'>
              <parameter type-id='type-id-160' is-artificial='yes'/>
              <parameter type-id='type-id-158'/>
              <return type-id='type-id-119'/>
            </function-decl>
          </member-function>
          <member-function access='public' constructor='yes'>
            <function-decl name='shared_count' mangled-name='_ZN5boost6detail12shared_countC2Ev' filepath='src/third_party/boost-1.56.0/boost/smart_ptr/detail/shared_count.hpp' line='114' column='1' visibility='default' binding='global' size-in-bits='64' elf-symbol-id='_ZN5boost6detail12shared_countC2Ev' hash='7f32ffea222edbe7'>
              <parameter type-id='type-id-160' is-artificial='yes'/>
              <return type-id='type-id-119'/>
            </function-decl>
          </member-function>
          <member-function access='public'>
            <function-decl name='shared_count&lt;boost::filesystem::detail::dir_itr_imp&gt;' mangled-name='_ZN5boost6detail12shared_countC2INS_10filesystem6detail11dir_itr_impEEEPT_' filepath='src/third_party/boost-1.56.0/boost/smart_ptr/detail/shared_count.hpp' line='121' column='1' visibility='default' binding='global' size-in-bits='64' elf-symbol-id='_ZN5boost6detail12shared_countC2INS_10filesystem6detail11dir_itr_impEEEPT_' hash='5fe2ed55636808ca'>
              <parameter type-id='type-id-160' is-artificial='yes'/>
              <parameter type-id='type-id-176'/>
              <return type-id='type-id-119'/>
            </function-decl>
          </member-function>
          <member-function access='public'>
            <function-decl name='shared_count&lt;boost::filesystem::filesystem_error::m_imp&gt;' mangled-name='_ZN5boost6detail12shared_countC2INS_10filesystem16filesystem_error5m_impEEEPT_' filepath='src/third_party/boost-1.56.0/boost/smart_ptr/detail/shared_count.hpp' line='121' column='1' visibility='default' binding='global' size-in-bits='64' elf-symbol-id='_ZN5boost6detail12shared_countC2INS_10filesystem16filesystem_error5m_impEEEPT_' hash='47770069e19ddd92'>
              <parameter type-id='type-id-160' is-artificial='yes'/>
              <parameter type-id='type-id-190'/>
              <return type-id='type-id-119'/>
            </function-decl>
          </member-function>
        </class-decl>
        <class-decl name='sp_counted_base' visibility='default' size-in-bits='128' filepath='src/third_party/boost-1.56.0/boost/smart_ptr/detail/sp_counted_base_gcc_x86.hpp' line='97' column='1' hash='63bd400a3c4aff38' id='type-id-161'>
          <data-member access='private' layout-offset-in-bits='64'>
            <var-decl name='use_count_' type-id='type-id-8' visibility='default' filepath='src/third_party/boost-1.56.0/boost/smart_ptr/detail/sp_counted_base_gcc_x86.hpp' line='104' column='1'/>
          </data-member>
          <data-member access='private' layout-offset-in-bits='96'>
            <var-decl name='weak_count_' type-id='type-id-8' visibility='default' filepath='src/third_party/boost-1.56.0/boost/smart_ptr/detail/sp_counted_base_gcc_x86.hpp' line='105' column='1'/>
          </data-member>
          <member-function access='public'>
            <function-decl name='release' mangled-name='_ZN5boost6detail15sp_counted_base7releaseEv' filepath='src/third_party/boost-1.56.0/boost/smart_ptr/detail/sp_counted_base_gcc_x86.hpp' line='142' column='1' visibility='default' binding='global' size-in-bits='64' elf-symbol-id='_ZN5boost6detail15sp_counted_base7releaseEv' hash='7f32ffea222edbe7'>
              <parameter type-id='type-id-163' is-artificial='yes'/>
              <return type-id='type-id-119'/>
            </function-decl>
          </member-function>
          <member-function access='public'>
            <function-decl name='weak_release' mangled-name='_ZN5boost6detail15sp_counted_base12weak_releaseEv' filepath='src/third_party/boost-1.56.0/boost/smart_ptr/detail/sp_counted_base_gcc_x86.hpp' line='156' column='1' visibility='default' binding='global' size-in-bits='64' elf-symbol-id='_ZN5boost6detail15sp_counted_base12weak_releaseEv' hash='7f32ffea222edbe7'>
              <parameter type-id='type-id-163' is-artificial='yes'/>
              <return type-id='type-id-119'/>
            </function-decl>
          </member-function>
          <member-function access='public' constructor='yes'>
            <function-decl name='sp_counted_base' mangled-name='_ZN5boost6detail15sp_counted_baseC2Ev' filepath='src/third_party/boost-1.56.0/boost/smart_ptr/detail/sp_counted_base_gcc_x86.hpp' line='109' column='1' visibility='default' binding='global' size-in-bits='64' elf-symbol-id='_ZN5boost6detail15sp_counted_baseC2Ev' hash='7f32ffea222edbe7'>
              <parameter type-id='type-id-163' is-artificial='yes'/>
              <return type-id='type-id-119'/>
            </function-decl>
          </member-function>
          <member-function access='public' destructor='yes' vtable-offset='0'>
            <function-decl name='~sp_counted_base' filepath='src/third_party/boost-1.56.0/boost/smart_ptr/detail/sp_counted_base_gcc_x86.hpp' line='113' column='1' visibility='default' binding='global' size-in-bits='64' hash='7f32ffea222edbe7'>
              <parameter type-id='type-id-163' is-artificial='yes'/>
              <return type-id='type-id-119'/>
            </function-decl>
          </member-function>
          <member-function access='public' destructor='yes' vtable-offset='0'>
            <function-decl name='~sp_counted_base' mangled-name='_ZN5boost6detail15sp_counted_baseD0Ev' filepath='src/third_party/boost-1.56.0/boost/smart_ptr/detail/sp_counted_base_gcc_x86.hpp' line='113' column='1' visibility='default' binding='global' size-in-bits='64' elf-symbol-id='_ZN5boost6detail15sp_counted_baseD0Ev' hash='7f32ffea222edbe7'>
              <parameter type-id='type-id-163' is-artificial='yes'/>
              <return type-id='type-id-119'/>
            </function-decl>
          </member-function>
          <member-function access='public' destructor='yes' vtable-offset='0'>
            <function-decl name='~sp_counted_base' mangled-name='_ZN5boost6detail15sp_counted_baseD2Ev' filepath='src/third_party/boost-1.56.0/boost/smart_ptr/detail/sp_counted_base_gcc_x86.hpp' line='113' column='1' visibility='default' binding='global' size-in-bits='64' elf-symbol-id='_ZN5boost6detail15sp_counted_baseD2Ev' hash='7f32ffea222edbe7'>
              <parameter type-id='type-id-163' is-artificial='yes'/>
              <return type-id='type-id-119'/>
            </function-decl>
          </member-function>
          <member-function access='public' vtable-offset='2'>
            <function-decl name='dispose' mangled-name='_ZN5boost6detail15sp_counted_base7disposeEv' filepath='src/third_party/boost-1.56.0/boost/smart_ptr/detail/sp_counted_base_gcc_x86.hpp' line='120' column='1' visibility='default' binding='global' size-in-bits='64' hash='7f32ffea222edbe7'>
              <parameter type-id='type-id-163' is-artificial='yes'/>
              <return type-id='type-id-119'/>
            </function-decl>
          </member-function>
          <member-function access='public' vtable-offset='3'>
            <function-decl name='destroy' mangled-name='_ZN5boost6detail15sp_counted_base7destroyEv' filepath='src/third_party/boost-1.56.0/boost/smart_ptr/detail/sp_counted_base_gcc_x86.hpp' line='124' column='1' visibility='default' binding='global' size-in-bits='64' elf-symbol-id='_ZN5boost6detail15sp_counted_base7destroyEv' hash='7f32ffea222edbe7'>
              <parameter type-id='type-id-163' is-artificial='yes'/>
              <return type-id='type-id-119'/>
            </function-decl>
          </member-function>
          <member-function access='public' vtable-offset='4'>
            <function-decl name='get_deleter' mangled-name='_ZN5boost6detail15sp_counted_base11get_deleterERKSt9type_info' filepath='src/third_party/boost-1.56.0/boost/smart_ptr/detail/sp_counted_base_gcc_x86.hpp' line='129' column='1' visibility='default' binding='global' size-in-bits='64' hash='7f32ffea222edbe7'>
              <parameter type-id='type-id-163' is-artificial='yes'/>
              <parameter type-id='type-id-319'/>
              <return type-id='type-id-14'/>
            </function-decl>
          </member-function>
          <member-function access='public' vtable-offset='5'>
            <function-decl name='get_untyped_deleter' mangled-name='_ZN5boost6detail15sp_counted_base19get_untyped_deleterEv' filepath='src/third_party/boost-1.56.0/boost/smart_ptr/detail/sp_counted_base_gcc_x86.hpp' line='130' column='1' visibility='default' binding='global' size-in-bits='64' hash='7f32ffea222edbe7'>
              <parameter type-id='type-id-163' is-artificial='yes'/>
              <return type-id='type-id-14'/>
            </function-decl>
          </member-function>
        </class-decl>
        <class-decl name='sp_counted_impl_p&lt;boost::filesystem::detail::dir_itr_imp&gt;' visibility='default' size-in-bits='192' filepath='src/third_party/boost-1.56.0/boost/smart_ptr/detail/sp_counted_impl.hpp' line='53' column='1' hash='35c01ac4b711fd6d' id='type-id-164'>
          <base-class access='public' layout-offset-in-bits='0' type-id='type-id-161'/>
          <data-member access='private' layout-offset-in-bits='128'>
            <var-decl name='px_' type-id='type-id-176' visibility='default' filepath='src/third_party/boost-1.56.0/boost/smart_ptr/detail/sp_counted_impl.hpp' line='57' column='1'/>
          </data-member>
          <member-function access='public'>
            <function-decl name='sp_counted_impl_p' mangled-name='_ZN5boost6detail17sp_counted_impl_pINS_10filesystem6detail11dir_itr_impEEC2EPS4_' filepath='src/third_party/boost-1.56.0/boost/smart_ptr/detail/sp_counted_impl.hpp' line='66' column='1' visibility='default' binding='global' size-in-bits='64' elf-symbol-id='_ZN5boost6detail17sp_counted_impl_pINS_10filesystem6detail11dir_itr_impEEC2EPS4_' hash='5fe2ed55636808ca'>
              <parameter type-id='type-id-166' is-artificial='yes'/>
              <parameter type-id='type-id-176'/>
              <return type-id='type-id-119'/>
            </function-decl>
          </member-function>
          <member-function access='public' vtable-offset='2'>
            <function-decl name='dispose' mangled-name='_ZN5boost6detail17sp_counted_impl_pINS_10filesystem6detail11dir_itr_impEE7disposeEv' filepath='src/third_party/boost-1.56.0/boost/smart_ptr/detail/sp_counted_impl.hpp' line='73' column='1' visibility='default' binding='global' size-in-bits='64' elf-symbol-id='_ZN5boost6detail17sp_counted_impl_pINS_10filesystem6detail11dir_itr_impEE7disposeEv' hash='7f32ffea222edbe7'>
              <parameter type-id='type-id-166' is-artificial='yes'/>
              <return type-id='type-id-119'/>
            </function-decl>
          </member-function>
          <member-function access='public' vtable-offset='4'>
            <function-decl name='get_deleter' mangled-name='_ZN5boost6detail17sp_counted_impl_pINS_10filesystem6detail11dir_itr_impEE11get_deleterERKSt9type_info' filepath='src/third_party/boost-1.56.0/boost/smart_ptr/detail/sp_counted_impl.hpp' line='81' column='1' visibility='default' binding='global' size-in-bits='64' elf-symbol-id='_ZN5boost6detail17sp_counted_impl_pINS_10filesystem6detail11dir_itr_impEE11get_deleterERKSt9type_info' hash='7f32ffea222edbe7'>
              <parameter type-id='type-id-166' is-artificial='yes'/>
              <parameter type-id='type-id-319'/>
              <return type-id='type-id-14'/>
            </function-decl>
          </member-function>
          <member-function access='public' vtable-offset='5'>
            <function-decl name='get_untyped_deleter' mangled-name='_ZN5boost6detail17sp_counted_impl_pINS_10filesystem6detail11dir_itr_impEE19get_untyped_deleterEv' filepath='src/third_party/boost-1.56.0/boost/smart_ptr/detail/sp_counted_impl.hpp' line='86' column='1' visibility='default' binding='global' size-in-bits='64' elf-symbol-id='_ZN5boost6detail17sp_counted_impl_pINS_10filesystem6detail11dir_itr_impEE19get_untyped_deleterEv' hash='7f32ffea222edbe7'>
              <parameter type-id='type-id-166' is-artificial='yes'/>
              <return type-id='type-id-14'/>
            </function-decl>
          </member-function>
        </class-decl>
        <class-decl name='sp_counted_impl_p&lt;boost::filesystem::filesystem_error::m_imp&gt;' visibility='default' size-in-bits='192' filepath='src/third_party/boost-1.56.0/boost/smart_ptr/detail/sp_counted_impl.hpp' line='53' column='1' hash='ef30eafe5f4a5245' id='type-id-167'>
          <base-class access='public' layout-offset-in-bits='0' type-id='type-id-161'/>
          <data-member access='private' layout-offset-in-bits='128'>
            <var-decl name='px_' type-id='type-id-190' visibility='default' filepath='src/third_party/boost-1.56.0/boost/smart_ptr/detail/sp_counted_impl.hpp' line='57' column='1'/>
          </data-member>
          <member-function access='public'>
            <function-decl name='sp_counted_impl_p' mangled-name='_ZN5boost6detail17sp_counted_impl_pINS_10filesystem16filesystem_error5m_impEEC2EPS4_' filepath='src/third_party/boost-1.56.0/boost/smart_ptr/detail/sp_counted_impl.hpp' line='66' column='1' visibility='default' binding='global' size-in-bits='64' elf-symbol-id='_ZN5boost6detail17sp_counted_impl_pINS_10filesystem16filesystem_error5m_impEEC2EPS4_' hash='47770069e19ddd92'>
              <parameter type-id='type-id-169' is-artificial='yes'/>
              <parameter type-id='type-id-190'/>
              <return type-id='type-id-119'/>
            </function-decl>
          </member-function>
          <member-function access='public' vtable-offset='2'>
            <function-decl name='dispose' mangled-name='_ZN5boost6detail17sp_counted_impl_pINS_10filesystem16filesystem_error5m_impEE7disposeEv' filepath='src/third_party/boost-1.56.0/boost/smart_ptr/detail/sp_counted_impl.hpp' line='73' column='1' visibility='default' binding='global' size-in-bits='64' elf-symbol-id='_ZN5boost6detail17sp_counted_impl_pINS_10filesystem16filesystem_error5m_impEE7disposeEv' hash='7f32ffea222edbe7'>
              <parameter type-id='type-id-169' is-artificial='yes'/>
              <return type-id='type-id-119'/>
            </function-decl>
          </member-function>
          <member-function access='public' vtable-offset='4'>
            <function-decl name='get_deleter' mangled-name='_ZN5boost6detail17sp_counted_impl_pINS_10filesystem16filesystem_error5m_impEE11get_deleterERKSt9type_info' filepath='src/third_party/boost-1.56.0/boost/smart_ptr/detail/sp_counted_impl.hpp' line='81' column='1' visibility='default' binding='global' size-in-bits='64' elf-symbol-id='_ZN5boost6detail17sp_counted_impl_pINS_10filesystem16filesystem_error5m_impEE11get_deleterERKSt9type_info' hash='7f32ffea222edbe7'>
              <parameter type-id='type-id-169' is-artificial='yes'/>
              <parameter type-id='type-id-319'/>
              <return type-id='type-id-14'/>
            </function-decl>
          </member-function>
          <member-function access='public' vtable-offset='5'>
            <function-decl name='get_untyped_deleter' mangled-name='_ZN5boost6detail17sp_counted_impl_pINS_10filesystem16filesystem_error5m_impEE19get_untyped_deleterEv' filepath='src/third_party/boost-1.56.0/boost/smart_ptr/detail/sp_counted_impl.hpp' line='86' column='1' visibility='default' binding='global' size-in-bits='64' elf-symbol-id='_ZN5boost6detail17sp_counted_impl_pINS_10filesystem16filesystem_error5m_impEE19get_untyped_deleterEv' hash='7f32ffea222edbe7'>
              <parameter type-id='type-id-169' is-artificial='yes'/>
              <return type-id='type-id-14'/>
            </function-decl>
          </member-function>
        </class-decl>
        <class-decl name='weak_count' visibility='default' size-in-bits='64' filepath='src/third_party/boost-1.56.0/boost/smart_ptr/detail/shared_count.hpp' line='530' column='1' hash='e51692d9a2fa716d' id='type-id-170'>
          <data-member access='private' layout-offset-in-bits='0'>
            <var-decl name='pi_' type-id='type-id-163' visibility='default' filepath='src/third_party/boost-1.56.0/boost/smart_ptr/detail/shared_count.hpp' line='534' column='1'/>
          </data-member>
        </class-decl>
        <class-decl name='addr_impl_ref&lt;boost::filesystem::directory_entry&gt;' is-struct='yes' visibility='default' size-in-bits='64' filepath='src/third_party/boost-1.56.0/boost/core/addressof.hpp' line='25' column='1' hash='0edd04ce35ac01cc' id='type-id-154'>
          <data-member access='public' layout-offset-in-bits='0'>
            <var-decl name='v_' type-id='type-id-179' visibility='default' filepath='src/third_party/boost-1.56.0/boost/core/addressof.hpp' line='27' column='1'/>
          </data-member>
        </class-decl>
        <class-decl name='addressof_impl&lt;boost::filesystem::directory_entry&gt;' is-struct='yes' visibility='default' size-in-bits='8' filepath='src/third_party/boost-1.56.0/boost/core/addressof.hpp' line='36' column='1' hash='557f9b2ee6b73713' id='type-id-415'/>
        <class-decl name='operator_arrow_dispatch&lt;boost::filesystem::directory_entry &amp;, boost::filesystem::directory_entry *&gt;' is-struct='yes' visibility='default' size-in-bits='8' filepath='src/third_party/boost-1.56.0/boost/iterator/iterator_facade.hpp' line='319' column='1' hash='a077f36529d16290' id='type-id-416'>
          <member-type access='public'>
            <typedef-decl name='result_type' type-id='type-id-180' size-in-bits='64' filepath='src/third_party/boost-1.56.0/boost/iterator/iterator_facade.hpp' line='321' column='1' hash='9f005300b25295c6' id='type-id-375'/>
          </member-type>
          <member-function access='public' static='yes'>
            <function-decl name='apply' mangled-name='_ZN5boost6detail23operator_arrow_dispatchIRNS_10filesystem15directory_entryEPS3_E5applyES4_' filepath='src/third_party/boost-1.56.0/boost/iterator/iterator_facade.hpp' line='322' column='1' visibility='default' binding='global' size-in-bits='64' elf-symbol-id='_ZN5boost6detail23operator_arrow_dispatchIRNS_10filesystem15directory_entryEPS3_E5applyES4_' hash='47506e8746c358d3'>
              <parameter type-id='type-id-179'/>
              <return type-id='type-id-375'/>
            </function-decl>
          </member-function>
        </class-decl>
        <class-decl name='operator_arrow_dispatch&lt;const boost::filesystem::path &amp;, const boost::filesystem::path *&gt;' is-struct='yes' visibility='default' size-in-bits='8' filepath='src/third_party/boost-1.56.0/boost/iterator/iterator_facade.hpp' line='319' column='1' hash='2f445d79d340e8c6' id='type-id-417'>
          <member-type access='public'>
            <typedef-decl name='result_type' type-id='type-id-256' size-in-bits='64' filepath='src/third_party/boost-1.56.0/boost/iterator/iterator_facade.hpp' line='321' column='1' hash='8d5a29cf878d89fc' id='type-id-378'/>
          </member-type>
          <member-function access='public' static='yes'>
            <function-decl name='apply' mangled-name='_ZN5boost6detail23operator_arrow_dispatchIRKNS_10filesystem4pathEPS4_E5applyES5_' filepath='src/third_party/boost-1.56.0/boost/iterator/iterator_facade.hpp' line='322' column='1' visibility='default' binding='global' size-in-bits='64' elf-symbol-id='_ZN5boost6detail23operator_arrow_dispatchIRKNS_10filesystem4pathEPS4_E5applyES5_' hash='e6fe3225807c7918'>
              <parameter type-id='type-id-255'/>
              <return type-id='type-id-378'/>
            </function-decl>
          </member-function>
        </class-decl>
        <class-decl name='operator_brackets_result&lt;boost::filesystem::directory_iterator, boost::filesystem::directory_entry, boost::filesystem::directory_entry &amp;&gt;' is-struct='yes' visibility='default' size-in-bits='8' filepath='src/third_party/boost-1.56.0/boost/iterator/iterator_facade.hpp' line='383' column='1' hash='09621bda0c3b8cb1' id='type-id-418'>
          <member-type access='public'>
            <typedef-decl name='type' type-id='type-id-403' filepath='src/third_party/boost-1.56.0/boost/iterator/iterator_facade.hpp' line='389' column='1' id='type-id-419'/>
          </member-type>
        </class-decl>
        <class-decl name='operator_brackets_result&lt;boost::filesystem::path::iterator, const boost::filesystem::path, const boost::filesystem::path &amp;&gt;' is-struct='yes' visibility='default' size-in-bits='8' filepath='src/third_party/boost-1.56.0/boost/iterator/iterator_facade.hpp' line='383' column='1' hash='5134e6078f126c6d' id='type-id-420'>
          <member-type access='public'>
            <typedef-decl name='type' type-id='type-id-406' filepath='src/third_party/boost-1.56.0/boost/iterator/iterator_facade.hpp' line='389' column='1' id='type-id-421'/>
          </member-type>
          <member-type access='public'>
            <typedef-decl name='type' type-id='type-id-408' filepath='src/third_party/boost-1.56.0/boost/iterator/iterator_facade.hpp' line='389' column='1' id='type-id-422'/>
          </member-type>
        </class-decl>
        <class-decl name='sp_array_access&lt;boost::filesystem::detail::dir_itr_imp&gt;' is-struct='yes' visibility='default' size-in-bits='8' filepath='src/third_party/boost-1.56.0/boost/smart_ptr/shared_ptr.hpp' line='162' column='1' hash='5bcf657ecaa60a4f' id='type-id-423'>
          <member-type access='public'>
            <typedef-decl name='type' type-id='type-id-119' filepath='src/third_party/boost-1.56.0/boost/smart_ptr/shared_ptr.hpp' line='164' column='1' id='type-id-424'/>
          </member-type>
        </class-decl>
        <class-decl name='sp_array_access&lt;boost::filesystem::filesystem_error::m_imp&gt;' is-struct='yes' visibility='default' size-in-bits='8' filepath='src/third_party/boost-1.56.0/boost/smart_ptr/shared_ptr.hpp' line='162' column='1' hash='48cd4f8f454d4bbd' id='type-id-425'>
          <member-type access='public'>
            <typedef-decl name='type' type-id='type-id-119' filepath='src/third_party/boost-1.56.0/boost/smart_ptr/shared_ptr.hpp' line='164' column='1' id='type-id-426'/>
          </member-type>
        </class-decl>
        <class-decl name='sp_dereference&lt;boost::filesystem::detail::dir_itr_imp&gt;' is-struct='yes' visibility='default' size-in-bits='8' filepath='src/third_party/boost-1.56.0/boost/smart_ptr/shared_ptr.hpp' line='88' column='1' hash='dc9cca6ff93a8389' id='type-id-427'>
          <member-type access='public'>
            <typedef-decl name='type' type-id='type-id-175' size-in-bits='64' filepath='src/third_party/boost-1.56.0/boost/smart_ptr/shared_ptr.hpp' line='90' column='1' hash='c1d1be2240bbedde' id='type-id-428'/>
          </member-type>
        </class-decl>
        <class-decl name='sp_dereference&lt;boost::filesystem::filesystem_error::m_imp&gt;' is-struct='yes' visibility='default' size-in-bits='8' filepath='src/third_party/boost-1.56.0/boost/smart_ptr/shared_ptr.hpp' line='88' column='1' hash='d65c6f1897439bc1' id='type-id-429'>
          <member-type access='public'>
            <typedef-decl name='type' type-id='type-id-189' size-in-bits='64' filepath='src/third_party/boost-1.56.0/boost/smart_ptr/shared_ptr.hpp' line='90' column='1' hash='802a2fe98c875c7b' id='type-id-430'/>
          </member-type>
        </class-decl>
        <class-decl name='sp_element&lt;boost::filesystem::detail::dir_itr_imp&gt;' is-struct='yes' visibility='default' size-in-bits='8' filepath='src/third_party/boost-1.56.0/boost/smart_ptr/shared_ptr.hpp' line='63' column='1' hash='1991f8aacc0bac5b' id='type-id-431'>
          <member-type access='public'>
            <typedef-decl name='type' type-id='type-id-174' size-in-bits='320' filepath='src/third_party/boost-1.56.0/boost/smart_ptr/shared_ptr.hpp' line='65' column='1' id='type-id-379'/>
          </member-type>
        </class-decl>
        <class-decl name='sp_element&lt;boost::filesystem::filesystem_error::m_imp&gt;' is-struct='yes' visibility='default' size-in-bits='8' filepath='src/third_party/boost-1.56.0/boost/smart_ptr/shared_ptr.hpp' line='63' column='1' hash='d29a461cd6e034f5' id='type-id-432'>
          <member-type access='public'>
            <typedef-decl name='type' type-id='type-id-188' size-in-bits='192' filepath='src/third_party/boost-1.56.0/boost/smart_ptr/shared_ptr.hpp' line='65' column='1' id='type-id-381'/>
          </member-type>
        </class-decl>
        <class-decl name='sp_member_access&lt;boost::filesystem::detail::dir_itr_imp&gt;' is-struct='yes' visibility='default' size-in-bits='8' filepath='src/third_party/boost-1.56.0/boost/smart_ptr/shared_ptr.hpp' line='137' column='1' hash='a7cb8b508c7d574a' id='type-id-433'>
          <member-type access='public'>
            <typedef-decl name='type' type-id='type-id-176' size-in-bits='64' filepath='src/third_party/boost-1.56.0/boost/smart_ptr/shared_ptr.hpp' line='139' column='1' hash='9e4c6ed13ec05836' id='type-id-380'/>
          </member-type>
        </class-decl>
        <class-decl name='sp_member_access&lt;boost::filesystem::filesystem_error::m_imp&gt;' is-struct='yes' visibility='default' size-in-bits='8' filepath='src/third_party/boost-1.56.0/boost/smart_ptr/shared_ptr.hpp' line='137' column='1' hash='c798715753cb49c8' id='type-id-434'>
          <member-type access='public'>
            <typedef-decl name='type' type-id='type-id-190' size-in-bits='64' filepath='src/third_party/boost-1.56.0/boost/smart_ptr/shared_ptr.hpp' line='139' column='1' hash='d16cc64bab66b9f1' id='type-id-382'/>
          </member-type>
        </class-decl>
        <class-decl name='sp_nothrow_tag' is-struct='yes' visibility='default' size-in-bits='8' filepath='src/third_party/boost-1.56.0/boost/smart_ptr/detail/shared_count.hpp' line='60' column='1' hash='ec8d908a0f47ed49' id='type-id-435'/>
        <class-decl name='operator_brackets_proxy&lt;boost::filesystem::directory_iterator&gt;' visibility='default' is-declaration-only='yes' id='type-id-411'/>
        <class-decl name='operator_brackets_proxy&lt;boost::filesystem::path::iterator&gt;' visibility='default' is-declaration-only='yes' id='type-id-413'/>
        <typedef-decl name='sp_typeinfo' type-id='type-id-385' filepath='src/third_party/boost-1.56.0/boost/detail/sp_typeinfo.hpp' line='28' column='1' id='type-id-317'/>
        <function-decl name='atomic_exchange_and_add' mangled-name='_ZN5boost6detail23atomic_exchange_and_addEPii' filepath='src/third_party/boost-1.56.0/boost/smart_ptr/detail/sp_counted_base_gcc_x86.hpp' line='35' column='1' visibility='default' binding='global' size-in-bits='64' elf-symbol-id='_ZN5boost6detail23atomic_exchange_and_addEPii' hash='d5a833aba721ca51'>
          <parameter type-id='type-id-302' filepath='src/third_party/boost-1.56.0/boost/smart_ptr/detail/sp_counted_base_gcc_x86.hpp' line='35' column='1'/>
          <parameter type-id='type-id-8' filepath='src/third_party/boost-1.56.0/boost/smart_ptr/detail/sp_counted_base_gcc_x86.hpp' line='35' column='1'/>
          <return type-id='type-id-8'/>
        </function-decl>
        <function-decl name='sp_enable_shared_from_this' mangled-name='_ZN5boost6detail26sp_enable_shared_from_thisEz' filepath='src/third_party/boost-1.56.0/boost/smart_ptr/shared_ptr.hpp' line='228' column='1' visibility='default' binding='global' size-in-bits='64' elf-symbol-id='_ZN5boost6detail26sp_enable_shared_from_thisEz' hash='7f32ffea222edbe7'>
          <parameter is-variadic='yes'/>
          <return type-id='type-id-119'/>
        </function-decl>
        <function-decl name='sp_pointer_construct&lt;boost::filesystem::detail::dir_itr_imp, boost::filesystem::detail::dir_itr_imp&gt;' mangled-name='_ZN5boost6detail20sp_pointer_constructINS_10filesystem6detail11dir_itr_impES4_EEvPNS_10shared_ptrIT_EEPT0_RNS0_12shared_countE' filepath='src/third_party/boost-1.56.0/boost/smart_ptr/shared_ptr.hpp' line='269' column='1' visibility='default' binding='global' size-in-bits='64' elf-symbol-id='_ZN5boost6detail20sp_pointer_constructINS_10filesystem6detail11dir_itr_impES4_EEvPNS_10shared_ptrIT_EEPT0_RNS0_12shared_countE' hash='384c521db19f0fb5'>
          <parameter type-id='type-id-212' filepath='src/third_party/boost-1.56.0/boost/smart_ptr/shared_ptr.hpp' line='269' column='1'/>
          <parameter type-id='type-id-176' filepath='src/third_party/boost-1.56.0/boost/smart_ptr/shared_ptr.hpp' line='269' column='1'/>
          <parameter type-id='type-id-158' filepath='src/third_party/boost-1.56.0/boost/smart_ptr/shared_ptr.hpp' line='269' column='1'/>
          <return type-id='type-id-119'/>
        </function-decl>
        <function-decl name='sp_pointer_construct&lt;boost::filesystem::filesystem_error::m_imp, boost::filesystem::filesystem_error::m_imp&gt;' mangled-name='_ZN5boost6detail20sp_pointer_constructINS_10filesystem16filesystem_error5m_impES4_EEvPNS_10shared_ptrIT_EEPT0_RNS0_12shared_countE' filepath='src/third_party/boost-1.56.0/boost/smart_ptr/shared_ptr.hpp' line='269' column='1' visibility='default' binding='global' size-in-bits='64' elf-symbol-id='_ZN5boost6detail20sp_pointer_constructINS_10filesystem16filesystem_error5m_impES4_EEvPNS_10shared_ptrIT_EEPT0_RNS0_12shared_countE' hash='656ff8ac5467f0ae'>
          <parameter type-id='type-id-218' filepath='src/third_party/boost-1.56.0/boost/smart_ptr/shared_ptr.hpp' line='269' column='1'/>
          <parameter type-id='type-id-190' filepath='src/third_party/boost-1.56.0/boost/smart_ptr/shared_ptr.hpp' line='269' column='1'/>
          <parameter type-id='type-id-158' filepath='src/third_party/boost-1.56.0/boost/smart_ptr/shared_ptr.hpp' line='269' column='1'/>
          <return type-id='type-id-119'/>
        </function-decl>
      </namespace-decl>
    </namespace-decl>
    <namespace-decl name='mpl_'>
      <class-decl name='bool_&lt;true&gt;' is-struct='yes' visibility='default' size-in-bits='8' filepath='src/third_party/boost-1.56.0/boost/mpl/bool.hpp' line='23' column='1' hash='d9328a5fcc474fb2' id='type-id-282'/>
      <typedef-decl name='true_' type-id='type-id-282' size-in-bits='8' filepath='src/third_party/boost-1.56.0/boost/mpl/bool_fwd.hpp' line='24' column='1' id='type-id-371'/>
    </namespace-decl>
    <function-type method-class-id='type-id-364' size-in-bits='64' hash='52964de53fd173e9' id='type-id-436'>
      <parameter type-id='type-id-365' is-artificial='yes'/>
      <parameter type-id='type-id-100' filepath='/usr/bin/../lib/gcc/x86_64-linux-gnu/4.9/../../../../include/c++/4.9/bits/basic_string.h' line='1061' column='1'/>
      <parameter type-id='type-id-100' filepath='/usr/bin/../lib/gcc/x86_64-linux-gnu/4.9/../../../../include/c++/4.9/bits/basic_string.h' line='1061' column='1'/>
      <return type-id='type-id-366'/>
    </function-type>
  </abi-instr>
  <abi-instr address-size='64' path='src/third_party/boost-1.56.0/libs/filesystem/src/path.cpp' comp-dir-path='/home/andrew/Documents/10gen/dev/src/mongodb' language='LANG_C_plus_plus'>
    <reference-type-def kind='lvalue' type-id='type-id-437' size-in-bits='64' hash='4e43ae35d3b98dda' id='type-id-438'/>
    <pointer-type-def type-id='type-id-437' size-in-bits='64' hash='067489684dd52907' id='type-id-439'/>
    <reference-type-def kind='lvalue' type-id='type-id-440' size-in-bits='64' hash='95dc664d91f47c32' id='type-id-441'/>
    <pointer-type-def type-id='type-id-440' size-in-bits='64' hash='b525d6ed80dfd65b' id='type-id-442'/>
    <reference-type-def kind='lvalue' type-id='type-id-443' size-in-bits='64' hash='3fe5c22fccb977a4' id='type-id-444'/>
    <pointer-type-def type-id='type-id-443' size-in-bits='64' hash='fb2639733acedf9f' id='type-id-445'/>
    <qualified-type-def type-id='type-id-437' const='yes' hash='64f330d714e76398' id='type-id-446'/>
    <pointer-type-def type-id='type-id-446' size-in-bits='64' hash='a29e52e4301a82d4' id='type-id-447'/>
    <qualified-type-def type-id='type-id-440' const='yes' hash='f00bccd8bc2ce391' id='type-id-448'/>
    <pointer-type-def type-id='type-id-448' size-in-bits='64' hash='2e62d7ce2054dd39' id='type-id-449'/>
    <qualified-type-def type-id='type-id-443' const='yes' hash='e0a3a1a253dc837a' id='type-id-450'/>
    <reference-type-def kind='lvalue' type-id='type-id-450' size-in-bits='64' hash='490e7d864c8172ea' id='type-id-451'/>
    <pointer-type-def type-id='type-id-450' size-in-bits='64' hash='89c70a5ca2481056' id='type-id-452'/>
    <reference-type-def kind='lvalue' type-id='type-id-71' size-in-bits='64' hash='78bf127c69ae91c1' id='type-id-453'/>
    <qualified-type-def type-id='type-id-18' const='yes' hash='ec42cf78a9d93a8c' id='type-id-454'/>
    <reference-type-def kind='lvalue' type-id='type-id-454' size-in-bits='64' hash='99be3ab0d9b2fe43' id='type-id-455'/>
    <qualified-type-def type-id='type-id-456' const='yes' hash='0d301f00e830e5eb' id='type-id-457'/>
    <reference-type-def kind='lvalue' type-id='type-id-457' size-in-bits='64' hash='d98a60be7234f7c8' id='type-id-458'/>
    <pointer-type-def type-id='type-id-457' size-in-bits='64' hash='f4903706bce76c85' id='type-id-459'/>
    <qualified-type-def type-id='type-id-460' const='yes' hash='9c3f1503b45b0328' id='type-id-461'/>
    <reference-type-def kind='lvalue' type-id='type-id-461' size-in-bits='64' hash='00b5256d58d8bd92' id='type-id-462'/>
    <reference-type-def kind='lvalue' type-id='type-id-456' size-in-bits='64' hash='75929b1513585467' id='type-id-463'/>
    <pointer-type-def type-id='type-id-456' size-in-bits='64' hash='4cef840ef4725ab6' id='type-id-464'/>
    <pointer-type-def type-id='type-id-465' size-in-bits='64' id='type-id-466'/>
    <qualified-type-def type-id='type-id-466' restrict='yes' id='type-id-467'/>
    <pointer-type-def type-id='type-id-468' size-in-bits='64' id='type-id-469'/>
    <qualified-type-def type-id='type-id-469' restrict='yes' id='type-id-470'/>
    <qualified-type-def type-id='type-id-387' const='yes' id='type-id-471'/>
    <qualified-type-def type-id='type-id-391' const='yes' id='type-id-472'/>
    <qualified-type-def type-id='type-id-473' const='yes' id='type-id-474'/>
    <qualified-type-def type-id='type-id-475' const='yes' id='type-id-476'/>
    <qualified-type-def type-id='type-id-392' const='yes' id='type-id-477'/>
    <qualified-type-def type-id='type-id-392' const='yes' id='type-id-478'/>
    <qualified-type-def type-id='type-id-479' const='yes' id='type-id-480'/>
    <qualified-type-def type-id='type-id-481' const='yes' id='type-id-482'/>
    <pointer-type-def type-id='type-id-483' size-in-bits='64' id='type-id-484'/>
    <pointer-type-def type-id='type-id-392' size-in-bits='64' id='type-id-123'/>
    <class-decl name='_IO_FILE' is-struct='yes' visibility='default' is-declaration-only='yes' id='type-id-485'/>
    <class-decl name='lconv' is-struct='yes' visibility='default' is-declaration-only='yes' id='type-id-483'/>
    <qualified-type-def type-id='type-id-14' restrict='yes' id='type-id-486'/>
    <qualified-type-def type-id='type-id-14' restrict='yes' id='type-id-487'/>
    <namespace-decl name='__gnu_cxx'>
      <class-decl name='__normal_iterator&lt;char *, std::basic_string&lt;char&gt; &gt;' visibility='default' size-in-bits='64' filepath='/usr/bin/../lib/gcc/x86_64-linux-gnu/4.9/../../../../include/c++/4.9/bits/stl_iterator.h' line='709' column='1' hash='86a0fa6450df831c' id='type-id-437'>
        <member-type access='private'>
          <typedef-decl name='difference_type' type-id='type-id-354' size-in-bits='64' filepath='/usr/bin/../lib/gcc/x86_64-linux-gnu/4.9/../../../../include/c++/4.9/bits/stl_iterator.h' line='720' column='1' hash='b119fe0931d2ee10' id='type-id-488'/>
        </member-type>
        <member-type access='private'>
          <typedef-decl name='pointer' type-id='type-id-358' size-in-bits='64' filepath='/usr/bin/../lib/gcc/x86_64-linux-gnu/4.9/../../../../include/c++/4.9/bits/stl_iterator.h' line='722' column='1' hash='e533f42d1dd4942c' id='type-id-489'/>
        </member-type>
        <member-type access='private'>
          <typedef-decl name='reference' type-id='type-id-359' size-in-bits='64' filepath='/usr/bin/../lib/gcc/x86_64-linux-gnu/4.9/../../../../include/c++/4.9/bits/stl_iterator.h' line='721' column='1' hash='ffc913127619398d' id='type-id-490'/>
        </member-type>
        <data-member access='protected' layout-offset-in-bits='0'>
          <var-decl name='_M_current' type-id='type-id-53' visibility='default' filepath='/usr/bin/../lib/gcc/x86_64-linux-gnu/4.9/../../../../include/c++/4.9/bits/stl_iterator.h' line='712' column='1'/>
        </data-member>
        <member-function access='public' const='yes'>
          <function-decl name='operator-' mangled-name='_ZNK9__gnu_cxx17__normal_iteratorIPcSsEmiEl' filepath='/usr/bin/../lib/gcc/x86_64-linux-gnu/4.9/../../../../include/c++/4.9/bits/stl_iterator.h' line='789' column='1' visibility='default' binding='global' size-in-bits='64' elf-symbol-id='_ZNK9__gnu_cxx17__normal_iteratorIPcSsEmiEl' hash='52c0efb08d2aa513'>
            <parameter type-id='type-id-447' is-artificial='yes'/>
            <parameter type-id='type-id-488'/>
            <return type-id='type-id-437'/>
          </function-decl>
        </member-function>
        <member-function access='public' const='yes'>
          <function-decl name='operator*' mangled-name='_ZNK9__gnu_cxx17__normal_iteratorIPcSsEdeEv' filepath='/usr/bin/../lib/gcc/x86_64-linux-gnu/4.9/../../../../include/c++/4.9/bits/stl_iterator.h' line='741' column='1' visibility='default' binding='global' size-in-bits='64' elf-symbol-id='_ZNK9__gnu_cxx17__normal_iteratorIPcSsEdeEv' hash='9f9a1c2f47a561c3'>
            <parameter type-id='type-id-447' is-artificial='yes'/>
            <return type-id='type-id-490'/>
          </function-decl>
        </member-function>
        <member-function access='public'>
          <function-decl name='__normal_iterator' mangled-name='_ZN9__gnu_cxx17__normal_iteratorIPcSsEC2ERKS1_' filepath='/usr/bin/../lib/gcc/x86_64-linux-gnu/4.9/../../../../include/c++/4.9/bits/stl_iterator.h' line='728' column='1' visibility='default' binding='global' size-in-bits='64' elf-symbol-id='_ZN9__gnu_cxx17__normal_iteratorIPcSsEC2ERKS1_' hash='1d97c1e7f5b953b1'>
            <parameter type-id='type-id-439' is-artificial='yes'/>
            <parameter type-id='type-id-226'/>
            <return type-id='type-id-119'/>
          </function-decl>
        </member-function>
      </class-decl>
      <class-decl name='__normal_iterator&lt;const char *, std::basic_string&lt;char&gt; &gt;' visibility='default' size-in-bits='64' filepath='/usr/bin/../lib/gcc/x86_64-linux-gnu/4.9/../../../../include/c++/4.9/bits/stl_iterator.h' line='709' column='1' hash='cc045b8f28462e3e' id='type-id-440'>
        <member-type access='private'>
          <typedef-decl name='difference_type' type-id='type-id-492' size-in-bits='64' filepath='/usr/bin/../lib/gcc/x86_64-linux-gnu/4.9/../../../../include/c++/4.9/bits/stl_iterator.h' line='720' column='1' hash='b119fe0931d2ee10' id='type-id-491'/>
        </member-type>
        <member-type access='private'>
          <typedef-decl name='pointer' type-id='type-id-494' size-in-bits='64' filepath='/usr/bin/../lib/gcc/x86_64-linux-gnu/4.9/../../../../include/c++/4.9/bits/stl_iterator.h' line='722' column='1' hash='c44743f354f6a443' id='type-id-493'/>
        </member-type>
        <member-type access='private'>
          <typedef-decl name='reference' type-id='type-id-496' size-in-bits='64' filepath='/usr/bin/../lib/gcc/x86_64-linux-gnu/4.9/../../../../include/c++/4.9/bits/stl_iterator.h' line='721' column='1' hash='78bf127c69ae91c1' id='type-id-495'/>
        </member-type>
        <data-member access='protected' layout-offset-in-bits='0'>
          <var-decl name='_M_current' type-id='type-id-18' visibility='default' filepath='/usr/bin/../lib/gcc/x86_64-linux-gnu/4.9/../../../../include/c++/4.9/bits/stl_iterator.h' line='712' column='1'/>
        </data-member>
        <member-function access='public' const='yes'>
          <function-decl name='operator*' mangled-name='_ZNK9__gnu_cxx17__normal_iteratorIPKcSsEdeEv' filepath='/usr/bin/../lib/gcc/x86_64-linux-gnu/4.9/../../../../include/c++/4.9/bits/stl_iterator.h' line='741' column='1' visibility='default' binding='global' size-in-bits='64' elf-symbol-id='_ZNK9__gnu_cxx17__normal_iteratorIPKcSsEdeEv' hash='0aa254a036113035'>
            <parameter type-id='type-id-449' is-artificial='yes'/>
            <return type-id='type-id-495'/>
          </function-decl>
        </member-function>
        <member-function access='public' const='yes'>
          <function-decl name='operator-' mangled-name='_ZNK9__gnu_cxx17__normal_iteratorIPKcSsEmiEl' filepath='/usr/bin/../lib/gcc/x86_64-linux-gnu/4.9/../../../../include/c++/4.9/bits/stl_iterator.h' line='789' column='1' visibility='default' binding='global' size-in-bits='64' elf-symbol-id='_ZNK9__gnu_cxx17__normal_iteratorIPKcSsEmiEl' hash='52c0efb08d2aa513'>
            <parameter type-id='type-id-449' is-artificial='yes'/>
            <parameter type-id='type-id-491'/>
            <return type-id='type-id-440'/>
          </function-decl>
        </member-function>
        <member-function access='public'>
          <function-decl name='__normal_iterator' mangled-name='_ZN9__gnu_cxx17__normal_iteratorIPKcSsEC2ERKS2_' filepath='/usr/bin/../lib/gcc/x86_64-linux-gnu/4.9/../../../../include/c++/4.9/bits/stl_iterator.h' line='728' column='1' visibility='default' binding='global' size-in-bits='64' elf-symbol-id='_ZN9__gnu_cxx17__normal_iteratorIPKcSsEC2ERKS2_' hash='b1603547bc97e161'>
            <parameter type-id='type-id-442' is-artificial='yes'/>
            <parameter type-id='type-id-455'/>
            <return type-id='type-id-119'/>
          </function-decl>
        </member-function>
      </class-decl>
      <class-decl name='__enable_if&lt;true, bool&gt;' is-struct='yes' visibility='default' size-in-bits='8' filepath='/usr/bin/../lib/gcc/x86_64-linux-gnu/4.9/../../../../include/c++/4.9/ext/type_traits.h' line='47' column='1' hash='12afe874787f095c' id='type-id-497'>
        <member-type access='public'>
          <typedef-decl name='__type' type-id='type-id-1' size-in-bits='8' filepath='/usr/bin/../lib/gcc/x86_64-linux-gnu/4.9/../../../../include/c++/4.9/ext/type_traits.h' line='48' column='1' hash='5ba96bb22f4237fb' id='type-id-498'/>
        </member-type>
      </class-decl>
      <function-decl name='__is_null_pointer&lt;const char&gt;' mangled-name='_ZN9__gnu_cxx17__is_null_pointerIKcEEbPT_' filepath='/usr/bin/../lib/gcc/x86_64-linux-gnu/4.9/../../../../include/c++/4.9/ext/type_traits.h' line='150' column='1' visibility='default' binding='global' size-in-bits='64' elf-symbol-id='_ZN9__gnu_cxx17__is_null_pointerIKcEEbPT_' hash='19a1d02fa5635f5c'>
        <parameter type-id='type-id-18' filepath='/usr/bin/../lib/gcc/x86_64-linux-gnu/4.9/../../../../include/c++/4.9/ext/type_traits.h' line='150' column='1'/>
        <return type-id='type-id-1'/>
      </function-decl>
    </namespace-decl>
    <namespace-decl name='std'>
      <class-decl name='char_traits&lt;char&gt;' is-struct='yes' visibility='default' size-in-bits='8' filepath='/usr/bin/../lib/gcc/x86_64-linux-gnu/4.9/../../../../include/c++/4.9/bits/char_traits.h' line='233' column='1' hash='fc88b5d70352b916' id='type-id-499'>
        <member-type access='public'>
          <typedef-decl name='char_type' type-id='type-id-2' size-in-bits='8' filepath='/usr/bin/../lib/gcc/x86_64-linux-gnu/4.9/../../../../include/c++/4.9/bits/char_traits.h' line='235' column='1' hash='65b2d157027b431a' id='type-id-456'/>
        </member-type>
        <member-type access='public'>
          <typedef-decl name='int_type' type-id='type-id-8' size-in-bits='32' filepath='/usr/bin/../lib/gcc/x86_64-linux-gnu/4.9/../../../../include/c++/4.9/bits/char_traits.h' line='236' column='1' hash='09d17c08f594edc7' id='type-id-460'/>
        </member-type>
        <member-function access='public' static='yes'>
          <function-decl name='compare' mangled-name='_ZNSt11char_traitsIcE7compareEPKcS2_m' filepath='/usr/bin/../lib/gcc/x86_64-linux-gnu/4.9/../../../../include/c++/4.9/bits/char_traits.h' line='258' column='1' visibility='default' binding='global' size-in-bits='64' elf-symbol-id='_ZNSt11char_traitsIcE7compareEPKcS2_m' hash='609dbfe42ca73872'>
            <parameter type-id='type-id-459'/>
            <parameter type-id='type-id-459'/>
            <parameter type-id='type-id-349'/>
            <return type-id='type-id-8'/>
          </function-decl>
        </member-function>
      </class-decl>
      <class-decl name='iterator_traits&lt;const char *&gt;' is-struct='yes' visibility='default' size-in-bits='8' filepath='/usr/bin/../lib/gcc/x86_64-linux-gnu/4.9/../../../../include/c++/4.9/bits/stl_iterator_base_types.h' line='186' column='1' hash='db99a35d8b6472ba' id='type-id-500'>
        <member-type access='public'>
          <typedef-decl name='difference_type' type-id='type-id-355' size-in-bits='64' filepath='/usr/bin/../lib/gcc/x86_64-linux-gnu/4.9/../../../../include/c++/4.9/bits/stl_iterator_base_types.h' line='190' column='1' hash='b119fe0931d2ee10' id='type-id-492'/>
        </member-type>
        <member-type access='public'>
          <typedef-decl name='iterator_category' type-id='type-id-357' size-in-bits='8' filepath='/usr/bin/../lib/gcc/x86_64-linux-gnu/4.9/../../../../include/c++/4.9/bits/stl_iterator_base_types.h' line='188' column='1' id='type-id-501'/>
        </member-type>
        <member-type access='public'>
          <typedef-decl name='pointer' type-id='type-id-18' size-in-bits='64' filepath='/usr/bin/../lib/gcc/x86_64-linux-gnu/4.9/../../../../include/c++/4.9/bits/stl_iterator_base_types.h' line='191' column='1' hash='c44743f354f6a443' id='type-id-494'/>
        </member-type>
        <member-type access='public'>
          <typedef-decl name='reference' type-id='type-id-453' size-in-bits='64' filepath='/usr/bin/../lib/gcc/x86_64-linux-gnu/4.9/../../../../include/c++/4.9/bits/stl_iterator_base_types.h' line='192' column='1' hash='78bf127c69ae91c1' id='type-id-496'/>
        </member-type>
      </class-decl>
      <class-decl name='allocator&lt;char&gt;' visibility='default' is-declaration-only='yes' id='type-id-475'>
      </class-decl>
      <class-decl name='basic_string&lt;char, std::char_traits&lt;char&gt;, std::allocator&lt;char&gt; &gt;' visibility='default' is-declaration-only='yes' id='type-id-392'>
        <member-function access='public'>
          <function-decl name='basic_string&lt;const char *&gt;' mangled-name='_ZNSsC2IPKcEET_S2_RKSaIcE' filepath='/usr/bin/../lib/gcc/x86_64-linux-gnu/4.9/../../../../include/c++/4.9/bits/basic_string.h' line='540' column='1' visibility='default' binding='global' size-in-bits='64' elf-symbol-id='_ZNSsC2IPKcEET_S2_RKSaIcE' hash='3d5693612af11c46'>
            <parameter type-id='type-id-123' is-artificial='yes'/>
            <parameter type-id='type-id-18' filepath='/usr/bin/../lib/gcc/x86_64-linux-gnu/4.9/../../../../include/c++/4.9/bits/basic_string.tcc' line='540' column='1'/>
            <parameter type-id='type-id-18' filepath='/usr/bin/../lib/gcc/x86_64-linux-gnu/4.9/../../../../include/c++/4.9/bits/basic_string.tcc' line='540' column='1'/>
            <parameter type-id='type-id-118' filepath='/usr/bin/../lib/gcc/x86_64-linux-gnu/4.9/../../../../include/c++/4.9/bits/basic_string.tcc' line='541' column='1'/>
            <return type-id='type-id-119'/>
          </function-decl>
        </member-function>
        <member-function access='private' static='yes'>
          <function-decl name='_S_construct&lt;const char *&gt;' mangled-name='_ZNSs12_S_constructIPKcEEPcT_S3_RKSaIcE' filepath='/usr/bin/../lib/gcc/x86_64-linux-gnu/4.9/../../../../include/c++/4.9/bits/basic_string.h' line='1761' column='1' visibility='default' binding='global' size-in-bits='64' elf-symbol-id='_ZNSs12_S_constructIPKcEEPcT_S3_RKSaIcE' hash='21babdbcb7a34ebe'>
            <parameter type-id='type-id-18' filepath='/usr/bin/../lib/gcc/x86_64-linux-gnu/4.9/../../../../include/c++/4.9/bits/basic_string.h' line='1761' column='1'/>
            <parameter type-id='type-id-18' filepath='/usr/bin/../lib/gcc/x86_64-linux-gnu/4.9/../../../../include/c++/4.9/bits/basic_string.h' line='1761' column='1'/>
            <parameter type-id='type-id-118' filepath='/usr/bin/../lib/gcc/x86_64-linux-gnu/4.9/../../../../include/c++/4.9/bits/basic_string.h' line='1761' column='1'/>
            <return type-id='type-id-53'/>
          </function-decl>
        </member-function>
        <member-function access='private' static='yes'>
          <function-decl name='_S_construct_aux&lt;const char *&gt;' mangled-name='_ZNSs16_S_construct_auxIPKcEEPcT_S3_RKSaIcESt12__false_type' filepath='/usr/bin/../lib/gcc/x86_64-linux-gnu/4.9/../../../../include/c++/4.9/bits/basic_string.h' line='1739' column='1' visibility='default' binding='global' size-in-bits='64' elf-symbol-id='_ZNSs16_S_construct_auxIPKcEEPcT_S3_RKSaIcESt12__false_type' hash='21babdbcb7a34ebe'>
            <parameter type-id='type-id-18' filepath='/usr/bin/../lib/gcc/x86_64-linux-gnu/4.9/../../../../include/c++/4.9/bits/basic_string.h' line='1739' column='1'/>
            <parameter type-id='type-id-18' filepath='/usr/bin/../lib/gcc/x86_64-linux-gnu/4.9/../../../../include/c++/4.9/bits/basic_string.h' line='1739' column='1'/>
            <parameter type-id='type-id-118' filepath='/usr/bin/../lib/gcc/x86_64-linux-gnu/4.9/../../../../include/c++/4.9/bits/basic_string.h' line='1740' column='1'/>
            <parameter type-id='type-id-121' filepath='/usr/bin/../lib/gcc/x86_64-linux-gnu/4.9/../../../../include/c++/4.9/bits/basic_string.h' line='1740' column='1'/>
            <return type-id='type-id-53'/>
          </function-decl>
        </member-function>
        <member-function access='private' static='yes'>
          <function-decl name='_S_construct&lt;const char *&gt;' mangled-name='_ZNSs12_S_constructIPKcEEPcT_S3_RKSaIcESt20forward_iterator_tag' filepath='/usr/bin/../lib/gcc/x86_64-linux-gnu/4.9/../../../../include/c++/4.9/bits/basic_string.h' line='1777' column='1' visibility='default' binding='global' size-in-bits='64' elf-symbol-id='_ZNSs12_S_constructIPKcEEPcT_S3_RKSaIcESt20forward_iterator_tag' hash='21babdbcb7a34ebe'>
            <parameter type-id='type-id-18' filepath='/usr/bin/../lib/gcc/x86_64-linux-gnu/4.9/../../../../include/c++/4.9/bits/basic_string.tcc' line='1777' column='1'/>
            <parameter type-id='type-id-18' filepath='/usr/bin/../lib/gcc/x86_64-linux-gnu/4.9/../../../../include/c++/4.9/bits/basic_string.tcc' line='1777' column='1'/>
            <parameter type-id='type-id-118' filepath='/usr/bin/../lib/gcc/x86_64-linux-gnu/4.9/../../../../include/c++/4.9/bits/basic_string.tcc' line='1777' column='1'/>
            <parameter type-id='type-id-122' filepath='/usr/bin/../lib/gcc/x86_64-linux-gnu/4.9/../../../../include/c++/4.9/bits/basic_string.tcc' line='1778' column='1'/>
            <return type-id='type-id-53'/>
          </function-decl>
        </member-function>
        <member-function access='public'>
          <function-decl name='basic_string&lt;char *&gt;' mangled-name='_ZNSsC2IPcEET_S1_RKSaIcE' filepath='/usr/bin/../lib/gcc/x86_64-linux-gnu/4.9/../../../../include/c++/4.9/bits/basic_string.h' line='540' column='1' visibility='default' binding='global' size-in-bits='64' elf-symbol-id='_ZNSsC2IPcEET_S1_RKSaIcE' hash='6faa8831d3af3ad4'>
            <parameter type-id='type-id-117' is-artificial='yes'/>
            <parameter type-id='type-id-53' filepath='/usr/bin/../lib/gcc/x86_64-linux-gnu/4.9/../../../../include/c++/4.9/bits/basic_string.tcc' line='540' column='1'/>
            <parameter type-id='type-id-53' filepath='/usr/bin/../lib/gcc/x86_64-linux-gnu/4.9/../../../../include/c++/4.9/bits/basic_string.tcc' line='540' column='1'/>
            <parameter type-id='type-id-118' filepath='/usr/bin/../lib/gcc/x86_64-linux-gnu/4.9/../../../../include/c++/4.9/bits/basic_string.tcc' line='541' column='1'/>
            <return type-id='type-id-119'/>
          </function-decl>
        </member-function>
        <member-function access='public'>
          <function-decl name='append&lt;const char *&gt;' mangled-name='_ZNSs6appendIPKcEERSsT_S3_' filepath='/usr/bin/../lib/gcc/x86_64-linux-gnu/4.9/../../../../include/c++/4.9/bits/basic_string.h' line='1061' column='1' visibility='default' binding='global' size-in-bits='64' elf-symbol-id='_ZNSs6appendIPKcEERSsT_S3_' hash='3d5693612af11c46'>
            <parameter type-id='type-id-117' is-artificial='yes'/>
            <parameter type-id='type-id-18' filepath='/usr/bin/../lib/gcc/x86_64-linux-gnu/4.9/../../../../include/c++/4.9/bits/basic_string.h' line='1061' column='1'/>
            <parameter type-id='type-id-18' filepath='/usr/bin/../lib/gcc/x86_64-linux-gnu/4.9/../../../../include/c++/4.9/bits/basic_string.h' line='1061' column='1'/>
            <return type-id='type-id-120'/>
          </function-decl>
        </member-function>
        <member-function access='private' static='yes'>
          <function-decl name='_S_construct&lt;char *&gt;' mangled-name='_ZNSs12_S_constructIPcEES0_T_S1_RKSaIcE' filepath='/usr/bin/../lib/gcc/x86_64-linux-gnu/4.9/../../../../include/c++/4.9/bits/basic_string.h' line='1761' column='1' visibility='default' binding='global' size-in-bits='64' elf-symbol-id='_ZNSs12_S_constructIPcEES0_T_S1_RKSaIcE' hash='9895045035709c6f'>
            <parameter type-id='type-id-53' filepath='/usr/bin/../lib/gcc/x86_64-linux-gnu/4.9/../../../../include/c++/4.9/bits/basic_string.h' line='1761' column='1'/>
            <parameter type-id='type-id-53' filepath='/usr/bin/../lib/gcc/x86_64-linux-gnu/4.9/../../../../include/c++/4.9/bits/basic_string.h' line='1761' column='1'/>
            <parameter type-id='type-id-118' filepath='/usr/bin/../lib/gcc/x86_64-linux-gnu/4.9/../../../../include/c++/4.9/bits/basic_string.h' line='1761' column='1'/>
            <return type-id='type-id-53'/>
          </function-decl>
        </member-function>
        <member-function access='private' static='yes'>
          <function-decl name='_S_construct_aux&lt;char *&gt;' mangled-name='_ZNSs16_S_construct_auxIPcEES0_T_S1_RKSaIcESt12__false_type' filepath='/usr/bin/../lib/gcc/x86_64-linux-gnu/4.9/../../../../include/c++/4.9/bits/basic_string.h' line='1739' column='1' visibility='default' binding='global' size-in-bits='64' elf-symbol-id='_ZNSs16_S_construct_auxIPcEES0_T_S1_RKSaIcESt12__false_type' hash='9895045035709c6f'>
            <parameter type-id='type-id-53' filepath='/usr/bin/../lib/gcc/x86_64-linux-gnu/4.9/../../../../include/c++/4.9/bits/basic_string.h' line='1739' column='1'/>
            <parameter type-id='type-id-53' filepath='/usr/bin/../lib/gcc/x86_64-linux-gnu/4.9/../../../../include/c++/4.9/bits/basic_string.h' line='1739' column='1'/>
            <parameter type-id='type-id-118' filepath='/usr/bin/../lib/gcc/x86_64-linux-gnu/4.9/../../../../include/c++/4.9/bits/basic_string.h' line='1740' column='1'/>
            <parameter type-id='type-id-121' filepath='/usr/bin/../lib/gcc/x86_64-linux-gnu/4.9/../../../../include/c++/4.9/bits/basic_string.h' line='1740' column='1'/>
            <return type-id='type-id-53'/>
          </function-decl>
        </member-function>
        <member-function access='private' static='yes'>
          <function-decl name='_S_construct&lt;char *&gt;' mangled-name='_ZNSs12_S_constructIPcEES0_T_S1_RKSaIcESt20forward_iterator_tag' filepath='/usr/bin/../lib/gcc/x86_64-linux-gnu/4.9/../../../../include/c++/4.9/bits/basic_string.h' line='1777' column='1' visibility='default' binding='global' size-in-bits='64' elf-symbol-id='_ZNSs12_S_constructIPcEES0_T_S1_RKSaIcESt20forward_iterator_tag' hash='9895045035709c6f'>
            <parameter type-id='type-id-53' filepath='/usr/bin/../lib/gcc/x86_64-linux-gnu/4.9/../../../../include/c++/4.9/bits/basic_string.tcc' line='1777' column='1'/>
            <parameter type-id='type-id-53' filepath='/usr/bin/../lib/gcc/x86_64-linux-gnu/4.9/../../../../include/c++/4.9/bits/basic_string.tcc' line='1777' column='1'/>
            <parameter type-id='type-id-118' filepath='/usr/bin/../lib/gcc/x86_64-linux-gnu/4.9/../../../../include/c++/4.9/bits/basic_string.tcc' line='1777' column='1'/>
            <parameter type-id='type-id-122' filepath='/usr/bin/../lib/gcc/x86_64-linux-gnu/4.9/../../../../include/c++/4.9/bits/basic_string.tcc' line='1778' column='1'/>
            <return type-id='type-id-53'/>
          </function-decl>
        </member-function>
        <member-function access='public'>
          <function-decl name='append&lt;char *&gt;' mangled-name='_ZNSs6appendIPcEERSsT_S2_' filepath='/usr/bin/../lib/gcc/x86_64-linux-gnu/4.9/../../../../include/c++/4.9/bits/basic_string.h' line='1061' column='1' visibility='default' binding='global' size-in-bits='64' elf-symbol-id='_ZNSs6appendIPcEERSsT_S2_' hash='6faa8831d3af3ad4'>
            <parameter type-id='type-id-124' is-artificial='yes'/>
            <parameter type-id='type-id-53' filepath='/usr/bin/../lib/gcc/x86_64-linux-gnu/4.9/../../../../include/c++/4.9/bits/basic_string.h' line='1061' column='1'/>
            <parameter type-id='type-id-53' filepath='/usr/bin/../lib/gcc/x86_64-linux-gnu/4.9/../../../../include/c++/4.9/bits/basic_string.h' line='1061' column='1'/>
            <return type-id='type-id-120'/>
          </function-decl>
        </member-function>
      </class-decl>
      <class-decl name='basic_string&lt;wchar_t, std::char_traits&lt;wchar_t&gt;, std::allocator&lt;wchar_t&gt; &gt;' visibility='default' is-declaration-only='yes' id='type-id-502'>
        <member-function access='public'>
          <function-decl name='append&lt;wchar_t *&gt;' mangled-name='_ZNSbIwSt11char_traitsIwESaIwEE6appendIPwEERS2_T_S6_' filepath='/usr/bin/../lib/gcc/x86_64-linux-gnu/4.9/../../../../include/c++/4.9/bits/basic_string.h' line='1061' column='1' visibility='default' binding='global' size-in-bits='64' elf-symbol-id='_ZNSbIwSt11char_traitsIwESaIwEE6appendIPwEERS2_T_S6_' hash='52964de53fd173e9'>
            <parameter type-id='type-id-365' is-artificial='yes'/>
            <parameter type-id='type-id-100' filepath='/usr/bin/../lib/gcc/x86_64-linux-gnu/4.9/../../../../include/c++/4.9/bits/basic_string.h' line='1061' column='1'/>
            <parameter type-id='type-id-100' filepath='/usr/bin/../lib/gcc/x86_64-linux-gnu/4.9/../../../../include/c++/4.9/bits/basic_string.h' line='1061' column='1'/>
            <return type-id='type-id-366'/>
          </function-decl>
        </member-function>
      </class-decl>
      <class-decl name='codecvt&lt;wchar_t, char, __mbstate_t&gt;' visibility='default' is-declaration-only='yes' id='type-id-388'/>
      <function-decl name='operator==&lt;char&gt;' mangled-name='_ZSteqIcEN9__gnu_cxx11__enable_ifIXsr9__is_charIT_EE7__valueEbE6__typeERKSbIS2_St11char_traitsIS2_ESaIS2_EESA_' filepath='/usr/bin/../lib/gcc/x86_64-linux-gnu/4.9/../../../../include/c++/4.9/bits/basic_string.h' line='2512' column='1' visibility='default' binding='global' size-in-bits='64' elf-symbol-id='_ZSteqIcEN9__gnu_cxx11__enable_ifIXsr9__is_charIT_EE7__valueEbE6__typeERKSbIS2_St11char_traitsIS2_ESaIS2_EESA_' hash='c7c710e908194b91'>
        <parameter type-id='type-id-333' filepath='/usr/bin/../lib/gcc/x86_64-linux-gnu/4.9/../../../../include/c++/4.9/bits/basic_string.h' line='2512' column='1'/>
        <parameter type-id='type-id-333' filepath='/usr/bin/../lib/gcc/x86_64-linux-gnu/4.9/../../../../include/c++/4.9/bits/basic_string.h' line='2513' column='1'/>
        <return type-id='type-id-498'/>
      </function-decl>
      <function-decl name='operator==&lt;char, std::char_traits&lt;char&gt;, std::allocator&lt;char&gt; &gt;' mangled-name='_ZSteqIcSt11char_traitsIcESaIcEEbRKSbIT_T0_T1_EPKS3_' filepath='/usr/bin/../lib/gcc/x86_64-linux-gnu/4.9/../../../../include/c++/4.9/bits/basic_string.h' line='2538' column='1' visibility='default' binding='global' size-in-bits='64' elf-symbol-id='_ZSteqIcSt11char_traitsIcESaIcEEbRKSbIT_T0_T1_EPKS3_' hash='19a1d02fa5635f5c'>
        <parameter type-id='type-id-333' filepath='/usr/bin/../lib/gcc/x86_64-linux-gnu/4.9/../../../../include/c++/4.9/bits/basic_string.h' line='2538' column='1'/>
        <parameter type-id='type-id-18' filepath='/usr/bin/../lib/gcc/x86_64-linux-gnu/4.9/../../../../include/c++/4.9/bits/basic_string.h' line='2539' column='1'/>
        <return type-id='type-id-1'/>
      </function-decl>
      <function-decl name='operator&lt;&lt;char, std::char_traits&lt;char&gt;, std::allocator&lt;char&gt; &gt;' mangled-name='_ZStltIcSt11char_traitsIcESaIcEEbRKSbIT_T0_T1_ES8_' filepath='/usr/bin/../lib/gcc/x86_64-linux-gnu/4.9/../../../../include/c++/4.9/bits/basic_string.h' line='2588' column='1' visibility='default' binding='global' size-in-bits='64' elf-symbol-id='_ZStltIcSt11char_traitsIcESaIcEEbRKSbIT_T0_T1_ES8_' hash='c7c710e908194b91'>
        <parameter type-id='type-id-333' filepath='/usr/bin/../lib/gcc/x86_64-linux-gnu/4.9/../../../../include/c++/4.9/bits/basic_string.h' line='2588' column='1'/>
        <parameter type-id='type-id-333' filepath='/usr/bin/../lib/gcc/x86_64-linux-gnu/4.9/../../../../include/c++/4.9/bits/basic_string.h' line='2589' column='1'/>
        <return type-id='type-id-1'/>
      </function-decl>
      <function-decl name='__distance&lt;const char *&gt;' mangled-name='_ZSt10__distanceIPKcENSt15iterator_traitsIT_E15difference_typeES3_S3_St26random_access_iterator_tag' filepath='/usr/bin/../lib/gcc/x86_64-linux-gnu/4.9/../../../../include/c++/4.9/bits/stl_iterator_base_funcs.h' line='90' column='1' visibility='default' binding='global' size-in-bits='64' elf-symbol-id='_ZSt10__distanceIPKcENSt15iterator_traitsIT_E15difference_typeES3_S3_St26random_access_iterator_tag' hash='4d6816caec6fda1e'>
        <parameter type-id='type-id-18' filepath='/usr/bin/../lib/gcc/x86_64-linux-gnu/4.9/../../../../include/c++/4.9/bits/stl_iterator_base_funcs.h' line='90' column='1'/>
        <parameter type-id='type-id-18' filepath='/usr/bin/../lib/gcc/x86_64-linux-gnu/4.9/../../../../include/c++/4.9/bits/stl_iterator_base_funcs.h' line='90' column='1'/>
        <parameter type-id='type-id-357' filepath='/usr/bin/../lib/gcc/x86_64-linux-gnu/4.9/../../../../include/c++/4.9/bits/stl_iterator_base_funcs.h' line='91' column='1'/>
        <return type-id='type-id-492'/>
      </function-decl>
      <function-decl name='distance&lt;const char *&gt;' mangled-name='_ZSt8distanceIPKcENSt15iterator_traitsIT_E15difference_typeES3_S3_' filepath='/usr/bin/../lib/gcc/x86_64-linux-gnu/4.9/../../../../include/c++/4.9/bits/stl_iterator_base_funcs.h' line='114' column='1' visibility='default' binding='global' size-in-bits='64' elf-symbol-id='_ZSt8distanceIPKcENSt15iterator_traitsIT_E15difference_typeES3_S3_' hash='4d6816caec6fda1e'>
        <parameter type-id='type-id-18' filepath='/usr/bin/../lib/gcc/x86_64-linux-gnu/4.9/../../../../include/c++/4.9/bits/stl_iterator_base_funcs.h' line='114' column='1'/>
        <parameter type-id='type-id-18' filepath='/usr/bin/../lib/gcc/x86_64-linux-gnu/4.9/../../../../include/c++/4.9/bits/stl_iterator_base_funcs.h' line='114' column='1'/>
        <return type-id='type-id-492'/>
      </function-decl>
      <function-decl name='__iterator_category&lt;const char *&gt;' mangled-name='_ZSt19__iterator_categoryIPKcENSt15iterator_traitsIT_E17iterator_categoryERKS3_' filepath='/usr/bin/../lib/gcc/x86_64-linux-gnu/4.9/../../../../include/c++/4.9/bits/stl_iterator_base_types.h' line='201' column='1' visibility='default' binding='global' size-in-bits='64' elf-symbol-id='_ZSt19__iterator_categoryIPKcENSt15iterator_traitsIT_E17iterator_categoryERKS3_' hash='b1603547bc97e161'>
        <parameter type-id='type-id-455' filepath='/usr/bin/../lib/gcc/x86_64-linux-gnu/4.9/../../../../include/c++/4.9/bits/stl_iterator_base_types.h' line='201' column='1'/>
        <return type-id='type-id-501'/>
      </function-decl>
      <typedef-decl name='string' type-id='type-id-392' filepath='/usr/bin/../lib/gcc/x86_64-linux-gnu/4.9/../../../../include/c++/4.9/bits/stringfwd.h' line='62' column='1' id='type-id-479'/>
      <typedef-decl name='wstring' type-id='type-id-502' filepath='/usr/bin/../lib/gcc/x86_64-linux-gnu/4.9/../../../../include/c++/4.9/bits/stringfwd.h' line='68' column='1' id='type-id-481'/>
    </namespace-decl>
    <typedef-decl name='FILE' type-id='type-id-485' filepath='/usr/include/stdio.h' line='48' column='1' id='type-id-465'/>
    <typedef-decl name='__FILE' type-id='type-id-485' filepath='/usr/include/stdio.h' line='64' column='1' id='type-id-468'/>
    <namespace-decl name='boost'>
      <namespace-decl name='filesystem'>
        <namespace-decl name='detail'>
          <function-decl name='lex_compare' mangled-name='_ZN5boost10filesystem6detail11lex_compareENS0_4path8iteratorES3_S3_S3_' filepath='src/third_party/boost-1.56.0/libs/filesystem/src/path.cpp' line='649' column='1' visibility='default' binding='global' size-in-bits='64' elf-symbol-id='_ZN5boost10filesystem6detail11lex_compareENS0_4path8iteratorES3_S3_S3_' hash='388da3fa973fde78'>
            <parameter type-id='type-id-195' filepath='src/third_party/boost-1.56.0/libs/filesystem/src/path.cpp' line='649' column='1'/>
            <parameter type-id='type-id-195' filepath='src/third_party/boost-1.56.0/libs/filesystem/src/path.cpp' line='649' column='1'/>
            <parameter type-id='type-id-195' filepath='src/third_party/boost-1.56.0/libs/filesystem/src/path.cpp' line='650' column='1'/>
            <parameter type-id='type-id-195' filepath='src/third_party/boost-1.56.0/libs/filesystem/src/path.cpp' line='650' column='1'/>
            <return type-id='type-id-8'/>
          </function-decl>
        </namespace-decl>
        <namespace-decl name='path_traits'>
          <typedef-decl name='codecvt_type' type-id='type-id-388' filepath='src/third_party/boost-1.56.0/boost/filesystem/path_traits.hpp' line='52' column='1' id='type-id-473'/>
          <function-decl name='dispatch&lt;std::basic_string&lt;char&gt; &gt;' mangled-name='_ZN5boost10filesystem11path_traits8dispatchISsEEvRKSsRT_RKSt7codecvtIwc11__mbstate_tE' filepath='src/third_party/boost-1.56.0/boost/filesystem/path_traits.hpp' line='171' column='1' visibility='default' binding='global' size-in-bits='64' elf-symbol-id='_ZN5boost10filesystem11path_traits8dispatchISsEEvRKSsRT_RKSt7codecvtIwc11__mbstate_tE' hash='7f32ffea222edbe7'>
            <parameter type-id='type-id-340' filepath='src/third_party/boost-1.56.0/boost/filesystem/path_traits.hpp' line='171' column='1'/>
            <parameter type-id='type-id-120' filepath='src/third_party/boost-1.56.0/boost/filesystem/path_traits.hpp' line='171' column='1'/>
            <parameter type-id='type-id-328' filepath='src/third_party/boost-1.56.0/boost/filesystem/path_traits.hpp' line='171' column='1'/>
            <return type-id='type-id-119'/>
          </function-decl>
        </namespace-decl>
      </namespace-decl>
      <function-decl name='operator==&lt;boost::filesystem::path::iterator, const boost::filesystem::path, boost::bidirectional_traversal_tag, const boost::filesystem::path &amp;, long, boost::filesystem::path::iterator, const boost::filesystem::path, boost::bidirectional_traversal_tag, const boost::filesystem::path &amp;, long&gt;' mangled-name='_ZN5boosteqINS_10filesystem4path8iteratorEKS2_NS_27bidirectional_traversal_tagERS4_lS3_S4_S5_S6_lEENS_6detail23enable_if_interoperableIT_T4_NS_3mpl6apply2INS7_12always_bool2ES9_SA_E4typeEE4typeERKNS_15iterator_facadeIS9_T0_T1_T2_T3_EERKNSI_ISA_T5_T6_T7_T8_EE' filepath='src/third_party/boost-1.56.0/boost/iterator/iterator_facade.hpp' line='832' column='1' visibility='default' binding='global' size-in-bits='64' elf-symbol-id='_ZN5boosteqINS_10filesystem4path8iteratorEKS2_NS_27bidirectional_traversal_tagERS4_lS3_S4_S5_S6_lEENS_6detail23enable_if_interoperableIT_T4_NS_3mpl6apply2INS7_12always_bool2ES9_SA_E4typeEE4typeERKNS_15iterator_facadeIS9_T0_T1_T2_T3_EERKNSI_ISA_T5_T6_T7_T8_EE' hash='176b9533a06a9ac9'>
        <parameter type-id='type-id-267' filepath='src/third_party/boost-1.56.0/boost/iterator/iterator_facade.hpp' line='833' column='1'/>
        <parameter type-id='type-id-267' filepath='src/third_party/boost-1.56.0/boost/iterator/iterator_facade.hpp' line='833' column='1'/>
        <return type-id='type-id-401'/>
      </function-decl>
      <namespace-decl name='system'>
      </namespace-decl>
      <namespace-decl name='detail'>
        <class-decl name='addr_impl_ref&lt;const boost::filesystem::path&gt;' is-struct='yes' visibility='default' size-in-bits='64' filepath='src/third_party/boost-1.56.0/boost/core/addressof.hpp' line='25' column='1' hash='cbc6667b51a33555' id='type-id-443'>
          <data-member access='public' layout-offset-in-bits='0'>
            <var-decl name='v_' type-id='type-id-255' visibility='default' filepath='src/third_party/boost-1.56.0/boost/core/addressof.hpp' line='27' column='1'/>
          </data-member>
        </class-decl>
        <class-decl name='addressof_impl&lt;const boost::filesystem::path&gt;' is-struct='yes' visibility='default' size-in-bits='8' filepath='src/third_party/boost-1.56.0/boost/core/addressof.hpp' line='36' column='1' hash='516767c340501e3c' id='type-id-503'/>
        <class-decl name='operator_brackets_proxy&lt;boost::filesystem::path::iterator&gt;' visibility='default' is-declaration-only='yes' id='type-id-414'/>
      </namespace-decl>
    </namespace-decl>
  </abi-instr>
  <abi-instr address-size='64' path='src/third_party/boost-1.56.0/libs/filesystem/src/path_traits.cpp' comp-dir-path='/home/andrew/Documents/10gen/dev/src/mongodb' language='LANG_C_plus_plus'>
    <reference-type-def kind='lvalue' type-id='type-id-504' size-in-bits='64' hash='40bf5a0a5b587921' id='type-id-505'/>
    <pointer-type-def type-id='type-id-504' size-in-bits='64' hash='d87befc265a8b627' id='type-id-506'/>
    <qualified-type-def type-id='type-id-504' const='yes' hash='f6aa6e888a289c55' id='type-id-507'/>
    <reference-type-def kind='lvalue' type-id='type-id-507' size-in-bits='64' hash='2bdccdcb8ad14e82' id='type-id-508'/>
    <pointer-type-def type-id='type-id-507' size-in-bits='64' hash='8a221855d7e44f84' id='type-id-509'/>
    <qualified-type-def type-id='type-id-510' const='yes' hash='46c6a11afbe8b940' id='type-id-511'/>
    <pointer-type-def type-id='type-id-511' size-in-bits='64' hash='9e1b003299d892fe' id='type-id-512'/>
    <reference-type-def kind='lvalue' type-id='type-id-512' size-in-bits='64' hash='7e784908f7fb6566' id='type-id-513'/>
    <qualified-type-def type-id='type-id-514' const='yes' hash='b6006b0af1c516ca' id='type-id-515'/>
    <pointer-type-def type-id='type-id-515' size-in-bits='64' hash='c8f953f1f918a463' id='type-id-516'/>
    <reference-type-def kind='lvalue' type-id='type-id-516' size-in-bits='64' hash='82dc8640b8d78a21' id='type-id-517'/>
    <pointer-type-def type-id='type-id-510' size-in-bits='64' hash='c5399a63f9eae4e0' id='type-id-518'/>
    <reference-type-def kind='lvalue' type-id='type-id-518' size-in-bits='64' hash='69d3669f162cd7e0' id='type-id-519'/>
    <pointer-type-def type-id='type-id-514' size-in-bits='64' hash='15b63369fcb46792' id='type-id-520'/>
    <reference-type-def kind='lvalue' type-id='type-id-520' size-in-bits='64' hash='76c634f7a3e50b52' id='type-id-521'/>
    <reference-type-def kind='lvalue' type-id='type-id-522' size-in-bits='64' hash='f67ef69d77a6279f' id='type-id-523'/>
    <reference-type-def kind='lvalue' type-id='type-id-42' size-in-bits='64' hash='9cc129f53f55fb86' id='type-id-524'/>
    <pointer-type-def type-id='type-id-525' size-in-bits='64' id='type-id-526'/>
    <qualified-type-def type-id='type-id-526' restrict='yes' id='type-id-527'/>
    <pointer-type-def type-id='type-id-528' size-in-bits='64' id='type-id-529'/>
    <qualified-type-def type-id='type-id-529' restrict='yes' id='type-id-530'/>
    <qualified-type-def type-id='type-id-531' const='yes' id='type-id-532'/>
    <qualified-type-def type-id='type-id-533' const='yes' id='type-id-534'/>
    <pointer-type-def type-id='type-id-534' size-in-bits='64' id='type-id-535'/>
    <qualified-type-def type-id='type-id-536' const='yes' id='type-id-537'/>
    <pointer-type-def type-id='type-id-538' size-in-bits='64' id='type-id-539'/>
    <pointer-type-def type-id='type-id-540' size-in-bits='64' id='type-id-124'/>
    <reference-type-def kind='lvalue' type-id='type-id-541' size-in-bits='64' id='type-id-366'/>
    <pointer-type-def type-id='type-id-541' size-in-bits='64' id='type-id-365'/>
    <reference-type-def kind='lvalue' type-id='type-id-542' size-in-bits='64' id='type-id-543'/>
    <class-decl name='_IO_FILE' is-struct='yes' visibility='default' is-declaration-only='yes' id='type-id-544'/>
    <class-decl name='lconv' is-struct='yes' visibility='default' is-declaration-only='yes' id='type-id-538'/>
    <qualified-type-def type-id='type-id-14' restrict='yes' id='type-id-545'/>
    <qualified-type-def type-id='type-id-14' restrict='yes' id='type-id-546'/>
    <namespace-decl name='std'>
      <class-decl name='codecvt_base' visibility='default' size-in-bits='8' filepath='/usr/bin/../lib/gcc/x86_64-linux-gnu/4.9/../../../../include/c++/4.9/bits/codecvt.h' line='46' column='1' hash='ee38993160d0ee16' id='type-id-547'>
        <member-type access='private'>
          <enum-decl name='result' size-in-bits='32' alignment-in-bits='32' filepath='/usr/bin/../lib/gcc/x86_64-linux-gnu/4.9/../../../../include/c++/4.9/bits/codecvt.h' line='49' column='1' hash='280f129aa95c8f19' id='type-id-548'>
            <underlying-type type-id='type-id-153'/>
            <enumerator name='ok' value='0'/>
            <enumerator name='partial' value='1'/>
            <enumerator name='error' value='2'/>
            <enumerator name='noconv' value='3'/>
          </enum-decl>
        </member-type>
      </class-decl>
      <class-decl name='__codecvt_abstract_base&lt;wchar_t, char, __mbstate_t&gt;' visibility='default' is-declaration-only='yes' id='type-id-533'>
        <member-type access='private'>
          <typedef-decl name='extern_type' type-id='type-id-2' size-in-bits='8' filepath='/usr/bin/../lib/gcc/x86_64-linux-gnu/4.9/../../../../include/c++/4.9/bits/codecvt.h' line='75' column='1' hash='65b2d157027b431a' id='type-id-510'/>
        </member-type>
        <member-type access='private'>
          <typedef-decl name='intern_type' type-id='type-id-42' size-in-bits='32' filepath='/usr/bin/../lib/gcc/x86_64-linux-gnu/4.9/../../../../include/c++/4.9/bits/codecvt.h' line='74' column='1' hash='4b224bc24abb5f1b' id='type-id-514'/>
        </member-type>
        <member-type access='private'>
          <typedef-decl name='result' type-id='type-id-548' size-in-bits='32' alignment-in-bits='32' filepath='/usr/bin/../lib/gcc/x86_64-linux-gnu/4.9/../../../../include/c++/4.9/bits/codecvt.h' line='73' column='1' hash='280f129aa95c8f19' id='type-id-549'/>
        </member-type>
        <member-type access='private'>
          <typedef-decl name='state_type' type-id='type-id-19' size-in-bits='64' filepath='/usr/bin/../lib/gcc/x86_64-linux-gnu/4.9/../../../../include/c++/4.9/bits/codecvt.h' line='76' column='1' id='type-id-522'/>
        </member-type>
        <member-function access='public' const='yes'>
          <function-decl name='out' mangled-name='_ZNKSt23__codecvt_abstract_baseIwc11__mbstate_tE3outERS0_PKwS4_RS4_PcS6_RS6_' filepath='/usr/bin/../lib/gcc/x86_64-linux-gnu/4.9/../../../../include/c++/4.9/bits/codecvt.h' line='116' column='1' visibility='default' binding='global' size-in-bits='64' elf-symbol-id='_ZNKSt23__codecvt_abstract_baseIwc11__mbstate_tE3outERS0_PKwS4_RS4_PcS6_RS6_' hash='4a481e58037bc77d'>
            <parameter type-id='type-id-535' is-artificial='yes'/>
            <parameter type-id='type-id-523' filepath='/usr/bin/../lib/gcc/x86_64-linux-gnu/4.9/../../../../include/c++/4.9/bits/codecvt.h' line='116' column='1'/>
            <parameter type-id='type-id-516' filepath='/usr/bin/../lib/gcc/x86_64-linux-gnu/4.9/../../../../include/c++/4.9/bits/codecvt.h' line='116' column='1'/>
            <parameter type-id='type-id-516' filepath='/usr/bin/../lib/gcc/x86_64-linux-gnu/4.9/../../../../include/c++/4.9/bits/codecvt.h' line='117' column='1'/>
            <parameter type-id='type-id-517' filepath='/usr/bin/../lib/gcc/x86_64-linux-gnu/4.9/../../../../include/c++/4.9/bits/codecvt.h' line='117' column='1'/>
            <parameter type-id='type-id-518' filepath='/usr/bin/../lib/gcc/x86_64-linux-gnu/4.9/../../../../include/c++/4.9/bits/codecvt.h' line='118' column='1'/>
            <parameter type-id='type-id-518' filepath='/usr/bin/../lib/gcc/x86_64-linux-gnu/4.9/../../../../include/c++/4.9/bits/codecvt.h' line='118' column='1'/>
            <parameter type-id='type-id-519' filepath='/usr/bin/../lib/gcc/x86_64-linux-gnu/4.9/../../../../include/c++/4.9/bits/codecvt.h' line='119' column='1'/>
            <return type-id='type-id-549'/>
          </function-decl>
        </member-function>
        <member-function access='public' const='yes'>
          <function-decl name='in' mangled-name='_ZNKSt23__codecvt_abstract_baseIwc11__mbstate_tE2inERS0_PKcS4_RS4_PwS6_RS6_' filepath='/usr/bin/../lib/gcc/x86_64-linux-gnu/4.9/../../../../include/c++/4.9/bits/codecvt.h' line='196' column='1' visibility='default' binding='global' size-in-bits='64' elf-symbol-id='_ZNKSt23__codecvt_abstract_baseIwc11__mbstate_tE2inERS0_PKcS4_RS4_PwS6_RS6_' hash='15bd651415125e53'>
            <parameter type-id='type-id-535' is-artificial='yes'/>
            <parameter type-id='type-id-523' filepath='/usr/bin/../lib/gcc/x86_64-linux-gnu/4.9/../../../../include/c++/4.9/bits/codecvt.h' line='196' column='1'/>
            <parameter type-id='type-id-512' filepath='/usr/bin/../lib/gcc/x86_64-linux-gnu/4.9/../../../../include/c++/4.9/bits/codecvt.h' line='196' column='1'/>
            <parameter type-id='type-id-512' filepath='/usr/bin/../lib/gcc/x86_64-linux-gnu/4.9/../../../../include/c++/4.9/bits/codecvt.h' line='197' column='1'/>
            <parameter type-id='type-id-513' filepath='/usr/bin/../lib/gcc/x86_64-linux-gnu/4.9/../../../../include/c++/4.9/bits/codecvt.h' line='197' column='1'/>
            <parameter type-id='type-id-520' filepath='/usr/bin/../lib/gcc/x86_64-linux-gnu/4.9/../../../../include/c++/4.9/bits/codecvt.h' line='198' column='1'/>
            <parameter type-id='type-id-520' filepath='/usr/bin/../lib/gcc/x86_64-linux-gnu/4.9/../../../../include/c++/4.9/bits/codecvt.h' line='198' column='1'/>
            <parameter type-id='type-id-521' filepath='/usr/bin/../lib/gcc/x86_64-linux-gnu/4.9/../../../../include/c++/4.9/bits/codecvt.h' line='199' column='1'/>
            <return type-id='type-id-549'/>
          </function-decl>
        </member-function>
      </class-decl>
      <class-decl name='basic_string&lt;char, std::char_traits&lt;char&gt;, std::allocator&lt;char&gt; &gt;' visibility='default' is-declaration-only='yes' id='type-id-540'>
        <member-function access='public'>
          <function-decl name='append&lt;char *&gt;' mangled-name='_ZNSs6appendIPcEERSsT_S2_' filepath='/usr/bin/../lib/gcc/x86_64-linux-gnu/4.9/../../../../include/c++/4.9/bits/basic_string.h' line='1061' column='1' visibility='default' binding='global' size-in-bits='64' elf-symbol-id='_ZNSs6appendIPcEERSsT_S2_' hash='6faa8831d3af3ad4'>
            <parameter type-id='type-id-124' is-artificial='yes'/>
            <parameter type-id='type-id-53' filepath='/usr/bin/../lib/gcc/x86_64-linux-gnu/4.9/../../../../include/c++/4.9/bits/basic_string.h' line='1061' column='1'/>
            <parameter type-id='type-id-53' filepath='/usr/bin/../lib/gcc/x86_64-linux-gnu/4.9/../../../../include/c++/4.9/bits/basic_string.h' line='1061' column='1'/>
            <return type-id='type-id-120'/>
          </function-decl>
        </member-function>
        <member-function access='public'>
          <function-decl name='basic_string&lt;char *&gt;' mangled-name='_ZNSsC2IPcEET_S1_RKSaIcE' filepath='/usr/bin/../lib/gcc/x86_64-linux-gnu/4.9/../../../../include/c++/4.9/bits/basic_string.h' line='540' column='1' visibility='default' binding='global' size-in-bits='64' elf-symbol-id='_ZNSsC2IPcEET_S1_RKSaIcE' hash='6faa8831d3af3ad4'>
            <parameter type-id='type-id-117' is-artificial='yes'/>
            <parameter type-id='type-id-53' filepath='/usr/bin/../lib/gcc/x86_64-linux-gnu/4.9/../../../../include/c++/4.9/bits/basic_string.tcc' line='540' column='1'/>
            <parameter type-id='type-id-53' filepath='/usr/bin/../lib/gcc/x86_64-linux-gnu/4.9/../../../../include/c++/4.9/bits/basic_string.tcc' line='540' column='1'/>
            <parameter type-id='type-id-118' filepath='/usr/bin/../lib/gcc/x86_64-linux-gnu/4.9/../../../../include/c++/4.9/bits/basic_string.tcc' line='541' column='1'/>
            <return type-id='type-id-119'/>
          </function-decl>
        </member-function>
        <member-function access='public'>
          <function-decl name='append&lt;const char *&gt;' mangled-name='_ZNSs6appendIPKcEERSsT_S3_' filepath='/usr/bin/../lib/gcc/x86_64-linux-gnu/4.9/../../../../include/c++/4.9/bits/basic_string.h' line='1061' column='1' visibility='default' binding='global' size-in-bits='64' elf-symbol-id='_ZNSs6appendIPKcEERSsT_S3_' hash='3d5693612af11c46'>
            <parameter type-id='type-id-117' is-artificial='yes'/>
            <parameter type-id='type-id-18' filepath='/usr/bin/../lib/gcc/x86_64-linux-gnu/4.9/../../../../include/c++/4.9/bits/basic_string.h' line='1061' column='1'/>
            <parameter type-id='type-id-18' filepath='/usr/bin/../lib/gcc/x86_64-linux-gnu/4.9/../../../../include/c++/4.9/bits/basic_string.h' line='1061' column='1'/>
            <return type-id='type-id-120'/>
          </function-decl>
        </member-function>
        <member-function access='private' static='yes'>
          <function-decl name='_S_construct&lt;char *&gt;' mangled-name='_ZNSs12_S_constructIPcEES0_T_S1_RKSaIcE' filepath='/usr/bin/../lib/gcc/x86_64-linux-gnu/4.9/../../../../include/c++/4.9/bits/basic_string.h' line='1761' column='1' visibility='default' binding='global' size-in-bits='64' elf-symbol-id='_ZNSs12_S_constructIPcEES0_T_S1_RKSaIcE' hash='9895045035709c6f'>
            <parameter type-id='type-id-53' filepath='/usr/bin/../lib/gcc/x86_64-linux-gnu/4.9/../../../../include/c++/4.9/bits/basic_string.h' line='1761' column='1'/>
            <parameter type-id='type-id-53' filepath='/usr/bin/../lib/gcc/x86_64-linux-gnu/4.9/../../../../include/c++/4.9/bits/basic_string.h' line='1761' column='1'/>
            <parameter type-id='type-id-118' filepath='/usr/bin/../lib/gcc/x86_64-linux-gnu/4.9/../../../../include/c++/4.9/bits/basic_string.h' line='1761' column='1'/>
            <return type-id='type-id-53'/>
          </function-decl>
        </member-function>
        <member-function access='private' static='yes'>
          <function-decl name='_S_construct_aux&lt;char *&gt;' mangled-name='_ZNSs16_S_construct_auxIPcEES0_T_S1_RKSaIcESt12__false_type' filepath='/usr/bin/../lib/gcc/x86_64-linux-gnu/4.9/../../../../include/c++/4.9/bits/basic_string.h' line='1739' column='1' visibility='default' binding='global' size-in-bits='64' elf-symbol-id='_ZNSs16_S_construct_auxIPcEES0_T_S1_RKSaIcESt12__false_type' hash='9895045035709c6f'>
            <parameter type-id='type-id-53' filepath='/usr/bin/../lib/gcc/x86_64-linux-gnu/4.9/../../../../include/c++/4.9/bits/basic_string.h' line='1739' column='1'/>
            <parameter type-id='type-id-53' filepath='/usr/bin/../lib/gcc/x86_64-linux-gnu/4.9/../../../../include/c++/4.9/bits/basic_string.h' line='1739' column='1'/>
            <parameter type-id='type-id-118' filepath='/usr/bin/../lib/gcc/x86_64-linux-gnu/4.9/../../../../include/c++/4.9/bits/basic_string.h' line='1740' column='1'/>
            <parameter type-id='type-id-121' filepath='/usr/bin/../lib/gcc/x86_64-linux-gnu/4.9/../../../../include/c++/4.9/bits/basic_string.h' line='1740' column='1'/>
            <return type-id='type-id-53'/>
          </function-decl>
        </member-function>
        <member-function access='private' static='yes'>
          <function-decl name='_S_construct&lt;char *&gt;' mangled-name='_ZNSs12_S_constructIPcEES0_T_S1_RKSaIcESt20forward_iterator_tag' filepath='/usr/bin/../lib/gcc/x86_64-linux-gnu/4.9/../../../../include/c++/4.9/bits/basic_string.h' line='1777' column='1' visibility='default' binding='global' size-in-bits='64' elf-symbol-id='_ZNSs12_S_constructIPcEES0_T_S1_RKSaIcESt20forward_iterator_tag' hash='9895045035709c6f'>
            <parameter type-id='type-id-53' filepath='/usr/bin/../lib/gcc/x86_64-linux-gnu/4.9/../../../../include/c++/4.9/bits/basic_string.tcc' line='1777' column='1'/>
            <parameter type-id='type-id-53' filepath='/usr/bin/../lib/gcc/x86_64-linux-gnu/4.9/../../../../include/c++/4.9/bits/basic_string.tcc' line='1777' column='1'/>
            <parameter type-id='type-id-118' filepath='/usr/bin/../lib/gcc/x86_64-linux-gnu/4.9/../../../../include/c++/4.9/bits/basic_string.tcc' line='1777' column='1'/>
            <parameter type-id='type-id-122' filepath='/usr/bin/../lib/gcc/x86_64-linux-gnu/4.9/../../../../include/c++/4.9/bits/basic_string.tcc' line='1778' column='1'/>
            <return type-id='type-id-53'/>
          </function-decl>
        </member-function>
        <member-function access='public'>
          <function-decl name='basic_string&lt;const char *&gt;' mangled-name='_ZNSsC2IPKcEET_S2_RKSaIcE' filepath='/usr/bin/../lib/gcc/x86_64-linux-gnu/4.9/../../../../include/c++/4.9/bits/basic_string.h' line='540' column='1' visibility='default' binding='global' size-in-bits='64' elf-symbol-id='_ZNSsC2IPKcEET_S2_RKSaIcE' hash='3d5693612af11c46'>
            <parameter type-id='type-id-123' is-artificial='yes'/>
            <parameter type-id='type-id-18' filepath='/usr/bin/../lib/gcc/x86_64-linux-gnu/4.9/../../../../include/c++/4.9/bits/basic_string.tcc' line='540' column='1'/>
            <parameter type-id='type-id-18' filepath='/usr/bin/../lib/gcc/x86_64-linux-gnu/4.9/../../../../include/c++/4.9/bits/basic_string.tcc' line='540' column='1'/>
            <parameter type-id='type-id-118' filepath='/usr/bin/../lib/gcc/x86_64-linux-gnu/4.9/../../../../include/c++/4.9/bits/basic_string.tcc' line='541' column='1'/>
            <return type-id='type-id-119'/>
          </function-decl>
        </member-function>
        <member-function access='private' static='yes'>
          <function-decl name='_S_construct&lt;const char *&gt;' mangled-name='_ZNSs12_S_constructIPKcEEPcT_S3_RKSaIcE' filepath='/usr/bin/../lib/gcc/x86_64-linux-gnu/4.9/../../../../include/c++/4.9/bits/basic_string.h' line='1761' column='1' visibility='default' binding='global' size-in-bits='64' elf-symbol-id='_ZNSs12_S_constructIPKcEEPcT_S3_RKSaIcE' hash='21babdbcb7a34ebe'>
            <parameter type-id='type-id-18' filepath='/usr/bin/../lib/gcc/x86_64-linux-gnu/4.9/../../../../include/c++/4.9/bits/basic_string.h' line='1761' column='1'/>
            <parameter type-id='type-id-18' filepath='/usr/bin/../lib/gcc/x86_64-linux-gnu/4.9/../../../../include/c++/4.9/bits/basic_string.h' line='1761' column='1'/>
            <parameter type-id='type-id-118' filepath='/usr/bin/../lib/gcc/x86_64-linux-gnu/4.9/../../../../include/c++/4.9/bits/basic_string.h' line='1761' column='1'/>
            <return type-id='type-id-53'/>
          </function-decl>
        </member-function>
        <member-function access='private' static='yes'>
          <function-decl name='_S_construct_aux&lt;const char *&gt;' mangled-name='_ZNSs16_S_construct_auxIPKcEEPcT_S3_RKSaIcESt12__false_type' filepath='/usr/bin/../lib/gcc/x86_64-linux-gnu/4.9/../../../../include/c++/4.9/bits/basic_string.h' line='1739' column='1' visibility='default' binding='global' size-in-bits='64' elf-symbol-id='_ZNSs16_S_construct_auxIPKcEEPcT_S3_RKSaIcESt12__false_type' hash='21babdbcb7a34ebe'>
            <parameter type-id='type-id-18' filepath='/usr/bin/../lib/gcc/x86_64-linux-gnu/4.9/../../../../include/c++/4.9/bits/basic_string.h' line='1739' column='1'/>
            <parameter type-id='type-id-18' filepath='/usr/bin/../lib/gcc/x86_64-linux-gnu/4.9/../../../../include/c++/4.9/bits/basic_string.h' line='1739' column='1'/>
            <parameter type-id='type-id-118' filepath='/usr/bin/../lib/gcc/x86_64-linux-gnu/4.9/../../../../include/c++/4.9/bits/basic_string.h' line='1740' column='1'/>
            <parameter type-id='type-id-121' filepath='/usr/bin/../lib/gcc/x86_64-linux-gnu/4.9/../../../../include/c++/4.9/bits/basic_string.h' line='1740' column='1'/>
            <return type-id='type-id-53'/>
          </function-decl>
        </member-function>
        <member-function access='private' static='yes'>
          <function-decl name='_S_construct&lt;const char *&gt;' mangled-name='_ZNSs12_S_constructIPKcEEPcT_S3_RKSaIcESt20forward_iterator_tag' filepath='/usr/bin/../lib/gcc/x86_64-linux-gnu/4.9/../../../../include/c++/4.9/bits/basic_string.h' line='1777' column='1' visibility='default' binding='global' size-in-bits='64' elf-symbol-id='_ZNSs12_S_constructIPKcEEPcT_S3_RKSaIcESt20forward_iterator_tag' hash='21babdbcb7a34ebe'>
            <parameter type-id='type-id-18' filepath='/usr/bin/../lib/gcc/x86_64-linux-gnu/4.9/../../../../include/c++/4.9/bits/basic_string.tcc' line='1777' column='1'/>
            <parameter type-id='type-id-18' filepath='/usr/bin/../lib/gcc/x86_64-linux-gnu/4.9/../../../../include/c++/4.9/bits/basic_string.tcc' line='1777' column='1'/>
            <parameter type-id='type-id-118' filepath='/usr/bin/../lib/gcc/x86_64-linux-gnu/4.9/../../../../include/c++/4.9/bits/basic_string.tcc' line='1777' column='1'/>
            <parameter type-id='type-id-122' filepath='/usr/bin/../lib/gcc/x86_64-linux-gnu/4.9/../../../../include/c++/4.9/bits/basic_string.tcc' line='1778' column='1'/>
            <return type-id='type-id-53'/>
          </function-decl>
        </member-function>
      </class-decl>
      <class-decl name='basic_string&lt;wchar_t, std::char_traits&lt;wchar_t&gt;, std::allocator&lt;wchar_t&gt; &gt;' visibility='default' is-declaration-only='yes' id='type-id-541'>
        <member-function access='public'>
          <function-decl name='append&lt;wchar_t *&gt;' mangled-name='_ZNSbIwSt11char_traitsIwESaIwEE6appendIPwEERS2_T_S6_' filepath='/usr/bin/../lib/gcc/x86_64-linux-gnu/4.9/../../../../include/c++/4.9/bits/basic_string.h' line='1061' column='1' visibility='default' binding='global' size-in-bits='64' elf-symbol-id='_ZNSbIwSt11char_traitsIwESaIwEE6appendIPwEERS2_T_S6_' hash='52964de53fd173e9'>
            <parameter type-id='type-id-365' is-artificial='yes'/>
            <parameter type-id='type-id-100' filepath='/usr/bin/../lib/gcc/x86_64-linux-gnu/4.9/../../../../include/c++/4.9/bits/basic_string.h' line='1061' column='1'/>
            <parameter type-id='type-id-100' filepath='/usr/bin/../lib/gcc/x86_64-linux-gnu/4.9/../../../../include/c++/4.9/bits/basic_string.h' line='1061' column='1'/>
            <return type-id='type-id-366'/>
          </function-decl>
        </member-function>
      </class-decl>
      <class-decl name='codecvt&lt;wchar_t, char, __mbstate_t&gt;' visibility='default' is-declaration-only='yes' id='type-id-550'/>
      <typedef-decl name='string' type-id='type-id-540' filepath='/usr/bin/../lib/gcc/x86_64-linux-gnu/4.9/../../../../include/c++/4.9/bits/stringfwd.h' line='62' column='1' id='type-id-536'/>
      <typedef-decl name='wstring' type-id='type-id-541' filepath='/usr/bin/../lib/gcc/x86_64-linux-gnu/4.9/../../../../include/c++/4.9/bits/stringfwd.h' line='68' column='1' id='type-id-542'/>
    </namespace-decl>
    <typedef-decl name='FILE' type-id='type-id-544' filepath='/usr/include/stdio.h' line='48' column='1' id='type-id-525'/>
    <typedef-decl name='__FILE' type-id='type-id-544' filepath='/usr/include/stdio.h' line='64' column='1' id='type-id-528'/>
    <namespace-decl name='boost'>
      <class-decl name='scoped_array&lt;wchar_t&gt;' visibility='default' size-in-bits='64' filepath='src/third_party/boost-1.56.0/boost/smart_ptr/scoped_array.hpp' line='39' column='1' hash='0139a1ac9e10cc69' id='type-id-504'>
        <data-member access='private' layout-offset-in-bits='0'>
          <var-decl name='px' type-id='type-id-100' visibility='default' filepath='src/third_party/boost-1.56.0/boost/smart_ptr/scoped_array.hpp' line='43' column='1'/>
        </data-member>
        <member-function access='public'>
          <function-decl name='scoped_array' mangled-name='_ZN5boost12scoped_arrayIwEC2EPw' filepath='src/third_party/boost-1.56.0/boost/smart_ptr/scoped_array.hpp' line='57' column='1' visibility='default' binding='global' size-in-bits='64' elf-symbol-id='_ZN5boost12scoped_arrayIwEC2EPw' hash='46a7acc7f7795470'>
            <parameter type-id='type-id-506' is-artificial='yes'/>
            <parameter type-id='type-id-100'/>
            <return type-id='type-id-119'/>
          </function-decl>
        </member-function>
        <member-function access='public' const='yes'>
          <function-decl name='get' mangled-name='_ZNK5boost12scoped_arrayIwE3getEv' filepath='src/third_party/boost-1.56.0/boost/smart_ptr/scoped_array.hpp' line='85' column='1' visibility='default' binding='global' size-in-bits='64' elf-symbol-id='_ZNK5boost12scoped_arrayIwE3getEv' hash='46a7acc7f7795470'>
            <parameter type-id='type-id-509' is-artificial='yes'/>
            <return type-id='type-id-100'/>
          </function-decl>
        </member-function>
        <member-function access='public' destructor='yes'>
          <function-decl name='~scoped_array' mangled-name='_ZN5boost12scoped_arrayIwED2Ev' filepath='src/third_party/boost-1.56.0/boost/smart_ptr/scoped_array.hpp' line='64' column='1' visibility='default' binding='global' size-in-bits='64' elf-symbol-id='_ZN5boost12scoped_arrayIwED2Ev' hash='7f32ffea222edbe7'>
            <parameter type-id='type-id-506' is-artificial='yes'/>
            <return type-id='type-id-119'/>
          </function-decl>
        </member-function>
      </class-decl>
      <function-decl name='checked_array_delete&lt;wchar_t&gt;' mangled-name='_ZN5boost20checked_array_deleteIwEEvPT_' filepath='src/third_party/boost-1.56.0/boost/core/checked_delete.hpp' line='37' column='1' visibility='default' binding='global' size-in-bits='64' elf-symbol-id='_ZN5boost20checked_array_deleteIwEEvPT_' hash='46a7acc7f7795470'>
        <parameter type-id='type-id-100' filepath='src/third_party/boost-1.56.0/boost/core/checked_delete.hpp' line='37' column='1'/>
        <return type-id='type-id-119'/>
      </function-decl>
      <namespace-decl name='filesystem'>
        <namespace-decl name='path_traits'>
          <typedef-decl name='codecvt_type' type-id='type-id-550' filepath='src/third_party/boost-1.56.0/boost/filesystem/path_traits.hpp' line='52' column='1' id='type-id-531'/>
          <function-decl name='convert' mangled-name='_ZN5boost10filesystem11path_traits7convertEPKcS3_RSbIwSt11char_traitsIwESaIwEERKSt7codecvtIwc11__mbstate_tE' filepath='src/third_party/boost-1.56.0/libs/filesystem/src/path_traits.cpp' line='133' column='1' visibility='default' binding='global' size-in-bits='64' elf-symbol-id='_ZN5boost10filesystem11path_traits7convertEPKcS3_RSbIwSt11char_traitsIwESaIwEERKSt7codecvtIwc11__mbstate_tE' hash='3d5693612af11c46'>
            <parameter type-id='type-id-18' filepath='src/third_party/boost-1.56.0/libs/filesystem/src/path_traits.cpp' line='133' column='1'/>
            <parameter type-id='type-id-18' filepath='src/third_party/boost-1.56.0/libs/filesystem/src/path_traits.cpp' line='134' column='1'/>
            <parameter type-id='type-id-543' filepath='src/third_party/boost-1.56.0/libs/filesystem/src/path_traits.cpp' line='135' column='1'/>
            <parameter type-id='type-id-328' filepath='src/third_party/boost-1.56.0/libs/filesystem/src/path_traits.cpp' line='136' column='1'/>
            <return type-id='type-id-119'/>
          </function-decl>
          <function-decl name='convert' mangled-name='_ZN5boost10filesystem11path_traits7convertEPKwS3_RSsRKSt7codecvtIwc11__mbstate_tE' filepath='src/third_party/boost-1.56.0/libs/filesystem/src/path_traits.cpp' line='167' column='1' visibility='default' binding='global' size-in-bits='64' elf-symbol-id='_ZN5boost10filesystem11path_traits7convertEPKwS3_RSsRKSt7codecvtIwc11__mbstate_tE' hash='7304ba072661ade5'>
            <parameter type-id='type-id-87' filepath='src/third_party/boost-1.56.0/libs/filesystem/src/path_traits.cpp' line='167' column='1'/>
            <parameter type-id='type-id-87' filepath='src/third_party/boost-1.56.0/libs/filesystem/src/path_traits.cpp' line='168' column='1'/>
            <parameter type-id='type-id-345' filepath='src/third_party/boost-1.56.0/libs/filesystem/src/path_traits.cpp' line='169' column='1'/>
            <parameter type-id='type-id-328' filepath='src/third_party/boost-1.56.0/libs/filesystem/src/path_traits.cpp' line='170' column='1'/>
            <return type-id='type-id-119'/>
          </function-decl>
        </namespace-decl>
      </namespace-decl>
      <namespace-decl name='system'>
      </namespace-decl>
    </namespace-decl>
  </abi-instr>
  <abi-instr address-size='64' path='src/third_party/boost-1.56.0/libs/filesystem/src/portability.cpp' comp-dir-path='/home/andrew/Documents/10gen/dev/src/mongodb' language='LANG_C_plus_plus'>
    <pointer-type-def type-id='type-id-551' size-in-bits='64' id='type-id-552'/>
    <qualified-type-def type-id='type-id-552' restrict='yes' id='type-id-553'/>
    <pointer-type-def type-id='type-id-554' size-in-bits='64' id='type-id-555'/>
    <qualified-type-def type-id='type-id-555' restrict='yes' id='type-id-556'/>
    <qualified-type-def type-id='type-id-557' const='yes' id='type-id-558'/>
    <qualified-type-def type-id='type-id-559' const='yes' id='type-id-560'/>
    <pointer-type-def type-id='type-id-561' size-in-bits='64' id='type-id-562'/>
    <class-decl name='_IO_FILE' is-struct='yes' visibility='default' is-declaration-only='yes' id='type-id-563'/>
    <class-decl name='lconv' is-struct='yes' visibility='default' is-declaration-only='yes' id='type-id-561'/>
    <qualified-type-def type-id='type-id-14' restrict='yes' id='type-id-564'/>
    <qualified-type-def type-id='type-id-14' restrict='yes' id='type-id-565'/>
    <namespace-decl name='std'>
      <class-decl name='basic_string&lt;char, std::char_traits&lt;char&gt;, std::allocator&lt;char&gt; &gt;' visibility='default' is-declaration-only='yes' id='type-id-557'>
        <member-function access='public'>
          <function-decl name='basic_string&lt;char *&gt;' mangled-name='_ZNSsC2IPcEET_S1_RKSaIcE' filepath='/usr/bin/../lib/gcc/x86_64-linux-gnu/4.9/../../../../include/c++/4.9/bits/basic_string.h' line='540' column='1' visibility='default' binding='global' size-in-bits='64' elf-symbol-id='_ZNSsC2IPcEET_S1_RKSaIcE' hash='6faa8831d3af3ad4'>
            <parameter type-id='type-id-117' is-artificial='yes'/>
            <parameter type-id='type-id-53' filepath='/usr/bin/../lib/gcc/x86_64-linux-gnu/4.9/../../../../include/c++/4.9/bits/basic_string.tcc' line='540' column='1'/>
            <parameter type-id='type-id-53' filepath='/usr/bin/../lib/gcc/x86_64-linux-gnu/4.9/../../../../include/c++/4.9/bits/basic_string.tcc' line='540' column='1'/>
            <parameter type-id='type-id-118' filepath='/usr/bin/../lib/gcc/x86_64-linux-gnu/4.9/../../../../include/c++/4.9/bits/basic_string.tcc' line='541' column='1'/>
            <return type-id='type-id-119'/>
          </function-decl>
        </member-function>
        <member-function access='public'>
          <function-decl name='append&lt;const char *&gt;' mangled-name='_ZNSs6appendIPKcEERSsT_S3_' filepath='/usr/bin/../lib/gcc/x86_64-linux-gnu/4.9/../../../../include/c++/4.9/bits/basic_string.h' line='1061' column='1' visibility='default' binding='global' size-in-bits='64' elf-symbol-id='_ZNSs6appendIPKcEERSsT_S3_' hash='3d5693612af11c46'>
            <parameter type-id='type-id-117' is-artificial='yes'/>
            <parameter type-id='type-id-18' filepath='/usr/bin/../lib/gcc/x86_64-linux-gnu/4.9/../../../../include/c++/4.9/bits/basic_string.h' line='1061' column='1'/>
            <parameter type-id='type-id-18' filepath='/usr/bin/../lib/gcc/x86_64-linux-gnu/4.9/../../../../include/c++/4.9/bits/basic_string.h' line='1061' column='1'/>
            <return type-id='type-id-120'/>
          </function-decl>
        </member-function>
        <member-function access='private' static='yes'>
          <function-decl name='_S_construct&lt;char *&gt;' mangled-name='_ZNSs12_S_constructIPcEES0_T_S1_RKSaIcE' filepath='/usr/bin/../lib/gcc/x86_64-linux-gnu/4.9/../../../../include/c++/4.9/bits/basic_string.h' line='1761' column='1' visibility='default' binding='global' size-in-bits='64' elf-symbol-id='_ZNSs12_S_constructIPcEES0_T_S1_RKSaIcE' hash='9895045035709c6f'>
            <parameter type-id='type-id-53' filepath='/usr/bin/../lib/gcc/x86_64-linux-gnu/4.9/../../../../include/c++/4.9/bits/basic_string.h' line='1761' column='1'/>
            <parameter type-id='type-id-53' filepath='/usr/bin/../lib/gcc/x86_64-linux-gnu/4.9/../../../../include/c++/4.9/bits/basic_string.h' line='1761' column='1'/>
            <parameter type-id='type-id-118' filepath='/usr/bin/../lib/gcc/x86_64-linux-gnu/4.9/../../../../include/c++/4.9/bits/basic_string.h' line='1761' column='1'/>
            <return type-id='type-id-53'/>
          </function-decl>
        </member-function>
        <member-function access='private' static='yes'>
          <function-decl name='_S_construct_aux&lt;char *&gt;' mangled-name='_ZNSs16_S_construct_auxIPcEES0_T_S1_RKSaIcESt12__false_type' filepath='/usr/bin/../lib/gcc/x86_64-linux-gnu/4.9/../../../../include/c++/4.9/bits/basic_string.h' line='1739' column='1' visibility='default' binding='global' size-in-bits='64' elf-symbol-id='_ZNSs16_S_construct_auxIPcEES0_T_S1_RKSaIcESt12__false_type' hash='9895045035709c6f'>
            <parameter type-id='type-id-53' filepath='/usr/bin/../lib/gcc/x86_64-linux-gnu/4.9/../../../../include/c++/4.9/bits/basic_string.h' line='1739' column='1'/>
            <parameter type-id='type-id-53' filepath='/usr/bin/../lib/gcc/x86_64-linux-gnu/4.9/../../../../include/c++/4.9/bits/basic_string.h' line='1739' column='1'/>
            <parameter type-id='type-id-118' filepath='/usr/bin/../lib/gcc/x86_64-linux-gnu/4.9/../../../../include/c++/4.9/bits/basic_string.h' line='1740' column='1'/>
            <parameter type-id='type-id-121' filepath='/usr/bin/../lib/gcc/x86_64-linux-gnu/4.9/../../../../include/c++/4.9/bits/basic_string.h' line='1740' column='1'/>
            <return type-id='type-id-53'/>
          </function-decl>
        </member-function>
        <member-function access='private' static='yes'>
          <function-decl name='_S_construct&lt;char *&gt;' mangled-name='_ZNSs12_S_constructIPcEES0_T_S1_RKSaIcESt20forward_iterator_tag' filepath='/usr/bin/../lib/gcc/x86_64-linux-gnu/4.9/../../../../include/c++/4.9/bits/basic_string.h' line='1777' column='1' visibility='default' binding='global' size-in-bits='64' elf-symbol-id='_ZNSs12_S_constructIPcEES0_T_S1_RKSaIcESt20forward_iterator_tag' hash='9895045035709c6f'>
            <parameter type-id='type-id-53' filepath='/usr/bin/../lib/gcc/x86_64-linux-gnu/4.9/../../../../include/c++/4.9/bits/basic_string.tcc' line='1777' column='1'/>
            <parameter type-id='type-id-53' filepath='/usr/bin/../lib/gcc/x86_64-linux-gnu/4.9/../../../../include/c++/4.9/bits/basic_string.tcc' line='1777' column='1'/>
            <parameter type-id='type-id-118' filepath='/usr/bin/../lib/gcc/x86_64-linux-gnu/4.9/../../../../include/c++/4.9/bits/basic_string.tcc' line='1777' column='1'/>
            <parameter type-id='type-id-122' filepath='/usr/bin/../lib/gcc/x86_64-linux-gnu/4.9/../../../../include/c++/4.9/bits/basic_string.tcc' line='1778' column='1'/>
            <return type-id='type-id-53'/>
          </function-decl>
        </member-function>
        <member-function access='public'>
          <function-decl name='basic_string&lt;const char *&gt;' mangled-name='_ZNSsC2IPKcEET_S2_RKSaIcE' filepath='/usr/bin/../lib/gcc/x86_64-linux-gnu/4.9/../../../../include/c++/4.9/bits/basic_string.h' line='540' column='1' visibility='default' binding='global' size-in-bits='64' elf-symbol-id='_ZNSsC2IPKcEET_S2_RKSaIcE' hash='3d5693612af11c46'>
            <parameter type-id='type-id-123' is-artificial='yes'/>
            <parameter type-id='type-id-18' filepath='/usr/bin/../lib/gcc/x86_64-linux-gnu/4.9/../../../../include/c++/4.9/bits/basic_string.tcc' line='540' column='1'/>
            <parameter type-id='type-id-18' filepath='/usr/bin/../lib/gcc/x86_64-linux-gnu/4.9/../../../../include/c++/4.9/bits/basic_string.tcc' line='540' column='1'/>
            <parameter type-id='type-id-118' filepath='/usr/bin/../lib/gcc/x86_64-linux-gnu/4.9/../../../../include/c++/4.9/bits/basic_string.tcc' line='541' column='1'/>
            <return type-id='type-id-119'/>
          </function-decl>
        </member-function>
        <member-function access='private' static='yes'>
          <function-decl name='_S_construct&lt;const char *&gt;' mangled-name='_ZNSs12_S_constructIPKcEEPcT_S3_RKSaIcE' filepath='/usr/bin/../lib/gcc/x86_64-linux-gnu/4.9/../../../../include/c++/4.9/bits/basic_string.h' line='1761' column='1' visibility='default' binding='global' size-in-bits='64' elf-symbol-id='_ZNSs12_S_constructIPKcEEPcT_S3_RKSaIcE' hash='21babdbcb7a34ebe'>
            <parameter type-id='type-id-18' filepath='/usr/bin/../lib/gcc/x86_64-linux-gnu/4.9/../../../../include/c++/4.9/bits/basic_string.h' line='1761' column='1'/>
            <parameter type-id='type-id-18' filepath='/usr/bin/../lib/gcc/x86_64-linux-gnu/4.9/../../../../include/c++/4.9/bits/basic_string.h' line='1761' column='1'/>
            <parameter type-id='type-id-118' filepath='/usr/bin/../lib/gcc/x86_64-linux-gnu/4.9/../../../../include/c++/4.9/bits/basic_string.h' line='1761' column='1'/>
            <return type-id='type-id-53'/>
          </function-decl>
        </member-function>
        <member-function access='private' static='yes'>
          <function-decl name='_S_construct_aux&lt;const char *&gt;' mangled-name='_ZNSs16_S_construct_auxIPKcEEPcT_S3_RKSaIcESt12__false_type' filepath='/usr/bin/../lib/gcc/x86_64-linux-gnu/4.9/../../../../include/c++/4.9/bits/basic_string.h' line='1739' column='1' visibility='default' binding='global' size-in-bits='64' elf-symbol-id='_ZNSs16_S_construct_auxIPKcEEPcT_S3_RKSaIcESt12__false_type' hash='21babdbcb7a34ebe'>
            <parameter type-id='type-id-18' filepath='/usr/bin/../lib/gcc/x86_64-linux-gnu/4.9/../../../../include/c++/4.9/bits/basic_string.h' line='1739' column='1'/>
            <parameter type-id='type-id-18' filepath='/usr/bin/../lib/gcc/x86_64-linux-gnu/4.9/../../../../include/c++/4.9/bits/basic_string.h' line='1739' column='1'/>
            <parameter type-id='type-id-118' filepath='/usr/bin/../lib/gcc/x86_64-linux-gnu/4.9/../../../../include/c++/4.9/bits/basic_string.h' line='1740' column='1'/>
            <parameter type-id='type-id-121' filepath='/usr/bin/../lib/gcc/x86_64-linux-gnu/4.9/../../../../include/c++/4.9/bits/basic_string.h' line='1740' column='1'/>
            <return type-id='type-id-53'/>
          </function-decl>
        </member-function>
        <member-function access='private' static='yes'>
          <function-decl name='_S_construct&lt;const char *&gt;' mangled-name='_ZNSs12_S_constructIPKcEEPcT_S3_RKSaIcESt20forward_iterator_tag' filepath='/usr/bin/../lib/gcc/x86_64-linux-gnu/4.9/../../../../include/c++/4.9/bits/basic_string.h' line='1777' column='1' visibility='default' binding='global' size-in-bits='64' elf-symbol-id='_ZNSs12_S_constructIPKcEEPcT_S3_RKSaIcESt20forward_iterator_tag' hash='21babdbcb7a34ebe'>
            <parameter type-id='type-id-18' filepath='/usr/bin/../lib/gcc/x86_64-linux-gnu/4.9/../../../../include/c++/4.9/bits/basic_string.tcc' line='1777' column='1'/>
            <parameter type-id='type-id-18' filepath='/usr/bin/../lib/gcc/x86_64-linux-gnu/4.9/../../../../include/c++/4.9/bits/basic_string.tcc' line='1777' column='1'/>
            <parameter type-id='type-id-118' filepath='/usr/bin/../lib/gcc/x86_64-linux-gnu/4.9/../../../../include/c++/4.9/bits/basic_string.tcc' line='1777' column='1'/>
            <parameter type-id='type-id-122' filepath='/usr/bin/../lib/gcc/x86_64-linux-gnu/4.9/../../../../include/c++/4.9/bits/basic_string.tcc' line='1778' column='1'/>
            <return type-id='type-id-53'/>
          </function-decl>
        </member-function>
        <member-function access='public'>
          <function-decl name='append&lt;char *&gt;' mangled-name='_ZNSs6appendIPcEERSsT_S2_' filepath='/usr/bin/../lib/gcc/x86_64-linux-gnu/4.9/../../../../include/c++/4.9/bits/basic_string.h' line='1061' column='1' visibility='default' binding='global' size-in-bits='64' elf-symbol-id='_ZNSs6appendIPcEERSsT_S2_' hash='6faa8831d3af3ad4'>
            <parameter type-id='type-id-124' is-artificial='yes'/>
            <parameter type-id='type-id-53' filepath='/usr/bin/../lib/gcc/x86_64-linux-gnu/4.9/../../../../include/c++/4.9/bits/basic_string.h' line='1061' column='1'/>
            <parameter type-id='type-id-53' filepath='/usr/bin/../lib/gcc/x86_64-linux-gnu/4.9/../../../../include/c++/4.9/bits/basic_string.h' line='1061' column='1'/>
            <return type-id='type-id-120'/>
          </function-decl>
        </member-function>
      </class-decl>
      <function-decl name='operator!=&lt;char, std::char_traits&lt;char&gt;, std::allocator&lt;char&gt; &gt;' mangled-name='_ZStneIcSt11char_traitsIcESaIcEEbRKSbIT_T0_T1_EPKS3_' filepath='/usr/bin/../lib/gcc/x86_64-linux-gnu/4.9/../../../../include/c++/4.9/bits/basic_string.h' line='2575' column='1' visibility='default' binding='global' size-in-bits='64' elf-symbol-id='_ZStneIcSt11char_traitsIcESaIcEEbRKSbIT_T0_T1_EPKS3_' hash='19a1d02fa5635f5c'>
        <parameter type-id='type-id-333' filepath='/usr/bin/../lib/gcc/x86_64-linux-gnu/4.9/../../../../include/c++/4.9/bits/basic_string.h' line='2538' column='1'/>
        <parameter type-id='type-id-18' filepath='/usr/bin/../lib/gcc/x86_64-linux-gnu/4.9/../../../../include/c++/4.9/bits/basic_string.h' line='2539' column='1'/>
        <return type-id='type-id-1'/>
      </function-decl>
      <typedef-decl name='string' type-id='type-id-557' filepath='/usr/bin/../lib/gcc/x86_64-linux-gnu/4.9/../../../../include/c++/4.9/bits/stringfwd.h' line='62' column='1' id='type-id-559'/>
    </namespace-decl>
    <typedef-decl name='FILE' type-id='type-id-563' filepath='/usr/include/stdio.h' line='48' column='1' id='type-id-551'/>
    <typedef-decl name='__FILE' type-id='type-id-563' filepath='/usr/include/stdio.h' line='64' column='1' id='type-id-554'/>
    <namespace-decl name='boost'>
      <namespace-decl name='filesystem'>
        <function-decl name='native' mangled-name='_ZN5boost10filesystem6nativeERKSs' filepath='src/third_party/boost-1.56.0/libs/filesystem/src/portability.cpp' line='61' column='1' visibility='default' binding='global' size-in-bits='64' elf-symbol-id='_ZN5boost10filesystem6nativeERKSs' hash='c7c710e908194b91'>
          <parameter type-id='type-id-340' filepath='src/third_party/boost-1.56.0/libs/filesystem/src/portability.cpp' line='61' column='1'/>
          <return type-id='type-id-1'/>
        </function-decl>
        <function-decl name='portable_posix_name' mangled-name='_ZN5boost10filesystem19portable_posix_nameERKSs' filepath='src/third_party/boost-1.56.0/libs/filesystem/src/portability.cpp' line='69' column='1' visibility='default' binding='global' size-in-bits='64' elf-symbol-id='_ZN5boost10filesystem19portable_posix_nameERKSs' hash='c7c710e908194b91'>
          <parameter type-id='type-id-340' filepath='src/third_party/boost-1.56.0/libs/filesystem/src/portability.cpp' line='61' column='1'/>
          <return type-id='type-id-1'/>
        </function-decl>
        <function-decl name='windows_name' mangled-name='_ZN5boost10filesystem12windows_nameERKSs' filepath='src/third_party/boost-1.56.0/libs/filesystem/src/portability.cpp' line='75' column='1' visibility='default' binding='global' size-in-bits='64' elf-symbol-id='_ZN5boost10filesystem12windows_nameERKSs' hash='c7c710e908194b91'>
          <parameter type-id='type-id-340' filepath='src/third_party/boost-1.56.0/libs/filesystem/src/portability.cpp' line='61' column='1'/>
          <return type-id='type-id-1'/>
        </function-decl>
        <function-decl name='portable_name' mangled-name='_ZN5boost10filesystem13portable_nameERKSs' filepath='src/third_party/boost-1.56.0/libs/filesystem/src/portability.cpp' line='85' column='1' visibility='default' binding='global' size-in-bits='64' elf-symbol-id='_ZN5boost10filesystem13portable_nameERKSs' hash='c7c710e908194b91'>
          <parameter type-id='type-id-340' filepath='src/third_party/boost-1.56.0/libs/filesystem/src/portability.cpp' line='61' column='1'/>
          <return type-id='type-id-1'/>
        </function-decl>
        <function-decl name='portable_directory_name' mangled-name='_ZN5boost10filesystem23portable_directory_nameERKSs' filepath='src/third_party/boost-1.56.0/libs/filesystem/src/portability.cpp' line='96' column='1' visibility='default' binding='global' size-in-bits='64' elf-symbol-id='_ZN5boost10filesystem23portable_directory_nameERKSs' hash='c7c710e908194b91'>
          <parameter type-id='type-id-340' filepath='src/third_party/boost-1.56.0/libs/filesystem/src/portability.cpp' line='61' column='1'/>
          <return type-id='type-id-1'/>
        </function-decl>
        <function-decl name='portable_file_name' mangled-name='_ZN5boost10filesystem18portable_file_nameERKSs' filepath='src/third_party/boost-1.56.0/libs/filesystem/src/portability.cpp' line='105' column='1' visibility='default' binding='global' size-in-bits='64' elf-symbol-id='_ZN5boost10filesystem18portable_file_nameERKSs' hash='c7c710e908194b91'>
          <parameter type-id='type-id-340' filepath='src/third_party/boost-1.56.0/libs/filesystem/src/portability.cpp' line='61' column='1'/>
          <return type-id='type-id-1'/>
        </function-decl>
      </namespace-decl>
      <namespace-decl name='system'>
      </namespace-decl>
    </namespace-decl>
  </abi-instr>
  <abi-instr address-size='64' path='src/third_party/boost-1.56.0/libs/filesystem/src/unique_path.cpp' comp-dir-path='/home/andrew/Documents/10gen/dev/src/mongodb' language='LANG_C_plus_plus'>
    <reference-type-def kind='lvalue' type-id='type-id-566' size-in-bits='64' hash='c526cf9f64b03b29' id='type-id-567'/>
    <pointer-type-def type-id='type-id-566' size-in-bits='64' hash='f467786f99f44631' id='type-id-568'/>
    <qualified-type-def type-id='type-id-566' const='yes' hash='2ffe435c181b8717' id='type-id-569'/>
    <pointer-type-def type-id='type-id-569' size-in-bits='64' hash='b7bbd593d5830268' id='type-id-570'/>
    <reference-type-def kind='lvalue' type-id='type-id-86' size-in-bits='64' hash='2c59108f0fd812ce' id='type-id-571'/>
    <qualified-type-def type-id='type-id-87' const='yes' hash='4280ffa5775babbc' id='type-id-572'/>
    <reference-type-def kind='lvalue' type-id='type-id-572' size-in-bits='64' hash='ca48e0c6b7419d86' id='type-id-573'/>
    <pointer-type-def type-id='type-id-574' size-in-bits='64' id='type-id-575'/>
    <qualified-type-def type-id='type-id-575' restrict='yes' id='type-id-576'/>
    <pointer-type-def type-id='type-id-577' size-in-bits='64' id='type-id-578'/>
    <qualified-type-def type-id='type-id-578' restrict='yes' id='type-id-579'/>
    <pointer-type-def type-id='type-id-580' size-in-bits='64' id='type-id-396'/>
    <qualified-type-def type-id='type-id-389' const='yes' id='type-id-581'/>
    <qualified-type-def type-id='type-id-393' const='yes' id='type-id-582'/>
    <qualified-type-def type-id='type-id-583' const='yes' id='type-id-584'/>
    <qualified-type-def type-id='type-id-394' const='yes' id='type-id-585'/>
    <qualified-type-def type-id='type-id-586' const='yes' id='type-id-587'/>
    <reference-type-def kind='lvalue' type-id='type-id-587' size-in-bits='64' id='type-id-395'/>
    <qualified-type-def type-id='type-id-588' const='yes' id='type-id-589'/>
    <qualified-type-def type-id='type-id-590' const='yes' id='type-id-591'/>
    <reference-type-def kind='lvalue' type-id='type-id-591' size-in-bits='64' id='type-id-592'/>
    <pointer-type-def type-id='type-id-593' size-in-bits='64' id='type-id-594'/>
    <class-decl name='_IO_FILE' is-struct='yes' visibility='default' is-declaration-only='yes' id='type-id-595'/>
    <class-decl name='lconv' is-struct='yes' visibility='default' is-declaration-only='yes' id='type-id-593'/>
    <qualified-type-def type-id='type-id-14' restrict='yes' id='type-id-596'/>
    <qualified-type-def type-id='type-id-14' restrict='yes' id='type-id-597'/>
    <namespace-decl name='__gnu_cxx'>
      <class-decl name='__normal_iterator&lt;const wchar_t *, std::basic_string&lt;wchar_t&gt; &gt;' visibility='default' size-in-bits='64' filepath='/usr/bin/../lib/gcc/x86_64-linux-gnu/4.9/../../../../include/c++/4.9/bits/stl_iterator.h' line='709' column='1' hash='a1e83584d96f9e5a' id='type-id-566'>
        <member-type access='private'>
          <typedef-decl name='difference_type' type-id='type-id-599' size-in-bits='64' filepath='/usr/bin/../lib/gcc/x86_64-linux-gnu/4.9/../../../../include/c++/4.9/bits/stl_iterator.h' line='720' column='1' hash='b119fe0931d2ee10' id='type-id-598'/>
        </member-type>
        <member-type access='private'>
          <typedef-decl name='pointer' type-id='type-id-601' size-in-bits='64' filepath='/usr/bin/../lib/gcc/x86_64-linux-gnu/4.9/../../../../include/c++/4.9/bits/stl_iterator.h' line='722' column='1' hash='317089067e76910a' id='type-id-600'/>
        </member-type>
        <member-type access='private'>
          <typedef-decl name='reference' type-id='type-id-603' size-in-bits='64' filepath='/usr/bin/../lib/gcc/x86_64-linux-gnu/4.9/../../../../include/c++/4.9/bits/stl_iterator.h' line='721' column='1' hash='2c59108f0fd812ce' id='type-id-602'/>
        </member-type>
        <data-member access='protected' layout-offset-in-bits='0'>
          <var-decl name='_M_current' type-id='type-id-87' visibility='default' filepath='/usr/bin/../lib/gcc/x86_64-linux-gnu/4.9/../../../../include/c++/4.9/bits/stl_iterator.h' line='712' column='1'/>
        </data-member>
        <member-function access='public' const='yes'>
          <function-decl name='operator*' mangled-name='_ZNK9__gnu_cxx17__normal_iteratorIPKwSbIwSt11char_traitsIwESaIwEEEdeEv' filepath='/usr/bin/../lib/gcc/x86_64-linux-gnu/4.9/../../../../include/c++/4.9/bits/stl_iterator.h' line='741' column='1' visibility='default' binding='global' size-in-bits='64' elf-symbol-id='_ZNK9__gnu_cxx17__normal_iteratorIPKwSbIwSt11char_traitsIwESaIwEEEdeEv' hash='dc673392845f1b71'>
            <parameter type-id='type-id-570' is-artificial='yes'/>
            <return type-id='type-id-602'/>
          </function-decl>
        </member-function>
      </class-decl>
    </namespace-decl>
    <namespace-decl name='std'>
      <class-decl name='iterator_traits&lt;const wchar_t *&gt;' is-struct='yes' visibility='default' size-in-bits='8' filepath='/usr/bin/../lib/gcc/x86_64-linux-gnu/4.9/../../../../include/c++/4.9/bits/stl_iterator_base_types.h' line='186' column='1' hash='9d1b8466891e0175' id='type-id-604'>
        <member-type access='public'>
          <typedef-decl name='difference_type' type-id='type-id-355' size-in-bits='64' filepath='/usr/bin/../lib/gcc/x86_64-linux-gnu/4.9/../../../../include/c++/4.9/bits/stl_iterator_base_types.h' line='190' column='1' hash='b119fe0931d2ee10' id='type-id-599'/>
        </member-type>
        <member-type access='public'>
          <typedef-decl name='pointer' type-id='type-id-87' size-in-bits='64' filepath='/usr/bin/../lib/gcc/x86_64-linux-gnu/4.9/../../../../include/c++/4.9/bits/stl_iterator_base_types.h' line='191' column='1' hash='317089067e76910a' id='type-id-601'/>
        </member-type>
        <member-type access='public'>
          <typedef-decl name='reference' type-id='type-id-571' size-in-bits='64' filepath='/usr/bin/../lib/gcc/x86_64-linux-gnu/4.9/../../../../include/c++/4.9/bits/stl_iterator_base_types.h' line='192' column='1' hash='2c59108f0fd812ce' id='type-id-603'/>
        </member-type>
      </class-decl>
      <class-decl name='basic_string&lt;char, std::char_traits&lt;char&gt;, std::allocator&lt;char&gt; &gt;' visibility='default' is-declaration-only='yes' id='type-id-394'>
        <member-function access='public'>
          <function-decl name='basic_string&lt;char *&gt;' mangled-name='_ZNSsC2IPcEET_S1_RKSaIcE' filepath='/usr/bin/../lib/gcc/x86_64-linux-gnu/4.9/../../../../include/c++/4.9/bits/basic_string.h' line='540' column='1' visibility='default' binding='global' size-in-bits='64' elf-symbol-id='_ZNSsC2IPcEET_S1_RKSaIcE' hash='6faa8831d3af3ad4'>
            <parameter type-id='type-id-117' is-artificial='yes'/>
            <parameter type-id='type-id-53' filepath='/usr/bin/../lib/gcc/x86_64-linux-gnu/4.9/../../../../include/c++/4.9/bits/basic_string.tcc' line='540' column='1'/>
            <parameter type-id='type-id-53' filepath='/usr/bin/../lib/gcc/x86_64-linux-gnu/4.9/../../../../include/c++/4.9/bits/basic_string.tcc' line='540' column='1'/>
            <parameter type-id='type-id-118' filepath='/usr/bin/../lib/gcc/x86_64-linux-gnu/4.9/../../../../include/c++/4.9/bits/basic_string.tcc' line='541' column='1'/>
            <return type-id='type-id-119'/>
          </function-decl>
        </member-function>
        <member-function access='public'>
          <function-decl name='append&lt;const char *&gt;' mangled-name='_ZNSs6appendIPKcEERSsT_S3_' filepath='/usr/bin/../lib/gcc/x86_64-linux-gnu/4.9/../../../../include/c++/4.9/bits/basic_string.h' line='1061' column='1' visibility='default' binding='global' size-in-bits='64' elf-symbol-id='_ZNSs6appendIPKcEERSsT_S3_' hash='3d5693612af11c46'>
            <parameter type-id='type-id-117' is-artificial='yes'/>
            <parameter type-id='type-id-18' filepath='/usr/bin/../lib/gcc/x86_64-linux-gnu/4.9/../../../../include/c++/4.9/bits/basic_string.h' line='1061' column='1'/>
            <parameter type-id='type-id-18' filepath='/usr/bin/../lib/gcc/x86_64-linux-gnu/4.9/../../../../include/c++/4.9/bits/basic_string.h' line='1061' column='1'/>
            <return type-id='type-id-120'/>
          </function-decl>
        </member-function>
        <member-function access='private' static='yes'>
          <function-decl name='_S_construct&lt;char *&gt;' mangled-name='_ZNSs12_S_constructIPcEES0_T_S1_RKSaIcE' filepath='/usr/bin/../lib/gcc/x86_64-linux-gnu/4.9/../../../../include/c++/4.9/bits/basic_string.h' line='1761' column='1' visibility='default' binding='global' size-in-bits='64' elf-symbol-id='_ZNSs12_S_constructIPcEES0_T_S1_RKSaIcE' hash='9895045035709c6f'>
            <parameter type-id='type-id-53' filepath='/usr/bin/../lib/gcc/x86_64-linux-gnu/4.9/../../../../include/c++/4.9/bits/basic_string.h' line='1761' column='1'/>
            <parameter type-id='type-id-53' filepath='/usr/bin/../lib/gcc/x86_64-linux-gnu/4.9/../../../../include/c++/4.9/bits/basic_string.h' line='1761' column='1'/>
            <parameter type-id='type-id-118' filepath='/usr/bin/../lib/gcc/x86_64-linux-gnu/4.9/../../../../include/c++/4.9/bits/basic_string.h' line='1761' column='1'/>
            <return type-id='type-id-53'/>
          </function-decl>
        </member-function>
        <member-function access='private' static='yes'>
          <function-decl name='_S_construct_aux&lt;char *&gt;' mangled-name='_ZNSs16_S_construct_auxIPcEES0_T_S1_RKSaIcESt12__false_type' filepath='/usr/bin/../lib/gcc/x86_64-linux-gnu/4.9/../../../../include/c++/4.9/bits/basic_string.h' line='1739' column='1' visibility='default' binding='global' size-in-bits='64' elf-symbol-id='_ZNSs16_S_construct_auxIPcEES0_T_S1_RKSaIcESt12__false_type' hash='9895045035709c6f'>
            <parameter type-id='type-id-53' filepath='/usr/bin/../lib/gcc/x86_64-linux-gnu/4.9/../../../../include/c++/4.9/bits/basic_string.h' line='1739' column='1'/>
            <parameter type-id='type-id-53' filepath='/usr/bin/../lib/gcc/x86_64-linux-gnu/4.9/../../../../include/c++/4.9/bits/basic_string.h' line='1739' column='1'/>
            <parameter type-id='type-id-118' filepath='/usr/bin/../lib/gcc/x86_64-linux-gnu/4.9/../../../../include/c++/4.9/bits/basic_string.h' line='1740' column='1'/>
            <parameter type-id='type-id-121' filepath='/usr/bin/../lib/gcc/x86_64-linux-gnu/4.9/../../../../include/c++/4.9/bits/basic_string.h' line='1740' column='1'/>
            <return type-id='type-id-53'/>
          </function-decl>
        </member-function>
        <member-function access='private' static='yes'>
          <function-decl name='_S_construct&lt;char *&gt;' mangled-name='_ZNSs12_S_constructIPcEES0_T_S1_RKSaIcESt20forward_iterator_tag' filepath='/usr/bin/../lib/gcc/x86_64-linux-gnu/4.9/../../../../include/c++/4.9/bits/basic_string.h' line='1777' column='1' visibility='default' binding='global' size-in-bits='64' elf-symbol-id='_ZNSs12_S_constructIPcEES0_T_S1_RKSaIcESt20forward_iterator_tag' hash='9895045035709c6f'>
            <parameter type-id='type-id-53' filepath='/usr/bin/../lib/gcc/x86_64-linux-gnu/4.9/../../../../include/c++/4.9/bits/basic_string.tcc' line='1777' column='1'/>
            <parameter type-id='type-id-53' filepath='/usr/bin/../lib/gcc/x86_64-linux-gnu/4.9/../../../../include/c++/4.9/bits/basic_string.tcc' line='1777' column='1'/>
            <parameter type-id='type-id-118' filepath='/usr/bin/../lib/gcc/x86_64-linux-gnu/4.9/../../../../include/c++/4.9/bits/basic_string.tcc' line='1777' column='1'/>
            <parameter type-id='type-id-122' filepath='/usr/bin/../lib/gcc/x86_64-linux-gnu/4.9/../../../../include/c++/4.9/bits/basic_string.tcc' line='1778' column='1'/>
            <return type-id='type-id-53'/>
          </function-decl>
        </member-function>
        <member-function access='public'>
          <function-decl name='basic_string&lt;const char *&gt;' mangled-name='_ZNSsC2IPKcEET_S2_RKSaIcE' filepath='/usr/bin/../lib/gcc/x86_64-linux-gnu/4.9/../../../../include/c++/4.9/bits/basic_string.h' line='540' column='1' visibility='default' binding='global' size-in-bits='64' elf-symbol-id='_ZNSsC2IPKcEET_S2_RKSaIcE' hash='3d5693612af11c46'>
            <parameter type-id='type-id-123' is-artificial='yes'/>
            <parameter type-id='type-id-18' filepath='/usr/bin/../lib/gcc/x86_64-linux-gnu/4.9/../../../../include/c++/4.9/bits/basic_string.tcc' line='540' column='1'/>
            <parameter type-id='type-id-18' filepath='/usr/bin/../lib/gcc/x86_64-linux-gnu/4.9/../../../../include/c++/4.9/bits/basic_string.tcc' line='540' column='1'/>
            <parameter type-id='type-id-118' filepath='/usr/bin/../lib/gcc/x86_64-linux-gnu/4.9/../../../../include/c++/4.9/bits/basic_string.tcc' line='541' column='1'/>
            <return type-id='type-id-119'/>
          </function-decl>
        </member-function>
        <member-function access='private' static='yes'>
          <function-decl name='_S_construct&lt;const char *&gt;' mangled-name='_ZNSs12_S_constructIPKcEEPcT_S3_RKSaIcE' filepath='/usr/bin/../lib/gcc/x86_64-linux-gnu/4.9/../../../../include/c++/4.9/bits/basic_string.h' line='1761' column='1' visibility='default' binding='global' size-in-bits='64' elf-symbol-id='_ZNSs12_S_constructIPKcEEPcT_S3_RKSaIcE' hash='21babdbcb7a34ebe'>
            <parameter type-id='type-id-18' filepath='/usr/bin/../lib/gcc/x86_64-linux-gnu/4.9/../../../../include/c++/4.9/bits/basic_string.h' line='1761' column='1'/>
            <parameter type-id='type-id-18' filepath='/usr/bin/../lib/gcc/x86_64-linux-gnu/4.9/../../../../include/c++/4.9/bits/basic_string.h' line='1761' column='1'/>
            <parameter type-id='type-id-118' filepath='/usr/bin/../lib/gcc/x86_64-linux-gnu/4.9/../../../../include/c++/4.9/bits/basic_string.h' line='1761' column='1'/>
            <return type-id='type-id-53'/>
          </function-decl>
        </member-function>
        <member-function access='private' static='yes'>
          <function-decl name='_S_construct_aux&lt;const char *&gt;' mangled-name='_ZNSs16_S_construct_auxIPKcEEPcT_S3_RKSaIcESt12__false_type' filepath='/usr/bin/../lib/gcc/x86_64-linux-gnu/4.9/../../../../include/c++/4.9/bits/basic_string.h' line='1739' column='1' visibility='default' binding='global' size-in-bits='64' elf-symbol-id='_ZNSs16_S_construct_auxIPKcEEPcT_S3_RKSaIcESt12__false_type' hash='21babdbcb7a34ebe'>
            <parameter type-id='type-id-18' filepath='/usr/bin/../lib/gcc/x86_64-linux-gnu/4.9/../../../../include/c++/4.9/bits/basic_string.h' line='1739' column='1'/>
            <parameter type-id='type-id-18' filepath='/usr/bin/../lib/gcc/x86_64-linux-gnu/4.9/../../../../include/c++/4.9/bits/basic_string.h' line='1739' column='1'/>
            <parameter type-id='type-id-118' filepath='/usr/bin/../lib/gcc/x86_64-linux-gnu/4.9/../../../../include/c++/4.9/bits/basic_string.h' line='1740' column='1'/>
            <parameter type-id='type-id-121' filepath='/usr/bin/../lib/gcc/x86_64-linux-gnu/4.9/../../../../include/c++/4.9/bits/basic_string.h' line='1740' column='1'/>
            <return type-id='type-id-53'/>
          </function-decl>
        </member-function>
        <member-function access='private' static='yes'>
          <function-decl name='_S_construct&lt;const char *&gt;' mangled-name='_ZNSs12_S_constructIPKcEEPcT_S3_RKSaIcESt20forward_iterator_tag' filepath='/usr/bin/../lib/gcc/x86_64-linux-gnu/4.9/../../../../include/c++/4.9/bits/basic_string.h' line='1777' column='1' visibility='default' binding='global' size-in-bits='64' elf-symbol-id='_ZNSs12_S_constructIPKcEEPcT_S3_RKSaIcESt20forward_iterator_tag' hash='21babdbcb7a34ebe'>
            <parameter type-id='type-id-18' filepath='/usr/bin/../lib/gcc/x86_64-linux-gnu/4.9/../../../../include/c++/4.9/bits/basic_string.tcc' line='1777' column='1'/>
            <parameter type-id='type-id-18' filepath='/usr/bin/../lib/gcc/x86_64-linux-gnu/4.9/../../../../include/c++/4.9/bits/basic_string.tcc' line='1777' column='1'/>
            <parameter type-id='type-id-118' filepath='/usr/bin/../lib/gcc/x86_64-linux-gnu/4.9/../../../../include/c++/4.9/bits/basic_string.tcc' line='1777' column='1'/>
            <parameter type-id='type-id-122' filepath='/usr/bin/../lib/gcc/x86_64-linux-gnu/4.9/../../../../include/c++/4.9/bits/basic_string.tcc' line='1778' column='1'/>
            <return type-id='type-id-53'/>
          </function-decl>
        </member-function>
        <member-function access='public'>
          <function-decl name='append&lt;char *&gt;' mangled-name='_ZNSs6appendIPcEERSsT_S2_' filepath='/usr/bin/../lib/gcc/x86_64-linux-gnu/4.9/../../../../include/c++/4.9/bits/basic_string.h' line='1061' column='1' visibility='default' binding='global' size-in-bits='64' elf-symbol-id='_ZNSs6appendIPcEERSsT_S2_' hash='6faa8831d3af3ad4'>
            <parameter type-id='type-id-124' is-artificial='yes'/>
            <parameter type-id='type-id-53' filepath='/usr/bin/../lib/gcc/x86_64-linux-gnu/4.9/../../../../include/c++/4.9/bits/basic_string.h' line='1061' column='1'/>
            <parameter type-id='type-id-53' filepath='/usr/bin/../lib/gcc/x86_64-linux-gnu/4.9/../../../../include/c++/4.9/bits/basic_string.h' line='1061' column='1'/>
            <return type-id='type-id-120'/>
          </function-decl>
        </member-function>
      </class-decl>
      <class-decl name='basic_string&lt;wchar_t, std::char_traits&lt;wchar_t&gt;, std::allocator&lt;wchar_t&gt; &gt;' visibility='default' is-declaration-only='yes' id='type-id-586'>
        <member-function access='public'>
          <function-decl name='append&lt;wchar_t *&gt;' mangled-name='_ZNSbIwSt11char_traitsIwESaIwEE6appendIPwEERS2_T_S6_' filepath='/usr/bin/../lib/gcc/x86_64-linux-gnu/4.9/../../../../include/c++/4.9/bits/basic_string.h' line='1061' column='1' visibility='default' binding='global' size-in-bits='64' elf-symbol-id='_ZNSbIwSt11char_traitsIwESaIwEE6appendIPwEERS2_T_S6_' hash='52964de53fd173e9'>
            <parameter type-id='type-id-365' is-artificial='yes'/>
            <parameter type-id='type-id-100' filepath='/usr/bin/../lib/gcc/x86_64-linux-gnu/4.9/../../../../include/c++/4.9/bits/basic_string.h' line='1061' column='1'/>
            <parameter type-id='type-id-100' filepath='/usr/bin/../lib/gcc/x86_64-linux-gnu/4.9/../../../../include/c++/4.9/bits/basic_string.h' line='1061' column='1'/>
            <return type-id='type-id-366'/>
          </function-decl>
        </member-function>
      </class-decl>
      <class-decl name='codecvt&lt;wchar_t, char, __mbstate_t&gt;' visibility='default' is-declaration-only='yes' id='type-id-390'/>
      <typedef-decl name='string' type-id='type-id-394' filepath='/usr/bin/../lib/gcc/x86_64-linux-gnu/4.9/../../../../include/c++/4.9/bits/stringfwd.h' line='62' column='1' id='type-id-588'/>
      <typedef-decl name='wstring' type-id='type-id-586' filepath='/usr/bin/../lib/gcc/x86_64-linux-gnu/4.9/../../../../include/c++/4.9/bits/stringfwd.h' line='68' column='1' id='type-id-590'/>
    </namespace-decl>
    <typedef-decl name='FILE' type-id='type-id-595' filepath='/usr/include/stdio.h' line='48' column='1' id='type-id-574'/>
    <typedef-decl name='__FILE' type-id='type-id-595' filepath='/usr/include/stdio.h' line='64' column='1' id='type-id-577'/>
    <namespace-decl name='boost'>
      <class-decl name='enable_if_c&lt;true, void&gt;' is-struct='yes' visibility='default' size-in-bits='8' filepath='src/third_party/boost-1.56.0/boost/core/enable_if.hpp' line='28' column='1' hash='07f7f3a65542219e' id='type-id-605'>
        <member-type access='public'>
          <typedef-decl name='type' type-id='type-id-119' filepath='src/third_party/boost-1.56.0/boost/core/enable_if.hpp' line='29' column='1' id='type-id-580'/>
        </member-type>
      </class-decl>
      <namespace-decl name='filesystem'>
        <namespace-decl name='detail'>
          <function-decl name='unique_path' mangled-name='_ZN5boost10filesystem6detail11unique_pathERKNS0_4pathEPNS_6system10error_codeE' filepath='src/third_party/boost-1.56.0/libs/filesystem/src/unique_path.cpp' line='111' column='1' visibility='default' binding='global' size-in-bits='64' elf-symbol-id='_ZN5boost10filesystem6detail11unique_pathERKNS0_4pathEPNS_6system10error_codeE' hash='e2bb4aa31bf09068'>
            <parameter type-id='type-id-255' filepath='src/third_party/boost-1.56.0/libs/filesystem/src/operations.cpp' line='1458' column='1'/>
            <parameter type-id='type-id-50' filepath='src/third_party/boost-1.56.0/libs/filesystem/src/operations.cpp' line='1458' column='1'/>
            <return type-id='type-id-192'/>
          </function-decl>
        </namespace-decl>
        <namespace-decl name='path_traits'>
          <typedef-decl name='codecvt_type' type-id='type-id-390' filepath='src/third_party/boost-1.56.0/boost/filesystem/path_traits.hpp' line='52' column='1' id='type-id-583'/>
          <function-decl name='dispatch&lt;std::basic_string&lt;char&gt; &gt;' mangled-name='_ZN5boost10filesystem11path_traits8dispatchISsEEvRKSbIwSt11char_traitsIwESaIwEERT_RKSt7codecvtIwc11__mbstate_tE' filepath='src/third_party/boost-1.56.0/boost/filesystem/path_traits.hpp' line='177' column='1' visibility='default' binding='global' size-in-bits='64' elf-symbol-id='_ZN5boost10filesystem11path_traits8dispatchISsEEvRKSbIwSt11char_traitsIwESaIwEERT_RKSt7codecvtIwc11__mbstate_tE' hash='7f32ffea222edbe7'>
            <parameter type-id='type-id-592' filepath='src/third_party/boost-1.56.0/boost/filesystem/path_traits.hpp' line='177' column='1'/>
            <parameter type-id='type-id-120' filepath='src/third_party/boost-1.56.0/boost/filesystem/path_traits.hpp' line='177' column='1'/>
            <parameter type-id='type-id-328' filepath='src/third_party/boost-1.56.0/boost/filesystem/path_traits.hpp' line='177' column='1'/>
            <return type-id='type-id-119'/>
          </function-decl>
        </namespace-decl>
      </namespace-decl>
      <namespace-decl name='system'>
      </namespace-decl>
    </namespace-decl>
  </abi-instr>
  <abi-instr address-size='64' path='src/third_party/boost-1.56.0/libs/filesystem/src/utf8_codecvt_facet.cpp' comp-dir-path='/home/andrew/Documents/10gen/dev/src/mongodb' language='LANG_C_plus_plus'>
    <class-decl name='lldiv_t' is-struct='yes' naming-typedef-id='type-id-32' visibility='default' size-in-bits='128' filepath='/usr/include/stdlib.h' line='117' column='1' hash='564e04be97ca0408' id='type-id-31'>
      <data-member access='public' layout-offset-in-bits='0'>
        <var-decl name='quot' type-id='type-id-11' visibility='default' filepath='/usr/include/stdlib.h' line='119' column='1'/>
      </data-member>
      <data-member access='public' layout-offset-in-bits='64'>
        <var-decl name='rem' type-id='type-id-11' visibility='default' filepath='/usr/include/stdlib.h' line='120' column='1'/>
      </data-member>
    </class-decl>
    <typedef-decl name='_G_fpos_t' type-id='type-id-31' size-in-bits='128' filepath='/usr/include/_G_config.h' line='25' column='1' id='type-id-606'/>
    <typedef-decl name='div_t' type-id='type-id-31' size-in-bits='128' filepath='/usr/include/stdlib.h' line='101' column='1' id='type-id-607'/>
    <typedef-decl name='fpos_t' type-id='type-id-606' size-in-bits='128' filepath='/usr/include/stdio.h' line='110' column='1' id='type-id-608'/>
    <type-decl name='unsigned char' size-in-bits='8' hash='6ebac62b3366db68' id='type-id-609'/>
    <pointer-type-def type-id='type-id-610' size-in-bits='64' hash='ba1e5873973ca4e6' id='type-id-611'/>
    <reference-type-def kind='lvalue' type-id='type-id-53' size-in-bits='64' hash='41930ea09a217155' id='type-id-612'/>
    <qualified-type-def type-id='type-id-610' const='yes' hash='2a14a95b0fc4be20' id='type-id-613'/>
    <pointer-type-def type-id='type-id-613' size-in-bits='64' hash='67616be38690ad43' id='type-id-614'/>
    <reference-type-def kind='lvalue' type-id='type-id-18' size-in-bits='64' hash='61b8d56ccba036f1' id='type-id-615'/>
    <qualified-type-def type-id='type-id-608' const='yes' hash='d85759e223fc0d30#3' id='type-id-616'/>
    <pointer-type-def type-id='type-id-616' size-in-bits='64' hash='f7e9f827001f357b#3' id='type-id-617'/>
    <reference-type-def kind='lvalue' type-id='type-id-87' size-in-bits='64' hash='29ed0da342be01b8' id='type-id-618'/>
    <pointer-type-def type-id='type-id-608' size-in-bits='64' hash='7d5bf80d5b25efb1#3' id='type-id-619'/>
    <qualified-type-def type-id='type-id-619' restrict='yes' hash='27e7da842baf24fa#3' id='type-id-620'/>
    <reference-type-def kind='lvalue' type-id='type-id-33' size-in-bits='64' hash='ec4da5915db20925' id='type-id-621'/>
    <reference-type-def kind='lvalue' type-id='type-id-100' size-in-bits='64' hash='33c98d2013f11f5d' id='type-id-622'/>
    <pointer-type-def type-id='type-id-623' size-in-bits='64' id='type-id-624'/>
    <qualified-type-def type-id='type-id-624' restrict='yes' id='type-id-625'/>
    <pointer-type-def type-id='type-id-626' size-in-bits='64' id='type-id-627'/>
    <qualified-type-def type-id='type-id-627' restrict='yes' id='type-id-628'/>
    <pointer-type-def type-id='type-id-629' size-in-bits='64' id='type-id-630'/>
    <class-decl name='_IO_FILE' is-struct='yes' visibility='default' is-declaration-only='yes' id='type-id-631'/>
    <class-decl name='lconv' is-struct='yes' visibility='default' is-declaration-only='yes' id='type-id-629'/>
    <qualified-type-def type-id='type-id-14' restrict='yes' id='type-id-632'/>
    <qualified-type-def type-id='type-id-14' restrict='yes' id='type-id-633'/>
    <namespace-decl name='std'>
      <class-decl name='numeric_limits&lt;wchar_t&gt;' is-struct='yes' visibility='default' size-in-bits='8' filepath='/usr/bin/../lib/gcc/x86_64-linux-gnu/4.9/../../../../include/c++/4.9/limits' line='650' column='1' hash='1ae247166ea6388a' id='type-id-634'>
        <member-function access='public' static='yes'>
          <function-decl name='max' mangled-name='_ZNSt14numeric_limitsIwE3maxEv' filepath='/usr/bin/../lib/gcc/x86_64-linux-gnu/4.9/../../../../include/c++/4.9/limits' line='658' column='1' visibility='default' binding='global' size-in-bits='64' elf-symbol-id='_ZNSt14numeric_limitsIwE3maxEv' hash='4a8a9b20b25a907c'>
            <return type-id='type-id-42'/>
          </function-decl>
        </member-function>
      </class-decl>
    </namespace-decl>
    <typedef-decl name='FILE' type-id='type-id-631' filepath='/usr/include/stdio.h' line='48' column='1' id='type-id-623'/>
    <typedef-decl name='__FILE' type-id='type-id-631' filepath='/usr/include/stdio.h' line='64' column='1' id='type-id-626'/>
    <namespace-decl name='boost'>
      <namespace-decl name='filesystem'>
        <namespace-decl name='detail'>
          <class-decl name='utf8_codecvt_facet' is-struct='yes' visibility='default' size-in-bits='192' filepath='src/third_party/boost-1.56.0/boost/detail/utf8_codecvt_facet.hpp' line='106' column='1' hash='4cc13da41afb68c3' id='type-id-610'>
            <base-class access='public' layout-offset-in-bits='0' type-id='type-id-390'/>
            <member-function access='protected' const='yes'>
              <function-decl name='invalid_leading_octet' mangled-name='_ZNK5boost10filesystem6detail18utf8_codecvt_facet21invalid_leading_octetEh' filepath='src/third_party/boost-1.56.0/boost/detail/utf8_codecvt_facet.hpp' line='138' column='1' visibility='default' binding='global' size-in-bits='64' elf-symbol-id='_ZNK5boost10filesystem6detail18utf8_codecvt_facet21invalid_leading_octetEh' hash='d5e141ff0e52545d'>
                <parameter type-id='type-id-614' is-artificial='yes'/>
                <parameter type-id='type-id-609'/>
                <return type-id='type-id-1'/>
              </function-decl>
            </member-function>
            <member-function access='protected' static='yes'>
              <function-decl name='get_cont_octet_count' mangled-name='_ZN5boost10filesystem6detail18utf8_codecvt_facet20get_cont_octet_countEh' filepath='src/third_party/boost-1.56.0/boost/detail/utf8_codecvt_facet.hpp' line='144' column='1' visibility='default' binding='global' size-in-bits='64' elf-symbol-id='_ZN5boost10filesystem6detail18utf8_codecvt_facet20get_cont_octet_countEh' hash='c0c40da8db3556e9'>
                <parameter type-id='type-id-609'/>
                <return type-id='type-id-13'/>
              </function-decl>
            </member-function>
            <member-function access='protected' const='yes'>
              <function-decl name='invalid_continuing_octet' mangled-name='_ZNK5boost10filesystem6detail18utf8_codecvt_facet24invalid_continuing_octetEh' filepath='src/third_party/boost-1.56.0/boost/detail/utf8_codecvt_facet.hpp' line='134' column='1' visibility='default' binding='global' size-in-bits='64' elf-symbol-id='_ZNK5boost10filesystem6detail18utf8_codecvt_facet24invalid_continuing_octetEh' hash='d5e141ff0e52545d'>
                <parameter type-id='type-id-614' is-artificial='yes'/>
                <parameter type-id='type-id-609'/>
                <return type-id='type-id-1'/>
              </function-decl>
            </member-function>
            <member-function access='protected' const='yes'>
              <function-decl name='get_cont_octet_out_count' mangled-name='_ZNK5boost10filesystem6detail18utf8_codecvt_facet24get_cont_octet_out_countEw' filepath='src/third_party/boost-1.56.0/boost/detail/utf8_codecvt_facet.hpp' line='152' column='1' visibility='default' binding='global' size-in-bits='64' elf-symbol-id='_ZNK5boost10filesystem6detail18utf8_codecvt_facet24get_cont_octet_out_countEw' hash='2e53064594462585'>
                <parameter type-id='type-id-614' is-artificial='yes'/>
                <parameter type-id='type-id-42'/>
                <return type-id='type-id-8'/>
              </function-decl>
            </member-function>
            <member-function access='protected' static='yes'>
              <function-decl name='get_octet_count' mangled-name='_ZN5boost10filesystem6detail18utf8_codecvt_facet15get_octet_countEh' filepath='src/third_party/boost-1.56.0/boost/detail/utf8_codecvt_facet.hpp' line='148' column='1' visibility='default' binding='global' size-in-bits='64' elf-symbol-id='_ZN5boost10filesystem6detail18utf8_codecvt_facet15get_octet_countEh' hash='c0c40da8db3556e9'>
                <parameter type-id='type-id-609'/>
                <return type-id='type-id-13'/>
              </function-decl>
            </member-function>
            <member-function access='protected' const='yes' vtable-offset='2'>
              <function-decl name='do_out' mangled-name='_ZNK5boost10filesystem6detail18utf8_codecvt_facet6do_outER11__mbstate_tPKwS6_RS6_PcS8_RS8_' filepath='src/third_party/boost-1.56.0/boost/detail/utf8_codecvt_facet.hpp' line='124' column='1' visibility='default' binding='global' size-in-bits='64' elf-symbol-id='_ZNK5boost10filesystem6detail18utf8_codecvt_facet6do_outER11__mbstate_tPKwS6_RS6_PcS8_RS8_' hash='2e5ff39dceacba28'>
                <parameter type-id='type-id-614' is-artificial='yes'/>
                <parameter type-id='type-id-621'/>
                <parameter type-id='type-id-87'/>
                <parameter type-id='type-id-87'/>
                <parameter type-id='type-id-618'/>
                <parameter type-id='type-id-53'/>
                <parameter type-id='type-id-53'/>
                <parameter type-id='type-id-612'/>
                <return type-id='type-id-548'/>
              </function-decl>
            </member-function>
            <member-function access='protected' const='yes' vtable-offset='3'>
              <function-decl name='do_unshift' mangled-name='_ZNK5boost10filesystem6detail18utf8_codecvt_facet10do_unshiftER11__mbstate_tPcS5_RS5_' filepath='src/third_party/boost-1.56.0/boost/detail/utf8_codecvt_facet.hpp' line='159' column='1' visibility='default' binding='global' size-in-bits='64' elf-symbol-id='_ZNK5boost10filesystem6detail18utf8_codecvt_facet10do_unshiftER11__mbstate_tPcS5_RS5_' hash='6368cac5378b0e8b'>
                <parameter type-id='type-id-614' is-artificial='yes'/>
                <parameter type-id='type-id-621'/>
                <parameter type-id='type-id-53'/>
                <parameter type-id='type-id-53'/>
                <parameter type-id='type-id-612'/>
                <return type-id='type-id-548'/>
              </function-decl>
            </member-function>
            <member-function access='protected' const='yes' vtable-offset='4'>
              <function-decl name='do_in' mangled-name='_ZNK5boost10filesystem6detail18utf8_codecvt_facet5do_inER11__mbstate_tPKcS6_RS6_PwS8_RS8_' filepath='src/third_party/boost-1.56.0/boost/detail/utf8_codecvt_facet.hpp' line='114' column='1' visibility='default' binding='global' size-in-bits='64' elf-symbol-id='_ZNK5boost10filesystem6detail18utf8_codecvt_facet5do_inER11__mbstate_tPKcS6_RS6_PwS8_RS8_' hash='2ff6bfaa1f5126b0'>
                <parameter type-id='type-id-614' is-artificial='yes'/>
                <parameter type-id='type-id-621'/>
                <parameter type-id='type-id-18'/>
                <parameter type-id='type-id-18'/>
                <parameter type-id='type-id-615'/>
                <parameter type-id='type-id-100'/>
                <parameter type-id='type-id-100'/>
                <parameter type-id='type-id-622'/>
                <return type-id='type-id-548'/>
              </function-decl>
            </member-function>
            <member-function access='protected' const='yes' vtable-offset='5'>
              <function-decl name='do_encoding' mangled-name='_ZNK5boost10filesystem6detail18utf8_codecvt_facet11do_encodingEv' filepath='src/third_party/boost-1.56.0/boost/detail/utf8_codecvt_facet.hpp' line='169' column='1' visibility='default' binding='global' size-in-bits='64' elf-symbol-id='_ZNK5boost10filesystem6detail18utf8_codecvt_facet11do_encodingEv' hash='388da3fa973fde78'>
                <parameter type-id='type-id-614' is-artificial='yes'/>
                <return type-id='type-id-8'/>
              </function-decl>
            </member-function>
            <member-function access='protected' const='yes' vtable-offset='6'>
              <function-decl name='do_always_noconv' mangled-name='_ZNK5boost10filesystem6detail18utf8_codecvt_facet16do_always_noconvEv' filepath='src/third_party/boost-1.56.0/boost/detail/utf8_codecvt_facet.hpp' line='154' column='1' visibility='default' binding='global' size-in-bits='64' elf-symbol-id='_ZNK5boost10filesystem6detail18utf8_codecvt_facet16do_always_noconvEv' hash='c7c710e908194b91'>
                <parameter type-id='type-id-614' is-artificial='yes'/>
                <return type-id='type-id-1'/>
              </function-decl>
            </member-function>
            <member-function access='protected' const='yes' vtable-offset='7'>
              <function-decl name='do_length' mangled-name='_ZNK5boost10filesystem6detail18utf8_codecvt_facet9do_lengthER11__mbstate_tPKcS6_m' filepath='src/third_party/boost-1.56.0/boost/detail/utf8_codecvt_facet.hpp' line='176' column='1' visibility='default' binding='global' size-in-bits='64' elf-symbol-id='_ZNK5boost10filesystem6detail18utf8_codecvt_facet9do_lengthER11__mbstate_tPKcS6_m' hash='d7ae9a2214d4d254'>
                <parameter type-id='type-id-614' is-artificial='yes'/>
                <parameter type-id='type-id-621'/>
                <parameter type-id='type-id-18'/>
                <parameter type-id='type-id-18'/>
                <parameter type-id='type-id-349'/>
                <return type-id='type-id-8'/>
              </function-decl>
            </member-function>
            <member-function access='protected' const='yes' vtable-offset='8'>
              <function-decl name='do_max_length' mangled-name='_ZNK5boost10filesystem6detail18utf8_codecvt_facet13do_max_lengthEv' filepath='src/third_party/boost-1.56.0/boost/detail/utf8_codecvt_facet.hpp' line='184' column='1' visibility='default' binding='global' size-in-bits='64' elf-symbol-id='_ZNK5boost10filesystem6detail18utf8_codecvt_facet13do_max_lengthEv' hash='388da3fa973fde78'>
                <parameter type-id='type-id-614' is-artificial='yes'/>
                <return type-id='type-id-8'/>
              </function-decl>
            </member-function>
          </class-decl>
        </namespace-decl>
      </namespace-decl>
    </namespace-decl>
  </abi-instr>
  <abi-instr address-size='64' path='src/third_party/boost-1.56.0/libs/filesystem/src/windows_file_codecvt.cpp' comp-dir-path='/home/andrew/Documents/10gen/dev/src/mongodb' language='LANG_C_plus_plus'>
    <typedef-decl name='__mbstate_t' type-id='type-id-31' size-in-bits='128' filepath='/usr/include/wchar.h' line='94' column='1' id='type-id-635'/>
    <typedef-decl name='mbstate_t' type-id='type-id-635' size-in-bits='128' filepath='/usr/include/wchar.h' line='106' column='1' id='type-id-636'/>
    <qualified-type-def type-id='type-id-636' const='yes' hash='cac52d8ca574fdb5#2' id='type-id-637'/>
    <pointer-type-def type-id='type-id-637' size-in-bits='64' hash='ff0e66f42762f560#2' id='type-id-638'/>
    <pointer-type-def type-id='type-id-636' size-in-bits='64' hash='18fb85b101e2cd25#2' id='type-id-639'/>
    <qualified-type-def type-id='type-id-639' restrict='yes' hash='42a15c82a35f0371#2' id='type-id-640'/>
    <pointer-type-def type-id='type-id-641' size-in-bits='64' id='type-id-642'/>
    <qualified-type-def type-id='type-id-642' restrict='yes' id='type-id-643'/>
    <class-decl name='_IO_FILE' is-struct='yes' visibility='default' is-declaration-only='yes' id='type-id-644'/>
    <typedef-decl name='__FILE' type-id='type-id-644' filepath='/usr/include/stdio.h' line='64' column='1' id='type-id-641'/>
  </abi-instr>
</abi-corpus>
