<abi-corpus version='2.4'>
  <elf-needed>
    <dependency name='build/debug/third_party/boost-1.56.0/libboost_system.so'/>
    <dependency name='librt.so.1'/>
    <dependency name='libdl.so.2'/>
    <dependency name='libstdc++.so.6'/>
    <dependency name='libm.so.6'/>
    <dependency name='libgcc_s.so.1'/>
    <dependency name='libpthread.so.0'/>
    <dependency name='libc.so.6'/>
  </elf-needed>
  <elf-function-symbols>
    <elf-symbol name='_ZN5boost10filesystem10is_symlinkENS0_11file_statusE' type='func-type' binding='weak-binding' visibility='default-visibility' is-defined='yes'/>
    <elf-symbol name='_ZN5boost10filesystem11file_statusC1ENS0_9file_typeENS0_5permsE' type='func-type' binding='weak-binding' visibility='default-visibility' is-defined='yes'/>
    <elf-symbol name='_ZN5boost10filesystem11file_statusC1Ev' type='func-type' binding='weak-binding' visibility='default-visibility' is-defined='yes'/>
    <elf-symbol name='_ZN5boost10filesystem11file_statusC2ENS0_9file_typeENS0_5permsE' type='func-type' binding='weak-binding' visibility='default-visibility' alias='_ZN5boost10filesystem11file_statusC1ENS0_9file_typeENS0_5permsE' is-defined='yes'/>
    <elf-symbol name='_ZN5boost10filesystem11file_statusC2Ev' type='func-type' binding='weak-binding' visibility='default-visibility' alias='_ZN5boost10filesystem11file_statusC1Ev' is-defined='yes'/>
    <elf-symbol name='_ZN5boost10filesystem11path_traits7convertEPKcRSsRKSt7codecvtIwc11__mbstate_tE' type='func-type' binding='weak-binding' visibility='default-visibility' is-defined='yes'/>
    <elf-symbol name='_ZN5boost10filesystem11path_traits7convertEPKcS3_RSbIwSt11char_traitsIwESaIwEERKSt7codecvtIwc11__mbstate_tE' type='func-type' binding='global-binding' visibility='default-visibility' is-defined='yes'/>
    <elf-symbol name='_ZN5boost10filesystem11path_traits7convertEPKcS3_RSsRKSt7codecvtIwc11__mbstate_tE' type='func-type' binding='weak-binding' visibility='default-visibility' is-defined='yes'/>
    <elf-symbol name='_ZN5boost10filesystem11path_traits7convertEPKwS3_RSsRKSt7codecvtIwc11__mbstate_tE' type='func-type' binding='global-binding' visibility='default-visibility' is-defined='yes'/>
    <elf-symbol name='_ZN5boost10filesystem11path_traits8dispatchERKNS0_15directory_entryERSsRKSt7codecvtIwc11__mbstate_tE' type='func-type' binding='global-binding' visibility='default-visibility' is-defined='yes'/>
    <elf-symbol name='_ZN5boost10filesystem11path_traits8dispatchISsEEvRKSbIwSt11char_traitsIwESaIwEERT_RKSt7codecvtIwc11__mbstate_tE' type='func-type' binding='weak-binding' visibility='default-visibility' is-defined='yes'/>
    <elf-symbol name='_ZN5boost10filesystem11path_traits8dispatchISsEEvRKSsRT_RKSt7codecvtIwc11__mbstate_tE' type='func-type' binding='weak-binding' visibility='default-visibility' is-defined='yes'/>
    <elf-symbol name='_ZN5boost10filesystem11path_traits8dispatchIcSsEEvRKPT_RT0_RKSt7codecvtIwc11__mbstate_tE' type='func-type' binding='weak-binding' visibility='default-visibility' is-defined='yes'/>
    <elf-symbol name='_ZN5boost10filesystem12copy_symlinkERKNS0_4pathES3_RNS_6system10error_codeE' type='func-type' binding='weak-binding' visibility='default-visibility' is-defined='yes'/>
    <elf-symbol name='_ZN5boost10filesystem12current_pathEv' type='func-type' binding='weak-binding' visibility='default-visibility' is-defined='yes'/>
    <elf-symbol name='_ZN5boost10filesystem12is_directoryENS0_11file_statusE' type='func-type' binding='weak-binding' visibility='default-visibility' is-defined='yes'/>
    <elf-symbol name='_ZN5boost10filesystem12is_directoryERKNS0_4pathE' type='func-type' binding='weak-binding' visibility='default-visibility' is-defined='yes'/>
    <elf-symbol name='_ZN5boost10filesystem12is_directoryERKNS0_4pathERNS_6system10error_codeE' type='func-type' binding='weak-binding' visibility='default-visibility' is-defined='yes'/>
    <elf-symbol name='_ZN5boost10filesystem12status_knownENS0_11file_statusE' type='func-type' binding='weak-binding' visibility='default-visibility' is-defined='yes'/>
    <elf-symbol name='_ZN5boost10filesystem12type_presentENS0_11file_statusE' type='func-type' binding='weak-binding' visibility='default-visibility' is-defined='yes'/>
    <elf-symbol name='_ZN5boost10filesystem12windows_nameERKSs' type='func-type' binding='global-binding' visibility='default-visibility' is-defined='yes'/>
    <elf-symbol name='_ZN5boost10filesystem13portable_nameERKSs' type='func-type' binding='global-binding' visibility='default-visibility' is-defined='yes'/>
    <elf-symbol name='_ZN5boost10filesystem14copy_directoryERKNS0_4pathES3_RNS_6system10error_codeE' type='func-type' binding='weak-binding' visibility='default-visibility' is-defined='yes'/>
    <elf-symbol name='_ZN5boost10filesystem14symlink_statusERKNS0_4pathERNS_6system10error_codeE' type='func-type' binding='weak-binding' visibility='default-visibility' is-defined='yes'/>
    <elf-symbol name='_ZN5boost10filesystem15directory_entry16replace_filenameERKNS0_4pathENS0_11file_statusES5_' type='func-type' binding='weak-binding' visibility='default-visibility' is-defined='yes'/>
    <elf-symbol name='_ZN5boost10filesystem15directory_entry6assignERKNS0_4pathENS0_11file_statusES5_' type='func-type' binding='weak-binding' visibility='default-visibility' is-defined='yes'/>
    <elf-symbol name='_ZN5boost10filesystem15directory_entryC1Ev' type='func-type' binding='weak-binding' visibility='default-visibility' is-defined='yes'/>
    <elf-symbol name='_ZN5boost10filesystem15directory_entryC2Ev' type='func-type' binding='weak-binding' visibility='default-visibility' alias='_ZN5boost10filesystem15directory_entryC1Ev' is-defined='yes'/>
    <elf-symbol name='_ZN5boost10filesystem15directory_entryD1Ev' type='func-type' binding='weak-binding' visibility='default-visibility' alias='_ZN5boost10filesystem15directory_entryD2Ev' is-defined='yes'/>
    <elf-symbol name='_ZN5boost10filesystem15directory_entryD2Ev' type='func-type' binding='weak-binding' visibility='default-visibility' is-defined='yes'/>
    <elf-symbol name='_ZN5boost10filesystem15is_regular_fileENS0_11file_statusE' type='func-type' binding='weak-binding' visibility='default-visibility' is-defined='yes'/>
    <elf-symbol name='_ZN5boost10filesystem16filesystem_error5m_impC1Ev' type='func-type' binding='weak-binding' visibility='default-visibility' alias='_ZN5boost10filesystem16filesystem_error5m_impC2Ev' is-defined='yes'/>
    <elf-symbol name='_ZN5boost10filesystem16filesystem_error5m_impC2Ev' type='func-type' binding='weak-binding' visibility='default-visibility' is-defined='yes'/>
    <elf-symbol name='_ZN5boost10filesystem16filesystem_error5m_impD1Ev' type='func-type' binding='weak-binding' visibility='default-visibility' alias='_ZN5boost10filesystem16filesystem_error5m_impD2Ev' is-defined='yes'/>
    <elf-symbol name='_ZN5boost10filesystem16filesystem_error5m_impD2Ev' type='func-type' binding='weak-binding' visibility='default-visibility' is-defined='yes'/>
    <elf-symbol name='_ZN5boost10filesystem16filesystem_errorC1ERKSsNS_6system10error_codeE' type='func-type' binding='weak-binding' visibility='default-visibility' is-defined='yes'/>
    <elf-symbol name='_ZN5boost10filesystem16filesystem_errorC1ERKSsRKNS0_4pathENS_6system10error_codeE' type='func-type' binding='weak-binding' visibility='default-visibility' is-defined='yes'/>
    <elf-symbol name='_ZN5boost10filesystem16filesystem_errorC1ERKSsRKNS0_4pathES6_NS_6system10error_codeE' type='func-type' binding='weak-binding' visibility='default-visibility' is-defined='yes'/>
    <elf-symbol name='_ZN5boost10filesystem16filesystem_errorC2ERKSsNS_6system10error_codeE' type='func-type' binding='weak-binding' visibility='default-visibility' alias='_ZN5boost10filesystem16filesystem_errorC1ERKSsNS_6system10error_codeE' is-defined='yes'/>
    <elf-symbol name='_ZN5boost10filesystem16filesystem_errorC2ERKSsRKNS0_4pathENS_6system10error_codeE' type='func-type' binding='weak-binding' visibility='default-visibility' alias='_ZN5boost10filesystem16filesystem_errorC1ERKSsRKNS0_4pathENS_6system10error_codeE' is-defined='yes'/>
    <elf-symbol name='_ZN5boost10filesystem16filesystem_errorC2ERKSsRKNS0_4pathES6_NS_6system10error_codeE' type='func-type' binding='weak-binding' visibility='default-visibility' alias='_ZN5boost10filesystem16filesystem_errorC1ERKSsRKNS0_4pathES6_NS_6system10error_codeE' is-defined='yes'/>
    <elf-symbol name='_ZN5boost10filesystem16filesystem_errorD0Ev' type='func-type' binding='weak-binding' visibility='default-visibility' is-defined='yes'/>
    <elf-symbol name='_ZN5boost10filesystem16filesystem_errorD1Ev' type='func-type' binding='weak-binding' visibility='default-visibility' is-defined='yes'/>
    <elf-symbol name='_ZN5boost10filesystem16filesystem_errorD2Ev' type='func-type' binding='weak-binding' visibility='default-visibility' alias='_ZN5boost10filesystem16filesystem_errorD1Ev' is-defined='yes'/>
    <elf-symbol name='_ZN5boost10filesystem18create_directoriesERKNS0_4pathERNS_6system10error_codeE' type='func-type' binding='weak-binding' visibility='default-visibility' is-defined='yes'/>
    <elf-symbol name='_ZN5boost10filesystem18directory_iterator9incrementERNS_6system10error_codeE' type='func-type' binding='weak-binding' visibility='default-visibility' is-defined='yes'/>
    <elf-symbol name='_ZN5boost10filesystem18directory_iterator9incrementEv' type='func-type' binding='weak-binding' visibility='default-visibility' is-defined='yes'/>
    <elf-symbol name='_ZN5boost10filesystem18directory_iteratorC1ERKNS0_4pathE' type='func-type' binding='weak-binding' visibility='default-visibility' is-defined='yes'/>
    <elf-symbol name='_ZN5boost10filesystem18directory_iteratorC1Ev' type='func-type' binding='weak-binding' visibility='default-visibility' is-defined='yes'/>
    <elf-symbol name='_ZN5boost10filesystem18directory_iteratorC2ERKNS0_4pathE' type='func-type' binding='weak-binding' visibility='default-visibility' alias='_ZN5boost10filesystem18directory_iteratorC1ERKNS0_4pathE' is-defined='yes'/>
    <elf-symbol name='_ZN5boost10filesystem18directory_iteratorC2Ev' type='func-type' binding='weak-binding' visibility='default-visibility' alias='_ZN5boost10filesystem18directory_iteratorC1Ev' is-defined='yes'/>
    <elf-symbol name='_ZN5boost10filesystem18directory_iteratorD1Ev' type='func-type' binding='weak-binding' visibility='default-visibility' is-defined='yes'/>
    <elf-symbol name='_ZN5boost10filesystem18directory_iteratorD2Ev' type='func-type' binding='weak-binding' visibility='default-visibility' alias='_ZN5boost10filesystem18directory_iteratorD1Ev' is-defined='yes'/>
    <elf-symbol name='_ZN5boost10filesystem18portable_file_nameERKSs' type='func-type' binding='global-binding' visibility='default-visibility' is-defined='yes'/>
    <elf-symbol name='_ZN5boost10filesystem19permissions_presentENS0_11file_statusE' type='func-type' binding='weak-binding' visibility='default-visibility' is-defined='yes'/>
    <elf-symbol name='_ZN5boost10filesystem19portable_posix_nameERKSs' type='func-type' binding='global-binding' visibility='default-visibility' is-defined='yes'/>
    <elf-symbol name='_ZN5boost10filesystem22codecvt_error_categoryEv' type='func-type' binding='global-binding' visibility='default-visibility' is-defined='yes'/>
    <elf-symbol name='_ZN5boost10filesystem23portable_directory_nameERKSs' type='func-type' binding='global-binding' visibility='default-visibility' is-defined='yes'/>
    <elf-symbol name='_ZN5boost10filesystem4path11m_normalizeEv' type='func-type' binding='global-binding' visibility='default-visibility' is-defined='yes'/>
    <elf-symbol name='_ZN5boost10filesystem4path15remove_filenameEv' type='func-type' binding='global-binding' visibility='default-visibility' is-defined='yes'/>
    <elf-symbol name='_ZN5boost10filesystem4path17replace_extensionERKS1_' type='func-type' binding='global-binding' visibility='default-visibility' is-defined='yes'/>
    <elf-symbol name='_ZN5boost10filesystem4path25m_path_iterator_decrementERNS1_8iteratorE' type='func-type' binding='global-binding' visibility='default-visibility' is-defined='yes'/>
    <elf-symbol name='_ZN5boost10filesystem4path25m_path_iterator_incrementERNS1_8iteratorE' type='func-type' binding='global-binding' visibility='default-visibility' is-defined='yes'/>
    <elf-symbol name='_ZN5boost10filesystem4path27m_erase_redundant_separatorEm' type='func-type' binding='global-binding' visibility='default-visibility' is-defined='yes'/>
    <elf-symbol name='_ZN5boost10filesystem4path28m_append_separator_if_neededEv' type='func-type' binding='global-binding' visibility='default-visibility' is-defined='yes'/>
    <elf-symbol name='_ZN5boost10filesystem4path5clearEv' type='func-type' binding='weak-binding' visibility='default-visibility' is-defined='yes'/>
    <elf-symbol name='_ZN5boost10filesystem4path5imbueERKSt6locale' type='func-type' binding='global-binding' visibility='default-visibility' is-defined='yes'/>
    <elf-symbol name='_ZN5boost10filesystem4path6assignIPcEERS1_T_S5_' type='func-type' binding='weak-binding' visibility='default-visibility' is-defined='yes'/>
    <elf-symbol name='_ZN5boost10filesystem4path6assignIPcEERS1_T_S5_RKSt7codecvtIwc11__mbstate_tE' type='func-type' binding='weak-binding' visibility='default-visibility' is-defined='yes'/>
    <elf-symbol name='_ZN5boost10filesystem4path7codecvtEv' type='func-type' binding='global-binding' visibility='default-visibility' is-defined='yes'/>
    <elf-symbol name='_ZN5boost10filesystem4path8iterator9decrementEv' type='func-type' binding='weak-binding' visibility='default-visibility' is-defined='yes'/>
    <elf-symbol name='_ZN5boost10filesystem4path8iterator9incrementEv' type='func-type' binding='weak-binding' visibility='default-visibility' is-defined='yes'/>
    <elf-symbol name='_ZN5boost10filesystem4path8iteratorC1ERKS2_' type='func-type' binding='weak-binding' visibility='default-visibility' is-defined='yes'/>
    <elf-symbol name='_ZN5boost10filesystem4path8iteratorC1Ev' type='func-type' binding='weak-binding' visibility='default-visibility' alias='_ZN5boost10filesystem4path8iteratorC2Ev' is-defined='yes'/>
    <elf-symbol name='_ZN5boost10filesystem4path8iteratorC2ERKS2_' type='func-type' binding='weak-binding' visibility='default-visibility' alias='_ZN5boost10filesystem4path8iteratorC1ERKS2_' is-defined='yes'/>
    <elf-symbol name='_ZN5boost10filesystem4path8iteratorC2Ev' type='func-type' binding='weak-binding' visibility='default-visibility' is-defined='yes'/>
    <elf-symbol name='_ZN5boost10filesystem4path8iteratorD1Ev' type='func-type' binding='weak-binding' visibility='default-visibility' alias='_ZN5boost10filesystem4path8iteratorD2Ev' is-defined='yes'/>
    <elf-symbol name='_ZN5boost10filesystem4path8iteratorD2Ev' type='func-type' binding='weak-binding' visibility='default-visibility' is-defined='yes'/>
    <elf-symbol name='_ZN5boost10filesystem4pathC1EPKc' type='func-type' binding='weak-binding' visibility='default-visibility' is-defined='yes'/>
    <elf-symbol name='_ZN5boost10filesystem4pathC1ERKS1_' type='func-type' binding='weak-binding' visibility='default-visibility' is-defined='yes'/>
    <elf-symbol name='_ZN5boost10filesystem4pathC1ERKSs' type='func-type' binding='weak-binding' visibility='default-visibility' is-defined='yes'/>
    <elf-symbol name='_ZN5boost10filesystem4pathC1Ev' type='func-type' binding='weak-binding' visibility='default-visibility' is-defined='yes'/>
    <elf-symbol name='_ZN5boost10filesystem4pathC1IPKcEET_S5_' type='func-type' binding='weak-binding' visibility='default-visibility' is-defined='yes'/>
    <elf-symbol name='_ZN5boost10filesystem4pathC1ISbIwSt11char_traitsIwESaIwEEEERKT_PNS_9enable_ifINS0_11path_traits11is_pathableINS_5decayIS7_E4typeEEEvE4typeE' type='func-type' binding='weak-binding' visibility='default-visibility' is-defined='yes'/>
    <elf-symbol name='_ZN5boost10filesystem4pathC2EPKc' type='func-type' binding='weak-binding' visibility='default-visibility' alias='_ZN5boost10filesystem4pathC1EPKc' is-defined='yes'/>
    <elf-symbol name='_ZN5boost10filesystem4pathC2ERKS1_' type='func-type' binding='weak-binding' visibility='default-visibility' alias='_ZN5boost10filesystem4pathC1ERKS1_' is-defined='yes'/>
    <elf-symbol name='_ZN5boost10filesystem4pathC2ERKSs' type='func-type' binding='weak-binding' visibility='default-visibility' alias='_ZN5boost10filesystem4pathC1ERKSs' is-defined='yes'/>
    <elf-symbol name='_ZN5boost10filesystem4pathC2Ev' type='func-type' binding='weak-binding' visibility='default-visibility' alias='_ZN5boost10filesystem4pathC1Ev' is-defined='yes'/>
    <elf-symbol name='_ZN5boost10filesystem4pathC2IPKcEET_S5_' type='func-type' binding='weak-binding' visibility='default-visibility' alias='_ZN5boost10filesystem4pathC1IPKcEET_S5_' is-defined='yes'/>
    <elf-symbol name='_ZN5boost10filesystem4pathC2ISbIwSt11char_traitsIwESaIwEEEERKT_PNS_9enable_ifINS0_11path_traits11is_pathableINS_5decayIS7_E4typeEEEvE4typeE' type='func-type' binding='weak-binding' visibility='default-visibility' alias='_ZN5boost10filesystem4pathC1ISbIwSt11char_traitsIwESaIwEEEERKT_PNS_9enable_ifINS0_11path_traits11is_pathableINS_5decayIS7_E4typeEEEvE4typeE' is-defined='yes'/>
    <elf-symbol name='_ZN5boost10filesystem4pathD1Ev' type='func-type' binding='weak-binding' visibility='default-visibility' alias='_ZN5boost10filesystem4pathD2Ev' is-defined='yes'/>
    <elf-symbol name='_ZN5boost10filesystem4pathD2Ev' type='func-type' binding='weak-binding' visibility='default-visibility' is-defined='yes'/>
    <elf-symbol name='_ZN5boost10filesystem4pathaSERKS1_' type='func-type' binding='weak-binding' visibility='default-visibility' is-defined='yes'/>
    <elf-symbol name='_ZN5boost10filesystem4pathaSIPcEENS_9enable_ifINS0_11path_traits11is_pathableINS_5decayIT_E4typeEEERS1_E4typeERKS8_' type='func-type' binding='weak-binding' visibility='default-visibility' is-defined='yes'/>
    <elf-symbol name='_ZN5boost10filesystem4pathaSISsEENS_9enable_ifINS0_11path_traits11is_pathableINS_5decayIT_E4typeEEERS1_E4typeERKS7_' type='func-type' binding='weak-binding' visibility='default-visibility' is-defined='yes'/>
    <elf-symbol name='_ZN5boost10filesystem4pathdVEPKc' type='func-type' binding='global-binding' visibility='default-visibility' is-defined='yes'/>
    <elf-symbol name='_ZN5boost10filesystem4pathdVERKS1_' type='func-type' binding='global-binding' visibility='default-visibility' is-defined='yes'/>
    <elf-symbol name='_ZN5boost10filesystem6detail10equivalentERKNS0_4pathES4_PNS_6system10error_codeE' type='func-type' binding='global-binding' visibility='default-visibility' is-defined='yes'/>
    <elf-symbol name='_ZN5boost10filesystem6detail10remove_allERKNS0_4pathEPNS_6system10error_codeE' type='func-type' binding='global-binding' visibility='default-visibility' is-defined='yes'/>
    <elf-symbol name='_ZN5boost10filesystem6detail11dir_itr_impC1Ev' type='func-type' binding='weak-binding' visibility='default-visibility' is-defined='yes'/>
    <elf-symbol name='_ZN5boost10filesystem6detail11dir_itr_impC2Ev' type='func-type' binding='weak-binding' visibility='default-visibility' alias='_ZN5boost10filesystem6detail11dir_itr_impC1Ev' is-defined='yes'/>
    <elf-symbol name='_ZN5boost10filesystem6detail11dir_itr_impD1Ev' type='func-type' binding='weak-binding' visibility='default-visibility' is-defined='yes'/>
    <elf-symbol name='_ZN5boost10filesystem6detail11dir_itr_impD2Ev' type='func-type' binding='weak-binding' visibility='default-visibility' alias='_ZN5boost10filesystem6detail11dir_itr_impD1Ev' is-defined='yes'/>
    <elf-symbol name='_ZN5boost10filesystem6detail11lex_compareENS0_4path8iteratorES3_S3_S3_' type='func-type' binding='global-binding' visibility='default-visibility' is-defined='yes'/>
    <elf-symbol name='_ZN5boost10filesystem6detail11permissionsERKNS0_4pathENS0_5permsEPNS_6system10error_codeE' type='func-type' binding='global-binding' visibility='default-visibility' is-defined='yes'/>
    <elf-symbol name='_ZN5boost10filesystem6detail11resize_fileERKNS0_4pathEmPNS_6system10error_codeE' type='func-type' binding='global-binding' visibility='default-visibility' is-defined='yes'/>
    <elf-symbol name='_ZN5boost10filesystem6detail11unique_pathERKNS0_4pathEPNS_6system10error_codeE' type='func-type' binding='global-binding' visibility='default-visibility' is-defined='yes'/>
    <elf-symbol name='_ZN5boost10filesystem6detail12copy_symlinkERKNS0_4pathES4_PNS_6system10error_codeE' type='func-type' binding='global-binding' visibility='default-visibility' is-defined='yes'/>
    <elf-symbol name='_ZN5boost10filesystem6detail12current_pathEPNS_6system10error_codeE' type='func-type' binding='global-binding' visibility='default-visibility' is-defined='yes'/>
    <elf-symbol name='_ZN5boost10filesystem6detail12current_pathERKNS0_4pathEPNS_6system10error_codeE' type='func-type' binding='global-binding' visibility='default-visibility' is-defined='yes'/>
    <elf-symbol name='_ZN5boost10filesystem6detail12initial_pathEPNS_6system10error_codeE' type='func-type' binding='global-binding' visibility='default-visibility' is-defined='yes'/>
    <elf-symbol name='_ZN5boost10filesystem6detail12read_symlinkERKNS0_4pathEPNS_6system10error_codeE' type='func-type' binding='global-binding' visibility='default-visibility' is-defined='yes'/>
    <elf-symbol name='_ZN5boost10filesystem6detail13dir_itr_closeERPvS3_' type='func-type' binding='global-binding' visibility='default-visibility' is-defined='yes'/>
    <elf-symbol name='_ZN5boost10filesystem6detail14copy_directoryERKNS0_4pathES4_PNS_6system10error_codeE' type='func-type' binding='global-binding' visibility='default-visibility' is-defined='yes'/>
    <elf-symbol name='_ZN5boost10filesystem6detail14create_symlinkERKNS0_4pathES4_PNS_6system10error_codeE' type='func-type' binding='global-binding' visibility='default-visibility' is-defined='yes'/>
    <elf-symbol name='_ZN5boost10filesystem6detail14symlink_statusERKNS0_4pathEPNS_6system10error_codeE' type='func-type' binding='global-binding' visibility='default-visibility' is-defined='yes'/>
    <elf-symbol name='_ZN5boost10filesystem6detail15hard_link_countERKNS0_4pathEPNS_6system10error_codeE' type='func-type' binding='global-binding' visibility='default-visibility' is-defined='yes'/>
    <elf-symbol name='_ZN5boost10filesystem6detail15last_write_timeERKNS0_4pathEPNS_6system10error_codeE' type='func-type' binding='global-binding' visibility='default-visibility' is-defined='yes'/>
    <elf-symbol name='_ZN5boost10filesystem6detail15last_write_timeERKNS0_4pathElPNS_6system10error_codeE' type='func-type' binding='global-binding' visibility='default-visibility' is-defined='yes'/>
    <elf-symbol name='_ZN5boost10filesystem6detail15system_completeERKNS0_4pathEPNS_6system10error_codeE' type='func-type' binding='global-binding' visibility='default-visibility' is-defined='yes'/>
    <elf-symbol name='_ZN5boost10filesystem6detail16create_directoryERKNS0_4pathEPNS_6system10error_codeE' type='func-type' binding='global-binding' visibility='default-visibility' is-defined='yes'/>
    <elf-symbol name='_ZN5boost10filesystem6detail16create_hard_linkERKNS0_4pathES4_PNS_6system10error_codeE' type='func-type' binding='global-binding' visibility='default-visibility' is-defined='yes'/>
    <elf-symbol name='_ZN5boost10filesystem6detail18create_directoriesERKNS0_4pathEPNS_6system10error_codeE' type='func-type' binding='global-binding' visibility='default-visibility' is-defined='yes'/>
    <elf-symbol name='_ZN5boost10filesystem6detail18utf8_codecvt_facet15get_octet_countEh' type='func-type' binding='global-binding' visibility='default-visibility' is-defined='yes'/>
    <elf-symbol name='_ZN5boost10filesystem6detail18utf8_codecvt_facet20get_cont_octet_countEh' type='func-type' binding='weak-binding' visibility='default-visibility' is-defined='yes'/>
    <elf-symbol name='_ZN5boost10filesystem6detail18utf8_codecvt_facetD0Ev' type='func-type' binding='weak-binding' visibility='default-visibility' is-defined='yes'/>
    <elf-symbol name='_ZN5boost10filesystem6detail18utf8_codecvt_facetD1Ev' type='func-type' binding='weak-binding' visibility='default-visibility' alias='_ZN5boost10filesystem6detail18utf8_codecvt_facetD2Ev' is-defined='yes'/>
    <elf-symbol name='_ZN5boost10filesystem6detail18utf8_codecvt_facetD2Ev' type='func-type' binding='weak-binding' visibility='default-visibility' is-defined='yes'/>
    <elf-symbol name='_ZN5boost10filesystem6detail19temp_directory_pathEPNS_6system10error_codeE' type='func-type' binding='global-binding' visibility='default-visibility' is-defined='yes'/>
    <elf-symbol name='_ZN5boost10filesystem6detail24create_directory_symlinkERKNS0_4pathES4_PNS_6system10error_codeE' type='func-type' binding='global-binding' visibility='default-visibility' is-defined='yes'/>
    <elf-symbol name='_ZN5boost10filesystem6detail28directory_iterator_constructERNS0_18directory_iteratorERKNS0_4pathEPNS_6system10error_codeE' type='func-type' binding='global-binding' visibility='default-visibility' is-defined='yes'/>
    <elf-symbol name='_ZN5boost10filesystem6detail28directory_iterator_incrementERNS0_18directory_iteratorEPNS_6system10error_codeE' type='func-type' binding='global-binding' visibility='default-visibility' is-defined='yes'/>
    <elf-symbol name='_ZN5boost10filesystem6detail32possible_large_file_size_supportEv' type='func-type' binding='global-binding' visibility='default-visibility' is-defined='yes'/>
    <elf-symbol name='_ZN5boost10filesystem6detail4copyERKNS0_4pathES4_PNS_6system10error_codeE' type='func-type' binding='global-binding' visibility='default-visibility' is-defined='yes'/>
    <elf-symbol name='_ZN5boost10filesystem6detail5spaceERKNS0_4pathEPNS_6system10error_codeE' type='func-type' binding='global-binding' visibility='default-visibility' is-defined='yes'/>
    <elf-symbol name='_ZN5boost10filesystem6detail6removeERKNS0_4pathEPNS_6system10error_codeE' type='func-type' binding='global-binding' visibility='default-visibility' is-defined='yes'/>
    <elf-symbol name='_ZN5boost10filesystem6detail6renameERKNS0_4pathES4_PNS_6system10error_codeE' type='func-type' binding='global-binding' visibility='default-visibility' is-defined='yes'/>
    <elf-symbol name='_ZN5boost10filesystem6detail6statusERKNS0_4pathEPNS_6system10error_codeE' type='func-type' binding='global-binding' visibility='default-visibility' is-defined='yes'/>
    <elf-symbol name='_ZN5boost10filesystem6detail8is_emptyERKNS0_4pathEPNS_6system10error_codeE' type='func-type' binding='global-binding' visibility='default-visibility' is-defined='yes'/>
    <elf-symbol name='_ZN5boost10filesystem6detail9canonicalERKNS0_4pathES4_PNS_6system10error_codeE' type='func-type' binding='global-binding' visibility='default-visibility' is-defined='yes'/>
    <elf-symbol name='_ZN5boost10filesystem6detail9copy_fileERKNS0_4pathES4_NS0_11copy_optionEPNS_6system10error_codeE' type='func-type' binding='global-binding' visibility='default-visibility' is-defined='yes'/>
    <elf-symbol name='_ZN5boost10filesystem6detail9file_sizeERKNS0_4pathEPNS_6system10error_codeE' type='func-type' binding='global-binding' visibility='default-visibility' is-defined='yes'/>
    <elf-symbol name='_ZN5boost10filesystem6detail9mode_castENS0_5permsE' type='func-type' binding='weak-binding' visibility='default-visibility' is-defined='yes'/>
    <elf-symbol name='_ZN5boost10filesystem6nativeERKSs' type='func-type' binding='global-binding' visibility='default-visibility' is-defined='yes'/>
    <elf-symbol name='_ZN5boost10filesystem6statusERKNS0_4pathERNS_6system10error_codeE' type='func-type' binding='weak-binding' visibility='default-visibility' is-defined='yes'/>
    <elf-symbol name='_ZN5boost10filesystem8absoluteERKNS0_4pathES3_' type='func-type' binding='global-binding' visibility='default-visibility' is-defined='yes'/>
    <elf-symbol name='_ZN5boost10filesystem9copy_fileERKNS0_4pathES3_NS0_11copy_optionERNS_6system10error_codeE' type='func-type' binding='weak-binding' visibility='default-visibility' is-defined='yes'/>
    <elf-symbol name='_ZN5boost10filesystemanENS0_5permsES1_' type='func-type' binding='weak-binding' visibility='default-visibility' is-defined='yes'/>
    <elf-symbol name='_ZN5boost10filesystemcoENS0_5permsE' type='func-type' binding='weak-binding' visibility='default-visibility' is-defined='yes'/>
    <elf-symbol name='_ZN5boost10filesystemdvERKNS0_4pathES3_' type='func-type' binding='weak-binding' visibility='default-visibility' is-defined='yes'/>
    <elf-symbol name='_ZN5boost10filesystemeqERKNS0_4pathES3_' type='func-type' binding='weak-binding' visibility='default-visibility' is-defined='yes'/>
    <elf-symbol name='_ZN5boost10filesystemneERKNS0_4pathES3_' type='func-type' binding='weak-binding' visibility='default-visibility' is-defined='yes'/>
    <elf-symbol name='_ZN5boost10filesystemoRERNS0_5permsES1_' type='func-type' binding='weak-binding' visibility='default-visibility' is-defined='yes'/>
    <elf-symbol name='_ZN5boost10filesystemorENS0_5permsES1_' type='func-type' binding='weak-binding' visibility='default-visibility' is-defined='yes'/>
    <elf-symbol name='_ZN5boost10shared_ptrINS_10filesystem16filesystem_error5m_impEE4swapERS4_' type='func-type' binding='weak-binding' visibility='default-visibility' is-defined='yes'/>
    <elf-symbol name='_ZN5boost10shared_ptrINS_10filesystem16filesystem_error5m_impEE5resetEv' type='func-type' binding='weak-binding' visibility='default-visibility' is-defined='yes'/>
    <elf-symbol name='_ZN5boost10shared_ptrINS_10filesystem16filesystem_error5m_impEE5resetIS3_EEvPT_' type='func-type' binding='weak-binding' visibility='default-visibility' is-defined='yes'/>
    <elf-symbol name='_ZN5boost10shared_ptrINS_10filesystem16filesystem_error5m_impEEC1Ev' type='func-type' binding='weak-binding' visibility='default-visibility' is-defined='yes'/>
    <elf-symbol name='_ZN5boost10shared_ptrINS_10filesystem16filesystem_error5m_impEEC1IS3_EEPT_' type='func-type' binding='weak-binding' visibility='default-visibility' is-defined='yes'/>
    <elf-symbol name='_ZN5boost10shared_ptrINS_10filesystem16filesystem_error5m_impEEC2Ev' type='func-type' binding='weak-binding' visibility='default-visibility' alias='_ZN5boost10shared_ptrINS_10filesystem16filesystem_error5m_impEEC1Ev' is-defined='yes'/>
    <elf-symbol name='_ZN5boost10shared_ptrINS_10filesystem16filesystem_error5m_impEEC2IS3_EEPT_' type='func-type' binding='weak-binding' visibility='default-visibility' alias='_ZN5boost10shared_ptrINS_10filesystem16filesystem_error5m_impEEC1IS3_EEPT_' is-defined='yes'/>
    <elf-symbol name='_ZN5boost10shared_ptrINS_10filesystem16filesystem_error5m_impEED1Ev' type='func-type' binding='weak-binding' visibility='default-visibility' is-defined='yes'/>
    <elf-symbol name='_ZN5boost10shared_ptrINS_10filesystem16filesystem_error5m_impEED2Ev' type='func-type' binding='weak-binding' visibility='default-visibility' alias='_ZN5boost10shared_ptrINS_10filesystem16filesystem_error5m_impEED1Ev' is-defined='yes'/>
    <elf-symbol name='_ZN5boost10shared_ptrINS_10filesystem6detail11dir_itr_impEE4swapERS4_' type='func-type' binding='weak-binding' visibility='default-visibility' is-defined='yes'/>
    <elf-symbol name='_ZN5boost10shared_ptrINS_10filesystem6detail11dir_itr_impEE5resetEv' type='func-type' binding='weak-binding' visibility='default-visibility' is-defined='yes'/>
    <elf-symbol name='_ZN5boost10shared_ptrINS_10filesystem6detail11dir_itr_impEEC1Ev' type='func-type' binding='weak-binding' visibility='default-visibility' is-defined='yes'/>
    <elf-symbol name='_ZN5boost10shared_ptrINS_10filesystem6detail11dir_itr_impEEC1IS3_EEPT_' type='func-type' binding='weak-binding' visibility='default-visibility' is-defined='yes'/>
    <elf-symbol name='_ZN5boost10shared_ptrINS_10filesystem6detail11dir_itr_impEEC2Ev' type='func-type' binding='weak-binding' visibility='default-visibility' alias='_ZN5boost10shared_ptrINS_10filesystem6detail11dir_itr_impEEC1Ev' is-defined='yes'/>
    <elf-symbol name='_ZN5boost10shared_ptrINS_10filesystem6detail11dir_itr_impEEC2IS3_EEPT_' type='func-type' binding='weak-binding' visibility='default-visibility' alias='_ZN5boost10shared_ptrINS_10filesystem6detail11dir_itr_impEEC1IS3_EEPT_' is-defined='yes'/>
    <elf-symbol name='_ZN5boost10shared_ptrINS_10filesystem6detail11dir_itr_impEED1Ev' type='func-type' binding='weak-binding' visibility='default-visibility' alias='_ZN5boost10shared_ptrINS_10filesystem6detail11dir_itr_impEED2Ev' is-defined='yes'/>
    <elf-symbol name='_ZN5boost10shared_ptrINS_10filesystem6detail11dir_itr_impEED2Ev' type='func-type' binding='weak-binding' visibility='default-visibility' is-defined='yes'/>
    <elf-symbol name='_ZN5boost12noncopyable_11noncopyableC1Ev' type='func-type' binding='weak-binding' visibility='default-visibility' is-defined='yes'/>
    <elf-symbol name='_ZN5boost12noncopyable_11noncopyableC2Ev' type='func-type' binding='weak-binding' visibility='default-visibility' alias='_ZN5boost12noncopyable_11noncopyableC1Ev' is-defined='yes'/>
    <elf-symbol name='_ZN5boost12scoped_arrayIcEC1EPc' type='func-type' binding='weak-binding' visibility='default-visibility' is-defined='yes'/>
    <elf-symbol name='_ZN5boost12scoped_arrayIcEC2EPc' type='func-type' binding='weak-binding' visibility='default-visibility' alias='_ZN5boost12scoped_arrayIcEC1EPc' is-defined='yes'/>
    <elf-symbol name='_ZN5boost12scoped_arrayIcED1Ev' type='func-type' binding='weak-binding' visibility='default-visibility' is-defined='yes'/>
    <elf-symbol name='_ZN5boost12scoped_arrayIcED2Ev' type='func-type' binding='weak-binding' visibility='default-visibility' alias='_ZN5boost12scoped_arrayIcED1Ev' is-defined='yes'/>
    <elf-symbol name='_ZN5boost12scoped_arrayIwEC1EPw' type='func-type' binding='weak-binding' visibility='default-visibility' is-defined='yes'/>
    <elf-symbol name='_ZN5boost12scoped_arrayIwEC2EPw' type='func-type' binding='weak-binding' visibility='default-visibility' alias='_ZN5boost12scoped_arrayIwEC1EPw' is-defined='yes'/>
    <elf-symbol name='_ZN5boost12scoped_arrayIwED1Ev' type='func-type' binding='weak-binding' visibility='default-visibility' is-defined='yes'/>
    <elf-symbol name='_ZN5boost12scoped_arrayIwED2Ev' type='func-type' binding='weak-binding' visibility='default-visibility' alias='_ZN5boost12scoped_arrayIwED1Ev' is-defined='yes'/>
    <elf-symbol name='_ZN5boost14checked_deleteINS_10filesystem16filesystem_error5m_impEEEvPT_' type='func-type' binding='weak-binding' visibility='default-visibility' is-defined='yes'/>
    <elf-symbol name='_ZN5boost14checked_deleteINS_10filesystem6detail11dir_itr_impEEEvPT_' type='func-type' binding='weak-binding' visibility='default-visibility' is-defined='yes'/>
    <elf-symbol name='_ZN5boost15iterator_facadeINS_10filesystem18directory_iteratorENS1_15directory_entryENS_25single_pass_traversal_tagERS3_lE7derivedEv' type='func-type' binding='weak-binding' visibility='default-visibility' is-defined='yes'/>
    <elf-symbol name='_ZN5boost15iterator_facadeINS_10filesystem18directory_iteratorENS1_15directory_entryENS_25single_pass_traversal_tagERS3_lEC1Ev' type='func-type' binding='weak-binding' visibility='default-visibility' is-defined='yes'/>
    <elf-symbol name='_ZN5boost15iterator_facadeINS_10filesystem18directory_iteratorENS1_15directory_entryENS_25single_pass_traversal_tagERS3_lEC2Ev' type='func-type' binding='weak-binding' visibility='default-visibility' alias='_ZN5boost15iterator_facadeINS_10filesystem18directory_iteratorENS1_15directory_entryENS_25single_pass_traversal_tagERS3_lEC1Ev' is-defined='yes'/>
    <elf-symbol name='_ZN5boost15iterator_facadeINS_10filesystem18directory_iteratorENS1_15directory_entryENS_25single_pass_traversal_tagERS3_lEppEv' type='func-type' binding='weak-binding' visibility='default-visibility' is-defined='yes'/>
    <elf-symbol name='_ZN5boost15iterator_facadeINS_10filesystem4path8iteratorEKS2_NS_27bidirectional_traversal_tagERS4_lE7derivedEv' type='func-type' binding='weak-binding' visibility='default-visibility' is-defined='yes'/>
    <elf-symbol name='_ZN5boost15iterator_facadeINS_10filesystem4path8iteratorEKS2_NS_27bidirectional_traversal_tagERS4_lEC1Ev' type='func-type' binding='weak-binding' visibility='default-visibility' alias='_ZN5boost15iterator_facadeINS_10filesystem4path8iteratorEKS2_NS_27bidirectional_traversal_tagERS4_lEC2Ev' is-defined='yes'/>
    <elf-symbol name='_ZN5boost15iterator_facadeINS_10filesystem4path8iteratorEKS2_NS_27bidirectional_traversal_tagERS4_lEC2Ev' type='func-type' binding='weak-binding' visibility='default-visibility' is-defined='yes'/>
    <elf-symbol name='_ZN5boost15iterator_facadeINS_10filesystem4path8iteratorEKS2_NS_27bidirectional_traversal_tagERS4_lEmmEi' type='func-type' binding='weak-binding' visibility='default-visibility' is-defined='yes'/>
    <elf-symbol name='_ZN5boost15iterator_facadeINS_10filesystem4path8iteratorEKS2_NS_27bidirectional_traversal_tagERS4_lEmmEv' type='func-type' binding='weak-binding' visibility='default-visibility' is-defined='yes'/>
    <elf-symbol name='_ZN5boost15iterator_facadeINS_10filesystem4path8iteratorEKS2_NS_27bidirectional_traversal_tagERS4_lEppEv' type='func-type' binding='weak-binding' visibility='default-visibility' is-defined='yes'/>
    <elf-symbol name='_ZN5boost20checked_array_deleteIcEEvPT_' type='func-type' binding='weak-binding' visibility='default-visibility' is-defined='yes'/>
    <elf-symbol name='_ZN5boost20checked_array_deleteIwEEvPT_' type='func-type' binding='weak-binding' visibility='default-visibility' is-defined='yes'/>
    <elf-symbol name='_ZN5boost20iterator_core_access11dereferenceINS_10filesystem18directory_iteratorEEENT_9referenceERKS4_' type='func-type' binding='weak-binding' visibility='default-visibility' is-defined='yes'/>
    <elf-symbol name='_ZN5boost20iterator_core_access11dereferenceINS_10filesystem4path8iteratorEEENT_9referenceERKS5_' type='func-type' binding='weak-binding' visibility='default-visibility' is-defined='yes'/>
    <elf-symbol name='_ZN5boost20iterator_core_access5equalINS_10filesystem18directory_iteratorES3_EEbRKT_RKT0_N4mpl_5bool_ILb1EEE' type='func-type' binding='weak-binding' visibility='default-visibility' is-defined='yes'/>
    <elf-symbol name='_ZN5boost20iterator_core_access5equalINS_10filesystem4path8iteratorES4_EEbRKT_RKT0_N4mpl_5bool_ILb1EEE' type='func-type' binding='weak-binding' visibility='default-visibility' is-defined='yes'/>
    <elf-symbol name='_ZN5boost20iterator_core_access9decrementINS_10filesystem4path8iteratorEEEvRT_' type='func-type' binding='weak-binding' visibility='default-visibility' is-defined='yes'/>
    <elf-symbol name='_ZN5boost20iterator_core_access9incrementINS_10filesystem18directory_iteratorEEEvRT_' type='func-type' binding='weak-binding' visibility='default-visibility' is-defined='yes'/>
    <elf-symbol name='_ZN5boost20iterator_core_access9incrementINS_10filesystem4path8iteratorEEEvRT_' type='func-type' binding='weak-binding' visibility='default-visibility' is-defined='yes'/>
    <elf-symbol name='_ZN5boost6detail12shared_count4swapERS1_' type='func-type' binding='weak-binding' visibility='default-visibility' is-defined='yes'/>
    <elf-symbol name='_ZN5boost6detail12shared_countC1Ev' type='func-type' binding='weak-binding' visibility='default-visibility' is-defined='yes'/>
    <elf-symbol name='_ZN5boost6detail12shared_countC1INS_10filesystem16filesystem_error5m_impEEEPT_' type='func-type' binding='weak-binding' visibility='default-visibility' is-defined='yes'/>
    <elf-symbol name='_ZN5boost6detail12shared_countC1INS_10filesystem6detail11dir_itr_impEEEPT_' type='func-type' binding='weak-binding' visibility='default-visibility' is-defined='yes'/>
    <elf-symbol name='_ZN5boost6detail12shared_countC2Ev' type='func-type' binding='weak-binding' visibility='default-visibility' alias='_ZN5boost6detail12shared_countC1Ev' is-defined='yes'/>
    <elf-symbol name='_ZN5boost6detail12shared_countC2INS_10filesystem16filesystem_error5m_impEEEPT_' type='func-type' binding='weak-binding' visibility='default-visibility' alias='_ZN5boost6detail12shared_countC1INS_10filesystem16filesystem_error5m_impEEEPT_' is-defined='yes'/>
    <elf-symbol name='_ZN5boost6detail12shared_countC2INS_10filesystem6detail11dir_itr_impEEEPT_' type='func-type' binding='weak-binding' visibility='default-visibility' alias='_ZN5boost6detail12shared_countC1INS_10filesystem6detail11dir_itr_impEEEPT_' is-defined='yes'/>
    <elf-symbol name='_ZN5boost6detail12shared_countD1Ev' type='func-type' binding='weak-binding' visibility='default-visibility' is-defined='yes'/>
    <elf-symbol name='_ZN5boost6detail12shared_countD2Ev' type='func-type' binding='weak-binding' visibility='default-visibility' alias='_ZN5boost6detail12shared_countD1Ev' is-defined='yes'/>
    <elf-symbol name='_ZN5boost6detail15sp_counted_base12weak_releaseEv' type='func-type' binding='weak-binding' visibility='default-visibility' is-defined='yes'/>
    <elf-symbol name='_ZN5boost6detail15sp_counted_base7destroyEv' type='func-type' binding='weak-binding' visibility='default-visibility' is-defined='yes'/>
    <elf-symbol name='_ZN5boost6detail15sp_counted_base7releaseEv' type='func-type' binding='weak-binding' visibility='default-visibility' is-defined='yes'/>
    <elf-symbol name='_ZN5boost6detail15sp_counted_baseC1Ev' type='func-type' binding='weak-binding' visibility='default-visibility' is-defined='yes'/>
    <elf-symbol name='_ZN5boost6detail15sp_counted_baseC2Ev' type='func-type' binding='weak-binding' visibility='default-visibility' alias='_ZN5boost6detail15sp_counted_baseC1Ev' is-defined='yes'/>
    <elf-symbol name='_ZN5boost6detail15sp_counted_baseD0Ev' type='func-type' binding='weak-binding' visibility='default-visibility' is-defined='yes'/>
    <elf-symbol name='_ZN5boost6detail15sp_counted_baseD1Ev' type='func-type' binding='weak-binding' visibility='default-visibility' is-defined='yes'/>
    <elf-symbol name='_ZN5boost6detail15sp_counted_baseD2Ev' type='func-type' binding='weak-binding' visibility='default-visibility' alias='_ZN5boost6detail15sp_counted_baseD1Ev' is-defined='yes'/>
    <elf-symbol name='_ZN5boost6detail17sp_counted_impl_pINS_10filesystem16filesystem_error5m_impEE11get_deleterERKSt9type_info' type='func-type' binding='weak-binding' visibility='default-visibility' is-defined='yes'/>
    <elf-symbol name='_ZN5boost6detail17sp_counted_impl_pINS_10filesystem16filesystem_error5m_impEE19get_untyped_deleterEv' type='func-type' binding='weak-binding' visibility='default-visibility' is-defined='yes'/>
    <elf-symbol name='_ZN5boost6detail17sp_counted_impl_pINS_10filesystem16filesystem_error5m_impEE7disposeEv' type='func-type' binding='weak-binding' visibility='default-visibility' is-defined='yes'/>
    <elf-symbol name='_ZN5boost6detail17sp_counted_impl_pINS_10filesystem16filesystem_error5m_impEEC1EPS4_' type='func-type' binding='weak-binding' visibility='default-visibility' is-defined='yes'/>
    <elf-symbol name='_ZN5boost6detail17sp_counted_impl_pINS_10filesystem16filesystem_error5m_impEEC2EPS4_' type='func-type' binding='weak-binding' visibility='default-visibility' alias='_ZN5boost6detail17sp_counted_impl_pINS_10filesystem16filesystem_error5m_impEEC1EPS4_' is-defined='yes'/>
    <elf-symbol name='_ZN5boost6detail17sp_counted_impl_pINS_10filesystem16filesystem_error5m_impEED0Ev' type='func-type' binding='weak-binding' visibility='default-visibility' is-defined='yes'/>
    <elf-symbol name='_ZN5boost6detail17sp_counted_impl_pINS_10filesystem16filesystem_error5m_impEED1Ev' type='func-type' binding='weak-binding' visibility='default-visibility' alias='_ZN5boost6detail17sp_counted_impl_pINS_10filesystem16filesystem_error5m_impEED2Ev' is-defined='yes'/>
    <elf-symbol name='_ZN5boost6detail17sp_counted_impl_pINS_10filesystem16filesystem_error5m_impEED2Ev' type='func-type' binding='weak-binding' visibility='default-visibility' is-defined='yes'/>
    <elf-symbol name='_ZN5boost6detail17sp_counted_impl_pINS_10filesystem6detail11dir_itr_impEE11get_deleterERKSt9type_info' type='func-type' binding='weak-binding' visibility='default-visibility' is-defined='yes'/>
    <elf-symbol name='_ZN5boost6detail17sp_counted_impl_pINS_10filesystem6detail11dir_itr_impEE19get_untyped_deleterEv' type='func-type' binding='weak-binding' visibility='default-visibility' is-defined='yes'/>
    <elf-symbol name='_ZN5boost6detail17sp_counted_impl_pINS_10filesystem6detail11dir_itr_impEE7disposeEv' type='func-type' binding='weak-binding' visibility='default-visibility' is-defined='yes'/>
    <elf-symbol name='_ZN5boost6detail17sp_counted_impl_pINS_10filesystem6detail11dir_itr_impEEC1EPS4_' type='func-type' binding='weak-binding' visibility='default-visibility' is-defined='yes'/>
    <elf-symbol name='_ZN5boost6detail17sp_counted_impl_pINS_10filesystem6detail11dir_itr_impEEC2EPS4_' type='func-type' binding='weak-binding' visibility='default-visibility' alias='_ZN5boost6detail17sp_counted_impl_pINS_10filesystem6detail11dir_itr_impEEC1EPS4_' is-defined='yes'/>
    <elf-symbol name='_ZN5boost6detail17sp_counted_impl_pINS_10filesystem6detail11dir_itr_impEED0Ev' type='func-type' binding='weak-binding' visibility='default-visibility' is-defined='yes'/>
    <elf-symbol name='_ZN5boost6detail17sp_counted_impl_pINS_10filesystem6detail11dir_itr_impEED1Ev' type='func-type' binding='weak-binding' visibility='default-visibility' is-defined='yes'/>
    <elf-symbol name='_ZN5boost6detail17sp_counted_impl_pINS_10filesystem6detail11dir_itr_impEED2Ev' type='func-type' binding='weak-binding' visibility='default-visibility' alias='_ZN5boost6detail17sp_counted_impl_pINS_10filesystem6detail11dir_itr_impEED1Ev' is-defined='yes'/>
    <elf-symbol name='_ZN5boost6detail20sp_pointer_constructINS_10filesystem16filesystem_error5m_impES4_EEvPNS_10shared_ptrIT_EEPT0_RNS0_12shared_countE' type='func-type' binding='weak-binding' visibility='default-visibility' is-defined='yes'/>
    <elf-symbol name='_ZN5boost6detail20sp_pointer_constructINS_10filesystem6detail11dir_itr_impES4_EEvPNS_10shared_ptrIT_EEPT0_RNS0_12shared_countE' type='func-type' binding='weak-binding' visibility='default-visibility' is-defined='yes'/>
    <elf-symbol name='_ZN5boost6detail23atomic_exchange_and_addEPii' type='func-type' binding='weak-binding' visibility='default-visibility' is-defined='yes'/>
    <elf-symbol name='_ZN5boost6detail23operator_arrow_dispatchIRKNS_10filesystem4pathEPS4_E5applyES5_' type='func-type' binding='weak-binding' visibility='default-visibility' is-defined='yes'/>
    <elf-symbol name='_ZN5boost6detail23operator_arrow_dispatchIRNS_10filesystem15directory_entryEPS3_E5applyES4_' type='func-type' binding='weak-binding' visibility='default-visibility' is-defined='yes'/>
    <elf-symbol name='_ZN5boost6detail26sp_enable_shared_from_thisEz' type='func-type' binding='weak-binding' visibility='default-visibility' is-defined='yes'/>
    <elf-symbol name='_ZN5boost6system10error_code21unspecified_bool_trueEv' type='func-type' binding='weak-binding' visibility='default-visibility' is-defined='yes'/>
    <elf-symbol name='_ZN5boost6system10error_code5clearEv' type='func-type' binding='weak-binding' visibility='default-visibility' is-defined='yes'/>
    <elf-symbol name='_ZN5boost6system10error_code6assignEiRKNS0_14error_categoryE' type='func-type' binding='weak-binding' visibility='default-visibility' is-defined='yes'/>
    <elf-symbol name='_ZN5boost6system10error_codeC1EiRKNS0_14error_categoryE' type='func-type' binding='weak-binding' visibility='default-visibility' is-defined='yes'/>
    <elf-symbol name='_ZN5boost6system10error_codeC1Ev' type='func-type' binding='weak-binding' visibility='default-visibility' is-defined='yes'/>
    <elf-symbol name='_ZN5boost6system10error_codeC2EiRKNS0_14error_categoryE' type='func-type' binding='weak-binding' visibility='default-visibility' alias='_ZN5boost6system10error_codeC1EiRKNS0_14error_categoryE' is-defined='yes'/>
    <elf-symbol name='_ZN5boost6system10error_codeC2Ev' type='func-type' binding='weak-binding' visibility='default-visibility' alias='_ZN5boost6system10error_codeC1Ev' is-defined='yes'/>
    <elf-symbol name='_ZN5boost6system12system_errorC1ENS0_10error_codeERKSs' type='func-type' binding='weak-binding' visibility='default-visibility' is-defined='yes'/>
    <elf-symbol name='_ZN5boost6system12system_errorC1EiRKNS0_14error_categoryEPKc' type='func-type' binding='weak-binding' visibility='default-visibility' is-defined='yes'/>
    <elf-symbol name='_ZN5boost6system12system_errorC2ENS0_10error_codeERKSs' type='func-type' binding='weak-binding' visibility='default-visibility' alias='_ZN5boost6system12system_errorC1ENS0_10error_codeERKSs' is-defined='yes'/>
    <elf-symbol name='_ZN5boost6system12system_errorC2EiRKNS0_14error_categoryEPKc' type='func-type' binding='weak-binding' visibility='default-visibility' alias='_ZN5boost6system12system_errorC1EiRKNS0_14error_categoryEPKc' is-defined='yes'/>
    <elf-symbol name='_ZN5boost6system12system_errorD0Ev' type='func-type' binding='weak-binding' visibility='default-visibility' is-defined='yes'/>
    <elf-symbol name='_ZN5boost6system12system_errorD1Ev' type='func-type' binding='weak-binding' visibility='default-visibility' is-defined='yes'/>
    <elf-symbol name='_ZN5boost6system12system_errorD2Ev' type='func-type' binding='weak-binding' visibility='default-visibility' alias='_ZN5boost6system12system_errorD1Ev' is-defined='yes'/>
    <elf-symbol name='_ZN5boost6system14error_categoryC1Ev' type='func-type' binding='weak-binding' visibility='default-visibility' alias='_ZN5boost6system14error_categoryC2Ev' is-defined='yes'/>
    <elf-symbol name='_ZN5boost6system14error_categoryC2Ev' type='func-type' binding='weak-binding' visibility='default-visibility' is-defined='yes'/>
    <elf-symbol name='_ZN5boost6system14error_categoryD0Ev' type='func-type' binding='weak-binding' visibility='default-visibility' is-defined='yes'/>
    <elf-symbol name='_ZN5boost6system14error_categoryD1Ev' type='func-type' binding='weak-binding' visibility='default-visibility' is-defined='yes'/>
    <elf-symbol name='_ZN5boost6system14error_categoryD2Ev' type='func-type' binding='weak-binding' visibility='default-visibility' alias='_ZN5boost6system14error_categoryD1Ev' is-defined='yes'/>
    <elf-symbol name='_ZN5boost6system15error_conditionC1EiRKNS0_14error_categoryE' type='func-type' binding='weak-binding' visibility='default-visibility' is-defined='yes'/>
    <elf-symbol name='_ZN5boost6system15error_conditionC2EiRKNS0_14error_categoryE' type='func-type' binding='weak-binding' visibility='default-visibility' alias='_ZN5boost6system15error_conditionC1EiRKNS0_14error_categoryE' is-defined='yes'/>
    <elf-symbol name='_ZN5boost6systemeqERKNS0_15error_conditionES3_' type='func-type' binding='weak-binding' visibility='default-visibility' is-defined='yes'/>
    <elf-symbol name='_ZN5boosteqINS_10filesystem18directory_iteratorENS1_15directory_entryENS_25single_pass_traversal_tagERS3_lS2_S3_S4_S5_lEENS_6detail23enable_if_interoperableIT_T4_NS_3mpl6apply2INS6_12always_bool2ES8_S9_E4typeEE4typeERKNS_15iterator_facadeIS8_T0_T1_T2_T3_EERKNSH_IS9_T5_T6_T7_T8_EE' type='func-type' binding='weak-binding' visibility='default-visibility' is-defined='yes'/>
    <elf-symbol name='_ZN5boosteqINS_10filesystem4path8iteratorEKS2_NS_27bidirectional_traversal_tagERS4_lS3_S4_S5_S6_lEENS_6detail23enable_if_interoperableIT_T4_NS_3mpl6apply2INS7_12always_bool2ES9_SA_E4typeEE4typeERKNS_15iterator_facadeIS9_T0_T1_T2_T3_EERKNSI_ISA_T5_T6_T7_T8_EE' type='func-type' binding='weak-binding' visibility='default-visibility' is-defined='yes'/>
    <elf-symbol name='_ZN5boosteqINS_10filesystem6detail11dir_itr_impES3_EEbRKNS_10shared_ptrIT_EERKNS4_IT0_EE' type='func-type' binding='weak-binding' visibility='default-visibility' is-defined='yes'/>
    <elf-symbol name='_ZN5boostneINS_10filesystem18directory_iteratorENS1_15directory_entryENS_25single_pass_traversal_tagERS3_lS2_S3_S4_S5_lEENS_6detail23enable_if_interoperableIT_T4_NS_3mpl6apply2INS6_12always_bool2ES8_S9_E4typeEE4typeERKNS_15iterator_facadeIS8_T0_T1_T2_T3_EERKNSH_IS9_T5_T6_T7_T8_EE' type='func-type' binding='weak-binding' visibility='default-visibility' is-defined='yes'/>
    <elf-symbol name='_ZN5boostneINS_10filesystem4path8iteratorEKS2_NS_27bidirectional_traversal_tagERS4_lS3_S4_S5_S6_lEENS_6detail23enable_if_interoperableIT_T4_NS_3mpl6apply2INS7_12always_bool2ES9_SA_E4typeEE4typeERKNS_15iterator_facadeIS9_T0_T1_T2_T3_EERKNSI_ISA_T5_T6_T7_T8_EE' type='func-type' binding='weak-binding' visibility='default-visibility' is-defined='yes'/>
    <elf-symbol name='_ZN9__gnu_cxx17__is_null_pointerIKcEEbPT_' type='func-type' binding='weak-binding' visibility='default-visibility' is-defined='yes'/>
    <elf-symbol name='_ZN9__gnu_cxx17__is_null_pointerIcEEbPT_' type='func-type' binding='weak-binding' visibility='default-visibility' is-defined='yes'/>
    <elf-symbol name='_ZN9__gnu_cxx17__normal_iteratorIPKcSsEC1ERKS2_' type='func-type' binding='weak-binding' visibility='default-visibility' is-defined='yes'/>
    <elf-symbol name='_ZN9__gnu_cxx17__normal_iteratorIPKcSsEC2ERKS2_' type='func-type' binding='weak-binding' visibility='default-visibility' alias='_ZN9__gnu_cxx17__normal_iteratorIPKcSsEC1ERKS2_' is-defined='yes'/>
    <elf-symbol name='_ZN9__gnu_cxx17__normal_iteratorIPcSsEC1ERKS1_' type='func-type' binding='weak-binding' visibility='default-visibility' is-defined='yes'/>
    <elf-symbol name='_ZN9__gnu_cxx17__normal_iteratorIPcSsEC2ERKS1_' type='func-type' binding='weak-binding' visibility='default-visibility' alias='_ZN9__gnu_cxx17__normal_iteratorIPcSsEC1ERKS1_' is-defined='yes'/>
    <elf-symbol name='_ZNK5boost10filesystem11file_status11permissionsEv' type='func-type' binding='weak-binding' visibility='default-visibility' is-defined='yes'/>
    <elf-symbol name='_ZNK5boost10filesystem11file_status4typeEv' type='func-type' binding='weak-binding' visibility='default-visibility' is-defined='yes'/>
    <elf-symbol name='_ZNK5boost10filesystem15directory_entry12m_get_statusEPNS_6system10error_codeE' type='func-type' binding='global-binding' visibility='default-visibility' is-defined='yes'/>
    <elf-symbol name='_ZNK5boost10filesystem15directory_entry20m_get_symlink_statusEPNS_6system10error_codeE' type='func-type' binding='global-binding' visibility='default-visibility' is-defined='yes'/>
    <elf-symbol name='_ZNK5boost10filesystem15directory_entry4pathEv' type='func-type' binding='weak-binding' visibility='default-visibility' is-defined='yes'/>
    <elf-symbol name='_ZNK5boost10filesystem16filesystem_error4whatEv' type='func-type' binding='weak-binding' visibility='default-visibility' is-defined='yes'/>
    <elf-symbol name='_ZNK5boost10filesystem18directory_iterator11dereferenceEv' type='func-type' binding='weak-binding' visibility='default-visibility' is-defined='yes'/>
    <elf-symbol name='_ZNK5boost10filesystem18directory_iterator5equalERKS1_' type='func-type' binding='weak-binding' visibility='default-visibility' is-defined='yes'/>
    <elf-symbol name='_ZNK5boost10filesystem4path11is_absoluteEv' type='func-type' binding='weak-binding' visibility='default-visibility' is-defined='yes'/>
    <elf-symbol name='_ZNK5boost10filesystem4path11parent_pathEv' type='func-type' binding='global-binding' visibility='default-visibility' is-defined='yes'/>
    <elf-symbol name='_ZNK5boost10filesystem4path13relative_pathEv' type='func-type' binding='global-binding' visibility='default-visibility' is-defined='yes'/>
    <elf-symbol name='_ZNK5boost10filesystem4path14root_directoryEv' type='func-type' binding='global-binding' visibility='default-visibility' is-defined='yes'/>
    <elf-symbol name='_ZNK5boost10filesystem4path17m_parent_path_endEv' type='func-type' binding='global-binding' visibility='default-visibility' is-defined='yes'/>
    <elf-symbol name='_ZNK5boost10filesystem4path18has_root_directoryEv' type='func-type' binding='weak-binding' visibility='default-visibility' is-defined='yes'/>
    <elf-symbol name='_ZNK5boost10filesystem4path3endEv' type='func-type' binding='global-binding' visibility='default-visibility' is-defined='yes'/>
    <elf-symbol name='_ZNK5boost10filesystem4path4stemEv' type='func-type' binding='global-binding' visibility='default-visibility' is-defined='yes'/>
    <elf-symbol name='_ZNK5boost10filesystem4path5beginEv' type='func-type' binding='global-binding' visibility='default-visibility' is-defined='yes'/>
    <elf-symbol name='_ZNK5boost10filesystem4path5c_strEv' type='func-type' binding='weak-binding' visibility='default-visibility' is-defined='yes'/>
    <elf-symbol name='_ZNK5boost10filesystem4path5emptyEv' type='func-type' binding='weak-binding' visibility='default-visibility' is-defined='yes'/>
    <elf-symbol name='_ZNK5boost10filesystem4path6nativeEv' type='func-type' binding='weak-binding' visibility='default-visibility' is-defined='yes'/>
    <elf-symbol name='_ZNK5boost10filesystem4path6stringEv' type='func-type' binding='weak-binding' visibility='default-visibility' is-defined='yes'/>
    <elf-symbol name='_ZNK5boost10filesystem4path7compareERKS1_' type='func-type' binding='global-binding' visibility='default-visibility' is-defined='yes'/>
    <elf-symbol name='_ZNK5boost10filesystem4path7wstringERKSt7codecvtIwc11__mbstate_tE' type='func-type' binding='weak-binding' visibility='default-visibility' is-defined='yes'/>
    <elf-symbol name='_ZNK5boost10filesystem4path7wstringEv' type='func-type' binding='weak-binding' visibility='default-visibility' is-defined='yes'/>
    <elf-symbol name='_ZNK5boost10filesystem4path8filenameEv' type='func-type' binding='global-binding' visibility='default-visibility' is-defined='yes'/>
    <elf-symbol name='_ZNK5boost10filesystem4path8iterator11dereferenceEv' type='func-type' binding='weak-binding' visibility='default-visibility' is-defined='yes'/>
    <elf-symbol name='_ZNK5boost10filesystem4path8iterator5equalERKS2_' type='func-type' binding='weak-binding' visibility='default-visibility' is-defined='yes'/>
    <elf-symbol name='_ZNK5boost10filesystem4path9extensionEv' type='func-type' binding='global-binding' visibility='default-visibility' is-defined='yes'/>
    <elf-symbol name='_ZNK5boost10filesystem4path9root_nameEv' type='func-type' binding='global-binding' visibility='default-visibility' is-defined='yes'/>
    <elf-symbol name='_ZNK5boost10filesystem4path9root_pathEv' type='func-type' binding='global-binding' visibility='default-visibility' is-defined='yes'/>
    <elf-symbol name='_ZNK5boost10filesystem6detail18utf8_codecvt_facet10do_unshiftER11__mbstate_tPcS5_RS5_' type='func-type' binding='weak-binding' visibility='default-visibility' is-defined='yes'/>
    <elf-symbol name='_ZNK5boost10filesystem6detail18utf8_codecvt_facet11do_encodingEv' type='func-type' binding='weak-binding' visibility='default-visibility' is-defined='yes'/>
    <elf-symbol name='_ZNK5boost10filesystem6detail18utf8_codecvt_facet13do_max_lengthEv' type='func-type' binding='weak-binding' visibility='default-visibility' is-defined='yes'/>
    <elf-symbol name='_ZNK5boost10filesystem6detail18utf8_codecvt_facet16do_always_noconvEv' type='func-type' binding='weak-binding' visibility='default-visibility' is-defined='yes'/>
    <elf-symbol name='_ZNK5boost10filesystem6detail18utf8_codecvt_facet21invalid_leading_octetEh' type='func-type' binding='weak-binding' visibility='default-visibility' is-defined='yes'/>
    <elf-symbol name='_ZNK5boost10filesystem6detail18utf8_codecvt_facet24get_cont_octet_out_countEw' type='func-type' binding='global-binding' visibility='default-visibility' is-defined='yes'/>
    <elf-symbol name='_ZNK5boost10filesystem6detail18utf8_codecvt_facet24invalid_continuing_octetEh' type='func-type' binding='weak-binding' visibility='default-visibility' is-defined='yes'/>
    <elf-symbol name='_ZNK5boost10filesystem6detail18utf8_codecvt_facet5do_inER11__mbstate_tPKcS6_RS6_PwS8_RS8_' type='func-type' binding='global-binding' visibility='default-visibility' is-defined='yes'/>
    <elf-symbol name='_ZNK5boost10filesystem6detail18utf8_codecvt_facet6do_outER11__mbstate_tPKwS6_RS6_PcS8_RS8_' type='func-type' binding='global-binding' visibility='default-visibility' is-defined='yes'/>
    <elf-symbol name='_ZNK5boost10filesystem6detail18utf8_codecvt_facet9do_lengthER11__mbstate_tPKcS6_m' type='func-type' binding='global-binding' visibility='default-visibility' is-defined='yes'/>
    <elf-symbol name='_ZNK5boost10shared_ptrINS_10filesystem16filesystem_error5m_impEE3getEv' type='func-type' binding='weak-binding' visibility='default-visibility' is-defined='yes'/>
    <elf-symbol name='_ZNK5boost10shared_ptrINS_10filesystem16filesystem_error5m_impEEptEv' type='func-type' binding='weak-binding' visibility='default-visibility' is-defined='yes'/>
    <elf-symbol name='_ZNK5boost10shared_ptrINS_10filesystem6detail11dir_itr_impEE3getEv' type='func-type' binding='weak-binding' visibility='default-visibility' is-defined='yes'/>
    <elf-symbol name='_ZNK5boost10shared_ptrINS_10filesystem6detail11dir_itr_impEEptEv' type='func-type' binding='weak-binding' visibility='default-visibility' is-defined='yes'/>
    <elf-symbol name='_ZNK5boost12scoped_arrayIcE3getEv' type='func-type' binding='weak-binding' visibility='default-visibility' is-defined='yes'/>
    <elf-symbol name='_ZNK5boost12scoped_arrayIwE3getEv' type='func-type' binding='weak-binding' visibility='default-visibility' is-defined='yes'/>
    <elf-symbol name='_ZNK5boost15iterator_facadeINS_10filesystem18directory_iteratorENS1_15directory_entryENS_25single_pass_traversal_tagERS3_lE7derivedEv' type='func-type' binding='weak-binding' visibility='default-visibility' is-defined='yes'/>
    <elf-symbol name='_ZNK5boost15iterator_facadeINS_10filesystem18directory_iteratorENS1_15directory_entryENS_25single_pass_traversal_tagERS3_lEdeEv' type='func-type' binding='weak-binding' visibility='default-visibility' is-defined='yes'/>
    <elf-symbol name='_ZNK5boost15iterator_facadeINS_10filesystem18directory_iteratorENS1_15directory_entryENS_25single_pass_traversal_tagERS3_lEptEv' type='func-type' binding='weak-binding' visibility='default-visibility' is-defined='yes'/>
    <elf-symbol name='_ZNK5boost15iterator_facadeINS_10filesystem4path8iteratorEKS2_NS_27bidirectional_traversal_tagERS4_lE7derivedEv' type='func-type' binding='weak-binding' visibility='default-visibility' is-defined='yes'/>
    <elf-symbol name='_ZNK5boost15iterator_facadeINS_10filesystem4path8iteratorEKS2_NS_27bidirectional_traversal_tagERS4_lEdeEv' type='func-type' binding='weak-binding' visibility='default-visibility' is-defined='yes'/>
    <elf-symbol name='_ZNK5boost15iterator_facadeINS_10filesystem4path8iteratorEKS2_NS_27bidirectional_traversal_tagERS4_lEptEv' type='func-type' binding='weak-binding' visibility='default-visibility' is-defined='yes'/>
    <elf-symbol name='_ZNK5boost6system10error_code5valueEv' type='func-type' binding='weak-binding' visibility='default-visibility' is-defined='yes'/>
    <elf-symbol name='_ZNK5boost6system10error_code7messageEv' type='func-type' binding='weak-binding' visibility='default-visibility' is-defined='yes'/>
    <elf-symbol name='_ZNK5boost6system10error_code8categoryEv' type='func-type' binding='weak-binding' visibility='default-visibility' is-defined='yes'/>
    <elf-symbol name='_ZNK5boost6system10error_codecvPFvvEEv' type='func-type' binding='weak-binding' visibility='default-visibility' is-defined='yes'/>
    <elf-symbol name='_ZNK5boost6system12system_error4whatEv' type='func-type' binding='weak-binding' visibility='default-visibility' is-defined='yes'/>
    <elf-symbol name='_ZNK5boost6system14error_category10equivalentERKNS0_10error_codeEi' type='func-type' binding='weak-binding' visibility='default-visibility' is-defined='yes'/>
    <elf-symbol name='_ZNK5boost6system14error_category10equivalentEiRKNS0_15error_conditionE' type='func-type' binding='weak-binding' visibility='default-visibility' is-defined='yes'/>
    <elf-symbol name='_ZNK5boost6system14error_category23default_error_conditionEi' type='func-type' binding='weak-binding' visibility='default-visibility' is-defined='yes'/>
    <elf-symbol name='_ZNK5boost6system14error_categoryeqERKS1_' type='func-type' binding='weak-binding' visibility='default-visibility' is-defined='yes'/>
    <elf-symbol name='_ZNK9__gnu_cxx17__normal_iteratorIPKcSsEdeEv' type='func-type' binding='weak-binding' visibility='default-visibility' is-defined='yes'/>
    <elf-symbol name='_ZNK9__gnu_cxx17__normal_iteratorIPKcSsEmiEl' type='func-type' binding='weak-binding' visibility='default-visibility' is-defined='yes'/>
    <elf-symbol name='_ZNK9__gnu_cxx17__normal_iteratorIPKwSbIwSt11char_traitsIwESaIwEEEdeEv' type='func-type' binding='weak-binding' visibility='default-visibility' is-defined='yes'/>
    <elf-symbol name='_ZNK9__gnu_cxx17__normal_iteratorIPcSsEdeEv' type='func-type' binding='weak-binding' visibility='default-visibility' is-defined='yes'/>
    <elf-symbol name='_ZNK9__gnu_cxx17__normal_iteratorIPcSsEmiEl' type='func-type' binding='weak-binding' visibility='default-visibility' is-defined='yes'/>
    <elf-symbol name='_ZNKSt23__codecvt_abstract_baseIwc11__mbstate_tE2inERS0_PKcS4_RS4_PwS6_RS6_' type='func-type' binding='weak-binding' visibility='default-visibility' is-defined='yes'/>
    <elf-symbol name='_ZNKSt23__codecvt_abstract_baseIwc11__mbstate_tE3outERS0_PKwS4_RS4_PcS6_RS6_' type='func-type' binding='weak-binding' visibility='default-visibility' is-defined='yes'/>
    <elf-symbol name='_ZNSbIwSt11char_traitsIwESaIwEE6appendIPwEERS2_T_S6_' type='func-type' binding='weak-binding' visibility='default-visibility' is-defined='yes'/>
    <elf-symbol name='_ZNSs12_S_constructIPKcEEPcT_S3_RKSaIcE' type='func-type' binding='weak-binding' visibility='default-visibility' is-defined='yes'/>
    <elf-symbol name='_ZNSs12_S_constructIPKcEEPcT_S3_RKSaIcESt20forward_iterator_tag' type='func-type' binding='weak-binding' visibility='default-visibility' is-defined='yes'/>
    <elf-symbol name='_ZNSs12_S_constructIPcEES0_T_S1_RKSaIcE' type='func-type' binding='weak-binding' visibility='default-visibility' is-defined='yes'/>
    <elf-symbol name='_ZNSs12_S_constructIPcEES0_T_S1_RKSaIcESt20forward_iterator_tag' type='func-type' binding='weak-binding' visibility='default-visibility' is-defined='yes'/>
    <elf-symbol name='_ZNSs16_S_construct_auxIPKcEEPcT_S3_RKSaIcESt12__false_type' type='func-type' binding='weak-binding' visibility='default-visibility' is-defined='yes'/>
    <elf-symbol name='_ZNSs16_S_construct_auxIPcEES0_T_S1_RKSaIcESt12__false_type' type='func-type' binding='weak-binding' visibility='default-visibility' is-defined='yes'/>
    <elf-symbol name='_ZNSs6appendIPKcEERSsT_S3_' type='func-type' binding='weak-binding' visibility='default-visibility' is-defined='yes'/>
    <elf-symbol name='_ZNSs6appendIPcEERSsT_S2_' type='func-type' binding='weak-binding' visibility='default-visibility' is-defined='yes'/>
    <elf-symbol name='_ZNSsC1IPKcEET_S2_RKSaIcE' type='func-type' binding='weak-binding' visibility='default-visibility' is-defined='yes'/>
    <elf-symbol name='_ZNSsC1IPcEET_S1_RKSaIcE' type='func-type' binding='weak-binding' visibility='default-visibility' is-defined='yes'/>
    <elf-symbol name='_ZNSsC2IPKcEET_S2_RKSaIcE' type='func-type' binding='weak-binding' visibility='default-visibility' alias='_ZNSsC1IPKcEET_S2_RKSaIcE' is-defined='yes'/>
    <elf-symbol name='_ZNSsC2IPcEET_S1_RKSaIcE' type='func-type' binding='weak-binding' visibility='default-visibility' alias='_ZNSsC1IPcEET_S1_RKSaIcE' is-defined='yes'/>
    <elf-symbol name='_ZNSt11char_traitsIcE7compareEPKcS2_m' type='func-type' binding='weak-binding' visibility='default-visibility' is-defined='yes'/>
    <elf-symbol name='_ZNSt14numeric_limitsIwE3maxEv' type='func-type' binding='weak-binding' visibility='default-visibility' is-defined='yes'/>
    <elf-symbol name='_ZSt10__distanceIPKcENSt15iterator_traitsIT_E15difference_typeES3_S3_St26random_access_iterator_tag' type='func-type' binding='weak-binding' visibility='default-visibility' is-defined='yes'/>
    <elf-symbol name='_ZSt10__distanceIPcENSt15iterator_traitsIT_E15difference_typeES2_S2_St26random_access_iterator_tag' type='func-type' binding='weak-binding' visibility='default-visibility' is-defined='yes'/>
    <elf-symbol name='_ZSt19__iterator_categoryIPKcENSt15iterator_traitsIT_E17iterator_categoryERKS3_' type='func-type' binding='weak-binding' visibility='default-visibility' is-defined='yes'/>
    <elf-symbol name='_ZSt19__iterator_categoryIPcENSt15iterator_traitsIT_E17iterator_categoryERKS2_' type='func-type' binding='weak-binding' visibility='default-visibility' is-defined='yes'/>
    <elf-symbol name='_ZSt4moveIRPN5boost10filesystem16filesystem_error5m_impEEONSt16remove_referenceIT_E4typeEOS7_' type='func-type' binding='weak-binding' visibility='default-visibility' is-defined='yes'/>
    <elf-symbol name='_ZSt4moveIRPN5boost10filesystem6detail11dir_itr_impEEONSt16remove_referenceIT_E4typeEOS7_' type='func-type' binding='weak-binding' visibility='default-visibility' is-defined='yes'/>
    <elf-symbol name='_ZSt4swapIPN5boost10filesystem16filesystem_error5m_impEEvRT_S6_' type='func-type' binding='weak-binding' visibility='default-visibility' is-defined='yes'/>
    <elf-symbol name='_ZSt4swapIPN5boost10filesystem6detail11dir_itr_impEEvRT_S6_' type='func-type' binding='weak-binding' visibility='default-visibility' is-defined='yes'/>
    <elf-symbol name='_ZSt8distanceIPKcENSt15iterator_traitsIT_E15difference_typeES3_S3_' type='func-type' binding='weak-binding' visibility='default-visibility' is-defined='yes'/>
    <elf-symbol name='_ZSt8distanceIPcENSt15iterator_traitsIT_E15difference_typeES2_S2_' type='func-type' binding='weak-binding' visibility='default-visibility' is-defined='yes'/>
    <elf-symbol name='_ZSteqIcEN9__gnu_cxx11__enable_ifIXsrSt9__is_charIT_E7__valueEbE6__typeERKSbIS3_St11char_traitsIS3_ESaIS3_EESC_' type='func-type' binding='weak-binding' visibility='default-visibility' is-defined='yes'/>
    <elf-symbol name='_ZSteqIcEbRKSaIT_ES3_' type='func-type' binding='weak-binding' visibility='default-visibility' is-defined='yes'/>
    <elf-symbol name='_ZSteqIcSt11char_traitsIcESaIcEEbRKSbIT_T0_T1_EPKS3_' type='func-type' binding='weak-binding' visibility='default-visibility' is-defined='yes'/>
    <elf-symbol name='_ZStltIcSt11char_traitsIcESaIcEEbRKSbIT_T0_T1_ES8_' type='func-type' binding='weak-binding' visibility='default-visibility' is-defined='yes'/>
    <elf-symbol name='_ZStneIcSt11char_traitsIcESaIcEEbRKSbIT_T0_T1_EPKS3_' type='func-type' binding='weak-binding' visibility='default-visibility' is-defined='yes'/>
    <elf-symbol name='_fini' type='func-type' binding='global-binding' visibility='default-visibility' is-defined='yes'/>
    <elf-symbol name='_init' type='func-type' binding='global-binding' visibility='default-visibility' is-defined='yes'/>
  </elf-function-symbols>
  <elf-variable-symbols>
    <elf-symbol name='_ZTIN5boost10filesystem16filesystem_errorE' size='24' type='object-type' binding='weak-binding' visibility='default-visibility' is-defined='yes'/>
    <elf-symbol name='_ZTIN5boost10filesystem6detail18utf8_codecvt_facetE' size='24' type='object-type' binding='weak-binding' visibility='default-visibility' is-defined='yes'/>
    <elf-symbol name='_ZTIN5boost12noncopyable_11noncopyableE' size='16' type='object-type' binding='weak-binding' visibility='default-visibility' is-defined='yes'/>
    <elf-symbol name='_ZTIN5boost6detail15sp_counted_baseE' size='16' type='object-type' binding='weak-binding' visibility='default-visibility' is-defined='yes'/>
    <elf-symbol name='_ZTIN5boost6detail17sp_counted_impl_pINS_10filesystem16filesystem_error5m_impEEE' size='24' type='object-type' binding='weak-binding' visibility='default-visibility' is-defined='yes'/>
    <elf-symbol name='_ZTIN5boost6detail17sp_counted_impl_pINS_10filesystem6detail11dir_itr_impEEE' size='24' type='object-type' binding='weak-binding' visibility='default-visibility' is-defined='yes'/>
    <elf-symbol name='_ZTIN5boost6system12system_errorE' size='24' type='object-type' binding='weak-binding' visibility='default-visibility' is-defined='yes'/>
    <elf-symbol name='_ZTIN5boost6system14error_categoryE' size='24' type='object-type' binding='weak-binding' visibility='default-visibility' is-defined='yes'/>
    <elf-symbol name='_ZTSN5boost10filesystem16filesystem_errorE' size='39' type='object-type' binding='weak-binding' visibility='default-visibility' is-defined='yes'/>
    <elf-symbol name='_ZTSN5boost10filesystem6detail18utf8_codecvt_facetE' size='48' type='object-type' binding='weak-binding' visibility='default-visibility' is-defined='yes'/>
    <elf-symbol name='_ZTSN5boost12noncopyable_11noncopyableE' size='36' type='object-type' binding='weak-binding' visibility='default-visibility' is-defined='yes'/>
    <elf-symbol name='_ZTSN5boost6detail15sp_counted_baseE' size='33' type='object-type' binding='weak-binding' visibility='default-visibility' is-defined='yes'/>
    <elf-symbol name='_ZTSN5boost6detail17sp_counted_impl_pINS_10filesystem16filesystem_error5m_impEEE' size='77' type='object-type' binding='weak-binding' visibility='default-visibility' is-defined='yes'/>
    <elf-symbol name='_ZTSN5boost6detail17sp_counted_impl_pINS_10filesystem6detail11dir_itr_impEEE' size='73' type='object-type' binding='weak-binding' visibility='default-visibility' is-defined='yes'/>
    <elf-symbol name='_ZTSN5boost6system12system_errorE' size='30' type='object-type' binding='weak-binding' visibility='default-visibility' is-defined='yes'/>
    <elf-symbol name='_ZTSN5boost6system14error_categoryE' size='32' type='object-type' binding='weak-binding' visibility='default-visibility' is-defined='yes'/>
    <elf-symbol name='_ZTVN5boost10filesystem16filesystem_errorE' size='40' type='object-type' binding='weak-binding' visibility='default-visibility' is-defined='yes'/>
    <elf-symbol name='_ZTVN5boost10filesystem6detail18utf8_codecvt_facetE' size='88' type='object-type' binding='weak-binding' visibility='default-visibility' is-defined='yes'/>
    <elf-symbol name='_ZTVN5boost6detail15sp_counted_baseE' size='64' type='object-type' binding='weak-binding' visibility='default-visibility' is-defined='yes'/>
    <elf-symbol name='_ZTVN5boost6detail17sp_counted_impl_pINS_10filesystem16filesystem_error5m_impEEE' size='64' type='object-type' binding='weak-binding' visibility='default-visibility' is-defined='yes'/>
    <elf-symbol name='_ZTVN5boost6detail17sp_counted_impl_pINS_10filesystem6detail11dir_itr_impEEE' size='64' type='object-type' binding='weak-binding' visibility='default-visibility' is-defined='yes'/>
    <elf-symbol name='_ZTVN5boost6system12system_errorE' size='40' type='object-type' binding='weak-binding' visibility='default-visibility' is-defined='yes'/>
    <elf-symbol name='_ZTVN5boost6system14error_categoryE' size='72' type='object-type' binding='weak-binding' visibility='default-visibility' is-defined='yes'/>
  </elf-variable-symbols>
  <abi-instr address-size='64' path='src/third_party/boost-1.56.0/libs/filesystem/src/codecvt_error_category.cpp' comp-dir-path='/home/andrew/Documents/10gen/dev/src/mongodb' language='LANG_C_plus_plus'>
    <type-decl name='bool' size-in-bits='8' hash='5ba96bb22f4237fb' id='type-id-1'/>
    <type-decl name='char' size-in-bits='8' hash='65b2d157027b431a' id='type-id-2'/>
    <array-type-def dimensions='1' type-id='type-id-2' size-in-bits='8' hash='f7aed1c6cc6e7b3c' id='type-id-3'>
      <subrange length='1' lower-bound='0' upper-bound='0' type-id='type-id-4' size-in-bits='64' is-anonymous='yes' hash='eba0a2b392137dcb' id='type-id-5'/>
    </array-type-def>
    <array-type-def dimensions='1' type-id='type-id-2' size-in-bits='160' hash='99641d293d1da856' id='type-id-6'>
      <subrange length='20' lower-bound='0' upper-bound='19' type-id='type-id-4' size-in-bits='64' is-anonymous='yes' hash='1ca9e41140ea49be' id='type-id-7'/>
    </array-type-def>
    <array-type-def dimensions='1' type-id='type-id-2' size-in-bits='32' hash='932523ac2c3bfb84' id='type-id-8'>
      <subrange length='4' lower-bound='0' upper-bound='3' type-id='type-id-4' size-in-bits='64' is-anonymous='yes' hash='cee611f4a73e486c' id='type-id-9'/>
    </array-type-def>
    <type-decl name='double' size-in-bits='64' hash='e9e9b320886d9aa6' id='type-id-10'/>
    <type-decl name='float' size-in-bits='32' hash='d7ec3bf03d3c5690' id='type-id-11'/>
    <type-decl name='int' size-in-bits='32' hash='09d17c08f594edc7' id='type-id-12'/>
    <type-decl name='long double' size-in-bits='128' hash='2a9bbfe8bb0475f1#2' id='type-id-13'/>
    <type-decl name='long int' size-in-bits='64' hash='b119fe0931d2ee10#2' id='type-id-14'/>
    <type-decl name='long long int' size-in-bits='64' hash='5ae7f9eec1fc43d6#3' id='type-id-15'/>
    <type-decl name='short int' size-in-bits='16' hash='6c2352eccdcd3eea#4' id='type-id-16'/>
    <type-decl name='signed char' size-in-bits='8' hash='3c595c3350588f18' id='type-id-17'/>
    <type-decl name='sizetype' size-in-bits='64' hash='3e84f1a1648448f5' id='type-id-4'/>
    <class-decl name='_G_fpos_t' is-struct='yes' naming-typedef-id='type-id-18' visibility='default' size-in-bits='128' filepath='/usr/include/_G_config.h' line='22' column='1' hash='087e39dfd7c978ce' id='type-id-19'>
      <data-member access='public' layout-offset-in-bits='0'>
        <var-decl name='__pos' type-id='type-id-20' visibility='default' filepath='/usr/include/_G_config.h' line='23' column='1'/>
      </data-member>
      <data-member access='public' layout-offset-in-bits='64'>
        <var-decl name='__state' type-id='type-id-21' visibility='default' filepath='/usr/include/_G_config.h' line='24' column='1'/>
      </data-member>
    </class-decl>
    <class-decl name='_IO_FILE' is-struct='yes' visibility='default' size-in-bits='1728' filepath='/usr/include/libio.h' line='245' column='1' hash='29dcdce3af7c2b79' id='type-id-22'>
      <data-member access='public' layout-offset-in-bits='0'>
        <var-decl name='_flags' type-id='type-id-12' visibility='default' filepath='/usr/include/libio.h' line='246' column='1'/>
      </data-member>
      <data-member access='public' layout-offset-in-bits='64'>
        <var-decl name='_IO_read_ptr' type-id='type-id-23' visibility='default' filepath='/usr/include/libio.h' line='251' column='1'/>
      </data-member>
      <data-member access='public' layout-offset-in-bits='128'>
        <var-decl name='_IO_read_end' type-id='type-id-23' visibility='default' filepath='/usr/include/libio.h' line='252' column='1'/>
      </data-member>
      <data-member access='public' layout-offset-in-bits='192'>
        <var-decl name='_IO_read_base' type-id='type-id-23' visibility='default' filepath='/usr/include/libio.h' line='253' column='1'/>
      </data-member>
      <data-member access='public' layout-offset-in-bits='256'>
        <var-decl name='_IO_write_base' type-id='type-id-23' visibility='default' filepath='/usr/include/libio.h' line='254' column='1'/>
      </data-member>
      <data-member access='public' layout-offset-in-bits='320'>
        <var-decl name='_IO_write_ptr' type-id='type-id-23' visibility='default' filepath='/usr/include/libio.h' line='255' column='1'/>
      </data-member>
      <data-member access='public' layout-offset-in-bits='384'>
        <var-decl name='_IO_write_end' type-id='type-id-23' visibility='default' filepath='/usr/include/libio.h' line='256' column='1'/>
      </data-member>
      <data-member access='public' layout-offset-in-bits='448'>
        <var-decl name='_IO_buf_base' type-id='type-id-23' visibility='default' filepath='/usr/include/libio.h' line='257' column='1'/>
      </data-member>
      <data-member access='public' layout-offset-in-bits='512'>
        <var-decl name='_IO_buf_end' type-id='type-id-23' visibility='default' filepath='/usr/include/libio.h' line='258' column='1'/>
      </data-member>
      <data-member access='public' layout-offset-in-bits='576'>
        <var-decl name='_IO_save_base' type-id='type-id-23' visibility='default' filepath='/usr/include/libio.h' line='260' column='1'/>
      </data-member>
      <data-member access='public' layout-offset-in-bits='640'>
        <var-decl name='_IO_backup_base' type-id='type-id-23' visibility='default' filepath='/usr/include/libio.h' line='261' column='1'/>
      </data-member>
      <data-member access='public' layout-offset-in-bits='704'>
        <var-decl name='_IO_save_end' type-id='type-id-23' visibility='default' filepath='/usr/include/libio.h' line='262' column='1'/>
      </data-member>
      <data-member access='public' layout-offset-in-bits='768'>
        <var-decl name='_markers' type-id='type-id-24' visibility='default' filepath='/usr/include/libio.h' line='264' column='1'/>
      </data-member>
      <data-member access='public' layout-offset-in-bits='832'>
        <var-decl name='_chain' type-id='type-id-25' visibility='default' filepath='/usr/include/libio.h' line='266' column='1'/>
      </data-member>
      <data-member access='public' layout-offset-in-bits='896'>
        <var-decl name='_fileno' type-id='type-id-12' visibility='default' filepath='/usr/include/libio.h' line='268' column='1'/>
      </data-member>
      <data-member access='public' layout-offset-in-bits='928'>
        <var-decl name='_flags2' type-id='type-id-12' visibility='default' filepath='/usr/include/libio.h' line='272' column='1'/>
      </data-member>
      <data-member access='public' layout-offset-in-bits='960'>
        <var-decl name='_old_offset' type-id='type-id-20' visibility='default' filepath='/usr/include/libio.h' line='274' column='1'/>
      </data-member>
      <data-member access='public' layout-offset-in-bits='1024'>
        <var-decl name='_cur_column' type-id='type-id-26' visibility='default' filepath='/usr/include/libio.h' line='278' column='1'/>
      </data-member>
      <data-member access='public' layout-offset-in-bits='1040'>
        <var-decl name='_vtable_offset' type-id='type-id-17' visibility='default' filepath='/usr/include/libio.h' line='279' column='1'/>
      </data-member>
      <data-member access='public' layout-offset-in-bits='1048'>
        <var-decl name='_shortbuf' type-id='type-id-3' visibility='default' filepath='/usr/include/libio.h' line='280' column='1'/>
      </data-member>
      <data-member access='public' layout-offset-in-bits='1088'>
        <var-decl name='_lock' type-id='type-id-27' visibility='default' filepath='/usr/include/libio.h' line='284' column='1'/>
      </data-member>
      <data-member access='public' layout-offset-in-bits='1152'>
        <var-decl name='_offset' type-id='type-id-28' visibility='default' filepath='/usr/include/libio.h' line='293' column='1'/>
      </data-member>
      <data-member access='public' layout-offset-in-bits='1216'>
        <var-decl name='__pad1' type-id='type-id-29' visibility='default' filepath='/usr/include/libio.h' line='302' column='1'/>
      </data-member>
      <data-member access='public' layout-offset-in-bits='1280'>
        <var-decl name='__pad2' type-id='type-id-29' visibility='default' filepath='/usr/include/libio.h' line='303' column='1'/>
      </data-member>
      <data-member access='public' layout-offset-in-bits='1344'>
        <var-decl name='__pad3' type-id='type-id-29' visibility='default' filepath='/usr/include/libio.h' line='304' column='1'/>
      </data-member>
      <data-member access='public' layout-offset-in-bits='1408'>
        <var-decl name='__pad4' type-id='type-id-29' visibility='default' filepath='/usr/include/libio.h' line='305' column='1'/>
      </data-member>
      <data-member access='public' layout-offset-in-bits='1472'>
        <var-decl name='__pad5' type-id='type-id-30' visibility='default' filepath='/usr/include/libio.h' line='306' column='1'/>
      </data-member>
      <data-member access='public' layout-offset-in-bits='1536'>
        <var-decl name='_mode' type-id='type-id-12' visibility='default' filepath='/usr/include/libio.h' line='308' column='1'/>
      </data-member>
      <data-member access='public' layout-offset-in-bits='1568'>
        <var-decl name='_unused2' type-id='type-id-6' visibility='default' filepath='/usr/include/libio.h' line='310' column='1'/>
      </data-member>
    </class-decl>
    <class-decl name='_IO_marker' is-struct='yes' visibility='default' size-in-bits='192' filepath='/usr/include/libio.h' line='160' column='1' hash='263be23b1e79201c' id='type-id-31'>
      <data-member access='public' layout-offset-in-bits='0'>
        <var-decl name='_next' type-id='type-id-24' visibility='default' filepath='/usr/include/libio.h' line='161' column='1'/>
      </data-member>
      <data-member access='public' layout-offset-in-bits='64'>
        <var-decl name='_sbuf' type-id='type-id-25' visibility='default' filepath='/usr/include/libio.h' line='162' column='1'/>
      </data-member>
      <data-member access='public' layout-offset-in-bits='128'>
        <var-decl name='_pos' type-id='type-id-12' visibility='default' filepath='/usr/include/libio.h' line='166' column='1'/>
      </data-member>
    </class-decl>
    <class-decl name='__mbstate_t' is-struct='yes' naming-typedef-id='type-id-21' visibility='default' size-in-bits='64' filepath='/usr/include/wchar.h' line='83' column='1' hash='e97fe294ce223fec' id='type-id-32'>
      <member-type access='public'>
        <union-decl name='__anonymous_union__' visibility='default' size-in-bits='32' is-anonymous='yes' filepath='/usr/include/wchar.h' line='86' column='1' hash='db9d16b710a8f305' id='type-id-33'>
          <data-member access='public'>
            <var-decl name='__wch' type-id='type-id-34' visibility='default' filepath='/usr/include/wchar.h' line='88' column='1'/>
          </data-member>
          <data-member access='public'>
            <var-decl name='__wchb' type-id='type-id-8' visibility='default' filepath='/usr/include/wchar.h' line='92' column='1'/>
          </data-member>
        </union-decl>
      </member-type>
      <data-member access='public' layout-offset-in-bits='0'>
        <var-decl name='__count' type-id='type-id-12' visibility='default' filepath='/usr/include/wchar.h' line='84' column='1'/>
      </data-member>
      <data-member access='public' layout-offset-in-bits='32'>
        <var-decl name='__value' type-id='type-id-33' visibility='default' filepath='/usr/include/wchar.h' line='93' column='1'/>
      </data-member>
    </class-decl>
    <class-decl name='div_t' is-struct='yes' naming-typedef-id='type-id-35' visibility='default' size-in-bits='64' filepath='/usr/include/stdlib.h' line='98' column='1' hash='5321a6845884f9ce' id='type-id-36'>
      <data-member access='public' layout-offset-in-bits='0'>
        <var-decl name='quot' type-id='type-id-12' visibility='default' filepath='/usr/include/stdlib.h' line='99' column='1'/>
      </data-member>
      <data-member access='public' layout-offset-in-bits='32'>
        <var-decl name='rem' type-id='type-id-12' visibility='default' filepath='/usr/include/stdlib.h' line='100' column='1'/>
      </data-member>
    </class-decl>
    <class-decl name='lconv' is-struct='yes' visibility='default' size-in-bits='768' filepath='/usr/include/locale.h' line='53' column='1' hash='91b2fd0786b4df3e' id='type-id-37'>
      <data-member access='public' layout-offset-in-bits='0'>
        <var-decl name='decimal_point' type-id='type-id-23' visibility='default' filepath='/usr/include/locale.h' line='57' column='1'/>
      </data-member>
      <data-member access='public' layout-offset-in-bits='64'>
        <var-decl name='thousands_sep' type-id='type-id-23' visibility='default' filepath='/usr/include/locale.h' line='58' column='1'/>
      </data-member>
      <data-member access='public' layout-offset-in-bits='128'>
        <var-decl name='grouping' type-id='type-id-23' visibility='default' filepath='/usr/include/locale.h' line='64' column='1'/>
      </data-member>
      <data-member access='public' layout-offset-in-bits='192'>
        <var-decl name='int_curr_symbol' type-id='type-id-23' visibility='default' filepath='/usr/include/locale.h' line='70' column='1'/>
      </data-member>
      <data-member access='public' layout-offset-in-bits='256'>
        <var-decl name='currency_symbol' type-id='type-id-23' visibility='default' filepath='/usr/include/locale.h' line='71' column='1'/>
      </data-member>
      <data-member access='public' layout-offset-in-bits='320'>
        <var-decl name='mon_decimal_point' type-id='type-id-23' visibility='default' filepath='/usr/include/locale.h' line='72' column='1'/>
      </data-member>
      <data-member access='public' layout-offset-in-bits='384'>
        <var-decl name='mon_thousands_sep' type-id='type-id-23' visibility='default' filepath='/usr/include/locale.h' line='73' column='1'/>
      </data-member>
      <data-member access='public' layout-offset-in-bits='448'>
        <var-decl name='mon_grouping' type-id='type-id-23' visibility='default' filepath='/usr/include/locale.h' line='74' column='1'/>
      </data-member>
      <data-member access='public' layout-offset-in-bits='512'>
        <var-decl name='positive_sign' type-id='type-id-23' visibility='default' filepath='/usr/include/locale.h' line='75' column='1'/>
      </data-member>
      <data-member access='public' layout-offset-in-bits='576'>
        <var-decl name='negative_sign' type-id='type-id-23' visibility='default' filepath='/usr/include/locale.h' line='76' column='1'/>
      </data-member>
      <data-member access='public' layout-offset-in-bits='640'>
        <var-decl name='int_frac_digits' type-id='type-id-2' visibility='default' filepath='/usr/include/locale.h' line='77' column='1'/>
      </data-member>
      <data-member access='public' layout-offset-in-bits='648'>
        <var-decl name='frac_digits' type-id='type-id-2' visibility='default' filepath='/usr/include/locale.h' line='78' column='1'/>
      </data-member>
      <data-member access='public' layout-offset-in-bits='656'>
        <var-decl name='p_cs_precedes' type-id='type-id-2' visibility='default' filepath='/usr/include/locale.h' line='80' column='1'/>
      </data-member>
      <data-member access='public' layout-offset-in-bits='664'>
        <var-decl name='p_sep_by_space' type-id='type-id-2' visibility='default' filepath='/usr/include/locale.h' line='82' column='1'/>
      </data-member>
      <data-member access='public' layout-offset-in-bits='672'>
        <var-decl name='n_cs_precedes' type-id='type-id-2' visibility='default' filepath='/usr/include/locale.h' line='84' column='1'/>
      </data-member>
      <data-member access='public' layout-offset-in-bits='680'>
        <var-decl name='n_sep_by_space' type-id='type-id-2' visibility='default' filepath='/usr/include/locale.h' line='86' column='1'/>
      </data-member>
      <data-member access='public' layout-offset-in-bits='688'>
        <var-decl name='p_sign_posn' type-id='type-id-2' visibility='default' filepath='/usr/include/locale.h' line='93' column='1'/>
      </data-member>
      <data-member access='public' layout-offset-in-bits='696'>
        <var-decl name='n_sign_posn' type-id='type-id-2' visibility='default' filepath='/usr/include/locale.h' line='94' column='1'/>
      </data-member>
      <data-member access='public' layout-offset-in-bits='704'>
        <var-decl name='int_p_cs_precedes' type-id='type-id-2' visibility='default' filepath='/usr/include/locale.h' line='97' column='1'/>
      </data-member>
      <data-member access='public' layout-offset-in-bits='712'>
        <var-decl name='int_p_sep_by_space' type-id='type-id-2' visibility='default' filepath='/usr/include/locale.h' line='99' column='1'/>
      </data-member>
      <data-member access='public' layout-offset-in-bits='720'>
        <var-decl name='int_n_cs_precedes' type-id='type-id-2' visibility='default' filepath='/usr/include/locale.h' line='101' column='1'/>
      </data-member>
      <data-member access='public' layout-offset-in-bits='728'>
        <var-decl name='int_n_sep_by_space' type-id='type-id-2' visibility='default' filepath='/usr/include/locale.h' line='103' column='1'/>
      </data-member>
      <data-member access='public' layout-offset-in-bits='736'>
        <var-decl name='int_p_sign_posn' type-id='type-id-2' visibility='default' filepath='/usr/include/locale.h' line='110' column='1'/>
      </data-member>
      <data-member access='public' layout-offset-in-bits='744'>
        <var-decl name='int_n_sign_posn' type-id='type-id-2' visibility='default' filepath='/usr/include/locale.h' line='111' column='1'/>
      </data-member>
    </class-decl>
    <class-decl name='ldiv_t' is-struct='yes' naming-typedef-id='type-id-38' visibility='default' size-in-bits='128' filepath='/usr/include/stdlib.h' line='106' column='1' hash='f73ee30feb9e9f76' id='type-id-39'>
      <data-member access='public' layout-offset-in-bits='0'>
        <var-decl name='quot' type-id='type-id-14' visibility='default' filepath='/usr/include/stdlib.h' line='107' column='1'/>
      </data-member>
      <data-member access='public' layout-offset-in-bits='64'>
        <var-decl name='rem' type-id='type-id-14' visibility='default' filepath='/usr/include/stdlib.h' line='108' column='1'/>
      </data-member>
    </class-decl>
    <class-decl name='lldiv_t' is-struct='yes' naming-typedef-id='type-id-40' visibility='default' size-in-bits='128' filepath='/usr/include/stdlib.h' line='118' column='1' hash='564e04be97ca0408' id='type-id-41'>
      <data-member access='public' layout-offset-in-bits='0'>
        <var-decl name='quot' type-id='type-id-15' visibility='default' filepath='/usr/include/stdlib.h' line='119' column='1'/>
      </data-member>
      <data-member access='public' layout-offset-in-bits='64'>
        <var-decl name='rem' type-id='type-id-15' visibility='default' filepath='/usr/include/stdlib.h' line='120' column='1'/>
      </data-member>
    </class-decl>
    <class-decl name='tm' is-struct='yes' visibility='default' size-in-bits='448' filepath='/usr/include/time.h' line='133' column='1' hash='831fa813c3806379' id='type-id-42'>
      <data-member access='public' layout-offset-in-bits='0'>
        <var-decl name='tm_sec' type-id='type-id-12' visibility='default' filepath='/usr/include/time.h' line='135' column='1'/>
      </data-member>
      <data-member access='public' layout-offset-in-bits='32'>
        <var-decl name='tm_min' type-id='type-id-12' visibility='default' filepath='/usr/include/time.h' line='136' column='1'/>
      </data-member>
      <data-member access='public' layout-offset-in-bits='64'>
        <var-decl name='tm_hour' type-id='type-id-12' visibility='default' filepath='/usr/include/time.h' line='137' column='1'/>
      </data-member>
      <data-member access='public' layout-offset-in-bits='96'>
        <var-decl name='tm_mday' type-id='type-id-12' visibility='default' filepath='/usr/include/time.h' line='138' column='1'/>
      </data-member>
      <data-member access='public' layout-offset-in-bits='128'>
        <var-decl name='tm_mon' type-id='type-id-12' visibility='default' filepath='/usr/include/time.h' line='139' column='1'/>
      </data-member>
      <data-member access='public' layout-offset-in-bits='160'>
        <var-decl name='tm_year' type-id='type-id-12' visibility='default' filepath='/usr/include/time.h' line='140' column='1'/>
      </data-member>
      <data-member access='public' layout-offset-in-bits='192'>
        <var-decl name='tm_wday' type-id='type-id-12' visibility='default' filepath='/usr/include/time.h' line='141' column='1'/>
      </data-member>
      <data-member access='public' layout-offset-in-bits='224'>
        <var-decl name='tm_yday' type-id='type-id-12' visibility='default' filepath='/usr/include/time.h' line='142' column='1'/>
      </data-member>
      <data-member access='public' layout-offset-in-bits='256'>
        <var-decl name='tm_isdst' type-id='type-id-12' visibility='default' filepath='/usr/include/time.h' line='143' column='1'/>
      </data-member>
      <data-member access='public' layout-offset-in-bits='320'>
        <var-decl name='tm_gmtoff' type-id='type-id-14' visibility='default' filepath='/usr/include/time.h' line='146' column='1'/>
      </data-member>
      <data-member access='public' layout-offset-in-bits='384'>
        <var-decl name='tm_zone' type-id='type-id-43' visibility='default' filepath='/usr/include/time.h' line='147' column='1'/>
      </data-member>
    </class-decl>
    <class-decl name='typedef __va_list_tag __va_list_tag' is-struct='yes' visibility='default' size-in-bits='192' hash='82aec996f90384a2' id='type-id-44'>
      <data-member access='public' layout-offset-in-bits='0'>
        <var-decl name='gp_offset' type-id='type-id-34' visibility='default'/>
      </data-member>
      <data-member access='public' layout-offset-in-bits='32'>
        <var-decl name='fp_offset' type-id='type-id-34' visibility='default'/>
      </data-member>
      <data-member access='public' layout-offset-in-bits='64'>
        <var-decl name='overflow_arg_area' type-id='type-id-29' visibility='default'/>
      </data-member>
      <data-member access='public' layout-offset-in-bits='128'>
        <var-decl name='reg_save_area' type-id='type-id-29' visibility='default'/>
      </data-member>
    </class-decl>
    <typedef-decl name='FILE' type-id='type-id-22' size-in-bits='1728' filepath='/usr/include/stdio.h' line='48' column='1' id='type-id-45'/>
    <typedef-decl name='_Atomic_word' type-id='type-id-12' size-in-bits='32' filepath='/usr/include/x86_64-linux-gnu/c++/4.9/bits/atomic_word.h' line='32' column='1' hash='09d17c08f594edc7' id='type-id-46'/>
    <typedef-decl name='_G_fpos_t' type-id='type-id-19' size-in-bits='128' filepath='/usr/include/_G_config.h' line='25' column='1' id='type-id-18'/>
    <typedef-decl name='_IO_lock_t' type-id='type-id-47' filepath='/usr/include/libio.h' line='154' column='1' id='type-id-48'/>
    <typedef-decl name='__FILE' type-id='type-id-22' size-in-bits='1728' filepath='/usr/include/stdio.h' line='64' column='1' id='type-id-49'/>
    <typedef-decl name='__clock_t' type-id='type-id-14' size-in-bits='64' filepath='/usr/include/x86_64-linux-gnu/bits/types.h' line='135' column='1' hash='b119fe0931d2ee10' id='type-id-50'/>
    <typedef-decl name='__compar_fn_t' type-id='type-id-51' size-in-bits='64' filepath='/usr/include/stdlib.h' line='741' column='1' hash='fd7a63c0c6c822c4' id='type-id-52'/>
    <typedef-decl name='__int32_t' type-id='type-id-12' size-in-bits='32' filepath='/usr/include/x86_64-linux-gnu/bits/types.h' line='40' column='1' hash='09d17c08f594edc7' id='type-id-53'/>
    <typedef-decl name='__mbstate_t' type-id='type-id-32' size-in-bits='64' filepath='/usr/include/wchar.h' line='94' column='1' id='type-id-21'/>
    <typedef-decl name='__off64_t' type-id='type-id-14' size-in-bits='64' filepath='/usr/include/x86_64-linux-gnu/bits/types.h' line='132' column='1' hash='b119fe0931d2ee10' id='type-id-28'/>
    <typedef-decl name='__off_t' type-id='type-id-14' size-in-bits='64' filepath='/usr/include/x86_64-linux-gnu/bits/types.h' line='131' column='1' hash='b119fe0931d2ee10' id='type-id-20'/>
    <typedef-decl name='__time_t' type-id='type-id-14' size-in-bits='64' filepath='/usr/include/x86_64-linux-gnu/bits/types.h' line='139' column='1' hash='b119fe0931d2ee10' id='type-id-54'/>
    <typedef-decl name='clock_t' type-id='type-id-50' size-in-bits='64' filepath='/usr/include/time.h' line='59' column='1' hash='b119fe0931d2ee10' id='type-id-55'/>
    <typedef-decl name='div_t' type-id='type-id-36' size-in-bits='64' filepath='/usr/include/stdlib.h' line='101' column='1' id='type-id-35'/>
    <typedef-decl name='fpos_t' type-id='type-id-18' size-in-bits='128' filepath='/usr/include/stdio.h' line='110' column='1' id='type-id-56'/>
    <typedef-decl name='ldiv_t' type-id='type-id-39' size-in-bits='128' filepath='/usr/include/stdlib.h' line='109' column='1' id='type-id-38'/>
    <typedef-decl name='lldiv_t' type-id='type-id-41' size-in-bits='128' filepath='/usr/include/stdlib.h' line='121' column='1' id='type-id-40'/>
    <typedef-decl name='mbstate_t' type-id='type-id-21' size-in-bits='64' filepath='/usr/include/wchar.h' line='106' column='1' id='type-id-57'/>
    <typedef-decl name='size_t' type-id='type-id-58' size-in-bits='64' filepath='/usr/lib/gcc/x86_64-linux-gnu/4.9/include/stddef.h' line='212' column='1' hash='8fdc5eea2983a729' id='type-id-30'/>
    <typedef-decl name='time_t' type-id='type-id-54' size-in-bits='64' filepath='/usr/include/time.h' line='75' column='1' hash='b119fe0931d2ee10' id='type-id-59'/>
    <typedef-decl name='wctrans_t' type-id='type-id-60' size-in-bits='64' filepath='/usr/include/wctype.h' line='186' column='1' hash='96e1bfcb27b9d6ed' id='type-id-61'/>
    <typedef-decl name='wctype_t' type-id='type-id-58' size-in-bits='64' filepath='/usr/include/wctype.h' line='52' column='1' hash='8fdc5eea2983a729' id='type-id-62'/>
    <typedef-decl name='wint_t' type-id='type-id-34' size-in-bits='32' filepath='/usr/lib/gcc/x86_64-linux-gnu/4.9/include/stddef.h' line='353' column='1' hash='e66b43f97c38e87a' id='type-id-63'/>
    <type-decl name='unsigned int' size-in-bits='32' hash='e66b43f97c38e87a' id='type-id-34'/>
    <type-decl name='unsigned long int' size-in-bits='64' hash='8fdc5eea2983a729#2' id='type-id-58'/>
    <type-decl name='unsigned long long int' size-in-bits='64' hash='ebdfc4685a1e82df#3' id='type-id-64'/>
    <type-decl name='unsigned short int' size-in-bits='16' hash='d7723bb93a30b11d#4' id='type-id-26'/>
    <type-decl name='wchar_t' size-in-bits='32' hash='4b224bc24abb5f1b' id='type-id-65'/>
    <pointer-type-def type-id='type-id-45' size-in-bits='64' hash='4cdc26b379a5c62d' id='type-id-66'/>
    <pointer-type-def type-id='type-id-22' size-in-bits='64' hash='071f36dcbe00ad00' id='type-id-25'/>
    <pointer-type-def type-id='type-id-31' size-in-bits='64' hash='4265a0e1ed6483b0' id='type-id-24'/>
    <pointer-type-def type-id='type-id-49' size-in-bits='64' hash='1a16dc71bfc55192' id='type-id-67'/>
    <reference-type-def kind='lvalue' type-id='type-id-68' size-in-bits='64' hash='0daf8262f5503bc8' id='type-id-69'/>
    <pointer-type-def type-id='type-id-68' size-in-bits='64' hash='bc6e93631ce17a7a' id='type-id-70'/>
    <reference-type-def kind='lvalue' type-id='type-id-71' size-in-bits='64' hash='18c1b46cd6a36252' id='type-id-72'/>
    <pointer-type-def type-id='type-id-71' size-in-bits='64' hash='45ab8eabeb6940cd' id='type-id-73'/>
    <pointer-type-def type-id='type-id-74' size-in-bits='64' hash='608f46af5d93b320' id='type-id-75'/>
    <reference-type-def kind='lvalue' type-id='type-id-76' size-in-bits='64' hash='4a0ccfb95f2071e8' id='type-id-77'/>
    <pointer-type-def type-id='type-id-76' size-in-bits='64' hash='bd3e10bac9717b2d' id='type-id-78'/>
    <qualified-type-def type-id='type-id-78' const='yes' hash='6f89052c8163ee87' id='type-id-79'/>
    <pointer-type-def type-id='type-id-80' size-in-bits='64' hash='2ac3a569bc14c9e4' id='type-id-81'/>
    <qualified-type-def type-id='type-id-81' const='yes' hash='2d5acf64e3acf1cc' id='type-id-82'/>
    <pointer-type-def type-id='type-id-83' size-in-bits='64' hash='a5dba88f5d9452df' id='type-id-84'/>
    <pointer-type-def type-id='type-id-85' size-in-bits='64' hash='2d9edde74ded9d27' id='type-id-86'/>
    <qualified-type-def type-id='type-id-86' const='yes' hash='c47f1155fbc248e1' id='type-id-87'/>
    <reference-type-def kind='lvalue' type-id='type-id-2' size-in-bits='64' hash='ffc913127619398d' id='type-id-88'/>
    <pointer-type-def type-id='type-id-2' size-in-bits='64' hash='e533f42d1dd4942c' id='type-id-23'/>
    <qualified-type-def type-id='type-id-23' const='yes' hash='351aa155d9983c83' id='type-id-89'/>
    <reference-type-def kind='lvalue' type-id='type-id-89' size-in-bits='64' hash='a28c6f0c263296f1' id='type-id-90'/>
    <pointer-type-def type-id='type-id-23' size-in-bits='64' hash='a93039fe023ed77b' id='type-id-91'/>
    <qualified-type-def type-id='type-id-68' const='yes' hash='7aaf5ad84a10a71e' id='type-id-92'/>
    <pointer-type-def type-id='type-id-92' size-in-bits='64' hash='f5f6abd590e09836' id='type-id-93'/>
    <qualified-type-def type-id='type-id-71' const='yes' hash='5fc33d0771309aa4' id='type-id-94'/>
    <pointer-type-def type-id='type-id-94' size-in-bits='64' hash='cf4a4602c78ffeab' id='type-id-95'/>
    <qualified-type-def type-id='type-id-74' const='yes' hash='d0c896a319e39135' id='type-id-96'/>
    <reference-type-def kind='lvalue' type-id='type-id-96' size-in-bits='64' hash='9a4f67b0de72c33d' id='type-id-97'/>
    <pointer-type-def type-id='type-id-96' size-in-bits='64' hash='0481e4c0dbe5485f' id='type-id-98'/>
    <qualified-type-def type-id='type-id-53' const='yes' hash='3aaf0f2479f2834c' id='type-id-99'/>
    <pointer-type-def type-id='type-id-99' size-in-bits='64' hash='96e1bfcb27b9d6ed' id='type-id-60'/>
    <qualified-type-def type-id='type-id-1' const='yes' hash='2b32da4512609d62' id='type-id-100'/>
    <qualified-type-def type-id='type-id-76' const='yes' hash='128c8932cbf55451' id='type-id-101'/>
    <reference-type-def kind='lvalue' type-id='type-id-101' size-in-bits='64' hash='f8db43680933a9c7' id='type-id-102'/>
    <qualified-type-def type-id='type-id-80' const='yes' hash='269e754968d8d6f9' id='type-id-103'/>
    <reference-type-def kind='lvalue' type-id='type-id-103' size-in-bits='64' hash='511a5fb0e4396b75' id='type-id-104'/>
    <pointer-type-def type-id='type-id-103' size-in-bits='64' hash='41d25ed7a194c311' id='type-id-105'/>
    <qualified-type-def type-id='type-id-105' const='yes' hash='e85de854795392ec' id='type-id-106'/>
    <qualified-type-def type-id='type-id-83' const='yes' hash='0d8f9d9650b5d747' id='type-id-107'/>
    <reference-type-def kind='lvalue' type-id='type-id-107' size-in-bits='64' hash='052619e3d86cca3f' id='type-id-108'/>
    <pointer-type-def type-id='type-id-107' size-in-bits='64' hash='cd27a0d647279ed7' id='type-id-109'/>
    <qualified-type-def type-id='type-id-109' const='yes' hash='627128e130219bf2' id='type-id-110'/>
    <qualified-type-def type-id='type-id-85' const='yes' hash='71f635ccf79eea6a' id='type-id-111'/>
    <reference-type-def kind='lvalue' type-id='type-id-111' size-in-bits='64' hash='bf1fd64f1e1a10fd' id='type-id-112'/>
    <pointer-type-def type-id='type-id-111' size-in-bits='64' hash='2746fb84b9877a09' id='type-id-113'/>
    <qualified-type-def type-id='type-id-2' const='yes' hash='3e50fd33f9bb78d9' id='type-id-114'/>
    <reference-type-def kind='lvalue' type-id='type-id-114' size-in-bits='64' hash='78bf127c69ae91c1' id='type-id-115'/>
    <pointer-type-def type-id='type-id-114' size-in-bits='64' hash='c44743f354f6a443' id='type-id-43'/>
    <qualified-type-def type-id='type-id-43' const='yes' hash='ec42cf78a9d93a8c' id='type-id-116'/>
    <reference-type-def kind='lvalue' type-id='type-id-116' size-in-bits='64' hash='99be3ab0d9b2fe43' id='type-id-117'/>
    <pointer-type-def type-id='type-id-43' size-in-bits='64' hash='cea1d4b0943594a3' id='type-id-118'/>
    <qualified-type-def type-id='type-id-56' const='yes' hash='d85759e223fc0d30#2' id='type-id-119'/>
    <pointer-type-def type-id='type-id-119' size-in-bits='64' hash='f7e9f827001f357b#2' id='type-id-120'/>
    <qualified-type-def type-id='type-id-12' const='yes' hash='8cef8df4b6728924' id='type-id-121'/>
    <qualified-type-def type-id='type-id-14' const='yes' hash='ea466b949f1ce7b6#2' id='type-id-122'/>
    <qualified-type-def type-id='type-id-57' const='yes' hash='a328f2686e4dcc6e' id='type-id-123'/>
    <pointer-type-def type-id='type-id-123' size-in-bits='64' hash='965b139f91617649' id='type-id-124'/>
    <qualified-type-def type-id='type-id-125' const='yes' hash='052c375a027b3bde' id='type-id-126'/>
    <pointer-type-def type-id='type-id-126' size-in-bits='64' hash='6c73186970f5d54d' id='type-id-127'/>
    <qualified-type-def type-id='type-id-128' const='yes' hash='bb395cf78bafbd58' id='type-id-129'/>
    <pointer-type-def type-id='type-id-129' size-in-bits='64' hash='ffa7e4da2f3dda19' id='type-id-130'/>
    <qualified-type-def type-id='type-id-131' const='yes' hash='671fb99369b01fe6' id='type-id-132'/>
    <pointer-type-def type-id='type-id-132' size-in-bits='64' hash='c2b1071213ec724e' id='type-id-133'/>
    <qualified-type-def type-id='type-id-16' const='yes' hash='fa0f98d319d2e5f4#3' id='type-id-134'/>
    <qualified-type-def type-id='type-id-135' const='yes' hash='902ffeb42efa2254' id='type-id-136'/>
    <reference-type-def kind='lvalue' type-id='type-id-136' size-in-bits='64' hash='7d4280c016344b59' id='type-id-137'/>
    <qualified-type-def type-id='type-id-138' const='yes' hash='42938116911f2585' id='type-id-139'/>
    <reference-type-def kind='lvalue' type-id='type-id-139' size-in-bits='64' hash='ebc94b0648ba0254' id='type-id-140'/>
    <pointer-type-def type-id='type-id-139' size-in-bits='64' hash='f14dbace06951209' id='type-id-141'/>
    <qualified-type-def type-id='type-id-142' const='yes' hash='7226944aa4e46352' id='type-id-143'/>
    <pointer-type-def type-id='type-id-143' size-in-bits='64' hash='61c33da8fd0cc9a8' id='type-id-144'/>
    <qualified-type-def type-id='type-id-145' const='yes' hash='f3ad494e9f7aea44' id='type-id-146'/>
    <qualified-type-def type-id='type-id-147' const='yes' hash='abc0b213959f33f5' id='type-id-148'/>
    <pointer-type-def type-id='type-id-148' size-in-bits='64' hash='5ed545a3d8255130' id='type-id-149'/>
    <qualified-type-def type-id='type-id-150' const='yes' hash='a170d88ecb4db43a' id='type-id-151'/>
    <pointer-type-def type-id='type-id-151' size-in-bits='64' hash='1ae2d5a9980efa08' id='type-id-152'/>
    <qualified-type-def type-id='type-id-153' const='yes' hash='f4e2d682d4887045' id='type-id-154'/>
    <pointer-type-def type-id='type-id-154' size-in-bits='64' hash='c9d01d0275b5ad29' id='type-id-155'/>
    <qualified-type-def type-id='type-id-59' const='yes' hash='3d3ed5b21cd59821' id='type-id-156'/>
    <pointer-type-def type-id='type-id-156' size-in-bits='64' hash='5933014f14812f40' id='type-id-157'/>
    <qualified-type-def type-id='type-id-42' const='yes' hash='6d30d2c0485b21b8' id='type-id-158'/>
    <pointer-type-def type-id='type-id-158' size-in-bits='64' hash='934b82f269d593b3' id='type-id-159'/>
    <qualified-type-def type-id='type-id-65' const='yes' hash='f2fba7dbc42fc9d5' id='type-id-160'/>
    <pointer-type-def type-id='type-id-160' size-in-bits='64' hash='317089067e76910a' id='type-id-161'/>
    <pointer-type-def type-id='type-id-161' size-in-bits='64' hash='535c62eb027026ae' id='type-id-162'/>
    <pointer-type-def type-id='type-id-56' size-in-bits='64' hash='7d5bf80d5b25efb1#2' id='type-id-163'/>
    <pointer-type-def type-id='type-id-164' size-in-bits='64' hash='fd7a63c0c6c822c4' id='type-id-51'/>
    <pointer-type-def type-id='type-id-37' size-in-bits='64' hash='6921f81febec828e' id='type-id-165'/>
    <pointer-type-def type-id='type-id-57' size-in-bits='64' hash='18fb85b101e2cd25' id='type-id-166'/>
    <pointer-type-def type-id='type-id-135' size-in-bits='64' hash='e3d0c180eee5d782' id='type-id-167'/>
    <reference-type-def kind='lvalue' type-id='type-id-138' size-in-bits='64' hash='d8ed513ed2f704b1' id='type-id-168'/>
    <reference-type-def kind='rvalue' type-id='type-id-138' size-in-bits='64' hash='ec51377cb7a6961a' id='type-id-169'/>
    <pointer-type-def type-id='type-id-138' size-in-bits='64' hash='c23efea4cbf2dbe8' id='type-id-170'/>
    <pointer-type-def type-id='type-id-171' size-in-bits='64' hash='9d029584a1ffef40' id='type-id-172'/>
    <reference-type-def kind='lvalue' type-id='type-id-142' size-in-bits='64' hash='dce7c83b7dca5265' id='type-id-173'/>
    <pointer-type-def type-id='type-id-142' size-in-bits='64' hash='0eeadcf9df869442' id='type-id-174'/>
    <pointer-type-def type-id='type-id-147' size-in-bits='64' hash='52683d875bd56c2f' id='type-id-175'/>
    <pointer-type-def type-id='type-id-59' size-in-bits='64' hash='784a05f2083b5c30' id='type-id-176'/>
    <pointer-type-def type-id='type-id-42' size-in-bits='64' hash='0450557ac0931bcf' id='type-id-177'/>
    <pointer-type-def type-id='type-id-44' size-in-bits='64' hash='648313adc1c4c534' id='type-id-178'/>
    <pointer-type-def type-id='type-id-179' size-in-bits='64' hash='fd7a63c0c6c822c4' id='type-id-180'/>
    <pointer-type-def type-id='type-id-65' size-in-bits='64' hash='fb9a8c973ae04ed8' id='type-id-181'/>
    <pointer-type-def type-id='type-id-181' size-in-bits='64' hash='f6157ba411f3141d' id='type-id-182'/>
    <pointer-type-def type-id='type-id-48' size-in-bits='64' id='type-id-27'/>
    <namespace-decl name='std'>
      <class-decl name='allocator&lt;char&gt;' visibility='default' size-in-bits='8' filepath='/usr/include/c++/4.9/bits/allocator.h' line='92' column='1' hash='0e29bc311ca95715' id='type-id-135'>
        <base-class access='public' layout-offset-in-bits='0' type-id='type-id-74'/>
        <member-type access='public'>
          <typedef-decl name='const_reference' type-id='type-id-115' size-in-bits='64' filepath='/usr/include/c++/4.9/bits/allocator.h' line='100' column='1' hash='78bf127c69ae91c1' id='type-id-183'/>
        </member-type>
        <member-type access='public'>
          <typedef-decl name='reference' type-id='type-id-88' size-in-bits='64' filepath='/usr/include/c++/4.9/bits/allocator.h' line='99' column='1' hash='ffc913127619398d' id='type-id-184'/>
        </member-type>
        <member-type access='public'>
          <typedef-decl name='size_type' type-id='type-id-186' size-in-bits='64' filepath='/usr/include/c++/4.9/bits/allocator.h' line='95' column='1' hash='8fdc5eea2983a729' id='type-id-185'/>
        </member-type>
      </class-decl>
      <class-decl name='basic_string&lt;char, std::char_traits&lt;char&gt;, std::allocator&lt;char&gt; &gt;' visibility='default' size-in-bits='64' filepath='/usr/include/c++/4.9/bits/basic_string.h' line='112' column='1' hash='41e28a36dddcbfdb' id='type-id-138'>
        <member-type access='private'>
          <class-decl name='_Alloc_hider' is-struct='yes' visibility='default' size-in-bits='64' filepath='/usr/include/c++/4.9/bits/basic_string.h' line='272' column='1' hash='b2053c926fcda493' id='type-id-171'>
            <base-class access='public' layout-offset-in-bits='0' type-id='type-id-135'/>
            <data-member access='public' layout-offset-in-bits='0'>
              <var-decl name='_M_p' type-id='type-id-23' visibility='default' filepath='/usr/include/c++/4.9/bits/basic_string.h' line='277' column='1'/>
            </data-member>
          </class-decl>
        </member-type>
        <member-type access='private'>
          <class-decl name='_Rep' is-struct='yes' visibility='default' size-in-bits='192' filepath='/usr/include/c++/4.9/bits/basic_string.h' line='155' column='1' hash='1100d7022e36b961' id='type-id-142'>
            <base-class access='public' layout-offset-in-bits='0' type-id='type-id-187'/>
            <member-function access='public'>
              <function-decl name='_M_set_length_and_sharable' mangled-name='_ZNSs4_Rep26_M_set_length_and_sharableEm' filepath='/usr/include/c++/4.9/bits/basic_string.h' line='207' column='1' visibility='default' binding='global' size-in-bits='64' hash='e0055d99adb0e173'>
                <parameter type-id='type-id-174' is-artificial='yes'/>
                <parameter type-id='type-id-145'/>
                <return type-id='type-id-47'/>
              </function-decl>
            </member-function>
            <member-function access='public'>
              <function-decl name='_M_refdata' mangled-name='_ZNSs4_Rep10_M_refdataEv' filepath='/usr/include/c++/4.9/bits/basic_string.h' line='222' column='1' visibility='default' binding='global' size-in-bits='64' hash='02a096d257a5e00d'>
                <parameter type-id='type-id-174' is-artificial='yes'/>
                <return type-id='type-id-23'/>
              </function-decl>
            </member-function>
            <member-function access='public' static='yes'>
              <function-decl name='_S_create' mangled-name='_ZNSs4_Rep9_S_createEmmRKSaIcE' filepath='/usr/include/c++/4.9/bits/basic_string.tcc' line='545' column='1' visibility='default' binding='global' size-in-bits='64' hash='0470b323bbf8c095'>
                <parameter type-id='type-id-145'/>
                <parameter type-id='type-id-145'/>
                <parameter type-id='type-id-137'/>
                <return type-id='type-id-174'/>
              </function-decl>
            </member-function>
          </class-decl>
        </member-type>
        <member-type access='private'>
          <class-decl name='_Rep_base' is-struct='yes' visibility='default' size-in-bits='192' filepath='/usr/include/c++/4.9/bits/basic_string.h' line='148' column='1' hash='ef64d4b91b5de2fe' id='type-id-187'>
            <data-member access='public' layout-offset-in-bits='0'>
              <var-decl name='_M_length' type-id='type-id-145' visibility='default' filepath='/usr/include/c++/4.9/bits/basic_string.h' line='150' column='1'/>
            </data-member>
            <data-member access='public' layout-offset-in-bits='64'>
              <var-decl name='_M_capacity' type-id='type-id-145' visibility='default' filepath='/usr/include/c++/4.9/bits/basic_string.h' line='151' column='1'/>
            </data-member>
            <data-member access='public' layout-offset-in-bits='128'>
              <var-decl name='_M_refcount' type-id='type-id-46' visibility='default' filepath='/usr/include/c++/4.9/bits/basic_string.h' line='152' column='1'/>
            </data-member>
          </class-decl>
        </member-type>
        <member-type access='public'>
          <typedef-decl name='allocator_type' type-id='type-id-135' size-in-bits='8' filepath='/usr/include/c++/4.9/bits/basic_string.h' line='120' column='1' id='type-id-188'/>
        </member-type>
        <member-type access='public'>
          <typedef-decl name='const_iterator' type-id='type-id-68' size-in-bits='64' filepath='/usr/include/c++/4.9/bits/basic_string.h' line='129' column='1' id='type-id-189'/>
        </member-type>
        <member-type access='public'>
          <typedef-decl name='const_reference' type-id='type-id-183' size-in-bits='64' filepath='/usr/include/c++/4.9/bits/basic_string.h' line='124' column='1' hash='78bf127c69ae91c1' id='type-id-190'/>
        </member-type>
        <member-type access='public'>
          <typedef-decl name='iterator' type-id='type-id-71' size-in-bits='64' filepath='/usr/include/c++/4.9/bits/basic_string.h' line='127' column='1' id='type-id-191'/>
        </member-type>
        <member-type access='public'>
          <typedef-decl name='reference' type-id='type-id-184' size-in-bits='64' filepath='/usr/include/c++/4.9/bits/basic_string.h' line='123' column='1' hash='ffc913127619398d' id='type-id-192'/>
        </member-type>
        <member-type access='public'>
          <typedef-decl name='size_type' type-id='type-id-185' size-in-bits='64' filepath='/usr/include/c++/4.9/bits/basic_string.h' line='121' column='1' hash='8fdc5eea2983a729' id='type-id-145'/>
        </member-type>
        <member-type access='public'>
          <typedef-decl name='const_reverse_iterator' type-id='type-id-194' filepath='/usr/include/c++/4.9/bits/basic_string.h' line='130' column='1' id='type-id-193'/>
        </member-type>
        <member-type access='public'>
          <typedef-decl name='const_reverse_iterator' type-id='type-id-196' filepath='/usr/include/c++/4.9/bits/basic_string.h' line='130' column='1' id='type-id-195'/>
        </member-type>
        <member-type access='public'>
          <typedef-decl name='const_reverse_iterator' type-id='type-id-198' filepath='/usr/include/c++/4.9/bits/basic_string.h' line='130' column='1' id='type-id-197'/>
        </member-type>
        <member-type access='public'>
          <typedef-decl name='const_reverse_iterator' type-id='type-id-200' filepath='/usr/include/c++/4.9/bits/basic_string.h' line='130' column='1' id='type-id-199'/>
        </member-type>
        <member-type access='public'>
          <typedef-decl name='const_reverse_iterator' type-id='type-id-202' filepath='/usr/include/c++/4.9/bits/basic_string.h' line='130' column='1' id='type-id-201'/>
        </member-type>
        <member-type access='public'>
          <typedef-decl name='const_reverse_iterator' type-id='type-id-204' filepath='/usr/include/c++/4.9/bits/basic_string.h' line='130' column='1' id='type-id-203'/>
        </member-type>
        <member-type access='public'>
          <typedef-decl name='reverse_iterator' type-id='type-id-206' filepath='/usr/include/c++/4.9/bits/basic_string.h' line='131' column='1' id='type-id-205'/>
        </member-type>
        <member-type access='public'>
          <typedef-decl name='reverse_iterator' type-id='type-id-208' filepath='/usr/include/c++/4.9/bits/basic_string.h' line='131' column='1' id='type-id-207'/>
        </member-type>
        <member-type access='public'>
          <typedef-decl name='reverse_iterator' type-id='type-id-210' filepath='/usr/include/c++/4.9/bits/basic_string.h' line='131' column='1' id='type-id-209'/>
        </member-type>
        <member-type access='public'>
          <typedef-decl name='reverse_iterator' type-id='type-id-212' filepath='/usr/include/c++/4.9/bits/basic_string.h' line='131' column='1' id='type-id-211'/>
        </member-type>
        <member-type access='public'>
          <typedef-decl name='reverse_iterator' type-id='type-id-214' filepath='/usr/include/c++/4.9/bits/basic_string.h' line='131' column='1' id='type-id-213'/>
        </member-type>
        <member-type access='public'>
          <typedef-decl name='reverse_iterator' type-id='type-id-216' filepath='/usr/include/c++/4.9/bits/basic_string.h' line='131' column='1' id='type-id-215'/>
        </member-type>
        <data-member access='private' layout-offset-in-bits='0'>
          <var-decl name='_M_dataplus' type-id='type-id-171' visibility='default' filepath='/usr/include/c++/4.9/bits/basic_string.h' line='289' column='1'/>
        </data-member>
        <member-function access='private' const='yes'>
          <function-decl name='_M_iend' mangled-name='_ZNKSs7_M_iendEv' filepath='/usr/include/c++/4.9/bits/basic_string.h' line='310' column='1' visibility='default' binding='global' size-in-bits='64' hash='7f32ffea222edbe7'>
            <parameter type-id='type-id-141' is-artificial='yes'/>
            <return type-id='type-id-191'/>
          </function-decl>
        </member-function>
        <member-function access='private' static='yes'>
          <function-decl name='_S_copy_chars' mangled-name='_ZNSs13_S_copy_charsEPcS_S_' filepath='/usr/include/c++/4.9/bits/basic_string.h' line='403' column='1' visibility='default' binding='global' size-in-bits='64' hash='9895045035709c6f'>
            <parameter type-id='type-id-23'/>
            <parameter type-id='type-id-23'/>
            <parameter type-id='type-id-23'/>
            <return type-id='type-id-47'/>
          </function-decl>
        </member-function>
        <member-function access='private' static='yes'>
          <function-decl name='_S_copy_chars' mangled-name='_ZNSs13_S_copy_charsEPcPKcS1_' filepath='/usr/include/c++/4.9/bits/basic_string.h' line='407' column='1' visibility='default' binding='global' size-in-bits='64' hash='21babdbcb7a34ebe'>
            <parameter type-id='type-id-23'/>
            <parameter type-id='type-id-43'/>
            <parameter type-id='type-id-43'/>
            <return type-id='type-id-47'/>
          </function-decl>
        </member-function>
        <member-function access='private' static='yes'>
          <function-decl name='_S_empty_rep' mangled-name='_ZNSs12_S_empty_repEv' filepath='/usr/include/c++/4.9/bits/basic_string.h' line='431' column='1' visibility='default' binding='global' size-in-bits='64' hash='be6d160a099c9723'>
            <return type-id='type-id-173'/>
          </function-decl>
        </member-function>
        <member-function access='public'>
          <function-decl name='operator=' mangled-name='_ZNSsaSERKSs' filepath='/usr/include/c++/4.9/bits/basic_string.h' line='554' column='1' visibility='default' binding='global' size-in-bits='64' hash='d0bc9998376695f4'>
            <parameter type-id='type-id-170' is-artificial='yes'/>
            <parameter type-id='type-id-140'/>
            <return type-id='type-id-168'/>
          </function-decl>
        </member-function>
        <member-function access='public'>
          <function-decl name='operator=' mangled-name='_ZNSsaSEPKc' filepath='/usr/include/c++/4.9/bits/basic_string.h' line='562' column='1' visibility='default' binding='global' size-in-bits='64' hash='097fbf330d1f319d'>
            <parameter type-id='type-id-170' is-artificial='yes'/>
            <parameter type-id='type-id-43'/>
            <return type-id='type-id-168'/>
          </function-decl>
        </member-function>
        <member-function access='public'>
          <function-decl name='operator=' mangled-name='_ZNSsaSEc' filepath='/usr/include/c++/4.9/bits/basic_string.h' line='573' column='1' visibility='default' binding='global' size-in-bits='64' hash='a9c264a4628e7683'>
            <parameter type-id='type-id-170' is-artificial='yes'/>
            <parameter type-id='type-id-2'/>
            <return type-id='type-id-168'/>
          </function-decl>
        </member-function>
        <member-function access='public'>
          <function-decl name='operator=' mangled-name='_ZNSsaSEOSs' filepath='/usr/include/c++/4.9/bits/basic_string.h' line='589' column='1' visibility='default' binding='global' size-in-bits='64' hash='404c23e04c3fed01'>
            <parameter type-id='type-id-170' is-artificial='yes'/>
            <parameter type-id='type-id-169'/>
            <return type-id='type-id-168'/>
          </function-decl>
        </member-function>
        <member-function access='public' const='yes'>
          <function-decl name='begin' mangled-name='_ZNKSs5beginEv' filepath='/usr/include/c++/4.9/bits/basic_string.h' line='625' column='1' visibility='default' binding='global' size-in-bits='64' hash='7f32ffea222edbe7'>
            <parameter type-id='type-id-141' is-artificial='yes'/>
            <return type-id='type-id-189'/>
          </function-decl>
        </member-function>
        <member-function access='public'>
          <function-decl name='end' mangled-name='_ZNSs3endEv' filepath='/usr/include/c++/4.9/bits/basic_string.h' line='633' column='1' visibility='default' binding='global' size-in-bits='64' hash='7f32ffea222edbe7#2'>
            <parameter type-id='type-id-170' is-artificial='yes'/>
            <return type-id='type-id-191'/>
          </function-decl>
        </member-function>
        <member-function access='public' const='yes'>
          <function-decl name='end' mangled-name='_ZNKSs3endEv' filepath='/usr/include/c++/4.9/bits/basic_string.h' line='644' column='1' visibility='default' binding='global' size-in-bits='64' hash='7f32ffea222edbe7'>
            <parameter type-id='type-id-141' is-artificial='yes'/>
            <return type-id='type-id-189'/>
          </function-decl>
        </member-function>
        <member-function access='public' const='yes'>
          <function-decl name='size' mangled-name='_ZNKSs4sizeEv' filepath='/usr/include/c++/4.9/bits/basic_string.h' line='724' column='1' visibility='default' binding='global' size-in-bits='64' hash='e0055d99adb0e173'>
            <parameter type-id='type-id-141' is-artificial='yes'/>
            <return type-id='type-id-145'/>
          </function-decl>
        </member-function>
        <member-function access='public' const='yes'>
          <function-decl name='length' mangled-name='_ZNKSs6lengthEv' filepath='/usr/include/c++/4.9/bits/basic_string.h' line='730' column='1' visibility='default' binding='global' size-in-bits='64' hash='e0055d99adb0e173'>
            <parameter type-id='type-id-141' is-artificial='yes'/>
            <return type-id='type-id-145'/>
          </function-decl>
        </member-function>
        <member-function access='public'>
          <function-decl name='clear' mangled-name='_ZNSs5clearEv' filepath='/usr/include/c++/4.9/bits/basic_string.h' line='813' column='1' visibility='default' binding='global' size-in-bits='64' hash='7f32ffea222edbe7'>
            <parameter type-id='type-id-170' is-artificial='yes'/>
            <return type-id='type-id-47'/>
          </function-decl>
        </member-function>
        <member-function access='public' const='yes'>
          <function-decl name='empty' mangled-name='_ZNKSs5emptyEv' filepath='/usr/include/c++/4.9/bits/basic_string.h' line='821' column='1' visibility='default' binding='global' size-in-bits='64' hash='c7c710e908194b91'>
            <parameter type-id='type-id-141' is-artificial='yes'/>
            <return type-id='type-id-1'/>
          </function-decl>
        </member-function>
        <member-function access='public' const='yes'>
          <function-decl name='operator[]' mangled-name='_ZNKSsixEm' filepath='/usr/include/c++/4.9/bits/basic_string.h' line='836' column='1' visibility='default' binding='global' size-in-bits='64' hash='86e531db15bfba76'>
            <parameter type-id='type-id-141' is-artificial='yes'/>
            <parameter type-id='type-id-145'/>
            <return type-id='type-id-190'/>
          </function-decl>
        </member-function>
        <member-function access='public'>
          <function-decl name='operator[]' mangled-name='_ZNSsixEm' filepath='/usr/include/c++/4.9/bits/basic_string.h' line='853' column='1' visibility='default' binding='global' size-in-bits='64' hash='865c612da1dc4b92'>
            <parameter type-id='type-id-170' is-artificial='yes'/>
            <parameter type-id='type-id-145'/>
            <return type-id='type-id-192'/>
          </function-decl>
        </member-function>
        <member-function access='public'>
          <function-decl name='operator+=' mangled-name='_ZNSspLERKSs' filepath='/usr/include/c++/4.9/bits/basic_string.h' line='949' column='1' visibility='default' binding='global' size-in-bits='64' hash='d0bc9998376695f4'>
            <parameter type-id='type-id-170' is-artificial='yes'/>
            <parameter type-id='type-id-140'/>
            <return type-id='type-id-168'/>
          </function-decl>
        </member-function>
        <member-function access='public'>
          <function-decl name='operator+=' mangled-name='_ZNSspLEPKc' filepath='/usr/include/c++/4.9/bits/basic_string.h' line='958' column='1' visibility='default' binding='global' size-in-bits='64' hash='097fbf330d1f319d'>
            <parameter type-id='type-id-170' is-artificial='yes'/>
            <parameter type-id='type-id-43'/>
            <return type-id='type-id-168'/>
          </function-decl>
        </member-function>
        <member-function access='public'>
          <function-decl name='operator+=' mangled-name='_ZNSspLEc' filepath='/usr/include/c++/4.9/bits/basic_string.h' line='967' column='1' visibility='default' binding='global' size-in-bits='64' hash='a9c264a4628e7683'>
            <parameter type-id='type-id-170' is-artificial='yes'/>
            <parameter type-id='type-id-2'/>
            <return type-id='type-id-168'/>
          </function-decl>
        </member-function>
        <member-function access='public'>
          <function-decl name='append' mangled-name='_ZNSs6appendERKSs' filepath='/usr/include/c++/4.9/bits/basic_string.h' line='990' column='1' visibility='default' binding='global' size-in-bits='64' hash='d0bc9998376695f4'>
            <parameter type-id='type-id-170' is-artificial='yes'/>
            <parameter type-id='type-id-140'/>
            <return type-id='type-id-168'/>
          </function-decl>
        </member-function>
        <member-function access='public'>
          <function-decl name='push_back' mangled-name='_ZNSs9push_backEc' filepath='/usr/include/c++/4.9/bits/basic_string.h' line='1069' column='1' visibility='default' binding='global' size-in-bits='64' hash='0b3bb3eefe8e3bd3'>
            <parameter type-id='type-id-170' is-artificial='yes'/>
            <parameter type-id='type-id-2'/>
            <return type-id='type-id-47'/>
          </function-decl>
        </member-function>
        <member-function access='public'>
          <function-decl name='erase' mangled-name='_ZNSs5eraseEmm' filepath='/usr/include/c++/4.9/bits/basic_string.h' line='1380' column='1' visibility='default' binding='global' size-in-bits='64' hash='ae96f3dc5776ed31'>
            <parameter type-id='type-id-170' is-artificial='yes'/>
            <parameter type-id='type-id-145'/>
            <parameter type-id='type-id-145'/>
            <return type-id='type-id-168'/>
          </function-decl>
        </member-function>
        <member-function access='public'>
          <function-decl name='replace' mangled-name='_ZNSs7replaceEN9__gnu_cxx17__normal_iteratorIPcSsEES2_S1_S1_' filepath='/usr/include/c++/4.9/bits/basic_string.h' line='1654' column='1' visibility='default' binding='global' size-in-bits='64' hash='6b27e92e3306c0bf'>
            <parameter type-id='type-id-170' is-artificial='yes'/>
            <parameter type-id='type-id-191'/>
            <parameter type-id='type-id-191'/>
            <parameter type-id='type-id-23'/>
            <parameter type-id='type-id-23'/>
            <return type-id='type-id-168'/>
          </function-decl>
        </member-function>
        <member-function access='public'>
          <function-decl name='replace' mangled-name='_ZNSs7replaceEN9__gnu_cxx17__normal_iteratorIPcSsEES2_PKcS4_' filepath='/usr/include/c++/4.9/bits/basic_string.h' line='1664' column='1' visibility='default' binding='global' size-in-bits='64' hash='39e852c71ec4d5f6'>
            <parameter type-id='type-id-170' is-artificial='yes'/>
            <parameter type-id='type-id-191'/>
            <parameter type-id='type-id-191'/>
            <parameter type-id='type-id-43'/>
            <parameter type-id='type-id-43'/>
            <return type-id='type-id-168'/>
          </function-decl>
        </member-function>
        <member-function access='public' const='yes'>
          <function-decl name='c_str' mangled-name='_ZNKSs5c_strEv' filepath='/usr/include/c++/4.9/bits/basic_string.h' line='1819' column='1' visibility='default' binding='global' size-in-bits='64' hash='53885bde0aa65efe'>
            <parameter type-id='type-id-141' is-artificial='yes'/>
            <return type-id='type-id-43'/>
          </function-decl>
        </member-function>
        <member-function access='public' const='yes'>
          <function-decl name='data' mangled-name='_ZNKSs4dataEv' filepath='/usr/include/c++/4.9/bits/basic_string.h' line='1829' column='1' visibility='default' binding='global' size-in-bits='64' hash='53885bde0aa65efe'>
            <parameter type-id='type-id-141' is-artificial='yes'/>
            <return type-id='type-id-43'/>
          </function-decl>
        </member-function>
        <member-function access='public' const='yes'>
          <function-decl name='find' mangled-name='_ZNKSs4findEcm' filepath='/usr/include/c++/4.9/bits/basic_string.h' line='1897' column='1' visibility='default' binding='global' size-in-bits='64' hash='2b6aec785cb01dfd'>
            <parameter type-id='type-id-141' is-artificial='yes'/>
            <parameter type-id='type-id-2'/>
            <parameter type-id='type-id-145'/>
            <return type-id='type-id-145'/>
          </function-decl>
        </member-function>
        <member-function access='public' const='yes'>
          <function-decl name='rfind' mangled-name='_ZNKSs5rfindEcm' filepath='/usr/include/c++/4.9/bits/basic_string.h' line='1957' column='1' visibility='default' binding='global' size-in-bits='64' hash='2b6aec785cb01dfd'>
            <parameter type-id='type-id-141' is-artificial='yes'/>
            <parameter type-id='type-id-2'/>
            <parameter type-id='type-id-145'/>
            <return type-id='type-id-145'/>
          </function-decl>
        </member-function>
        <member-function access='public' const='yes'>
          <function-decl name='find_first_of' mangled-name='_ZNKSs13find_first_ofERKSsm' filepath='/usr/include/c++/4.9/bits/basic_string.h' line='1971' column='1' visibility='default' binding='global' size-in-bits='64' hash='3b6dc64a31c61e8e'>
            <parameter type-id='type-id-141' is-artificial='yes'/>
            <parameter type-id='type-id-140'/>
            <parameter type-id='type-id-145'/>
            <return type-id='type-id-145'/>
          </function-decl>
        </member-function>
        <member-function access='public' const='yes'>
          <function-decl name='find_first_of' mangled-name='_ZNKSs13find_first_ofEPKcm' filepath='/usr/include/c++/4.9/bits/basic_string.h' line='2001' column='1' visibility='default' binding='global' size-in-bits='64' hash='e62a7a46b2904b02'>
            <parameter type-id='type-id-141' is-artificial='yes'/>
            <parameter type-id='type-id-43'/>
            <parameter type-id='type-id-145'/>
            <return type-id='type-id-145'/>
          </function-decl>
        </member-function>
        <member-function access='public' const='yes'>
          <function-decl name='find_last_of' mangled-name='_ZNKSs12find_last_ofEPKcm' filepath='/usr/include/c++/4.9/bits/basic_string.h' line='2065' column='1' visibility='default' binding='global' size-in-bits='64' hash='e62a7a46b2904b02'>
            <parameter type-id='type-id-141' is-artificial='yes'/>
            <parameter type-id='type-id-43'/>
            <parameter type-id='type-id-145'/>
            <return type-id='type-id-145'/>
          </function-decl>
        </member-function>
        <member-function access='public' const='yes'>
          <function-decl name='find_first_not_of' mangled-name='_ZNKSs17find_first_not_ofERKSsm' filepath='/usr/include/c++/4.9/bits/basic_string.h' line='2098' column='1' visibility='default' binding='global' size-in-bits='64' hash='3b6dc64a31c61e8e'>
            <parameter type-id='type-id-141' is-artificial='yes'/>
            <parameter type-id='type-id-140'/>
            <parameter type-id='type-id-145'/>
            <return type-id='type-id-145'/>
          </function-decl>
        </member-function>
        <member-function access='public' const='yes'>
          <function-decl name='substr' mangled-name='_ZNKSs6substrEmm' filepath='/usr/include/c++/4.9/bits/basic_string.h' line='2225' column='1' visibility='default' binding='global' size-in-bits='64' hash='91495cdf6321a116'>
            <parameter type-id='type-id-141' is-artificial='yes'/>
            <parameter type-id='type-id-145'/>
            <parameter type-id='type-id-145'/>
            <return type-id='type-id-138'/>
          </function-decl>
        </member-function>
        <member-function access='public' const='yes'>
          <function-decl name='compare' mangled-name='_ZNKSs7compareERKSs' filepath='/usr/include/c++/4.9/bits/basic_string.h' line='2244' column='1' visibility='default' binding='global' size-in-bits='64' hash='3818eafae530ca9f'>
            <parameter type-id='type-id-141' is-artificial='yes'/>
            <parameter type-id='type-id-140'/>
            <return type-id='type-id-12'/>
          </function-decl>
        </member-function>
        <member-function access='public' const='yes'>
          <function-decl name='compare' mangled-name='_ZNKSs7compareEPKc' filepath='/usr/include/c++/4.9/bits/basic_string.h' line='2320' column='1' visibility='default' binding='global' size-in-bits='64' hash='e9ea91a7eab8302c'>
            <parameter type-id='type-id-141' is-artificial='yes'/>
            <parameter type-id='type-id-43'/>
            <return type-id='type-id-12'/>
          </function-decl>
        </member-function>
        <member-function access='public'>
          <function-decl name='append&lt;char const*&gt;' mangled-name='_ZNSs6appendIPKcEERSsT_S3_' filepath='/usr/include/c++/4.9/bits/basic_string.h' line='1061' column='1' visibility='default' binding='global' size-in-bits='64' elf-symbol-id='_ZNSs6appendIPKcEERSsT_S3_' hash='39e852c71ec4d5f6'>
            <parameter type-id='type-id-170' is-artificial='yes'/>
            <parameter type-id='type-id-43'/>
            <parameter type-id='type-id-43'/>
            <return type-id='type-id-168'/>
          </function-decl>
        </member-function>
        <member-function access='public'>
          <function-decl name='basic_string&lt;char*&gt;' mangled-name='_ZNSsC2IPcEET_S1_RKSaIcE' filepath='/usr/include/c++/4.9/bits/basic_string.tcc' line='227' column='1' visibility='default' binding='global' size-in-bits='64' elf-symbol-id='_ZNSsC2IPcEET_S1_RKSaIcE' hash='8f8d6fe025fc68f5'>
            <parameter type-id='type-id-170' is-artificial='yes'/>
            <parameter type-id='type-id-23'/>
            <parameter type-id='type-id-23'/>
            <parameter type-id='type-id-137'/>
            <return type-id='type-id-47'/>
          </function-decl>
        </member-function>
        <member-function access='private' static='yes'>
          <function-decl name='_S_construct&lt;char*&gt;' mangled-name='_ZNSs12_S_constructIPcEES0_T_S1_RKSaIcE' filepath='/usr/include/c++/4.9/bits/basic_string.h' line='1761' column='1' visibility='default' binding='global' size-in-bits='64' elf-symbol-id='_ZNSs12_S_constructIPcEES0_T_S1_RKSaIcE' hash='47cd53ea0010c573'>
            <parameter type-id='type-id-23'/>
            <parameter type-id='type-id-23'/>
            <parameter type-id='type-id-137'/>
            <return type-id='type-id-23'/>
          </function-decl>
        </member-function>
        <member-function access='private' static='yes'>
          <function-decl name='_S_construct_aux&lt;char*&gt;' mangled-name='_ZNSs16_S_construct_auxIPcEES0_T_S1_RKSaIcESt12__false_type' filepath='/usr/include/c++/4.9/bits/basic_string.h' line='1739' column='1' visibility='default' binding='global' size-in-bits='64' elf-symbol-id='_ZNSs16_S_construct_auxIPcEES0_T_S1_RKSaIcESt12__false_type' hash='47cd53ea0010c573'>
            <parameter type-id='type-id-23'/>
            <parameter type-id='type-id-23'/>
            <parameter type-id='type-id-137'/>
            <parameter type-id='type-id-217'/>
            <return type-id='type-id-23'/>
          </function-decl>
        </member-function>
        <member-function access='private' static='yes'>
          <function-decl name='_S_construct&lt;char*&gt;' mangled-name='_ZNSs12_S_constructIPcEES0_T_S1_RKSaIcESt20forward_iterator_tag' filepath='/usr/include/c++/4.9/bits/basic_string.tcc' line='123' column='1' visibility='default' binding='global' size-in-bits='64' elf-symbol-id='_ZNSs12_S_constructIPcEES0_T_S1_RKSaIcESt20forward_iterator_tag' hash='47cd53ea0010c573'>
            <parameter type-id='type-id-23'/>
            <parameter type-id='type-id-23'/>
            <parameter type-id='type-id-137'/>
            <parameter type-id='type-id-218'/>
            <return type-id='type-id-23'/>
          </function-decl>
        </member-function>
        <member-function access='public'>
          <function-decl name='basic_string&lt;char const*&gt;' mangled-name='_ZNSsC2IPKcEET_S2_RKSaIcE' filepath='/usr/include/c++/4.9/bits/basic_string.tcc' line='227' column='1' visibility='default' binding='global' size-in-bits='64' elf-symbol-id='_ZNSsC2IPKcEET_S2_RKSaIcE' hash='11824d2097f14bc2'>
            <parameter type-id='type-id-170' is-artificial='yes'/>
            <parameter type-id='type-id-43'/>
            <parameter type-id='type-id-43'/>
            <parameter type-id='type-id-137'/>
            <return type-id='type-id-47'/>
          </function-decl>
        </member-function>
        <member-function access='private' static='yes'>
          <function-decl name='_S_construct&lt;char const*&gt;' mangled-name='_ZNSs12_S_constructIPKcEEPcT_S3_RKSaIcE' filepath='/usr/include/c++/4.9/bits/basic_string.h' line='1761' column='1' visibility='default' binding='global' size-in-bits='64' elf-symbol-id='_ZNSs12_S_constructIPKcEEPcT_S3_RKSaIcE' hash='f90f9c4d90c89a9b'>
            <parameter type-id='type-id-43'/>
            <parameter type-id='type-id-43'/>
            <parameter type-id='type-id-137'/>
            <return type-id='type-id-23'/>
          </function-decl>
        </member-function>
        <member-function access='private' static='yes'>
          <function-decl name='_S_construct_aux&lt;char const*&gt;' mangled-name='_ZNSs16_S_construct_auxIPKcEEPcT_S3_RKSaIcESt12__false_type' filepath='/usr/include/c++/4.9/bits/basic_string.h' line='1739' column='1' visibility='default' binding='global' size-in-bits='64' elf-symbol-id='_ZNSs16_S_construct_auxIPKcEEPcT_S3_RKSaIcESt12__false_type' hash='f90f9c4d90c89a9b'>
            <parameter type-id='type-id-43'/>
            <parameter type-id='type-id-43'/>
            <parameter type-id='type-id-137'/>
            <parameter type-id='type-id-217'/>
            <return type-id='type-id-23'/>
          </function-decl>
        </member-function>
        <member-function access='private' static='yes'>
          <function-decl name='_S_construct&lt;char const*&gt;' mangled-name='_ZNSs12_S_constructIPKcEEPcT_S3_RKSaIcESt20forward_iterator_tag' filepath='/usr/include/c++/4.9/bits/basic_string.tcc' line='123' column='1' visibility='default' binding='global' size-in-bits='64' elf-symbol-id='_ZNSs12_S_constructIPKcEEPcT_S3_RKSaIcESt20forward_iterator_tag' hash='f90f9c4d90c89a9b'>
            <parameter type-id='type-id-43'/>
            <parameter type-id='type-id-43'/>
            <parameter type-id='type-id-137'/>
            <parameter type-id='type-id-218'/>
            <return type-id='type-id-23'/>
          </function-decl>
        </member-function>
        <member-function access='public'>
          <function-decl name='append&lt;char*&gt;' mangled-name='_ZNSs6appendIPcEERSsT_S2_' filepath='/usr/include/c++/4.9/bits/basic_string.h' line='1061' column='1' visibility='default' binding='global' size-in-bits='64' elf-symbol-id='_ZNSs6appendIPcEERSsT_S2_' hash='6b27e92e3306c0bf'>
            <parameter type-id='type-id-170' is-artificial='yes'/>
            <parameter type-id='type-id-23'/>
            <parameter type-id='type-id-23'/>
            <return type-id='type-id-168'/>
          </function-decl>
        </member-function>
      </class-decl>
      <class-decl name='initializer_list&lt;char&gt;' visibility='default' size-in-bits='128' filepath='/usr/include/c++/4.9/initializer_list' line='47' column='1' hash='3b9e427f65918145' id='type-id-147'>
        <member-type access='public'>
          <typedef-decl name='const_iterator' type-id='type-id-43' size-in-bits='64' filepath='/usr/include/c++/4.9/initializer_list' line='55' column='1' hash='c44743f354f6a443' id='type-id-219'/>
        </member-type>
        <member-type access='public'>
          <typedef-decl name='iterator' type-id='type-id-43' size-in-bits='64' filepath='/usr/include/c++/4.9/initializer_list' line='54' column='1' hash='c44743f354f6a443' id='type-id-220'/>
        </member-type>
        <member-type access='public'>
          <typedef-decl name='size_type' type-id='type-id-186' size-in-bits='64' filepath='/usr/include/c++/4.9/initializer_list' line='53' column='1' hash='8fdc5eea2983a729' id='type-id-221'/>
        </member-type>
        <data-member access='private' layout-offset-in-bits='0'>
          <var-decl name='_M_array' type-id='type-id-220' visibility='default' filepath='/usr/include/c++/4.9/initializer_list' line='58' column='1'/>
        </data-member>
        <data-member access='private' layout-offset-in-bits='64'>
          <var-decl name='_M_len' type-id='type-id-221' visibility='default' filepath='/usr/include/c++/4.9/initializer_list' line='59' column='1'/>
        </data-member>
      </class-decl>
      <class-decl name='integral_constant&lt;bool, false&gt;' is-struct='yes' visibility='default' size-in-bits='8' filepath='/usr/include/c++/4.9/type_traits' line='69' column='1' hash='76d0991faeff7d89' id='type-id-150'>
        <member-type access='public'>
          <typedef-decl name='value_type' type-id='type-id-1' size-in-bits='8' filepath='/usr/include/c++/4.9/type_traits' line='72' column='1' hash='5ba96bb22f4237fb' id='type-id-222'/>
        </member-type>
        <data-member access='public' static='yes'>
          <var-decl name='value' type-id='type-id-100' mangled-name='_ZNSt17integral_constantIbLb0EE5valueE' visibility='default' filepath='/usr/include/c++/4.9/type_traits' line='71' column='1'/>
        </data-member>
      </class-decl>
      <class-decl name='integral_constant&lt;bool, true&gt;' is-struct='yes' visibility='default' size-in-bits='8' filepath='/usr/include/c++/4.9/type_traits' line='69' column='1' hash='e9a422917879a819' id='type-id-153'>
        <member-type access='public'>
          <typedef-decl name='value_type' type-id='type-id-1' size-in-bits='8' filepath='/usr/include/c++/4.9/type_traits' line='72' column='1' hash='5ba96bb22f4237fb' id='type-id-223'/>
        </member-type>
        <data-member access='public' static='yes'>
          <var-decl name='value' type-id='type-id-100' mangled-name='_ZNSt17integral_constantIbLb1EE5valueE' visibility='default' filepath='/usr/include/c++/4.9/type_traits' line='71' column='1'/>
        </data-member>
      </class-decl>
      <class-decl name='iterator_traits&lt;char const*&gt;' is-struct='yes' visibility='default' size-in-bits='8' filepath='/usr/include/c++/4.9/bits/stl_iterator_base_types.h' line='186' column='1' hash='127a86fd58f5ea30' id='type-id-224'>
        <member-type access='public'>
          <typedef-decl name='difference_type' type-id='type-id-226' size-in-bits='64' filepath='/usr/include/c++/4.9/bits/stl_iterator_base_types.h' line='190' column='1' hash='b119fe0931d2ee10' id='type-id-225'/>
        </member-type>
        <member-type access='public'>
          <typedef-decl name='iterator_category' type-id='type-id-228' size-in-bits='8' filepath='/usr/include/c++/4.9/bits/stl_iterator_base_types.h' line='188' column='1' id='type-id-227'/>
        </member-type>
        <member-type access='public'>
          <typedef-decl name='pointer' type-id='type-id-43' size-in-bits='64' filepath='/usr/include/c++/4.9/bits/stl_iterator_base_types.h' line='191' column='1' hash='c44743f354f6a443' id='type-id-229'/>
        </member-type>
        <member-type access='public'>
          <typedef-decl name='reference' type-id='type-id-115' size-in-bits='64' filepath='/usr/include/c++/4.9/bits/stl_iterator_base_types.h' line='192' column='1' hash='78bf127c69ae91c1' id='type-id-230'/>
        </member-type>
      </class-decl>
      <class-decl name='iterator_traits&lt;char*&gt;' is-struct='yes' visibility='default' size-in-bits='8' filepath='/usr/include/c++/4.9/bits/stl_iterator_base_types.h' line='175' column='1' hash='3b3695ef601bd8ee' id='type-id-231'>
        <member-type access='public'>
          <typedef-decl name='difference_type' type-id='type-id-226' size-in-bits='64' filepath='/usr/include/c++/4.9/bits/stl_iterator_base_types.h' line='179' column='1' hash='b119fe0931d2ee10' id='type-id-232'/>
        </member-type>
        <member-type access='public'>
          <typedef-decl name='iterator_category' type-id='type-id-228' size-in-bits='8' filepath='/usr/include/c++/4.9/bits/stl_iterator_base_types.h' line='177' column='1' id='type-id-233'/>
        </member-type>
        <member-type access='public'>
          <typedef-decl name='pointer' type-id='type-id-23' size-in-bits='64' filepath='/usr/include/c++/4.9/bits/stl_iterator_base_types.h' line='180' column='1' hash='e533f42d1dd4942c' id='type-id-234'/>
        </member-type>
        <member-type access='public'>
          <typedef-decl name='reference' type-id='type-id-88' size-in-bits='64' filepath='/usr/include/c++/4.9/bits/stl_iterator_base_types.h' line='181' column='1' hash='ffc913127619398d' id='type-id-235'/>
        </member-type>
      </class-decl>
      <typedef-decl name='ptrdiff_t' type-id='type-id-14' size-in-bits='64' filepath='/usr/include/x86_64-linux-gnu/c++/4.9/bits/c++config.h' line='189' column='1' hash='b119fe0931d2ee10' id='type-id-226'/>
      <typedef-decl name='size_t' type-id='type-id-58' size-in-bits='64' filepath='/usr/include/x86_64-linux-gnu/c++/4.9/bits/c++config.h' line='188' column='1' hash='8fdc5eea2983a729' id='type-id-186'/>
      <typedef-decl name='string' type-id='type-id-138' size-in-bits='64' filepath='/usr/include/c++/4.9/bits/stringfwd.h' line='62' column='1' id='type-id-236'/>
      <class-decl name='reverse_iterator&lt;__gnu_cxx::__normal_iterator&lt;char const*, std::basic_string&lt;char, std::char_traits&lt;char&gt;, std::allocator&lt;char&gt; &gt; &gt; &gt;' visibility='default' is-declaration-only='yes' id='type-id-194'/>
      <class-decl name='reverse_iterator&lt;__gnu_cxx::__normal_iterator&lt;char*, std::basic_string&lt;char, std::char_traits&lt;char&gt;, std::allocator&lt;char&gt; &gt; &gt; &gt;' visibility='default' is-declaration-only='yes' id='type-id-206'/>
    </namespace-decl>
    <namespace-decl name='__gnu_cxx'>
      <class-decl name='__normal_iterator&lt;char const*, std::basic_string&lt;char, std::char_traits&lt;char&gt;, std::allocator&lt;char&gt; &gt; &gt;' visibility='default' size-in-bits='64' filepath='/usr/include/c++/4.9/bits/stl_iterator.h' line='709' column='1' hash='2eec249e5351a3f0' id='type-id-68'>
        <member-type access='public'>
          <typedef-decl name='difference_type' type-id='type-id-225' size-in-bits='64' filepath='/usr/include/c++/4.9/bits/stl_iterator.h' line='720' column='1' hash='b119fe0931d2ee10' id='type-id-237'/>
        </member-type>
        <member-type access='public'>
          <typedef-decl name='pointer' type-id='type-id-229' size-in-bits='64' filepath='/usr/include/c++/4.9/bits/stl_iterator.h' line='722' column='1' hash='c44743f354f6a443' id='type-id-238'/>
        </member-type>
        <member-type access='public'>
          <typedef-decl name='reference' type-id='type-id-230' size-in-bits='64' filepath='/usr/include/c++/4.9/bits/stl_iterator.h' line='721' column='1' hash='78bf127c69ae91c1' id='type-id-239'/>
        </member-type>
        <data-member access='protected' layout-offset-in-bits='0'>
          <var-decl name='_M_current' type-id='type-id-43' visibility='default' filepath='/usr/include/c++/4.9/bits/stl_iterator.h' line='712' column='1'/>
        </data-member>
        <member-function access='public' const='yes'>
          <function-decl name='operator*' mangled-name='_ZNK9__gnu_cxx17__normal_iteratorIPKcSsEdeEv' filepath='/usr/include/c++/4.9/bits/stl_iterator.h' line='741' column='1' visibility='default' binding='global' size-in-bits='64' elf-symbol-id='_ZNK9__gnu_cxx17__normal_iteratorIPKcSsEdeEv' hash='0aa254a036113035'>
            <parameter type-id='type-id-93' is-artificial='yes'/>
            <return type-id='type-id-239'/>
          </function-decl>
        </member-function>
        <member-function access='public' const='yes'>
          <function-decl name='operator-' mangled-name='_ZNK9__gnu_cxx17__normal_iteratorIPKcSsEmiEl' filepath='/usr/include/c++/4.9/bits/stl_iterator.h' line='789' column='1' visibility='default' binding='global' size-in-bits='64' elf-symbol-id='_ZNK9__gnu_cxx17__normal_iteratorIPKcSsEmiEl' hash='52c0efb08d2aa513'>
            <parameter type-id='type-id-93' is-artificial='yes'/>
            <parameter type-id='type-id-237'/>
            <return type-id='type-id-68'/>
          </function-decl>
        </member-function>
        <member-function access='public'>
          <function-decl name='__normal_iterator' mangled-name='_ZN9__gnu_cxx17__normal_iteratorIPKcSsEC2ERKS2_' filepath='/usr/include/c++/4.9/bits/stl_iterator.h' line='728' column='1' declared-inline='yes' visibility='default' binding='global' size-in-bits='64' elf-symbol-id='_ZN9__gnu_cxx17__normal_iteratorIPKcSsEC2ERKS2_' hash='b1603547bc97e161'>
            <parameter type-id='type-id-70' is-artificial='yes'/>
            <parameter type-id='type-id-117'/>
            <return type-id='type-id-47'/>
          </function-decl>
        </member-function>
      </class-decl>
      <class-decl name='__normal_iterator&lt;char*, std::basic_string&lt;char, std::char_traits&lt;char&gt;, std::allocator&lt;char&gt; &gt; &gt;' visibility='default' size-in-bits='64' filepath='/usr/include/c++/4.9/bits/stl_iterator.h' line='709' column='1' hash='550dfe8ca2391ba9' id='type-id-71'>
        <member-type access='public'>
          <typedef-decl name='difference_type' type-id='type-id-232' size-in-bits='64' filepath='/usr/include/c++/4.9/bits/stl_iterator.h' line='720' column='1' hash='b119fe0931d2ee10' id='type-id-240'/>
        </member-type>
        <member-type access='public'>
          <typedef-decl name='pointer' type-id='type-id-234' size-in-bits='64' filepath='/usr/include/c++/4.9/bits/stl_iterator.h' line='722' column='1' hash='e533f42d1dd4942c' id='type-id-241'/>
        </member-type>
        <member-type access='public'>
          <typedef-decl name='reference' type-id='type-id-235' size-in-bits='64' filepath='/usr/include/c++/4.9/bits/stl_iterator.h' line='721' column='1' hash='ffc913127619398d' id='type-id-242'/>
        </member-type>
        <data-member access='protected' layout-offset-in-bits='0'>
          <var-decl name='_M_current' type-id='type-id-23' visibility='default' filepath='/usr/include/c++/4.9/bits/stl_iterator.h' line='712' column='1'/>
        </data-member>
        <member-function access='public' const='yes'>
          <function-decl name='operator-' mangled-name='_ZNK9__gnu_cxx17__normal_iteratorIPcSsEmiEl' filepath='/usr/include/c++/4.9/bits/stl_iterator.h' line='789' column='1' visibility='default' binding='global' size-in-bits='64' elf-symbol-id='_ZNK9__gnu_cxx17__normal_iteratorIPcSsEmiEl' hash='52c0efb08d2aa513'>
            <parameter type-id='type-id-95' is-artificial='yes'/>
            <parameter type-id='type-id-240'/>
            <return type-id='type-id-71'/>
          </function-decl>
        </member-function>
        <member-function access='public' const='yes'>
          <function-decl name='operator*' mangled-name='_ZNK9__gnu_cxx17__normal_iteratorIPcSsEdeEv' filepath='/usr/include/c++/4.9/bits/stl_iterator.h' line='741' column='1' visibility='default' binding='global' size-in-bits='64' elf-symbol-id='_ZNK9__gnu_cxx17__normal_iteratorIPcSsEdeEv' hash='9f9a1c2f47a561c3'>
            <parameter type-id='type-id-95' is-artificial='yes'/>
            <return type-id='type-id-242'/>
          </function-decl>
        </member-function>
        <member-function access='public'>
          <function-decl name='__normal_iterator' mangled-name='_ZN9__gnu_cxx17__normal_iteratorIPcSsEC2ERKS1_' filepath='/usr/include/c++/4.9/bits/stl_iterator.h' line='728' column='1' declared-inline='yes' visibility='default' binding='global' size-in-bits='64' elf-symbol-id='_ZN9__gnu_cxx17__normal_iteratorIPcSsEC2ERKS1_' hash='1d97c1e7f5b953b1'>
            <parameter type-id='type-id-73' is-artificial='yes'/>
            <parameter type-id='type-id-90'/>
            <return type-id='type-id-47'/>
          </function-decl>
        </member-function>
      </class-decl>
      <class-decl name='new_allocator&lt;char&gt;' visibility='default' size-in-bits='8' filepath='/usr/include/c++/4.9/ext/new_allocator.h' line='58' column='1' hash='084a85392ac35fed' id='type-id-74'>
        <member-type access='public'>
          <typedef-decl name='const_pointer' type-id='type-id-43' size-in-bits='64' filepath='/usr/include/c++/4.9/ext/new_allocator.h' line='64' column='1' hash='c44743f354f6a443' id='type-id-243'/>
        </member-type>
        <member-type access='public'>
          <typedef-decl name='const_reference' type-id='type-id-115' size-in-bits='64' filepath='/usr/include/c++/4.9/ext/new_allocator.h' line='66' column='1' hash='78bf127c69ae91c1' id='type-id-244'/>
        </member-type>
        <member-type access='public'>
          <typedef-decl name='pointer' type-id='type-id-23' size-in-bits='64' filepath='/usr/include/c++/4.9/ext/new_allocator.h' line='63' column='1' hash='e533f42d1dd4942c' id='type-id-245'/>
        </member-type>
        <member-type access='public'>
          <typedef-decl name='reference' type-id='type-id-88' size-in-bits='64' filepath='/usr/include/c++/4.9/ext/new_allocator.h' line='65' column='1' hash='ffc913127619398d' id='type-id-246'/>
        </member-type>
        <member-type access='public'>
          <typedef-decl name='size_type' type-id='type-id-186' size-in-bits='64' filepath='/usr/include/c++/4.9/ext/new_allocator.h' line='61' column='1' hash='8fdc5eea2983a729' id='type-id-247'/>
        </member-type>
      </class-decl>
      <class-decl name='__numeric_traits_floating&lt;double&gt;' is-struct='yes' visibility='default' size-in-bits='8' filepath='/usr/include/c++/4.9/ext/numeric_traits.h' line='100' column='1' hash='97510daadd34721d' id='type-id-248'>
        <data-member access='public' static='yes'>
          <var-decl name='__max_exponent10' type-id='type-id-121' mangled-name='_ZN9__gnu_cxx25__numeric_traits_floatingIdE16__max_exponent10E' visibility='default' filepath='/usr/include/c++/4.9/ext/numeric_traits.h' line='108' column='1'/>
        </data-member>
      </class-decl>
      <class-decl name='__numeric_traits_floating&lt;float&gt;' is-struct='yes' visibility='default' size-in-bits='8' filepath='/usr/include/c++/4.9/ext/numeric_traits.h' line='100' column='1' hash='90f7e9ff0282071c' id='type-id-249'>
        <data-member access='public' static='yes'>
          <var-decl name='__max_exponent10' type-id='type-id-121' mangled-name='_ZN9__gnu_cxx25__numeric_traits_floatingIfE16__max_exponent10E' visibility='default' filepath='/usr/include/c++/4.9/ext/numeric_traits.h' line='108' column='1'/>
        </data-member>
      </class-decl>
      <class-decl name='__numeric_traits_floating&lt;long double&gt;' is-struct='yes' visibility='default' size-in-bits='8' filepath='/usr/include/c++/4.9/ext/numeric_traits.h' line='100' column='1' hash='a018de9b5836069a' id='type-id-250'>
        <data-member access='public' static='yes'>
          <var-decl name='__max_exponent10' type-id='type-id-121' mangled-name='_ZN9__gnu_cxx25__numeric_traits_floatingIeE16__max_exponent10E' visibility='default' filepath='/usr/include/c++/4.9/ext/numeric_traits.h' line='108' column='1'/>
        </data-member>
      </class-decl>
      <class-decl name='__numeric_traits_integer&lt;char&gt;' is-struct='yes' visibility='default' size-in-bits='8' filepath='/usr/include/c++/4.9/ext/numeric_traits.h' line='55' column='1' hash='b155c1439fb8f926' id='type-id-251'>
        <data-member access='public' static='yes'>
          <var-decl name='__max' type-id='type-id-114' mangled-name='_ZN9__gnu_cxx24__numeric_traits_integerIcE5__maxE' visibility='default' filepath='/usr/include/c++/4.9/ext/numeric_traits.h' line='59' column='1'/>
        </data-member>
      </class-decl>
      <class-decl name='__numeric_traits_integer&lt;int&gt;' is-struct='yes' visibility='default' size-in-bits='8' filepath='/usr/include/c++/4.9/ext/numeric_traits.h' line='55' column='1' hash='93106c70be9cc18a' id='type-id-252'>
        <data-member access='public' static='yes'>
          <var-decl name='__min' type-id='type-id-121' mangled-name='_ZN9__gnu_cxx24__numeric_traits_integerIiE5__minE' visibility='default' filepath='/usr/include/c++/4.9/ext/numeric_traits.h' line='58' column='1'/>
        </data-member>
        <data-member access='public' static='yes'>
          <var-decl name='__max' type-id='type-id-121' mangled-name='_ZN9__gnu_cxx24__numeric_traits_integerIiE5__maxE' visibility='default' filepath='/usr/include/c++/4.9/ext/numeric_traits.h' line='59' column='1'/>
        </data-member>
      </class-decl>
      <class-decl name='__numeric_traits_integer&lt;long int&gt;' is-struct='yes' visibility='default' size-in-bits='8' filepath='/usr/include/c++/4.9/ext/numeric_traits.h' line='55' column='1' hash='45f07c99b3549de3' id='type-id-253'>
        <data-member access='public' static='yes'>
          <var-decl name='__min' type-id='type-id-122' mangled-name='_ZN9__gnu_cxx24__numeric_traits_integerIlE5__minE' visibility='default' filepath='/usr/include/c++/4.9/ext/numeric_traits.h' line='58' column='1'/>
        </data-member>
        <data-member access='public' static='yes'>
          <var-decl name='__max' type-id='type-id-122' mangled-name='_ZN9__gnu_cxx24__numeric_traits_integerIlE5__maxE' visibility='default' filepath='/usr/include/c++/4.9/ext/numeric_traits.h' line='59' column='1'/>
        </data-member>
      </class-decl>
      <class-decl name='__numeric_traits_integer&lt;long unsigned int&gt;' is-struct='yes' visibility='default' size-in-bits='8' filepath='/usr/include/c++/4.9/ext/numeric_traits.h' line='55' column='1' hash='1c97241ef0e09e7a' id='type-id-254'>
        <data-member access='public' static='yes'>
          <var-decl name='__digits' type-id='type-id-121' mangled-name='_ZN9__gnu_cxx24__numeric_traits_integerImE8__digitsE' visibility='default' filepath='/usr/include/c++/4.9/ext/numeric_traits.h' line='64' column='1'/>
        </data-member>
      </class-decl>
      <class-decl name='__numeric_traits_integer&lt;short int&gt;' is-struct='yes' visibility='default' size-in-bits='8' filepath='/usr/include/c++/4.9/ext/numeric_traits.h' line='55' column='1' hash='2509c5a6751e4c19' id='type-id-255'>
        <data-member access='public' static='yes'>
          <var-decl name='__min' type-id='type-id-134' mangled-name='_ZN9__gnu_cxx24__numeric_traits_integerIsE5__minE' visibility='default' filepath='/usr/include/c++/4.9/ext/numeric_traits.h' line='58' column='1'/>
        </data-member>
        <data-member access='public' static='yes'>
          <var-decl name='__max' type-id='type-id-134' mangled-name='_ZN9__gnu_cxx24__numeric_traits_integerIsE5__maxE' visibility='default' filepath='/usr/include/c++/4.9/ext/numeric_traits.h' line='59' column='1'/>
        </data-member>
      </class-decl>
    </namespace-decl>
    <function-decl name='rename' filepath='/usr/include/stdio.h' line='180' column='1' visibility='default' binding='global' size-in-bits='64' hash='5f03b5b551b5a51f'>
      <parameter type-id='type-id-43'/>
      <parameter type-id='type-id-43'/>
      <return type-id='type-id-12'/>
    </function-decl>
    <function-decl name='getenv' filepath='/usr/include/stdlib.h' line='564' column='1' visibility='default' binding='global' size-in-bits='64' hash='bac6a89264ba699c'>
      <parameter type-id='type-id-43'/>
      <return type-id='type-id-23'/>
    </function-decl>
    <function-decl name='wcslen' filepath='/usr/include/wchar.h' line='287' column='1' visibility='default' binding='global' size-in-bits='64' hash='5411970340edbefd'>
      <parameter type-id='type-id-161'/>
      <return type-id='type-id-30'/>
    </function-decl>
    <namespace-decl name='boost'>
      <namespace-decl name='noncopyable_'>
        <class-decl name='noncopyable' visibility='default' size-in-bits='8' filepath='src/third_party/boost-1.56.0/boost/core/noncopyable.hpp' line='23' column='1' hash='0ef0f830838f423d' id='type-id-76'>
          <member-function access='protected' constructor='yes'>
            <function-decl name='noncopyable' mangled-name='_ZN5boost12noncopyable_11noncopyableC2Ev' filepath='src/third_party/boost-1.56.0/boost/core/noncopyable.hpp' line='27' column='1' declared-inline='yes' visibility='default' binding='global' size-in-bits='64' elf-symbol-id='_ZN5boost12noncopyable_11noncopyableC2Ev' hash='7f32ffea222edbe7'>
              <parameter type-id='type-id-78' is-artificial='yes'/>
              <return type-id='type-id-47'/>
            </function-decl>
          </member-function>
        </class-decl>
      </namespace-decl>
      <namespace-decl name='filesystem'>
        <function-decl name='codecvt_error_category' mangled-name='_ZN5boost10filesystem22codecvt_error_categoryEv' filepath='src/third_party/boost-1.56.0/libs/filesystem/src/codecvt_error_category.cpp' line='77' column='1' visibility='default' binding='global' size-in-bits='64' elf-symbol-id='_ZN5boost10filesystem22codecvt_error_categoryEv' hash='43fa35073b692cf4'>
          <return type-id='type-id-104'/>
        </function-decl>
      </namespace-decl>
      <namespace-decl name='system'>
        <class-decl name='error_category' visibility='default' size-in-bits='64' filepath='src/third_party/boost-1.56.0/boost/system/error_code.hpp' line='185' column='1' hash='789b850edc988174' id='type-id-80'>
          <base-class access='public' layout-offset-in-bits='0' type-id='type-id-76'/>
          <member-function access='public' const='yes'>
            <function-decl name='operator==' mangled-name='_ZNK5boost6system14error_categoryeqERKS1_' filepath='src/third_party/boost-1.56.0/boost/system/error_code.hpp' line='198' column='1' visibility='default' binding='global' size-in-bits='64' elf-symbol-id='_ZNK5boost6system14error_categoryeqERKS1_' hash='7dc9ee065800ed80'>
              <parameter type-id='type-id-105' is-artificial='yes'/>
              <parameter type-id='type-id-104'/>
              <return type-id='type-id-1'/>
            </function-decl>
          </member-function>
          <member-function access='public' destructor='yes' vtable-offset='-1'>
            <function-decl name='~error_category' filepath='src/third_party/boost-1.56.0/boost/system/error_code.hpp' line='188' column='1' visibility='default' binding='global' size-in-bits='64' hash='388da3fa973fde78'>
              <parameter type-id='type-id-81' is-artificial='yes'/>
              <parameter type-id='type-id-12' is-artificial='yes'/>
              <return type-id='type-id-47'/>
            </function-decl>
          </member-function>
          <member-function access='public' destructor='yes' vtable-offset='-1'>
            <function-decl name='~error_category' mangled-name='_ZN5boost6system14error_categoryD0Ev' filepath='src/third_party/boost-1.56.0/boost/system/error_code.hpp' line='188' column='1' declared-inline='yes' visibility='default' binding='global' size-in-bits='64' elf-symbol-id='_ZN5boost6system14error_categoryD0Ev' hash='7f32ffea222edbe7'>
              <parameter type-id='type-id-81' is-artificial='yes'/>
              <return type-id='type-id-47'/>
            </function-decl>
          </member-function>
          <member-function access='public' destructor='yes' vtable-offset='-1'>
            <function-decl name='~error_category' mangled-name='_ZN5boost6system14error_categoryD2Ev' filepath='src/third_party/boost-1.56.0/boost/system/error_code.hpp' line='188' column='1' declared-inline='yes' visibility='default' binding='global' size-in-bits='64' elf-symbol-id='_ZN5boost6system14error_categoryD2Ev' hash='7f32ffea222edbe7'>
              <parameter type-id='type-id-81' is-artificial='yes'/>
              <return type-id='type-id-47'/>
            </function-decl>
          </member-function>
          <member-function access='public' const='yes' vtable-offset='2'>
            <function-decl name='name' mangled-name='_ZNK5boost6system14error_category4nameEv' filepath='src/third_party/boost-1.56.0/boost/system/error_code.hpp' line='190' column='1' visibility='default' binding='global' size-in-bits='64' hash='53885bde0aa65efe'>
              <parameter type-id='type-id-105' is-artificial='yes'/>
              <return type-id='type-id-43'/>
            </function-decl>
          </member-function>
          <member-function access='public' const='yes' vtable-offset='3'>
            <function-decl name='message' mangled-name='_ZNK5boost6system14error_category7messageEi' filepath='src/third_party/boost-1.56.0/boost/system/error_code.hpp' line='191' column='1' visibility='default' binding='global' size-in-bits='64' hash='388da3fa973fde78'>
              <parameter type-id='type-id-105' is-artificial='yes'/>
              <parameter type-id='type-id-12'/>
              <return type-id='type-id-236'/>
            </function-decl>
          </member-function>
          <member-function access='public' const='yes' vtable-offset='4'>
            <function-decl name='default_error_condition' mangled-name='_ZNK5boost6system14error_category23default_error_conditionEi' filepath='src/third_party/boost-1.56.0/boost/system/error_code.hpp' line='492' column='1' visibility='default' binding='global' size-in-bits='64' elf-symbol-id='_ZNK5boost6system14error_category23default_error_conditionEi' hash='388da3fa973fde78'>
              <parameter type-id='type-id-105' is-artificial='yes'/>
              <parameter type-id='type-id-12'/>
              <return type-id='type-id-85'/>
            </function-decl>
          </member-function>
          <member-function access='public' const='yes' vtable-offset='5'>
            <function-decl name='equivalent' mangled-name='_ZNK5boost6system14error_category10equivalentEiRKNS0_15error_conditionE' filepath='src/third_party/boost-1.56.0/boost/system/error_code.hpp' line='497' column='1' visibility='default' binding='global' size-in-bits='64' elf-symbol-id='_ZNK5boost6system14error_category10equivalentEiRKNS0_15error_conditionE' hash='9e65ea71fc344b89'>
              <parameter type-id='type-id-105' is-artificial='yes'/>
              <parameter type-id='type-id-12'/>
              <parameter type-id='type-id-112'/>
              <return type-id='type-id-1'/>
            </function-decl>
          </member-function>
          <member-function access='public' const='yes' vtable-offset='6'>
            <function-decl name='equivalent' mangled-name='_ZNK5boost6system14error_category10equivalentERKNS0_10error_codeEi' filepath='src/third_party/boost-1.56.0/boost/system/error_code.hpp' line='503' column='1' visibility='default' binding='global' size-in-bits='64' elf-symbol-id='_ZNK5boost6system14error_category10equivalentERKNS0_10error_codeEi' hash='75d9353326bc1b1d'>
              <parameter type-id='type-id-105' is-artificial='yes'/>
              <parameter type-id='type-id-108'/>
              <parameter type-id='type-id-12'/>
              <return type-id='type-id-1'/>
            </function-decl>
          </member-function>
        </class-decl>
        <class-decl name='error_code' visibility='default' size-in-bits='128' filepath='src/third_party/boost-1.56.0/boost/system/error_code.hpp' line='317' column='1' hash='da54e3ecfbec1dfb' id='type-id-83'>
          <member-type access='public'>
            <typedef-decl name='unspecified_bool_type' type-id='type-id-180' size-in-bits='64' filepath='src/third_party/boost-1.56.0/boost/system/error_code.hpp' line='359' column='1' hash='fd7a63c0c6c822c4' id='type-id-256'/>
          </member-type>
          <data-member access='private' layout-offset-in-bits='0'>
            <var-decl name='m_val' type-id='type-id-12' visibility='default' filepath='src/third_party/boost-1.56.0/boost/system/error_code.hpp' line='391' column='1'/>
          </data-member>
          <data-member access='private' layout-offset-in-bits='64'>
            <var-decl name='m_cat' type-id='type-id-105' visibility='default' filepath='src/third_party/boost-1.56.0/boost/system/error_code.hpp' line='392' column='1'/>
          </data-member>
          <member-function access='public' const='yes'>
            <function-decl name='value' mangled-name='_ZNK5boost6system10error_code5valueEv' filepath='src/third_party/boost-1.56.0/boost/system/error_code.hpp' line='354' column='1' visibility='default' binding='global' size-in-bits='64' elf-symbol-id='_ZNK5boost6system10error_code5valueEv' hash='388da3fa973fde78'>
              <parameter type-id='type-id-109' is-artificial='yes'/>
              <return type-id='type-id-12'/>
            </function-decl>
          </member-function>
          <member-function access='public' const='yes'>
            <function-decl name='category' mangled-name='_ZNK5boost6system10error_code8categoryEv' filepath='src/third_party/boost-1.56.0/boost/system/error_code.hpp' line='355' column='1' visibility='default' binding='global' size-in-bits='64' elf-symbol-id='_ZNK5boost6system10error_code8categoryEv' hash='43fa35073b692cf4'>
              <parameter type-id='type-id-109' is-artificial='yes'/>
              <return type-id='type-id-104'/>
            </function-decl>
          </member-function>
          <member-function access='public' constructor='yes'>
            <function-decl name='error_code' mangled-name='_ZN5boost6system10error_codeC2Ev' filepath='src/third_party/boost-1.56.0/boost/system/error_code.hpp' line='322' column='1' declared-inline='yes' visibility='default' binding='global' size-in-bits='64' elf-symbol-id='_ZN5boost6system10error_codeC2Ev' hash='7f32ffea222edbe7'>
              <parameter type-id='type-id-84' is-artificial='yes'/>
              <return type-id='type-id-47'/>
            </function-decl>
          </member-function>
          <member-function access='public' constructor='yes'>
            <function-decl name='error_code' mangled-name='_ZN5boost6system10error_codeC2EiRKNS0_14error_categoryE' filepath='src/third_party/boost-1.56.0/boost/system/error_code.hpp' line='323' column='1' declared-inline='yes' visibility='default' binding='global' size-in-bits='64' elf-symbol-id='_ZN5boost6system10error_codeC2EiRKNS0_14error_categoryE' hash='d12729ae32a5ca93'>
              <parameter type-id='type-id-84' is-artificial='yes'/>
              <parameter type-id='type-id-12'/>
              <parameter type-id='type-id-104'/>
              <return type-id='type-id-47'/>
            </function-decl>
          </member-function>
          <member-function access='public'>
            <function-decl name='assign' mangled-name='_ZN5boost6system10error_code6assignEiRKNS0_14error_categoryE' filepath='src/third_party/boost-1.56.0/boost/system/error_code.hpp' line='333' column='1' visibility='default' binding='global' size-in-bits='64' elf-symbol-id='_ZN5boost6system10error_code6assignEiRKNS0_14error_categoryE' hash='d12729ae32a5ca93'>
              <parameter type-id='type-id-84' is-artificial='yes'/>
              <parameter type-id='type-id-12'/>
              <parameter type-id='type-id-104'/>
              <return type-id='type-id-47'/>
            </function-decl>
          </member-function>
          <member-function access='public'>
            <function-decl name='clear' mangled-name='_ZN5boost6system10error_code5clearEv' filepath='src/third_party/boost-1.56.0/boost/system/error_code.hpp' line='347' column='1' visibility='default' binding='global' size-in-bits='64' elf-symbol-id='_ZN5boost6system10error_code5clearEv' hash='7f32ffea222edbe7'>
              <parameter type-id='type-id-84' is-artificial='yes'/>
              <return type-id='type-id-47'/>
            </function-decl>
          </member-function>
          <member-function access='public' const='yes'>
            <function-decl name='message' mangled-name='_ZNK5boost6system10error_code7messageEv' filepath='src/third_party/boost-1.56.0/boost/system/error_code.hpp' line='357' column='1' visibility='default' binding='global' size-in-bits='64' elf-symbol-id='_ZNK5boost6system10error_code7messageEv' hash='7f32ffea222edbe7'>
              <parameter type-id='type-id-109' is-artificial='yes'/>
              <return type-id='type-id-236'/>
            </function-decl>
          </member-function>
          <member-function access='public' static='yes'>
            <function-decl name='unspecified_bool_true' mangled-name='_ZN5boost6system10error_code21unspecified_bool_trueEv' filepath='src/third_party/boost-1.56.0/boost/system/error_code.hpp' line='360' column='1' visibility='default' binding='global' size-in-bits='64' elf-symbol-id='_ZN5boost6system10error_code21unspecified_bool_trueEv' hash='7f32ffea222edbe7'>
              <return type-id='type-id-47'/>
            </function-decl>
          </member-function>
          <member-function access='public' const='yes'>
            <function-decl name='operator boost::system::error_code::unspecified_bool_type' mangled-name='_ZNK5boost6system10error_codecvPFvvEEv' filepath='src/third_party/boost-1.56.0/boost/system/error_code.hpp' line='362' column='1' visibility='default' binding='global' size-in-bits='64' elf-symbol-id='_ZNK5boost6system10error_codecvPFvvEEv' hash='5695f5ce05a4c55f'>
              <parameter type-id='type-id-109' is-artificial='yes'/>
              <return type-id='type-id-256'/>
            </function-decl>
          </member-function>
        </class-decl>
        <class-decl name='error_condition' visibility='default' size-in-bits='128' filepath='src/third_party/boost-1.56.0/boost/system/error_code.hpp' line='230' column='1' hash='bed1f5a4fdf7dca0' id='type-id-85'>
          <member-type access='public'>
            <typedef-decl name='unspecified_bool_type' type-id='type-id-180' size-in-bits='64' filepath='src/third_party/boost-1.56.0/boost/system/error_code.hpp' line='272' column='1' hash='fd7a63c0c6c822c4' id='type-id-257'/>
          </member-type>
          <data-member access='private' layout-offset-in-bits='0'>
            <var-decl name='m_val' type-id='type-id-12' visibility='default' filepath='src/third_party/boost-1.56.0/boost/system/error_code.hpp' line='304' column='1'/>
          </data-member>
          <data-member access='private' layout-offset-in-bits='64'>
            <var-decl name='m_cat' type-id='type-id-105' visibility='default' filepath='src/third_party/boost-1.56.0/boost/system/error_code.hpp' line='305' column='1'/>
          </data-member>
          <member-function access='public' constructor='yes'>
            <function-decl name='error_condition' mangled-name='_ZN5boost6system15error_conditionC2EiRKNS0_14error_categoryE' filepath='src/third_party/boost-1.56.0/boost/system/error_code.hpp' line='236' column='1' declared-inline='yes' visibility='default' binding='global' size-in-bits='64' elf-symbol-id='_ZN5boost6system15error_conditionC2EiRKNS0_14error_categoryE' hash='d12729ae32a5ca93'>
              <parameter type-id='type-id-86' is-artificial='yes'/>
              <parameter type-id='type-id-12'/>
              <parameter type-id='type-id-104'/>
              <return type-id='type-id-47'/>
            </function-decl>
          </member-function>
        </class-decl>
        <function-decl name='operator==' mangled-name='_ZN5boost6systemeqERKNS0_15error_conditionES3_' filepath='src/third_party/boost-1.56.0/boost/system/error_code.hpp' line='288' column='1' visibility='default' binding='global' size-in-bits='64' elf-symbol-id='_ZN5boost6systemeqERKNS0_15error_conditionES3_' hash='4a3390772120f744'>
          <parameter type-id='type-id-112'/>
          <parameter type-id='type-id-112'/>
          <return type-id='type-id-1'/>
        </function-decl>
      </namespace-decl>
    </namespace-decl>
    <namespace-decl name='mpl_'>
      <class-decl name='int_&lt;-1&gt;' is-struct='yes' visibility='default' size-in-bits='8' filepath='src/third_party/boost-1.56.0/boost/mpl/aux_/integral_wrapper.hpp' line='43' column='1' hash='29ae40883f7af830' id='type-id-125'>
        <data-member access='public' static='yes'>
          <var-decl name='value' type-id='type-id-121' mangled-name='_ZN4mpl_4int_ILin1EE5valueE' visibility='default' filepath='src/third_party/boost-1.56.0/boost/mpl/aux_/integral_wrapper.hpp' line='45' column='1'/>
        </data-member>
      </class-decl>
      <class-decl name='int_&lt;1&gt;' is-struct='yes' visibility='default' size-in-bits='8' filepath='src/third_party/boost-1.56.0/boost/mpl/aux_/integral_wrapper.hpp' line='43' column='1' hash='0e19b60c1759c28c' id='type-id-128'>
        <data-member access='public' static='yes'>
          <var-decl name='value' type-id='type-id-121' mangled-name='_ZN4mpl_4int_ILi1EE5valueE' visibility='default' filepath='src/third_party/boost-1.56.0/boost/mpl/aux_/integral_wrapper.hpp' line='45' column='1'/>
        </data-member>
      </class-decl>
      <class-decl name='int_&lt;3&gt;' is-struct='yes' visibility='default' size-in-bits='8' filepath='src/third_party/boost-1.56.0/boost/mpl/aux_/integral_wrapper.hpp' line='43' column='1' hash='caa02f038170dbed' id='type-id-131'>
        <data-member access='public' static='yes'>
          <var-decl name='value' type-id='type-id-121' mangled-name='_ZN4mpl_4int_ILi3EE5valueE' visibility='default' filepath='src/third_party/boost-1.56.0/boost/mpl/aux_/integral_wrapper.hpp' line='45' column='1'/>
        </data-member>
      </class-decl>
    </namespace-decl>
    <type-decl name='variadic parameter type' id='type-id-258'/>
    <type-decl name='void' id='type-id-47'/>
    <pointer-type-def type-id='type-id-47' id='type-id-29'/>
    <function-type size-in-bits='64' hash='388da3fa973fde78' id='type-id-164'>
      <parameter type-id='type-id-29'/>
      <parameter type-id='type-id-29'/>
      <return type-id='type-id-12'/>
    </function-type>
    <function-type size-in-bits='64' hash='7f32ffea222edbe7' id='type-id-179'>
      <return type-id='type-id-47'/>
    </function-type>
  </abi-instr>
  <abi-instr address-size='64' path='src/third_party/boost-1.56.0/libs/filesystem/src/operations.cpp' comp-dir-path='/home/andrew/Documents/10gen/dev/src/mongodb' language='LANG_C_plus_plus'>
    <class-decl name='_G_fpos64_t' is-struct='yes' naming-typedef-id='type-id-259' visibility='default' size-in-bits='128' filepath='/usr/include/_G_config.h' line='27' column='1' hash='0f4c884858b44079' id='type-id-260'>
      <data-member access='public' layout-offset-in-bits='0'>
        <var-decl name='__pos' type-id='type-id-28' visibility='default' filepath='/usr/include/_G_config.h' line='28' column='1'/>
      </data-member>
      <data-member access='public' layout-offset-in-bits='64'>
        <var-decl name='__state' type-id='type-id-21' visibility='default' filepath='/usr/include/_G_config.h' line='29' column='1'/>
      </data-member>
    </class-decl>
    <typedef-decl name='_G_fpos64_t' type-id='type-id-260' size-in-bits='128' filepath='/usr/include/_G_config.h' line='30' column='1' id='type-id-259'/>
    <typedef-decl name='__mode_t' type-id='type-id-34' size-in-bits='32' filepath='/usr/include/x86_64-linux-gnu/bits/types.h' line='129' column='1' hash='e66b43f97c38e87a' id='type-id-261'/>
    <typedef-decl name='fpos_t' type-id='type-id-259' size-in-bits='128' filepath='/usr/include/stdio.h' line='112' column='1' id='type-id-262'/>
    <typedef-decl name='mode_t' type-id='type-id-261' size-in-bits='32' filepath='/usr/include/x86_64-linux-gnu/sys/types.h' line='70' column='1' hash='e66b43f97c38e87a' id='type-id-263'/>
    <typedef-decl name='uintmax_t' type-id='type-id-58' size-in-bits='64' filepath='/usr/include/stdint.h' line='135' column='1' hash='8fdc5eea2983a729' id='type-id-264'/>
    <type-decl name='unnamed-enum-underlying-type-32' size-in-bits='32' alignment-in-bits='32' is-anonymous='yes' hash='5181a58e665b3619' id='type-id-265'/>
    <array-type-def dimensions='1' type-id='type-id-58' size-in-bits='39936' hash='b050c423ba8f7084' id='type-id-266'>
      <subrange length='624' lower-bound='0' upper-bound='623' type-id='type-id-4' size-in-bits='64' is-anonymous='yes' hash='5a2259ccfdfda079' id='type-id-267'/>
    </array-type-def>
    <reference-type-def kind='lvalue' type-id='type-id-268' size-in-bits='64' hash='217c34c7ff3c5a7e' id='type-id-269'/>
    <pointer-type-def type-id='type-id-268' size-in-bits='64' hash='f07952697440020b' id='type-id-270'/>
    <reference-type-def kind='lvalue' type-id='type-id-271' size-in-bits='64' hash='3c7069806b52edd1' id='type-id-272'/>
    <pointer-type-def type-id='type-id-271' size-in-bits='64' hash='2dbdcdb07b0f6311' id='type-id-273'/>
    <pointer-type-def type-id='type-id-274' size-in-bits='64' hash='6744532079838ae0' id='type-id-275'/>
    <reference-type-def kind='lvalue' type-id='type-id-276' size-in-bits='64' hash='e19db267ac44b556' id='type-id-277'/>
    <pointer-type-def type-id='type-id-276' size-in-bits='64' hash='d25fb9bbf919b218' id='type-id-278'/>
    <qualified-type-def type-id='type-id-278' const='yes' hash='7be2b7e7f466dd69' id='type-id-279'/>
    <reference-type-def kind='lvalue' type-id='type-id-280' size-in-bits='64' hash='9c0c84d44b5ee339' id='type-id-281'/>
    <reference-type-def kind='rvalue' type-id='type-id-280' size-in-bits='64' hash='6a617d67e2de0301' id='type-id-282'/>
    <pointer-type-def type-id='type-id-280' size-in-bits='64' hash='49ce24a983d58ef3' id='type-id-283'/>
    <qualified-type-def type-id='type-id-283' const='yes' hash='6b4ca54fe4034cf2' id='type-id-284'/>
    <reference-type-def kind='lvalue' type-id='type-id-285' size-in-bits='64' hash='f4b09dd1b44324ba' id='type-id-286'/>
    <pointer-type-def type-id='type-id-285' size-in-bits='64' hash='9ae25daa6fb15dde' id='type-id-287'/>
    <qualified-type-def type-id='type-id-287' const='yes' hash='3dc215b64e193b5d' id='type-id-288'/>
    <reference-type-def kind='lvalue' type-id='type-id-289' size-in-bits='64' hash='a5034a0e7981bfc2' id='type-id-290'/>
    <pointer-type-def type-id='type-id-289' size-in-bits='64' hash='6881c357fcc119bb' id='type-id-291'/>
    <qualified-type-def type-id='type-id-291' const='yes' hash='2d1f42250de0009b' id='type-id-292'/>
    <reference-type-def kind='lvalue' type-id='type-id-293' size-in-bits='64' hash='e3d0b3da6031a464' id='type-id-294'/>
    <pointer-type-def type-id='type-id-293' size-in-bits='64' hash='488fb1499233a737' id='type-id-295'/>
    <qualified-type-def type-id='type-id-295' const='yes' hash='f4acbc37d9219a2b' id='type-id-296'/>
    <reference-type-def kind='lvalue' type-id='type-id-297' size-in-bits='64' hash='aa2237a0fed79def' id='type-id-298'/>
    <reference-type-def kind='rvalue' type-id='type-id-297' size-in-bits='64' hash='5532a332ebfd9d42' id='type-id-299'/>
    <pointer-type-def type-id='type-id-297' size-in-bits='64' hash='e7187a72011eb60b' id='type-id-300'/>
    <reference-type-def kind='lvalue' type-id='type-id-301' size-in-bits='64' hash='c1d1be2240bbedde' id='type-id-302'/>
    <pointer-type-def type-id='type-id-301' size-in-bits='64' hash='9e4c6ed13ec05836' id='type-id-303'/>
    <qualified-type-def type-id='type-id-303' const='yes' hash='bbde23fcfc808863' id='type-id-304'/>
    <reference-type-def kind='lvalue' type-id='type-id-303' size-in-bits='64' hash='31f67134ef79c705' id='type-id-305'/>
    <reference-type-def kind='lvalue' type-id='type-id-306' size-in-bits='64' hash='3505fc958f4e553b' id='type-id-307'/>
    <pointer-type-def type-id='type-id-306' size-in-bits='64' hash='9f005300b25295c6' id='type-id-308'/>
    <qualified-type-def type-id='type-id-308' const='yes' hash='40833bcb5243c5fa' id='type-id-309'/>
    <reference-type-def kind='lvalue' type-id='type-id-310' size-in-bits='64' hash='d667f186b918764f' id='type-id-311'/>
    <pointer-type-def type-id='type-id-310' size-in-bits='64' hash='a1937e32dbca88b8' id='type-id-312'/>
    <qualified-type-def type-id='type-id-312' const='yes' hash='2fd30a371496d0e4' id='type-id-313'/>
    <pointer-type-def type-id='type-id-314' size-in-bits='64' hash='0c0b24bdaacce0d1' id='type-id-315'/>
    <qualified-type-def type-id='type-id-315' const='yes' hash='08d637ef9e39c159' id='type-id-316'/>
    <pointer-type-def type-id='type-id-317' size-in-bits='64' hash='798132c0e8b3cbd6' id='type-id-318'/>
    <qualified-type-def type-id='type-id-318' const='yes' hash='add56a35df2e1f4f' id='type-id-319'/>
    <reference-type-def kind='lvalue' type-id='type-id-320' size-in-bits='64' hash='802a2fe98c875c7b' id='type-id-321'/>
    <pointer-type-def type-id='type-id-320' size-in-bits='64' hash='d16cc64bab66b9f1' id='type-id-322'/>
    <reference-type-def kind='lvalue' type-id='type-id-322' size-in-bits='64' hash='16c89bea4085176e' id='type-id-323'/>
    <reference-type-def kind='lvalue' type-id='type-id-324' size-in-bits='64' hash='54199a9248c6bf47' id='type-id-325'/>
    <pointer-type-def type-id='type-id-324' size-in-bits='64' hash='722bc3120c90bfae' id='type-id-326'/>
    <qualified-type-def type-id='type-id-326' const='yes' hash='e01aa13e6a8cdf96' id='type-id-327'/>
    <reference-type-def kind='lvalue' type-id='type-id-328' size-in-bits='64' hash='1b06d06743d07d52' id='type-id-329'/>
    <pointer-type-def type-id='type-id-328' size-in-bits='64' hash='b76fa2ed4cc16294' id='type-id-330'/>
    <qualified-type-def type-id='type-id-330' const='yes' hash='386f15c714043b89' id='type-id-331'/>
    <reference-type-def kind='lvalue' type-id='type-id-332' size-in-bits='64' hash='f542faa4954b0da7' id='type-id-333'/>
    <pointer-type-def type-id='type-id-334' size-in-bits='64' hash='122a796f9d78b70b' id='type-id-335'/>
    <pointer-type-def type-id='type-id-336' size-in-bits='64' hash='f2e5707f15d9ef8a' id='type-id-337'/>
    <qualified-type-def type-id='type-id-337' const='yes' hash='7cf09eeccd8b4f6e' id='type-id-338'/>
    <pointer-type-def type-id='type-id-339' size-in-bits='64' hash='e52dc163b0fef2f1' id='type-id-340'/>
    <qualified-type-def type-id='type-id-340' const='yes' hash='781732a6920d585b' id='type-id-341'/>
    <reference-type-def kind='lvalue' type-id='type-id-342' size-in-bits='64' hash='51ab83e9a218bf36' id='type-id-343'/>
    <pointer-type-def type-id='type-id-342' size-in-bits='64' hash='5458f1a39901a32d' id='type-id-344'/>
    <qualified-type-def type-id='type-id-344' const='yes' hash='0a76f9caa2488137' id='type-id-345'/>
    <reference-type-def kind='lvalue' type-id='type-id-346' size-in-bits='64' hash='60625043307a5fb3' id='type-id-347'/>
    <reference-type-def kind='rvalue' type-id='type-id-346' size-in-bits='64' hash='d8ac349bf625379c' id='type-id-348'/>
    <pointer-type-def type-id='type-id-346' size-in-bits='64' hash='c19b74489529d179' id='type-id-349'/>
    <qualified-type-def type-id='type-id-349' const='yes' hash='d0c95bfe9a604810' id='type-id-350'/>
    <pointer-type-def type-id='type-id-351' size-in-bits='64' hash='ec4fb3c2e8e35e26' id='type-id-352'/>
    <reference-type-def kind='lvalue' type-id='type-id-353' size-in-bits='64' hash='8d155623d964bc8e' id='type-id-354'/>
    <reference-type-def kind='rvalue' type-id='type-id-353' size-in-bits='64' hash='7bf7baff74200726' id='type-id-355'/>
    <pointer-type-def type-id='type-id-353' size-in-bits='64' hash='ab7e3d8371bce0f6' id='type-id-356'/>
    <qualified-type-def type-id='type-id-356' const='yes' hash='ff224063d4b1b8c7' id='type-id-357'/>
    <pointer-type-def type-id='type-id-358' size-in-bits='64' hash='ec4fb3c2e8e35e26#2' id='type-id-359'/>
    <reference-type-def kind='lvalue' type-id='type-id-83' size-in-bits='64' hash='aa1fd805b9e29837' id='type-id-360'/>
    <qualified-type-def type-id='type-id-84' const='yes' hash='a7b8adc51fd4c328' id='type-id-361'/>
    <pointer-type-def type-id='type-id-362' size-in-bits='64' hash='889df339b4cec3d1' id='type-id-363'/>
    <qualified-type-def type-id='type-id-363' const='yes' hash='7bd9e70cbeba3e5d' id='type-id-364'/>
    <qualified-type-def type-id='type-id-268' const='yes' hash='b72f653e55495c77' id='type-id-365'/>
    <pointer-type-def type-id='type-id-365' size-in-bits='64' hash='729722fe99deb8af' id='type-id-366'/>
    <qualified-type-def type-id='type-id-271' const='yes' hash='90ae75fbfd1f29bf' id='type-id-367'/>
    <pointer-type-def type-id='type-id-367' size-in-bits='64' hash='02cf974184cd2fbe' id='type-id-368'/>
    <qualified-type-def type-id='type-id-274' const='yes' hash='3854a1af6e9bd045' id='type-id-369'/>
    <reference-type-def kind='lvalue' type-id='type-id-369' size-in-bits='64' hash='b3a0a1acfd437502' id='type-id-370'/>
    <pointer-type-def type-id='type-id-369' size-in-bits='64' hash='67ec642f7ae02530' id='type-id-371'/>
    <qualified-type-def type-id='type-id-276' const='yes' hash='8843e755aff9493d' id='type-id-372'/>
    <reference-type-def kind='lvalue' type-id='type-id-372' size-in-bits='64' hash='4db5310d698cb5b5' id='type-id-373'/>
    <pointer-type-def type-id='type-id-372' size-in-bits='64' hash='6107e25dea25d4c9' id='type-id-374'/>
    <qualified-type-def type-id='type-id-374' const='yes' hash='223643ff5b2a9b27' id='type-id-375'/>
    <qualified-type-def type-id='type-id-280' const='yes' hash='173e95aad8bf3e0d' id='type-id-376'/>
    <reference-type-def kind='lvalue' type-id='type-id-376' size-in-bits='64' hash='f812cc142a038176' id='type-id-377'/>
    <pointer-type-def type-id='type-id-376' size-in-bits='64' hash='bca3047a254337a8' id='type-id-378'/>
    <qualified-type-def type-id='type-id-285' const='yes' hash='b6ae999616d0fd25' id='type-id-379'/>
    <reference-type-def kind='lvalue' type-id='type-id-379' size-in-bits='64' hash='78b0ce8e98bd3bdb' id='type-id-380'/>
    <pointer-type-def type-id='type-id-379' size-in-bits='64' hash='935d99e043ae4790' id='type-id-381'/>
    <qualified-type-def type-id='type-id-289' const='yes' hash='4f4e1a33ab473d82' id='type-id-382'/>
    <reference-type-def kind='lvalue' type-id='type-id-382' size-in-bits='64' hash='6253b452c860d09d' id='type-id-383'/>
    <qualified-type-def type-id='type-id-293' const='yes' hash='3ea8f54b1ec771ee' id='type-id-384'/>
    <reference-type-def kind='lvalue' type-id='type-id-384' size-in-bits='64' hash='48b3413303182734' id='type-id-385'/>
    <qualified-type-def type-id='type-id-297' const='yes' hash='2950bb6143b1947d' id='type-id-386'/>
    <reference-type-def kind='lvalue' type-id='type-id-386' size-in-bits='64' hash='a1e25fb07e43e967' id='type-id-387'/>
    <pointer-type-def type-id='type-id-386' size-in-bits='64' hash='f47065404cad6a3d' id='type-id-388'/>
    <qualified-type-def type-id='type-id-306' const='yes' hash='2f93e2d08464381e' id='type-id-389'/>
    <reference-type-def kind='lvalue' type-id='type-id-389' size-in-bits='64' hash='1450e8fb9d7997f4' id='type-id-390'/>
    <pointer-type-def type-id='type-id-389' size-in-bits='64' hash='7142ce421dc407cb' id='type-id-391'/>
    <qualified-type-def type-id='type-id-391' const='yes' hash='dda9c772e4a4f623' id='type-id-392'/>
    <qualified-type-def type-id='type-id-310' const='yes' hash='65b858ced3774fcb' id='type-id-393'/>
    <reference-type-def kind='lvalue' type-id='type-id-393' size-in-bits='64' hash='8876c240c80bbfae' id='type-id-394'/>
    <pointer-type-def type-id='type-id-393' size-in-bits='64' hash='fd85d351b2c1b34b' id='type-id-395'/>
    <qualified-type-def type-id='type-id-395' const='yes' hash='a327418dad8a79f4' id='type-id-396'/>
    <qualified-type-def type-id='type-id-314' const='yes' hash='2bcc3b23c68842e3' id='type-id-397'/>
    <reference-type-def kind='lvalue' type-id='type-id-397' size-in-bits='64' hash='8d6990e84c9fe149' id='type-id-398'/>
    <pointer-type-def type-id='type-id-397' size-in-bits='64' hash='ed3d34f3013c7589' id='type-id-399'/>
    <qualified-type-def type-id='type-id-399' const='yes' hash='c0c0d1feb913b9f6' id='type-id-400'/>
    <qualified-type-def type-id='type-id-317' const='yes' hash='7c5d0c40f1d6ce93' id='type-id-401'/>
    <pointer-type-def type-id='type-id-401' size-in-bits='64' hash='52296d799614e8e8' id='type-id-402'/>
    <qualified-type-def type-id='type-id-324' const='yes' hash='631bc121cb6404bd' id='type-id-403'/>
    <reference-type-def kind='lvalue' type-id='type-id-403' size-in-bits='64' hash='d89c30f19e944670' id='type-id-404'/>
    <pointer-type-def type-id='type-id-403' size-in-bits='64' hash='8d5a29cf878d89fc' id='type-id-405'/>
    <qualified-type-def type-id='type-id-405' const='yes' hash='c8f49acbea77d583' id='type-id-406'/>
    <qualified-type-def type-id='type-id-328' const='yes' hash='1b7e68a9c8148d66' id='type-id-407'/>
    <reference-type-def kind='lvalue' type-id='type-id-407' size-in-bits='64' hash='deb8657b884404d8' id='type-id-408'/>
    <pointer-type-def type-id='type-id-407' size-in-bits='64' hash='feba8f1b6d05d774' id='type-id-409'/>
    <qualified-type-def type-id='type-id-409' const='yes' hash='66f3ccf5317d0d02' id='type-id-410'/>
    <qualified-type-def type-id='type-id-411' const='yes' hash='f20de2bf5c762e7f' id='type-id-412'/>
    <reference-type-def kind='lvalue' type-id='type-id-412' size-in-bits='64' hash='66e8c49e607b39a0' id='type-id-413'/>
    <qualified-type-def type-id='type-id-414' const='yes' hash='704f5e5efff62eb9' id='type-id-415'/>
    <pointer-type-def type-id='type-id-415' size-in-bits='64' hash='0d0ce9b9b3a8c16c' id='type-id-416'/>
    <qualified-type-def type-id='type-id-336' const='yes' hash='2eb4686509708e6a' id='type-id-417'/>
    <reference-type-def kind='lvalue' type-id='type-id-417' size-in-bits='64' hash='aca4dc0204955f1d' id='type-id-418'/>
    <pointer-type-def type-id='type-id-417' size-in-bits='64' hash='c497121015cde322' id='type-id-419'/>
    <qualified-type-def type-id='type-id-419' const='yes' hash='3a7d6be905c868c5' id='type-id-420'/>
    <qualified-type-def type-id='type-id-339' const='yes' hash='c4c944b966c2487b' id='type-id-421'/>
    <reference-type-def kind='lvalue' type-id='type-id-421' size-in-bits='64' hash='29bfb911fb4cca58' id='type-id-422'/>
    <pointer-type-def type-id='type-id-421' size-in-bits='64' hash='856de76e11e7ce8a' id='type-id-423'/>
    <qualified-type-def type-id='type-id-423' const='yes' hash='61f3f54e373ae076' id='type-id-424'/>
    <qualified-type-def type-id='type-id-342' const='yes' hash='b95ada383dd0c82c' id='type-id-425'/>
    <reference-type-def kind='lvalue' type-id='type-id-425' size-in-bits='64' hash='cb7830ad19520e8f' id='type-id-426'/>
    <pointer-type-def type-id='type-id-425' size-in-bits='64' hash='e96590be6a522662' id='type-id-427'/>
    <qualified-type-def type-id='type-id-427' const='yes' hash='dc6f7291b2053aac' id='type-id-428'/>
    <qualified-type-def type-id='type-id-346' const='yes' hash='2eec7fa0d686b83e' id='type-id-429'/>
    <reference-type-def kind='lvalue' type-id='type-id-429' size-in-bits='64' hash='3aaf3893a3757f9b' id='type-id-430'/>
    <pointer-type-def type-id='type-id-429' size-in-bits='64' hash='62e91a2435ec69e2' id='type-id-431'/>
    <qualified-type-def type-id='type-id-431' const='yes' hash='fa20d348434936ab' id='type-id-432'/>
    <qualified-type-def type-id='type-id-353' const='yes' hash='53f4a6b71a50b8dc' id='type-id-433'/>
    <reference-type-def kind='lvalue' type-id='type-id-433' size-in-bits='64' hash='15b4aedca99e238d' id='type-id-434'/>
    <pointer-type-def type-id='type-id-433' size-in-bits='64' hash='42f2f78c3bd717fc' id='type-id-435'/>
    <qualified-type-def type-id='type-id-435' const='yes' hash='3a2e7da632734497' id='type-id-436'/>
    <qualified-type-def type-id='type-id-362' const='yes' hash='8a4d99171f787431' id='type-id-437'/>
    <pointer-type-def type-id='type-id-437' size-in-bits='64' hash='3182fbc1da77f6ba' id='type-id-438'/>
    <qualified-type-def type-id='type-id-262' const='yes' hash='d85759e223fc0d30' id='type-id-439'/>
    <pointer-type-def type-id='type-id-439' size-in-bits='64' hash='f7e9f827001f357b' id='type-id-440'/>
    <qualified-type-def type-id='type-id-441' const='yes' hash='5306188f5095cbb6' id='type-id-442'/>
    <pointer-type-def type-id='type-id-442' size-in-bits='64' hash='233ba88cfedffc20' id='type-id-443'/>
    <qualified-type-def type-id='type-id-444' const='yes' hash='c6c214a577a0a77a' id='type-id-445'/>
    <pointer-type-def type-id='type-id-445' size-in-bits='64' hash='6f9e42f78d3e4296' id='type-id-446'/>
    <qualified-type-def type-id='type-id-447' const='yes' hash='eb31c81693295db9' id='type-id-448'/>
    <pointer-type-def type-id='type-id-448' size-in-bits='64' hash='9b672cb071e188a4' id='type-id-449'/>
    <qualified-type-def type-id='type-id-450' const='yes' hash='868ef442c8c080cc' id='type-id-451'/>
    <pointer-type-def type-id='type-id-451' size-in-bits='64' hash='5514bc3362aedb27' id='type-id-452'/>
    <qualified-type-def type-id='type-id-453' const='yes' hash='b9d599774c034387' id='type-id-454'/>
    <pointer-type-def type-id='type-id-454' size-in-bits='64' hash='f8e51b6b92b735be' id='type-id-455'/>
    <qualified-type-def type-id='type-id-456' const='yes' hash='61c0c2737d6c6568' id='type-id-457'/>
    <pointer-type-def type-id='type-id-457' size-in-bits='64' hash='f958a0917d310357' id='type-id-458'/>
    <qualified-type-def type-id='type-id-459' const='yes' hash='de2e1f782ee233ac' id='type-id-460'/>
    <reference-type-def kind='lvalue' type-id='type-id-460' size-in-bits='64' hash='b3ec5276ea082ff8' id='type-id-461'/>
    <qualified-type-def type-id='type-id-462' const='yes' hash='c876079b2058b496' id='type-id-463'/>
    <reference-type-def kind='lvalue' type-id='type-id-463' size-in-bits='64' hash='68fc177f4a8acb14' id='type-id-464'/>
    <pointer-type-def type-id='type-id-463' size-in-bits='64' hash='d29f1b0cac5e135b' id='type-id-465'/>
    <qualified-type-def type-id='type-id-466' const='yes' hash='7226944aa4e46352' id='type-id-467'/>
    <pointer-type-def type-id='type-id-467' size-in-bits='64' hash='61c33da8fd0cc9a8' id='type-id-468'/>
    <qualified-type-def type-id='type-id-469' const='yes' hash='f3ad494e9f7aea44#2' id='type-id-470'/>
    <qualified-type-def type-id='type-id-471' const='yes' hash='c14c63ac18bb8f14' id='type-id-472'/>
    <pointer-type-def type-id='type-id-472' size-in-bits='64' hash='ac096db76ae2491b' id='type-id-473'/>
    <qualified-type-def type-id='type-id-474' const='yes' hash='2ad6bc7d1e7689b9' id='type-id-475'/>
    <reference-type-def kind='lvalue' type-id='type-id-475' size-in-bits='64' hash='b2523ccce892e6be' id='type-id-476'/>
    <pointer-type-def type-id='type-id-475' size-in-bits='64' hash='ed86ae4cd5d6f24e' id='type-id-477'/>
    <qualified-type-def type-id='type-id-478' const='yes' hash='95a9f6add50c3f0a' id='type-id-479'/>
    <reference-type-def kind='lvalue' type-id='type-id-479' size-in-bits='64' hash='d9fe13de02e8a385' id='type-id-480'/>
    <pointer-type-def type-id='type-id-479' size-in-bits='64' hash='3e2258ad51c3adb0' id='type-id-481'/>
    <qualified-type-def type-id='type-id-482' const='yes' hash='7aeea90eccf7bfe3' id='type-id-483'/>
    <qualified-type-def type-id='type-id-484' const='yes' hash='e3f87b52dd81547b' id='type-id-485'/>
    <reference-type-def kind='lvalue' type-id='type-id-485' size-in-bits='64' hash='3c352768348ce69b' id='type-id-486'/>
    <pointer-type-def type-id='type-id-485' size-in-bits='64' hash='3477d686405267b2' id='type-id-487'/>
    <qualified-type-def type-id='type-id-487' const='yes' hash='75e174765af8e824' id='type-id-488'/>
    <pointer-type-def type-id='type-id-488' size-in-bits='64' hash='19fe589c5c5a8cd4' id='type-id-489'/>
    <qualified-type-def type-id='type-id-490' const='yes' hash='a07de4c8696556ff' id='type-id-491'/>
    <qualified-type-def type-id='type-id-186' const='yes' hash='86827e66a8bd4e2d' id='type-id-492'/>
    <qualified-type-def type-id='type-id-236' const='yes' hash='18782c365e5b3732' id='type-id-493'/>
    <reference-type-def kind='lvalue' type-id='type-id-493' size-in-bits='64' hash='c1a2c2d06c5e591e' id='type-id-494'/>
    <qualified-type-def type-id='type-id-495' const='yes' hash='0fe3b036ef45da0d' id='type-id-496'/>
    <reference-type-def kind='lvalue' type-id='type-id-160' size-in-bits='64' hash='2c59108f0fd812ce' id='type-id-497'/>
    <qualified-type-def type-id='type-id-161' const='yes' hash='4280ffa5775babbc' id='type-id-498'/>
    <reference-type-def kind='lvalue' type-id='type-id-498' size-in-bits='64' hash='ca48e0c6b7419d86' id='type-id-499'/>
    <pointer-type-def type-id='type-id-262' size-in-bits='64' hash='7d5bf80d5b25efb1' id='type-id-500'/>
    <pointer-type-def type-id='type-id-12' size-in-bits='64' hash='3fd83b2c14ae2f2f' id='type-id-501'/>
    <pointer-type-def type-id='type-id-459' size-in-bits='64' hash='de28253939419809' id='type-id-502'/>
    <qualified-type-def type-id='type-id-170' const='yes' hash='277400705582a96c' id='type-id-503'/>
    <reference-type-def kind='lvalue' type-id='type-id-462' size-in-bits='64' hash='32736e0072e3a9dd' id='type-id-504'/>
    <reference-type-def kind='rvalue' type-id='type-id-462' size-in-bits='64' hash='6c4f1f75a4c19855' id='type-id-505'/>
    <pointer-type-def type-id='type-id-462' size-in-bits='64' hash='ce649347fd149db7' id='type-id-506'/>
    <pointer-type-def type-id='type-id-507' size-in-bits='64' hash='9d029584a1ffef40' id='type-id-508'/>
    <reference-type-def kind='lvalue' type-id='type-id-466' size-in-bits='64' hash='dce7c83b7dca5265' id='type-id-509'/>
    <pointer-type-def type-id='type-id-466' size-in-bits='64' hash='0eeadcf9df869442' id='type-id-510'/>
    <pointer-type-def type-id='type-id-471' size-in-bits='64' hash='5a85ba43383843cf' id='type-id-511'/>
    <pointer-type-def type-id='type-id-474' size-in-bits='64' hash='a4c72a099793bc6d' id='type-id-512'/>
    <pointer-type-def type-id='type-id-478' size-in-bits='64' hash='2304ffdef3af1c55' id='type-id-513'/>
    <pointer-type-def type-id='type-id-484' size-in-bits='64' hash='7d4ea9dc4c8b4efe' id='type-id-514'/>
    <pointer-type-def type-id='type-id-515' size-in-bits='64' hash='8309fa98c654ee6c' id='type-id-516'/>
    <reference-type-def kind='rvalue' type-id='type-id-517' size-in-bits='64' hash='4e7b8b4e7974a38d' id='type-id-518'/>
    <reference-type-def kind='rvalue' type-id='type-id-519' size-in-bits='64' hash='3a32f822efd20fd6#2' id='type-id-520'/>
    <reference-type-def kind='lvalue' type-id='type-id-236' size-in-bits='64' hash='ff0c9cda7f48b949' id='type-id-521'/>
    <reference-type-def kind='lvalue' type-id='type-id-29' size-in-bits='64' hash='fb592a4752ed7557' id='type-id-522'/>
    <reference-type-def kind='lvalue' type-id='type-id-65' size-in-bits='64' hash='9cc129f53f55fb86' id='type-id-523'/>
    <qualified-type-def type-id='type-id-181' const='yes' hash='e64ea2c7ef82bdb6' id='type-id-524'/>
    <reference-type-def kind='lvalue' type-id='type-id-524' size-in-bits='64' hash='813162f865b6ca89' id='type-id-525'/>
    <qualified-type-def type-id='type-id-526' const='yes' id='type-id-527'/>
    <reference-type-def kind='lvalue' type-id='type-id-527' size-in-bits='64' id='type-id-528'/>
    <qualified-type-def type-id='type-id-529' const='yes' id='type-id-530'/>
    <reference-type-def kind='lvalue' type-id='type-id-530' size-in-bits='64' id='type-id-531'/>
    <qualified-type-def type-id='type-id-532' const='yes' id='type-id-533'/>
    <reference-type-def kind='lvalue' type-id='type-id-533' size-in-bits='64' id='type-id-534'/>
    <qualified-type-def type-id='type-id-535' const='yes' id='type-id-536'/>
    <pointer-type-def type-id='type-id-536' size-in-bits='64' id='type-id-537'/>
    <pointer-type-def type-id='type-id-537' size-in-bits='64' id='type-id-538'/>
    <namespace-decl name='std'>
      <class-decl name='allocator&lt;wchar_t&gt;' visibility='default' size-in-bits='8' filepath='/usr/include/c++/4.9/bits/allocator.h' line='92' column='1' hash='f7c491af8b46e728' id='type-id-459'>
        <base-class access='public' layout-offset-in-bits='0' type-id='type-id-274'/>
        <member-type access='public'>
          <typedef-decl name='const_reference' type-id='type-id-497' size-in-bits='64' filepath='/usr/include/c++/4.9/bits/allocator.h' line='100' column='1' hash='2c59108f0fd812ce' id='type-id-539'/>
        </member-type>
        <member-type access='public'>
          <typedef-decl name='reference' type-id='type-id-523' size-in-bits='64' filepath='/usr/include/c++/4.9/bits/allocator.h' line='99' column='1' hash='9cc129f53f55fb86' id='type-id-540'/>
        </member-type>
        <member-type access='public'>
          <typedef-decl name='size_type' type-id='type-id-186' size-in-bits='64' filepath='/usr/include/c++/4.9/bits/allocator.h' line='95' column='1' hash='8fdc5eea2983a729' id='type-id-541'/>
        </member-type>
      </class-decl>
      <class-decl name='basic_string&lt;wchar_t, std::char_traits&lt;wchar_t&gt;, std::allocator&lt;wchar_t&gt; &gt;' visibility='default' size-in-bits='64' filepath='/usr/include/c++/4.9/bits/basic_string.h' line='112' column='1' hash='024625e2e4735e38' id='type-id-462'>
        <member-type access='private'>
          <class-decl name='_Alloc_hider' is-struct='yes' visibility='default' size-in-bits='64' filepath='/usr/include/c++/4.9/bits/basic_string.h' line='272' column='1' hash='994cc6b359c0ed7f' id='type-id-507'>
            <base-class access='public' layout-offset-in-bits='0' type-id='type-id-459'/>
            <data-member access='public' layout-offset-in-bits='0'>
              <var-decl name='_M_p' type-id='type-id-181' visibility='default' filepath='/usr/include/c++/4.9/bits/basic_string.h' line='277' column='1'/>
            </data-member>
          </class-decl>
        </member-type>
        <member-type access='private'>
          <class-decl name='_Rep' is-struct='yes' visibility='default' size-in-bits='192' filepath='/usr/include/c++/4.9/bits/basic_string.h' line='155' column='1' hash='1100d7022e36b961' id='type-id-466'>
            <base-class access='public' layout-offset-in-bits='0' type-id='type-id-542'/>
          </class-decl>
        </member-type>
        <member-type access='private'>
          <class-decl name='_Rep_base' is-struct='yes' visibility='default' size-in-bits='192' filepath='/usr/include/c++/4.9/bits/basic_string.h' line='148' column='1' hash='ef64d4b91b5de2fe' id='type-id-542'>
            <data-member access='public' layout-offset-in-bits='0'>
              <var-decl name='_M_length' type-id='type-id-469' visibility='default' filepath='/usr/include/c++/4.9/bits/basic_string.h' line='150' column='1'/>
            </data-member>
            <data-member access='public' layout-offset-in-bits='64'>
              <var-decl name='_M_capacity' type-id='type-id-469' visibility='default' filepath='/usr/include/c++/4.9/bits/basic_string.h' line='151' column='1'/>
            </data-member>
            <data-member access='public' layout-offset-in-bits='128'>
              <var-decl name='_M_refcount' type-id='type-id-46' visibility='default' filepath='/usr/include/c++/4.9/bits/basic_string.h' line='152' column='1'/>
            </data-member>
          </class-decl>
        </member-type>
        <member-type access='public'>
          <typedef-decl name='allocator_type' type-id='type-id-459' size-in-bits='8' filepath='/usr/include/c++/4.9/bits/basic_string.h' line='120' column='1' id='type-id-543'/>
        </member-type>
        <member-type access='public'>
          <typedef-decl name='const_iterator' type-id='type-id-268' size-in-bits='64' filepath='/usr/include/c++/4.9/bits/basic_string.h' line='129' column='1' id='type-id-544'/>
        </member-type>
        <member-type access='public'>
          <typedef-decl name='const_reference' type-id='type-id-539' size-in-bits='64' filepath='/usr/include/c++/4.9/bits/basic_string.h' line='124' column='1' hash='2c59108f0fd812ce' id='type-id-545'/>
        </member-type>
        <member-type access='public'>
          <typedef-decl name='iterator' type-id='type-id-271' size-in-bits='64' filepath='/usr/include/c++/4.9/bits/basic_string.h' line='127' column='1' id='type-id-546'/>
        </member-type>
        <member-type access='public'>
          <typedef-decl name='reference' type-id='type-id-540' size-in-bits='64' filepath='/usr/include/c++/4.9/bits/basic_string.h' line='123' column='1' hash='9cc129f53f55fb86' id='type-id-547'/>
        </member-type>
        <member-type access='public'>
          <typedef-decl name='size_type' type-id='type-id-541' size-in-bits='64' filepath='/usr/include/c++/4.9/bits/basic_string.h' line='121' column='1' hash='8fdc5eea2983a729' id='type-id-469'/>
        </member-type>
        <member-type access='public'>
          <typedef-decl name='const_reverse_iterator' type-id='type-id-549' filepath='/usr/include/c++/4.9/bits/basic_string.h' line='130' column='1' id='type-id-548'/>
        </member-type>
        <member-type access='public'>
          <typedef-decl name='const_reverse_iterator' type-id='type-id-551' filepath='/usr/include/c++/4.9/bits/basic_string.h' line='130' column='1' id='type-id-550'/>
        </member-type>
        <member-type access='public'>
          <typedef-decl name='const_reverse_iterator' type-id='type-id-553' filepath='/usr/include/c++/4.9/bits/basic_string.h' line='130' column='1' id='type-id-552'/>
        </member-type>
        <member-type access='public'>
          <typedef-decl name='const_reverse_iterator' type-id='type-id-555' filepath='/usr/include/c++/4.9/bits/basic_string.h' line='130' column='1' id='type-id-554'/>
        </member-type>
        <member-type access='public'>
          <typedef-decl name='reverse_iterator' type-id='type-id-557' filepath='/usr/include/c++/4.9/bits/basic_string.h' line='131' column='1' id='type-id-556'/>
        </member-type>
        <member-type access='public'>
          <typedef-decl name='reverse_iterator' type-id='type-id-559' filepath='/usr/include/c++/4.9/bits/basic_string.h' line='131' column='1' id='type-id-558'/>
        </member-type>
        <member-type access='public'>
          <typedef-decl name='reverse_iterator' type-id='type-id-561' filepath='/usr/include/c++/4.9/bits/basic_string.h' line='131' column='1' id='type-id-560'/>
        </member-type>
        <member-type access='public'>
          <typedef-decl name='reverse_iterator' type-id='type-id-563' filepath='/usr/include/c++/4.9/bits/basic_string.h' line='131' column='1' id='type-id-562'/>
        </member-type>
        <data-member access='private' layout-offset-in-bits='0'>
          <var-decl name='_M_dataplus' type-id='type-id-507' visibility='default' filepath='/usr/include/c++/4.9/bits/basic_string.h' line='289' column='1'/>
        </data-member>
        <member-function access='private' const='yes'>
          <function-decl name='_M_iend' mangled-name='_ZNKSbIwSt11char_traitsIwESaIwEE7_M_iendEv' filepath='/usr/include/c++/4.9/bits/basic_string.h' line='310' column='1' visibility='default' binding='global' size-in-bits='64' hash='7f32ffea222edbe7'>
            <parameter type-id='type-id-465' is-artificial='yes'/>
            <return type-id='type-id-546'/>
          </function-decl>
        </member-function>
        <member-function access='public' const='yes'>
          <function-decl name='begin' mangled-name='_ZNKSbIwSt11char_traitsIwESaIwEE5beginEv' filepath='/usr/include/c++/4.9/bits/basic_string.h' line='625' column='1' visibility='default' binding='global' size-in-bits='64' hash='7f32ffea222edbe7'>
            <parameter type-id='type-id-465' is-artificial='yes'/>
            <return type-id='type-id-544'/>
          </function-decl>
        </member-function>
        <member-function access='public' const='yes'>
          <function-decl name='size' mangled-name='_ZNKSbIwSt11char_traitsIwESaIwEE4sizeEv' filepath='/usr/include/c++/4.9/bits/basic_string.h' line='724' column='1' visibility='default' binding='global' size-in-bits='64' hash='e0055d99adb0e173'>
            <parameter type-id='type-id-465' is-artificial='yes'/>
            <return type-id='type-id-469'/>
          </function-decl>
        </member-function>
        <member-function access='public'>
          <function-decl name='operator[]' mangled-name='_ZNSbIwSt11char_traitsIwESaIwEEixEm' filepath='/usr/include/c++/4.9/bits/basic_string.h' line='853' column='1' visibility='default' binding='global' size-in-bits='64' hash='ea04f539ea7c6de7'>
            <parameter type-id='type-id-506' is-artificial='yes'/>
            <parameter type-id='type-id-469'/>
            <return type-id='type-id-547'/>
          </function-decl>
        </member-function>
        <member-function access='public'>
          <function-decl name='replace' mangled-name='_ZNSbIwSt11char_traitsIwESaIwEE7replaceEN9__gnu_cxx17__normal_iteratorIPwS2_EES6_S5_S5_' filepath='/usr/include/c++/4.9/bits/basic_string.h' line='1654' column='1' visibility='default' binding='global' size-in-bits='64' hash='11f36564200e1d58'>
            <parameter type-id='type-id-506' is-artificial='yes'/>
            <parameter type-id='type-id-546'/>
            <parameter type-id='type-id-546'/>
            <parameter type-id='type-id-181'/>
            <parameter type-id='type-id-181'/>
            <return type-id='type-id-504'/>
          </function-decl>
        </member-function>
        <member-function access='public'>
          <function-decl name='append&lt;wchar_t*&gt;' mangled-name='_ZNSbIwSt11char_traitsIwESaIwEE6appendIPwEERS2_T_S6_' filepath='/usr/include/c++/4.9/bits/basic_string.h' line='1061' column='1' visibility='default' binding='global' size-in-bits='64' elf-symbol-id='_ZNSbIwSt11char_traitsIwESaIwEE6appendIPwEERS2_T_S6_' hash='11f36564200e1d58'>
            <parameter type-id='type-id-506' is-artificial='yes'/>
            <parameter type-id='type-id-181'/>
            <parameter type-id='type-id-181'/>
            <return type-id='type-id-504'/>
          </function-decl>
        </member-function>
      </class-decl>
      <class-decl name='initializer_list&lt;wchar_t&gt;' visibility='default' size-in-bits='128' filepath='/usr/include/c++/4.9/initializer_list' line='47' column='1' hash='7c347fce01fe9fca' id='type-id-471'>
        <member-type access='public'>
          <typedef-decl name='const_iterator' type-id='type-id-161' size-in-bits='64' filepath='/usr/include/c++/4.9/initializer_list' line='55' column='1' hash='317089067e76910a' id='type-id-564'/>
        </member-type>
        <member-type access='public'>
          <typedef-decl name='iterator' type-id='type-id-161' size-in-bits='64' filepath='/usr/include/c++/4.9/initializer_list' line='54' column='1' hash='317089067e76910a' id='type-id-565'/>
        </member-type>
        <member-type access='public'>
          <typedef-decl name='size_type' type-id='type-id-186' size-in-bits='64' filepath='/usr/include/c++/4.9/initializer_list' line='53' column='1' hash='8fdc5eea2983a729' id='type-id-566'/>
        </member-type>
        <data-member access='private' layout-offset-in-bits='0'>
          <var-decl name='_M_array' type-id='type-id-565' visibility='default' filepath='/usr/include/c++/4.9/initializer_list' line='58' column='1'/>
        </data-member>
        <data-member access='private' layout-offset-in-bits='64'>
          <var-decl name='_M_len' type-id='type-id-566' visibility='default' filepath='/usr/include/c++/4.9/initializer_list' line='59' column='1'/>
        </data-member>
      </class-decl>
      <class-decl name='locale' visibility='default' size-in-bits='64' filepath='/usr/include/c++/4.9/bits/locale_classes.h' line='62' column='1' hash='6b34eb9c7360bd54' id='type-id-474'>
        <member-type access='public'>
          <class-decl name='_Impl' visibility='default' size-in-bits='320' filepath='/usr/include/c++/4.9/bits/locale_classes.h' line='475' column='1' hash='244aadea1d2ff3f4' id='type-id-478'>
            <data-member access='private' layout-offset-in-bits='0'>
              <var-decl name='_M_refcount' type-id='type-id-46' visibility='default' filepath='/usr/include/c++/4.9/bits/locale_classes.h' line='495' column='1'/>
            </data-member>
            <data-member access='private' layout-offset-in-bits='64'>
              <var-decl name='_M_facets' type-id='type-id-538' visibility='default' filepath='/usr/include/c++/4.9/bits/locale_classes.h' line='496' column='1'/>
            </data-member>
            <data-member access='private' layout-offset-in-bits='128'>
              <var-decl name='_M_facets_size' type-id='type-id-186' visibility='default' filepath='/usr/include/c++/4.9/bits/locale_classes.h' line='497' column='1'/>
            </data-member>
            <data-member access='private' layout-offset-in-bits='192'>
              <var-decl name='_M_caches' type-id='type-id-538' visibility='default' filepath='/usr/include/c++/4.9/bits/locale_classes.h' line='498' column='1'/>
            </data-member>
            <data-member access='private' layout-offset-in-bits='256'>
              <var-decl name='_M_names' type-id='type-id-91' visibility='default' filepath='/usr/include/c++/4.9/bits/locale_classes.h' line='499' column='1'/>
            </data-member>
          </class-decl>
        </member-type>
        <member-type access='public'>
          <class-decl name='id' visibility='default' size-in-bits='64' filepath='/usr/include/c++/4.9/bits/locale_classes.h' line='436' column='1' hash='3f176b0c757e6c6c' id='type-id-484'>
            <data-member access='private' layout-offset-in-bits='0'>
              <var-decl name='_M_index' type-id='type-id-186' visibility='default' filepath='/usr/include/c++/4.9/bits/locale_classes.h' line='453' column='1'/>
            </data-member>
          </class-decl>
        </member-type>
        <member-type access='public'>
          <typedef-decl name='category' type-id='type-id-12' size-in-bits='32' filepath='/usr/include/c++/4.9/bits/locale_classes.h' line='67' column='1' hash='09d17c08f594edc7' id='type-id-482'/>
        </member-type>
        <member-type access='private'>
          <class-decl name='facet' visibility='default' is-declaration-only='yes' id='type-id-535'/>
        </member-type>
        <data-member access='private' layout-offset-in-bits='0'>
          <var-decl name='_M_impl' type-id='type-id-513' visibility='default' filepath='/usr/include/c++/4.9/bits/locale_classes.h' line='280' column='1'/>
        </data-member>
        <member-function access='public'>
          <function-decl name='operator=' mangled-name='_ZNSt6localeaSERKS_' filepath='/usr/include/c++/4.9/bits/locale_classes.h' line='192' column='1' visibility='default' binding='global' size-in-bits='64' hash='ba8d2cd652ffdf24'>
            <parameter type-id='type-id-512' is-artificial='yes'/>
            <parameter type-id='type-id-476'/>
            <return type-id='type-id-476'/>
          </function-decl>
        </member-function>
      </class-decl>
      <class-decl name='mersenne_twister_engine&lt;long unsigned int, 32ul, 624ul, 397ul, 31ul, 2567483615ul, 11ul, 4294967295ul, 7ul, 2636928640ul, 15ul, 4022730752ul, 18ul, 1812433253ul&gt;' visibility='default' size-in-bits='40000' filepath='/usr/include/c++/4.9/bits/random.h' line='451' column='1' hash='da56d075605655b0' id='type-id-515'>
        <member-type access='public'>
          <typedef-decl name='result_type' type-id='type-id-58' size-in-bits='64' filepath='/usr/include/c++/4.9/bits/random.h' line='482' column='1' hash='8fdc5eea2983a729' id='type-id-490'/>
        </member-type>
        <data-member access='public' static='yes'>
          <var-decl name='state_size' type-id='type-id-492' mangled-name='_ZNSt23mersenne_twister_engineImLm32ELm624ELm397ELm31ELm2567483615ELm11ELm4294967295ELm7ELm2636928640ELm15ELm4022730752ELm18ELm1812433253EE10state_sizeE' visibility='default' filepath='/usr/include/c++/4.9/bits/random.h' line='486' column='1'/>
        </data-member>
        <data-member access='private' layout-offset-in-bits='0'>
          <var-decl name='_M_x' type-id='type-id-266' visibility='default' filepath='/usr/include/c++/4.9/bits/random.h' line='621' column='1'/>
        </data-member>
        <data-member access='private' layout-offset-in-bits='39936'>
          <var-decl name='_M_p' type-id='type-id-186' visibility='default' filepath='/usr/include/c++/4.9/bits/random.h' line='622' column='1'/>
        </data-member>
      </class-decl>
      <class-decl name='__false_type' is-struct='yes' visibility='default' size-in-bits='8' filepath='/usr/include/c++/4.9/bits/cpp_type_traits.h' line='83' column='1' hash='b08b4c7c02bac847' id='type-id-217'/>
      <class-decl name='bidirectional_iterator_tag' is-struct='yes' visibility='default' size-in-bits='8' filepath='/usr/include/c++/4.9/bits/stl_iterator_base_types.h' line='99' column='1' hash='b81b3b2f07587e8f' id='type-id-567'>
        <base-class access='public' layout-offset-in-bits='0' type-id='type-id-218'/>
      </class-decl>
      <class-decl name='forward_iterator_tag' is-struct='yes' visibility='default' size-in-bits='8' filepath='/usr/include/c++/4.9/bits/stl_iterator_base_types.h' line='95' column='1' hash='1ce091bb5df7890a' id='type-id-218'>
        <base-class access='public' layout-offset-in-bits='0' type-id='type-id-568'/>
      </class-decl>
      <class-decl name='input_iterator_tag' is-struct='yes' visibility='default' size-in-bits='8' filepath='/usr/include/c++/4.9/bits/stl_iterator_base_types.h' line='89' column='1' hash='1ba5e1fb131a0fbd' id='type-id-568'/>
      <class-decl name='iterator_traits&lt;wchar_t const*&gt;' is-struct='yes' visibility='default' size-in-bits='8' filepath='/usr/include/c++/4.9/bits/stl_iterator_base_types.h' line='186' column='1' hash='08b9fb0338fc5e57' id='type-id-569'>
        <member-type access='public'>
          <typedef-decl name='difference_type' type-id='type-id-226' size-in-bits='64' filepath='/usr/include/c++/4.9/bits/stl_iterator_base_types.h' line='190' column='1' hash='b119fe0931d2ee10' id='type-id-570'/>
        </member-type>
        <member-type access='public'>
          <typedef-decl name='pointer' type-id='type-id-161' size-in-bits='64' filepath='/usr/include/c++/4.9/bits/stl_iterator_base_types.h' line='191' column='1' hash='317089067e76910a' id='type-id-571'/>
        </member-type>
        <member-type access='public'>
          <typedef-decl name='reference' type-id='type-id-497' size-in-bits='64' filepath='/usr/include/c++/4.9/bits/stl_iterator_base_types.h' line='192' column='1' hash='2c59108f0fd812ce' id='type-id-572'/>
        </member-type>
      </class-decl>
      <class-decl name='iterator_traits&lt;wchar_t*&gt;' is-struct='yes' visibility='default' size-in-bits='8' filepath='/usr/include/c++/4.9/bits/stl_iterator_base_types.h' line='175' column='1' hash='92018ed3f4b0f525' id='type-id-573'>
        <member-type access='public'>
          <typedef-decl name='difference_type' type-id='type-id-226' size-in-bits='64' filepath='/usr/include/c++/4.9/bits/stl_iterator_base_types.h' line='179' column='1' hash='b119fe0931d2ee10' id='type-id-574'/>
        </member-type>
        <member-type access='public'>
          <typedef-decl name='pointer' type-id='type-id-181' size-in-bits='64' filepath='/usr/include/c++/4.9/bits/stl_iterator_base_types.h' line='180' column='1' hash='fb9a8c973ae04ed8' id='type-id-575'/>
        </member-type>
        <member-type access='public'>
          <typedef-decl name='reference' type-id='type-id-523' size-in-bits='64' filepath='/usr/include/c++/4.9/bits/stl_iterator_base_types.h' line='181' column='1' hash='9cc129f53f55fb86' id='type-id-576'/>
        </member-type>
      </class-decl>
      <class-decl name='random_access_iterator_tag' is-struct='yes' visibility='default' size-in-bits='8' filepath='/usr/include/c++/4.9/bits/stl_iterator_base_types.h' line='103' column='1' hash='2cf237ece7bebf66' id='type-id-228'>
        <base-class access='public' layout-offset-in-bits='0' type-id='type-id-567'/>
      </class-decl>
      <class-decl name='remove_reference&lt;boost::filesystem::detail::dir_itr_imp*&amp;&gt;' is-struct='yes' visibility='default' size-in-bits='8' filepath='/usr/include/c++/4.9/type_traits' line='1504' column='1' hash='6b8c2a99af96f167' id='type-id-577'>
        <member-type access='public'>
          <typedef-decl name='type' type-id='type-id-303' size-in-bits='64' filepath='/usr/include/c++/4.9/type_traits' line='1505' column='1' hash='9e4c6ed13ec05836' id='type-id-517'/>
        </member-type>
      </class-decl>
      <class-decl name='remove_reference&lt;boost::filesystem::filesystem_error::m_imp*&amp;&gt;' is-struct='yes' visibility='default' size-in-bits='8' filepath='/usr/include/c++/4.9/type_traits' line='1504' column='1' hash='2f040eeb3074ec78' id='type-id-578'>
        <member-type access='public'>
          <typedef-decl name='type' type-id='type-id-322' size-in-bits='64' filepath='/usr/include/c++/4.9/type_traits' line='1505' column='1' hash='d16cc64bab66b9f1' id='type-id-519'/>
        </member-type>
      </class-decl>
      <typedef-decl name='wstring' type-id='type-id-462' size-in-bits='64' filepath='/usr/include/c++/4.9/bits/stringfwd.h' line='68' column='1' id='type-id-495'/>
      <class-decl name='codecvt&lt;wchar_t, char, __mbstate_t&gt;' visibility='default' is-declaration-only='yes' id='type-id-579'/>
      <class-decl name='reverse_iterator&lt;__gnu_cxx::__normal_iterator&lt;char const*, std::basic_string&lt;char, std::char_traits&lt;char&gt;, std::allocator&lt;char&gt; &gt; &gt; &gt;' visibility='default' is-declaration-only='yes' id='type-id-196'/>
      <class-decl name='reverse_iterator&lt;__gnu_cxx::__normal_iterator&lt;char*, std::basic_string&lt;char, std::char_traits&lt;char&gt;, std::allocator&lt;char&gt; &gt; &gt; &gt;' visibility='default' is-declaration-only='yes' id='type-id-208'/>
      <class-decl name='reverse_iterator&lt;__gnu_cxx::__normal_iterator&lt;wchar_t const*, std::basic_string&lt;wchar_t, std::char_traits&lt;wchar_t&gt;, std::allocator&lt;wchar_t&gt; &gt; &gt; &gt;' visibility='default' is-declaration-only='yes' id='type-id-549'/>
      <class-decl name='reverse_iterator&lt;__gnu_cxx::__normal_iterator&lt;wchar_t*, std::basic_string&lt;wchar_t, std::char_traits&lt;wchar_t&gt;, std::allocator&lt;wchar_t&gt; &gt; &gt; &gt;' visibility='default' is-declaration-only='yes' id='type-id-557'/>
      <class-decl name='runtime_error' visibility='default' is-declaration-only='yes' id='type-id-580'/>
      <class-decl name='type_info' visibility='default' is-declaration-only='yes' id='type-id-581'/>
      <function-decl name='operator==&lt;char&gt;' mangled-name='_ZSteqIcEbRKSaIT_ES3_' filepath='/usr/include/c++/4.9/bits/allocator.h' line='133' column='1' visibility='default' binding='global' size-in-bits='64' elf-symbol-id='_ZSteqIcEbRKSaIT_ES3_' hash='6206b12123351b2b'>
        <parameter type-id='type-id-137'/>
        <parameter type-id='type-id-137'/>
        <return type-id='type-id-1'/>
      </function-decl>
      <function-decl name='move&lt;boost::filesystem::detail::dir_itr_imp*&amp;&gt;' mangled-name='_ZSt4moveIRPN5boost10filesystem6detail11dir_itr_impEEONSt16remove_referenceIT_E4typeEOS7_' filepath='/usr/include/c++/4.9/bits/move.h' line='101' column='1' visibility='default' binding='global' size-in-bits='64' elf-symbol-id='_ZSt4moveIRPN5boost10filesystem6detail11dir_itr_impEEONSt16remove_referenceIT_E4typeEOS7_' hash='aead9990a12ef2a6'>
        <parameter type-id='type-id-305'/>
        <return type-id='type-id-518'/>
      </function-decl>
      <function-decl name='move&lt;boost::filesystem::filesystem_error::m_imp*&amp;&gt;' mangled-name='_ZSt4moveIRPN5boost10filesystem16filesystem_error5m_impEEONSt16remove_referenceIT_E4typeEOS7_' filepath='/usr/include/c++/4.9/bits/move.h' line='101' column='1' visibility='default' binding='global' size-in-bits='64' elf-symbol-id='_ZSt4moveIRPN5boost10filesystem16filesystem_error5m_impEEONSt16remove_referenceIT_E4typeEOS7_' hash='8e1276aa610c823d'>
        <parameter type-id='type-id-323'/>
        <return type-id='type-id-520'/>
      </function-decl>
      <function-decl name='swap&lt;boost::filesystem::detail::dir_itr_imp*&gt;' mangled-name='_ZSt4swapIPN5boost10filesystem6detail11dir_itr_impEEvRT_S6_' filepath='/usr/include/c++/4.9/bits/move.h' line='166' column='1' visibility='default' binding='global' size-in-bits='64' elf-symbol-id='_ZSt4swapIPN5boost10filesystem6detail11dir_itr_impEEvRT_S6_' hash='0ccf57b27ec0c186'>
        <parameter type-id='type-id-305'/>
        <parameter type-id='type-id-305'/>
        <return type-id='type-id-47'/>
      </function-decl>
      <function-decl name='swap&lt;boost::filesystem::filesystem_error::m_imp*&gt;' mangled-name='_ZSt4swapIPN5boost10filesystem16filesystem_error5m_impEEvRT_S6_' filepath='/usr/include/c++/4.9/bits/move.h' line='166' column='1' visibility='default' binding='global' size-in-bits='64' elf-symbol-id='_ZSt4swapIPN5boost10filesystem16filesystem_error5m_impEEvRT_S6_' hash='73f6a78c1f5b7c21'>
        <parameter type-id='type-id-323'/>
        <parameter type-id='type-id-323'/>
        <return type-id='type-id-47'/>
      </function-decl>
      <function-decl name='__distance&lt;char*&gt;' mangled-name='_ZSt10__distanceIPcENSt15iterator_traitsIT_E15difference_typeES2_S2_St26random_access_iterator_tag' filepath='/usr/include/c++/4.9/bits/stl_iterator_base_funcs.h' line='90' column='1' visibility='default' binding='global' size-in-bits='64' elf-symbol-id='_ZSt10__distanceIPcENSt15iterator_traitsIT_E15difference_typeES2_S2_St26random_access_iterator_tag' hash='803f4010b6c6d6fa'>
        <parameter type-id='type-id-23'/>
        <parameter type-id='type-id-23'/>
        <parameter type-id='type-id-228'/>
        <return type-id='type-id-232'/>
      </function-decl>
      <function-decl name='distance&lt;char*&gt;' mangled-name='_ZSt8distanceIPcENSt15iterator_traitsIT_E15difference_typeES2_S2_' filepath='/usr/include/c++/4.9/bits/stl_iterator_base_funcs.h' line='114' column='1' visibility='default' binding='global' size-in-bits='64' elf-symbol-id='_ZSt8distanceIPcENSt15iterator_traitsIT_E15difference_typeES2_S2_' hash='803f4010b6c6d6fa'>
        <parameter type-id='type-id-23'/>
        <parameter type-id='type-id-23'/>
        <return type-id='type-id-232'/>
      </function-decl>
      <function-decl name='__iterator_category&lt;char*&gt;' mangled-name='_ZSt19__iterator_categoryIPcENSt15iterator_traitsIT_E17iterator_categoryERKS2_' filepath='/usr/include/c++/4.9/bits/stl_iterator_base_types.h' line='201' column='1' visibility='default' binding='global' size-in-bits='64' elf-symbol-id='_ZSt19__iterator_categoryIPcENSt15iterator_traitsIT_E17iterator_categoryERKS2_' hash='1d97c1e7f5b953b1'>
        <parameter type-id='type-id-90'/>
        <return type-id='type-id-233'/>
      </function-decl>
    </namespace-decl>
    <namespace-decl name='__gnu_cxx'>
      <class-decl name='__normal_iterator&lt;wchar_t const*, std::basic_string&lt;wchar_t, std::char_traits&lt;wchar_t&gt;, std::allocator&lt;wchar_t&gt; &gt; &gt;' visibility='default' size-in-bits='64' filepath='/usr/include/c++/4.9/bits/stl_iterator.h' line='709' column='1' hash='d9e6270cb5224910' id='type-id-268'>
        <member-type access='public'>
          <typedef-decl name='difference_type' type-id='type-id-570' size-in-bits='64' filepath='/usr/include/c++/4.9/bits/stl_iterator.h' line='720' column='1' hash='b119fe0931d2ee10' id='type-id-582'/>
        </member-type>
        <member-type access='public'>
          <typedef-decl name='pointer' type-id='type-id-571' size-in-bits='64' filepath='/usr/include/c++/4.9/bits/stl_iterator.h' line='722' column='1' hash='317089067e76910a' id='type-id-583'/>
        </member-type>
        <member-type access='public'>
          <typedef-decl name='reference' type-id='type-id-572' size-in-bits='64' filepath='/usr/include/c++/4.9/bits/stl_iterator.h' line='721' column='1' hash='2c59108f0fd812ce' id='type-id-584'/>
        </member-type>
        <data-member access='protected' layout-offset-in-bits='0'>
          <var-decl name='_M_current' type-id='type-id-161' visibility='default' filepath='/usr/include/c++/4.9/bits/stl_iterator.h' line='712' column='1'/>
        </data-member>
        <member-function access='public' const='yes'>
          <function-decl name='operator*' mangled-name='_ZNK9__gnu_cxx17__normal_iteratorIPKwSbIwSt11char_traitsIwESaIwEEEdeEv' filepath='/usr/include/c++/4.9/bits/stl_iterator.h' line='741' column='1' visibility='default' binding='global' size-in-bits='64' elf-symbol-id='_ZNK9__gnu_cxx17__normal_iteratorIPKwSbIwSt11char_traitsIwESaIwEEEdeEv' hash='dc673392845f1b71'>
            <parameter type-id='type-id-366' is-artificial='yes'/>
            <return type-id='type-id-584'/>
          </function-decl>
        </member-function>
      </class-decl>
      <class-decl name='__normal_iterator&lt;wchar_t*, std::basic_string&lt;wchar_t, std::char_traits&lt;wchar_t&gt;, std::allocator&lt;wchar_t&gt; &gt; &gt;' visibility='default' size-in-bits='64' filepath='/usr/include/c++/4.9/bits/stl_iterator.h' line='709' column='1' hash='358cc5e60d106c02' id='type-id-271'>
        <member-type access='public'>
          <typedef-decl name='difference_type' type-id='type-id-574' size-in-bits='64' filepath='/usr/include/c++/4.9/bits/stl_iterator.h' line='720' column='1' hash='b119fe0931d2ee10' id='type-id-585'/>
        </member-type>
        <member-type access='public'>
          <typedef-decl name='pointer' type-id='type-id-575' size-in-bits='64' filepath='/usr/include/c++/4.9/bits/stl_iterator.h' line='722' column='1' hash='fb9a8c973ae04ed8' id='type-id-586'/>
        </member-type>
        <member-type access='public'>
          <typedef-decl name='reference' type-id='type-id-576' size-in-bits='64' filepath='/usr/include/c++/4.9/bits/stl_iterator.h' line='721' column='1' hash='9cc129f53f55fb86' id='type-id-587'/>
        </member-type>
        <data-member access='protected' layout-offset-in-bits='0'>
          <var-decl name='_M_current' type-id='type-id-181' visibility='default' filepath='/usr/include/c++/4.9/bits/stl_iterator.h' line='712' column='1'/>
        </data-member>
      </class-decl>
      <class-decl name='new_allocator&lt;wchar_t&gt;' visibility='default' size-in-bits='8' filepath='/usr/include/c++/4.9/ext/new_allocator.h' line='58' column='1' hash='799fb65b0f62dd0f' id='type-id-274'>
        <member-type access='public'>
          <typedef-decl name='const_pointer' type-id='type-id-161' size-in-bits='64' filepath='/usr/include/c++/4.9/ext/new_allocator.h' line='64' column='1' hash='317089067e76910a' id='type-id-588'/>
        </member-type>
        <member-type access='public'>
          <typedef-decl name='const_reference' type-id='type-id-497' size-in-bits='64' filepath='/usr/include/c++/4.9/ext/new_allocator.h' line='66' column='1' hash='2c59108f0fd812ce' id='type-id-589'/>
        </member-type>
        <member-type access='public'>
          <typedef-decl name='pointer' type-id='type-id-181' size-in-bits='64' filepath='/usr/include/c++/4.9/ext/new_allocator.h' line='63' column='1' hash='fb9a8c973ae04ed8' id='type-id-590'/>
        </member-type>
        <member-type access='public'>
          <typedef-decl name='reference' type-id='type-id-523' size-in-bits='64' filepath='/usr/include/c++/4.9/ext/new_allocator.h' line='65' column='1' hash='9cc129f53f55fb86' id='type-id-591'/>
        </member-type>
        <member-type access='public'>
          <typedef-decl name='size_type' type-id='type-id-186' size-in-bits='64' filepath='/usr/include/c++/4.9/ext/new_allocator.h' line='61' column='1' hash='8fdc5eea2983a729' id='type-id-592'/>
        </member-type>
      </class-decl>
      <function-decl name='__is_null_pointer&lt;char&gt;' mangled-name='_ZN9__gnu_cxx17__is_null_pointerIcEEbPT_' filepath='/usr/include/c++/4.9/ext/type_traits.h' line='150' column='1' visibility='default' binding='global' size-in-bits='64' elf-symbol-id='_ZN9__gnu_cxx17__is_null_pointerIcEEbPT_' hash='89739079b00eb892'>
        <parameter type-id='type-id-23'/>
        <return type-id='type-id-1'/>
      </function-decl>
    </namespace-decl>
    <function-decl name='memcmp' filepath='/usr/include/string.h' line='69' column='1' visibility='default' binding='global' size-in-bits='64' hash='b6a97d07f8261bc0'>
      <parameter type-id='type-id-29'/>
      <parameter type-id='type-id-29'/>
      <parameter type-id='type-id-30'/>
      <return type-id='type-id-12'/>
    </function-decl>
    <namespace-decl name='boost'>
      <class-decl name='iterator_core_access' visibility='default' size-in-bits='8' filepath='src/third_party/boost-1.56.0/boost/iterator/iterator_facade.hpp' line='469' column='1' hash='986bf4c95900e28a' id='type-id-334'>
        <member-function access='private' static='yes'>
          <function-decl name='equal&lt;boost::filesystem::directory_iterator, boost::filesystem::directory_iterator&gt;' mangled-name='_ZN5boost20iterator_core_access5equalINS_10filesystem18directory_iteratorES3_EEbRKT_RKT0_N4mpl_5bool_ILb1EEE' filepath='src/third_party/boost-1.56.0/boost/iterator/iterator_facade.hpp' line='530' column='1' visibility='default' binding='global' size-in-bits='64' elf-symbol-id='_ZN5boost20iterator_core_access5equalINS_10filesystem18directory_iteratorES3_EEbRKT_RKT0_N4mpl_5bool_ILb1EEE' hash='deb4f44f93b825ce'>
            <parameter type-id='type-id-394'/>
            <parameter type-id='type-id-394'/>
            <parameter type-id='type-id-593'/>
            <return type-id='type-id-1'/>
          </function-decl>
        </member-function>
        <member-function access='private' static='yes'>
          <function-decl name='increment&lt;boost::filesystem::directory_iterator&gt;' mangled-name='_ZN5boost20iterator_core_access9incrementINS_10filesystem18directory_iteratorEEEvRT_' filepath='src/third_party/boost-1.56.0/boost/iterator/iterator_facade.hpp' line='518' column='1' visibility='default' binding='global' size-in-bits='64' elf-symbol-id='_ZN5boost20iterator_core_access9incrementINS_10filesystem18directory_iteratorEEEvRT_' hash='169464b5613654c7'>
            <parameter type-id='type-id-311'/>
            <return type-id='type-id-47'/>
          </function-decl>
        </member-function>
        <member-function access='private' static='yes'>
          <function-decl name='dereference&lt;boost::filesystem::directory_iterator&gt;' mangled-name='_ZN5boost20iterator_core_access11dereferenceINS_10filesystem18directory_iteratorEEENT_9referenceERKS4_' filepath='src/third_party/boost-1.56.0/boost/iterator/iterator_facade.hpp' line='512' column='1' visibility='default' binding='global' size-in-bits='64' elf-symbol-id='_ZN5boost20iterator_core_access11dereferenceINS_10filesystem18directory_iteratorEEENT_9referenceERKS4_' hash='c78f5829ef4c7fba'>
            <parameter type-id='type-id-394'/>
            <return type-id='type-id-594'/>
          </function-decl>
        </member-function>
        <member-function access='private' static='yes'>
          <function-decl name='equal&lt;boost::filesystem::path::iterator, boost::filesystem::path::iterator&gt;' mangled-name='_ZN5boost20iterator_core_access5equalINS_10filesystem4path8iteratorES4_EEbRKT_RKT0_N4mpl_5bool_ILb1EEE' filepath='src/third_party/boost-1.56.0/boost/iterator/iterator_facade.hpp' line='530' column='1' visibility='default' binding='global' size-in-bits='64' elf-symbol-id='_ZN5boost20iterator_core_access5equalINS_10filesystem4path8iteratorES4_EEbRKT_RKT0_N4mpl_5bool_ILb1EEE' hash='d732a381829dd4c0'>
            <parameter type-id='type-id-408'/>
            <parameter type-id='type-id-408'/>
            <parameter type-id='type-id-593'/>
            <return type-id='type-id-1'/>
          </function-decl>
        </member-function>
        <member-function access='private' static='yes'>
          <function-decl name='increment&lt;boost::filesystem::path::iterator&gt;' mangled-name='_ZN5boost20iterator_core_access9incrementINS_10filesystem4path8iteratorEEEvRT_' filepath='src/third_party/boost-1.56.0/boost/iterator/iterator_facade.hpp' line='518' column='1' visibility='default' binding='global' size-in-bits='64' elf-symbol-id='_ZN5boost20iterator_core_access9incrementINS_10filesystem4path8iteratorEEEvRT_' hash='3752971c606a7f94'>
            <parameter type-id='type-id-329'/>
            <return type-id='type-id-47'/>
          </function-decl>
        </member-function>
        <member-function access='private' static='yes'>
          <function-decl name='dereference&lt;boost::filesystem::path::iterator&gt;' mangled-name='_ZN5boost20iterator_core_access11dereferenceINS_10filesystem4path8iteratorEEENT_9referenceERKS5_' filepath='src/third_party/boost-1.56.0/boost/iterator/iterator_facade.hpp' line='512' column='1' visibility='default' binding='global' size-in-bits='64' elf-symbol-id='_ZN5boost20iterator_core_access11dereferenceINS_10filesystem4path8iteratorEEENT_9referenceERKS5_' hash='a4dd72cee4574639'>
            <parameter type-id='type-id-408'/>
            <return type-id='type-id-595'/>
          </function-decl>
        </member-function>
        <member-function access='private' static='yes'>
          <function-decl name='decrement&lt;boost::filesystem::path::iterator&gt;' mangled-name='_ZN5boost20iterator_core_access9decrementINS_10filesystem4path8iteratorEEEvRT_' filepath='src/third_party/boost-1.56.0/boost/iterator/iterator_facade.hpp' line='524' column='1' visibility='default' binding='global' size-in-bits='64' elf-symbol-id='_ZN5boost20iterator_core_access9decrementINS_10filesystem4path8iteratorEEEvRT_' hash='3752971c606a7f94'>
            <parameter type-id='type-id-329'/>
            <return type-id='type-id-47'/>
          </function-decl>
        </member-function>
      </class-decl>
      <class-decl name='iterator_facade&lt;boost::filesystem::directory_iterator, boost::filesystem::directory_entry, boost::single_pass_traversal_tag, boost::filesystem::directory_entry&amp;, long int&gt;' visibility='default' size-in-bits='8' filepath='src/third_party/boost-1.56.0/boost/iterator/iterator_facade.hpp' line='592' column='1' hash='dc029aceff2d345b' id='type-id-336'>
        <member-type access='public'>
          <typedef-decl name='difference_type' type-id='type-id-14' size-in-bits='64' filepath='src/third_party/boost-1.56.0/boost/iterator/iterator_facade.hpp' line='631' column='1' hash='b119fe0931d2ee10' id='type-id-596'/>
        </member-type>
        <member-type access='public'>
          <typedef-decl name='pointer' type-id='type-id-598' size-in-bits='64' filepath='src/third_party/boost-1.56.0/boost/iterator/iterator_facade.hpp' line='633' column='1' hash='9f005300b25295c6' id='type-id-597'/>
        </member-type>
        <member-type access='public'>
          <typedef-decl name='reference' type-id='type-id-307' size-in-bits='64' filepath='src/third_party/boost-1.56.0/boost/iterator/iterator_facade.hpp' line='630' column='1' hash='3505fc958f4e553b' id='type-id-594'/>
        </member-type>
        <member-function access='public' const='yes'>
          <function-decl name='operator-&gt;' mangled-name='_ZNK5boost15iterator_facadeINS_10filesystem18directory_iteratorENS1_15directory_entryENS_25single_pass_traversal_tagERS3_lEptEv' filepath='src/third_party/boost-1.56.0/boost/iterator/iterator_facade.hpp' line='642' column='1' visibility='default' binding='global' size-in-bits='64' elf-symbol-id='_ZNK5boost15iterator_facadeINS_10filesystem18directory_iteratorENS1_15directory_entryENS_25single_pass_traversal_tagERS3_lEptEv' hash='db819fb993410dd1'>
            <parameter type-id='type-id-419' is-artificial='yes'/>
            <return type-id='type-id-597'/>
          </function-decl>
        </member-function>
        <member-function access='public'>
          <function-decl name='operator++' mangled-name='_ZN5boost15iterator_facadeINS_10filesystem18directory_iteratorENS1_15directory_entryENS_25single_pass_traversal_tagERS3_lEppEv' filepath='src/third_party/boost-1.56.0/boost/iterator/iterator_facade.hpp' line='658' column='1' visibility='default' binding='global' size-in-bits='64' elf-symbol-id='_ZN5boost15iterator_facadeINS_10filesystem18directory_iteratorENS1_15directory_entryENS_25single_pass_traversal_tagERS3_lEppEv' hash='169464b5613654c7'>
            <parameter type-id='type-id-337' is-artificial='yes'/>
            <return type-id='type-id-311'/>
          </function-decl>
        </member-function>
        <member-function access='public' const='yes'>
          <function-decl name='operator*' mangled-name='_ZNK5boost15iterator_facadeINS_10filesystem18directory_iteratorENS1_15directory_entryENS_25single_pass_traversal_tagERS3_lEdeEv' filepath='src/third_party/boost-1.56.0/boost/iterator/iterator_facade.hpp' line='637' column='1' visibility='default' binding='global' size-in-bits='64' elf-symbol-id='_ZNK5boost15iterator_facadeINS_10filesystem18directory_iteratorENS1_15directory_entryENS_25single_pass_traversal_tagERS3_lEdeEv' hash='47c77028a57d9569'>
            <parameter type-id='type-id-419' is-artificial='yes'/>
            <return type-id='type-id-594'/>
          </function-decl>
        </member-function>
        <member-function access='private' const='yes'>
          <function-decl name='derived' mangled-name='_ZNK5boost15iterator_facadeINS_10filesystem18directory_iteratorENS1_15directory_entryENS_25single_pass_traversal_tagERS3_lE7derivedEv' filepath='src/third_party/boost-1.56.0/boost/iterator/iterator_facade.hpp' line='609' column='1' visibility='default' binding='global' size-in-bits='64' elf-symbol-id='_ZNK5boost15iterator_facadeINS_10filesystem18directory_iteratorENS1_15directory_entryENS_25single_pass_traversal_tagERS3_lE7derivedEv' hash='6d2581928d42bb26'>
            <parameter type-id='type-id-419' is-artificial='yes'/>
            <return type-id='type-id-394'/>
          </function-decl>
        </member-function>
        <member-function access='private'>
          <function-decl name='derived' mangled-name='_ZN5boost15iterator_facadeINS_10filesystem18directory_iteratorENS1_15directory_entryENS_25single_pass_traversal_tagERS3_lE7derivedEv' filepath='src/third_party/boost-1.56.0/boost/iterator/iterator_facade.hpp' line='604' column='1' visibility='default' binding='global' size-in-bits='64' elf-symbol-id='_ZN5boost15iterator_facadeINS_10filesystem18directory_iteratorENS1_15directory_entryENS_25single_pass_traversal_tagERS3_lE7derivedEv' hash='169464b5613654c7'>
            <parameter type-id='type-id-337' is-artificial='yes'/>
            <return type-id='type-id-311'/>
          </function-decl>
        </member-function>
      </class-decl>
      <class-decl name='iterator_facade&lt;boost::filesystem::path::iterator, const boost::filesystem::path, boost::bidirectional_traversal_tag, const boost::filesystem::path&amp;, long int&gt;' visibility='default' size-in-bits='8' filepath='src/third_party/boost-1.56.0/boost/iterator/iterator_facade.hpp' line='592' column='1' hash='cd7b0a12645e815e' id='type-id-339'>
        <member-type access='public'>
          <typedef-decl name='difference_type' type-id='type-id-14' size-in-bits='64' filepath='src/third_party/boost-1.56.0/boost/iterator/iterator_facade.hpp' line='631' column='1' hash='b119fe0931d2ee10' id='type-id-599'/>
        </member-type>
        <member-type access='public'>
          <typedef-decl name='pointer' type-id='type-id-601' size-in-bits='64' filepath='src/third_party/boost-1.56.0/boost/iterator/iterator_facade.hpp' line='633' column='1' hash='8d5a29cf878d89fc' id='type-id-600'/>
        </member-type>
        <member-type access='public'>
          <typedef-decl name='reference' type-id='type-id-404' size-in-bits='64' filepath='src/third_party/boost-1.56.0/boost/iterator/iterator_facade.hpp' line='630' column='1' hash='d89c30f19e944670' id='type-id-595'/>
        </member-type>
        <member-function access='public'>
          <function-decl name='operator++' mangled-name='_ZN5boost15iterator_facadeINS_10filesystem4path8iteratorEKS2_NS_27bidirectional_traversal_tagERS4_lEppEv' filepath='src/third_party/boost-1.56.0/boost/iterator/iterator_facade.hpp' line='658' column='1' visibility='default' binding='global' size-in-bits='64' elf-symbol-id='_ZN5boost15iterator_facadeINS_10filesystem4path8iteratorEKS2_NS_27bidirectional_traversal_tagERS4_lEppEv' hash='3752971c606a7f94'>
            <parameter type-id='type-id-340' is-artificial='yes'/>
            <return type-id='type-id-329'/>
          </function-decl>
        </member-function>
        <member-function access='public' const='yes'>
          <function-decl name='operator*' mangled-name='_ZNK5boost15iterator_facadeINS_10filesystem4path8iteratorEKS2_NS_27bidirectional_traversal_tagERS4_lEdeEv' filepath='src/third_party/boost-1.56.0/boost/iterator/iterator_facade.hpp' line='637' column='1' visibility='default' binding='global' size-in-bits='64' elf-symbol-id='_ZNK5boost15iterator_facadeINS_10filesystem4path8iteratorEKS2_NS_27bidirectional_traversal_tagERS4_lEdeEv' hash='163e19174fdd1315'>
            <parameter type-id='type-id-423' is-artificial='yes'/>
            <return type-id='type-id-595'/>
          </function-decl>
        </member-function>
        <member-function access='private'>
          <function-decl name='derived' mangled-name='_ZN5boost15iterator_facadeINS_10filesystem4path8iteratorEKS2_NS_27bidirectional_traversal_tagERS4_lE7derivedEv' filepath='src/third_party/boost-1.56.0/boost/iterator/iterator_facade.hpp' line='604' column='1' visibility='default' binding='global' size-in-bits='64' elf-symbol-id='_ZN5boost15iterator_facadeINS_10filesystem4path8iteratorEKS2_NS_27bidirectional_traversal_tagERS4_lE7derivedEv' hash='3752971c606a7f94'>
            <parameter type-id='type-id-340' is-artificial='yes'/>
            <return type-id='type-id-329'/>
          </function-decl>
        </member-function>
        <member-function access='private' const='yes'>
          <function-decl name='derived' mangled-name='_ZNK5boost15iterator_facadeINS_10filesystem4path8iteratorEKS2_NS_27bidirectional_traversal_tagERS4_lE7derivedEv' filepath='src/third_party/boost-1.56.0/boost/iterator/iterator_facade.hpp' line='609' column='1' visibility='default' binding='global' size-in-bits='64' elf-symbol-id='_ZNK5boost15iterator_facadeINS_10filesystem4path8iteratorEKS2_NS_27bidirectional_traversal_tagERS4_lE7derivedEv' hash='ba4821e5d849a290'>
            <parameter type-id='type-id-423' is-artificial='yes'/>
            <return type-id='type-id-408'/>
          </function-decl>
        </member-function>
        <member-function access='public'>
          <function-decl name='operator--' mangled-name='_ZN5boost15iterator_facadeINS_10filesystem4path8iteratorEKS2_NS_27bidirectional_traversal_tagERS4_lEmmEi' filepath='src/third_party/boost-1.56.0/boost/iterator/iterator_facade.hpp' line='681' column='1' visibility='default' binding='global' size-in-bits='64' elf-symbol-id='_ZN5boost15iterator_facadeINS_10filesystem4path8iteratorEKS2_NS_27bidirectional_traversal_tagERS4_lEmmEi' hash='388da3fa973fde78'>
            <parameter type-id='type-id-340' is-artificial='yes'/>
            <parameter type-id='type-id-12'/>
            <return type-id='type-id-328'/>
          </function-decl>
        </member-function>
        <member-function access='public' const='yes'>
          <function-decl name='operator-&gt;' mangled-name='_ZNK5boost15iterator_facadeINS_10filesystem4path8iteratorEKS2_NS_27bidirectional_traversal_tagERS4_lEptEv' filepath='src/third_party/boost-1.56.0/boost/iterator/iterator_facade.hpp' line='642' column='1' visibility='default' binding='global' size-in-bits='64' elf-symbol-id='_ZNK5boost15iterator_facadeINS_10filesystem4path8iteratorEKS2_NS_27bidirectional_traversal_tagERS4_lEptEv' hash='d0b5ac1fe71a3aa3'>
            <parameter type-id='type-id-423' is-artificial='yes'/>
            <return type-id='type-id-600'/>
          </function-decl>
        </member-function>
        <member-function access='public'>
          <function-decl name='operator--' mangled-name='_ZN5boost15iterator_facadeINS_10filesystem4path8iteratorEKS2_NS_27bidirectional_traversal_tagERS4_lEmmEv' filepath='src/third_party/boost-1.56.0/boost/iterator/iterator_facade.hpp' line='675' column='1' visibility='default' binding='global' size-in-bits='64' elf-symbol-id='_ZN5boost15iterator_facadeINS_10filesystem4path8iteratorEKS2_NS_27bidirectional_traversal_tagERS4_lEmmEv' hash='3752971c606a7f94'>
            <parameter type-id='type-id-340' is-artificial='yes'/>
            <return type-id='type-id-329'/>
          </function-decl>
        </member-function>
      </class-decl>
      <class-decl name='scoped_array&lt;char&gt;' visibility='default' size-in-bits='64' filepath='src/third_party/boost-1.56.0/boost/smart_ptr/scoped_array.hpp' line='39' column='1' hash='2d511e033d23e981' id='type-id-342'>
        <data-member access='private' layout-offset-in-bits='0'>
          <var-decl name='px' type-id='type-id-23' visibility='default' filepath='src/third_party/boost-1.56.0/boost/smart_ptr/scoped_array.hpp' line='43' column='1'/>
        </data-member>
        <member-function access='public'>
          <function-decl name='scoped_array' mangled-name='_ZN5boost12scoped_arrayIcEC2EPc' filepath='src/third_party/boost-1.56.0/boost/smart_ptr/scoped_array.hpp' line='57' column='1' declared-inline='yes' visibility='default' binding='global' size-in-bits='64' elf-symbol-id='_ZN5boost12scoped_arrayIcEC2EPc' hash='02a096d257a5e00d'>
            <parameter type-id='type-id-344' is-artificial='yes'/>
            <parameter type-id='type-id-23'/>
            <return type-id='type-id-47'/>
          </function-decl>
        </member-function>
        <member-function access='public' destructor='yes'>
          <function-decl name='~scoped_array' mangled-name='_ZN5boost12scoped_arrayIcED2Ev' filepath='src/third_party/boost-1.56.0/boost/smart_ptr/scoped_array.hpp' line='64' column='1' declared-inline='yes' visibility='default' binding='global' size-in-bits='64' elf-symbol-id='_ZN5boost12scoped_arrayIcED2Ev' hash='7f32ffea222edbe7'>
            <parameter type-id='type-id-344' is-artificial='yes'/>
            <return type-id='type-id-47'/>
          </function-decl>
        </member-function>
        <member-function access='public' const='yes'>
          <function-decl name='get' mangled-name='_ZNK5boost12scoped_arrayIcE3getEv' filepath='src/third_party/boost-1.56.0/boost/smart_ptr/scoped_array.hpp' line='85' column='1' visibility='default' binding='global' size-in-bits='64' elf-symbol-id='_ZNK5boost12scoped_arrayIcE3getEv' hash='02a096d257a5e00d'>
            <parameter type-id='type-id-427' is-artificial='yes'/>
            <return type-id='type-id-23'/>
          </function-decl>
        </member-function>
      </class-decl>
      <class-decl name='shared_ptr&lt;boost::filesystem::detail::dir_itr_imp&gt;' visibility='default' size-in-bits='128' filepath='src/third_party/boost-1.56.0/boost/smart_ptr/shared_ptr.hpp' line='323' column='1' hash='b3dca5519aeee023' id='type-id-346'>
        <member-type access='public'>
          <typedef-decl name='element_type' type-id='type-id-602' size-in-bits='320' filepath='src/third_party/boost-1.56.0/boost/smart_ptr/shared_ptr.hpp' line='332' column='1' id='type-id-351'/>
        </member-type>
        <data-member access='private' layout-offset-in-bits='0'>
          <var-decl name='px' type-id='type-id-352' visibility='default' filepath='src/third_party/boost-1.56.0/boost/smart_ptr/shared_ptr.hpp' line='723' column='1'/>
        </data-member>
        <data-member access='private' layout-offset-in-bits='64'>
          <var-decl name='pn' type-id='type-id-280' visibility='default' filepath='src/third_party/boost-1.56.0/boost/smart_ptr/shared_ptr.hpp' line='724' column='1'/>
        </data-member>
        <member-function access='public'>
          <function-decl name='shared_ptr' mangled-name='_ZN5boost10shared_ptrINS_10filesystem6detail11dir_itr_impEEC2Ev' filepath='src/third_party/boost-1.56.0/boost/smart_ptr/shared_ptr.hpp' line='334' column='1' declared-inline='yes' visibility='default' binding='global' size-in-bits='64' elf-symbol-id='_ZN5boost10shared_ptrINS_10filesystem6detail11dir_itr_impEEC2Ev' hash='7f32ffea222edbe7'>
            <parameter type-id='type-id-349' is-artificial='yes'/>
            <return type-id='type-id-47'/>
          </function-decl>
        </member-function>
        <member-function access='public' constructor='yes'>
          <function-decl name='shared_ptr&lt;boost::filesystem::detail::dir_itr_imp&gt;' mangled-name='_ZN5boost10shared_ptrINS_10filesystem6detail11dir_itr_impEEC2IS3_EEPT_' filepath='src/third_party/boost-1.56.0/boost/smart_ptr/shared_ptr.hpp' line='347' column='1' declared-inline='yes' visibility='default' binding='global' size-in-bits='64' elf-symbol-id='_ZN5boost10shared_ptrINS_10filesystem6detail11dir_itr_impEEC2IS3_EEPT_' hash='5fe2ed55636808ca'>
            <parameter type-id='type-id-349' is-artificial='yes'/>
            <parameter type-id='type-id-303'/>
            <return type-id='type-id-47'/>
          </function-decl>
        </member-function>
        <member-function access='public' const='yes'>
          <function-decl name='get' mangled-name='_ZNK5boost10shared_ptrINS_10filesystem6detail11dir_itr_impEE3getEv' filepath='src/third_party/boost-1.56.0/boost/smart_ptr/shared_ptr.hpp' line='661' column='1' visibility='default' binding='global' size-in-bits='64' elf-symbol-id='_ZNK5boost10shared_ptrINS_10filesystem6detail11dir_itr_impEE3getEv' hash='5cbbec6e1d2c61ba'>
            <parameter type-id='type-id-431' is-artificial='yes'/>
            <return type-id='type-id-352'/>
          </function-decl>
        </member-function>
        <member-function access='public' const='yes'>
          <function-decl name='operator-&gt;' mangled-name='_ZNK5boost10shared_ptrINS_10filesystem6detail11dir_itr_impEEptEv' filepath='src/third_party/boost-1.56.0/boost/smart_ptr/shared_ptr.hpp' line='646' column='1' visibility='default' binding='global' size-in-bits='64' elf-symbol-id='_ZNK5boost10shared_ptrINS_10filesystem6detail11dir_itr_impEEptEv' hash='5fe2ed55636808ca#2'>
            <parameter type-id='type-id-431' is-artificial='yes'/>
            <return type-id='type-id-603'/>
          </function-decl>
        </member-function>
        <member-function access='public'>
          <function-decl name='reset' mangled-name='_ZN5boost10shared_ptrINS_10filesystem6detail11dir_itr_impEE5resetEv' filepath='src/third_party/boost-1.56.0/boost/smart_ptr/shared_ptr.hpp' line='612' column='1' visibility='default' binding='global' size-in-bits='64' elf-symbol-id='_ZN5boost10shared_ptrINS_10filesystem6detail11dir_itr_impEE5resetEv' hash='7f32ffea222edbe7'>
            <parameter type-id='type-id-349' is-artificial='yes'/>
            <return type-id='type-id-47'/>
          </function-decl>
        </member-function>
        <member-function access='public'>
          <function-decl name='swap' mangled-name='_ZN5boost10shared_ptrINS_10filesystem6detail11dir_itr_impEE4swapERS4_' filepath='src/third_party/boost-1.56.0/boost/smart_ptr/shared_ptr.hpp' line='679' column='1' visibility='default' binding='global' size-in-bits='64' elf-symbol-id='_ZN5boost10shared_ptrINS_10filesystem6detail11dir_itr_impEE4swapERS4_' hash='0d29272b9133e260'>
            <parameter type-id='type-id-349' is-artificial='yes'/>
            <parameter type-id='type-id-347'/>
            <return type-id='type-id-47'/>
          </function-decl>
        </member-function>
      </class-decl>
      <class-decl name='shared_ptr&lt;boost::filesystem::filesystem_error::m_imp&gt;' visibility='default' size-in-bits='128' filepath='src/third_party/boost-1.56.0/boost/smart_ptr/shared_ptr.hpp' line='323' column='1' hash='292cc35dd6f0232e' id='type-id-353'>
        <member-type access='public'>
          <typedef-decl name='element_type' type-id='type-id-604' size-in-bits='192' filepath='src/third_party/boost-1.56.0/boost/smart_ptr/shared_ptr.hpp' line='332' column='1' id='type-id-358'/>
        </member-type>
        <member-type access='private'>
          <typedef-decl name='this_type' type-id='type-id-353' size-in-bits='128' filepath='src/third_party/boost-1.56.0/boost/smart_ptr/shared_ptr.hpp' line='328' column='1' id='type-id-605'/>
        </member-type>
        <data-member access='private' layout-offset-in-bits='0'>
          <var-decl name='px' type-id='type-id-359' visibility='default' filepath='src/third_party/boost-1.56.0/boost/smart_ptr/shared_ptr.hpp' line='723' column='1'/>
        </data-member>
        <data-member access='private' layout-offset-in-bits='64'>
          <var-decl name='pn' type-id='type-id-280' visibility='default' filepath='src/third_party/boost-1.56.0/boost/smart_ptr/shared_ptr.hpp' line='724' column='1'/>
        </data-member>
        <member-function access='public'>
          <function-decl name='shared_ptr' mangled-name='_ZN5boost10shared_ptrINS_10filesystem16filesystem_error5m_impEEC2Ev' filepath='src/third_party/boost-1.56.0/boost/smart_ptr/shared_ptr.hpp' line='334' column='1' declared-inline='yes' visibility='default' binding='global' size-in-bits='64' elf-symbol-id='_ZN5boost10shared_ptrINS_10filesystem16filesystem_error5m_impEEC2Ev' hash='7f32ffea222edbe7'>
            <parameter type-id='type-id-356' is-artificial='yes'/>
            <return type-id='type-id-47'/>
          </function-decl>
        </member-function>
        <member-function access='public'>
          <function-decl name='reset&lt;boost::filesystem::filesystem_error::m_imp&gt;' mangled-name='_ZN5boost10shared_ptrINS_10filesystem16filesystem_error5m_impEE5resetIS3_EEvPT_' filepath='src/third_party/boost-1.56.0/boost/smart_ptr/shared_ptr.hpp' line='617' column='1' visibility='default' binding='global' size-in-bits='64' elf-symbol-id='_ZN5boost10shared_ptrINS_10filesystem16filesystem_error5m_impEE5resetIS3_EEvPT_' hash='47770069e19ddd92'>
            <parameter type-id='type-id-356' is-artificial='yes'/>
            <parameter type-id='type-id-322'/>
            <return type-id='type-id-47'/>
          </function-decl>
        </member-function>
        <member-function access='public'>
          <function-decl name='reset' mangled-name='_ZN5boost10shared_ptrINS_10filesystem16filesystem_error5m_impEE5resetEv' filepath='src/third_party/boost-1.56.0/boost/smart_ptr/shared_ptr.hpp' line='612' column='1' visibility='default' binding='global' size-in-bits='64' elf-symbol-id='_ZN5boost10shared_ptrINS_10filesystem16filesystem_error5m_impEE5resetEv' hash='7f32ffea222edbe7'>
            <parameter type-id='type-id-356' is-artificial='yes'/>
            <return type-id='type-id-47'/>
          </function-decl>
        </member-function>
        <member-function access='public' const='yes'>
          <function-decl name='operator-&gt;' mangled-name='_ZNK5boost10shared_ptrINS_10filesystem16filesystem_error5m_impEEptEv' filepath='src/third_party/boost-1.56.0/boost/smart_ptr/shared_ptr.hpp' line='646' column='1' visibility='default' binding='global' size-in-bits='64' elf-symbol-id='_ZNK5boost10shared_ptrINS_10filesystem16filesystem_error5m_impEEptEv' hash='47770069e19ddd92#2'>
            <parameter type-id='type-id-435' is-artificial='yes'/>
            <return type-id='type-id-606'/>
          </function-decl>
        </member-function>
        <member-function access='public' const='yes'>
          <function-decl name='get' mangled-name='_ZNK5boost10shared_ptrINS_10filesystem16filesystem_error5m_impEE3getEv' filepath='src/third_party/boost-1.56.0/boost/smart_ptr/shared_ptr.hpp' line='661' column='1' visibility='default' binding='global' size-in-bits='64' elf-symbol-id='_ZNK5boost10shared_ptrINS_10filesystem16filesystem_error5m_impEE3getEv' hash='5cbbec6e1d2c61ba'>
            <parameter type-id='type-id-435' is-artificial='yes'/>
            <return type-id='type-id-359'/>
          </function-decl>
        </member-function>
        <member-function access='public' constructor='yes'>
          <function-decl name='shared_ptr&lt;boost::filesystem::filesystem_error::m_imp&gt;' mangled-name='_ZN5boost10shared_ptrINS_10filesystem16filesystem_error5m_impEEC2IS3_EEPT_' filepath='src/third_party/boost-1.56.0/boost/smart_ptr/shared_ptr.hpp' line='347' column='1' declared-inline='yes' visibility='default' binding='global' size-in-bits='64' elf-symbol-id='_ZN5boost10shared_ptrINS_10filesystem16filesystem_error5m_impEEC2IS3_EEPT_' hash='47770069e19ddd92'>
            <parameter type-id='type-id-356' is-artificial='yes'/>
            <parameter type-id='type-id-322'/>
            <return type-id='type-id-47'/>
          </function-decl>
        </member-function>
        <member-function access='public'>
          <function-decl name='swap' mangled-name='_ZN5boost10shared_ptrINS_10filesystem16filesystem_error5m_impEE4swapERS4_' filepath='src/third_party/boost-1.56.0/boost/smart_ptr/shared_ptr.hpp' line='679' column='1' visibility='default' binding='global' size-in-bits='64' elf-symbol-id='_ZN5boost10shared_ptrINS_10filesystem16filesystem_error5m_impEE4swapERS4_' hash='a18f05f2463bd157'>
            <parameter type-id='type-id-356' is-artificial='yes'/>
            <parameter type-id='type-id-354'/>
            <return type-id='type-id-47'/>
          </function-decl>
        </member-function>
      </class-decl>
      <class-decl name='enable_if_c&lt;true, boost::filesystem::path&amp;&gt;' is-struct='yes' visibility='default' size-in-bits='8' filepath='src/third_party/boost-1.56.0/boost/core/enable_if.hpp' line='28' column='1' hash='3a8f08d6854dbb57' id='type-id-607'>
        <member-type access='public'>
          <typedef-decl name='type' type-id='type-id-325' size-in-bits='64' filepath='src/third_party/boost-1.56.0/boost/core/enable_if.hpp' line='29' column='1' hash='54199a9248c6bf47' id='type-id-608'/>
        </member-type>
      </class-decl>
      <function-decl name='checked_delete&lt;boost::filesystem::detail::dir_itr_imp&gt;' mangled-name='_ZN5boost14checked_deleteINS_10filesystem6detail11dir_itr_impEEEvPT_' filepath='src/third_party/boost-1.56.0/boost/core/checked_delete.hpp' line='29' column='1' visibility='default' binding='global' size-in-bits='64' elf-symbol-id='_ZN5boost14checked_deleteINS_10filesystem6detail11dir_itr_impEEEvPT_' hash='5fe2ed55636808ca'>
        <parameter type-id='type-id-303'/>
        <return type-id='type-id-47'/>
      </function-decl>
      <function-decl name='checked_delete&lt;boost::filesystem::filesystem_error::m_imp&gt;' mangled-name='_ZN5boost14checked_deleteINS_10filesystem16filesystem_error5m_impEEEvPT_' filepath='src/third_party/boost-1.56.0/boost/core/checked_delete.hpp' line='29' column='1' visibility='default' binding='global' size-in-bits='64' elf-symbol-id='_ZN5boost14checked_deleteINS_10filesystem16filesystem_error5m_impEEEvPT_' hash='47770069e19ddd92'>
        <parameter type-id='type-id-322'/>
        <return type-id='type-id-47'/>
      </function-decl>
      <function-decl name='checked_array_delete&lt;char&gt;' mangled-name='_ZN5boost20checked_array_deleteIcEEvPT_' filepath='src/third_party/boost-1.56.0/boost/core/checked_delete.hpp' line='37' column='1' visibility='default' binding='global' size-in-bits='64' elf-symbol-id='_ZN5boost20checked_array_deleteIcEEvPT_' hash='02a096d257a5e00d'>
        <parameter type-id='type-id-23'/>
        <return type-id='type-id-47'/>
      </function-decl>
      <namespace-decl name='core'>
        <typedef-decl name='typeinfo' type-id='type-id-581' filepath='src/third_party/boost-1.56.0/boost/core/typeinfo.hpp' line='134' column='1' id='type-id-609'/>
      </namespace-decl>
      <namespace-decl name='filesystem'>
        <class-decl name='directory_entry' visibility='default' size-in-bits='192' filepath='src/third_party/boost-1.56.0/boost/filesystem/operations.hpp' line='670' column='1' hash='104d0067bffe0c3a' id='type-id-306'>
          <data-member access='private' layout-offset-in-bits='0'>
            <var-decl name='m_path' type-id='type-id-324' visibility='default' filepath='src/third_party/boost-1.56.0/boost/filesystem/operations.hpp' line='715' column='1'/>
          </data-member>
          <data-member access='private' layout-offset-in-bits='64'>
            <var-decl name='m_status' type-id='type-id-314' visibility='default' filepath='src/third_party/boost-1.56.0/boost/filesystem/operations.hpp' line='716' column='1'/>
          </data-member>
          <data-member access='private' layout-offset-in-bits='128'>
            <var-decl name='m_symlink_status' type-id='type-id-314' visibility='default' filepath='src/third_party/boost-1.56.0/boost/filesystem/operations.hpp' line='717' column='1'/>
          </data-member>
          <member-function access='public' constructor='yes'>
            <function-decl name='directory_entry' mangled-name='_ZN5boost10filesystem15directory_entryC2Ev' filepath='src/third_party/boost-1.56.0/boost/filesystem/operations.hpp' line='676' column='1' declared-inline='yes' visibility='default' binding='global' size-in-bits='64' elf-symbol-id='_ZN5boost10filesystem15directory_entryC2Ev' hash='7f32ffea222edbe7'>
              <parameter type-id='type-id-308' is-artificial='yes'/>
              <return type-id='type-id-47'/>
            </function-decl>
          </member-function>
          <member-function access='public'>
            <function-decl name='assign' mangled-name='_ZN5boost10filesystem15directory_entry6assignERKNS0_4pathENS0_11file_statusES5_' filepath='src/third_party/boost-1.56.0/boost/filesystem/operations.hpp' line='682' column='1' visibility='default' binding='global' size-in-bits='64' elf-symbol-id='_ZN5boost10filesystem15directory_entry6assignERKNS0_4pathENS0_11file_statusES5_' hash='163e19174fdd1315'>
              <parameter type-id='type-id-308' is-artificial='yes'/>
              <parameter type-id='type-id-404'/>
              <parameter type-id='type-id-314'/>
              <parameter type-id='type-id-314'/>
              <return type-id='type-id-47'/>
            </function-decl>
          </member-function>
          <member-function access='public'>
            <function-decl name='replace_filename' mangled-name='_ZN5boost10filesystem15directory_entry16replace_filenameERKNS0_4pathENS0_11file_statusES5_' filepath='src/third_party/boost-1.56.0/boost/filesystem/operations.hpp' line='686' column='1' visibility='default' binding='global' size-in-bits='64' elf-symbol-id='_ZN5boost10filesystem15directory_entry16replace_filenameERKNS0_4pathENS0_11file_statusES5_' hash='163e19174fdd1315'>
              <parameter type-id='type-id-308' is-artificial='yes'/>
              <parameter type-id='type-id-404'/>
              <parameter type-id='type-id-314'/>
              <parameter type-id='type-id-314'/>
              <return type-id='type-id-47'/>
            </function-decl>
          </member-function>
          <member-function access='public' const='yes'>
            <function-decl name='path' mangled-name='_ZNK5boost10filesystem15directory_entry4pathEv' filepath='src/third_party/boost-1.56.0/boost/filesystem/operations.hpp' line='701' column='1' visibility='default' binding='global' size-in-bits='64' elf-symbol-id='_ZNK5boost10filesystem15directory_entry4pathEv' hash='163e19174fdd1315'>
              <parameter type-id='type-id-391' is-artificial='yes'/>
              <return type-id='type-id-404'/>
            </function-decl>
          </member-function>
          <member-function access='private' const='yes'>
            <function-decl name='m_get_status' mangled-name='_ZNK5boost10filesystem15directory_entry12m_get_statusEPNS_6system10error_codeE' filepath='src/third_party/boost-1.56.0/libs/filesystem/src/operations.cpp' line='1843' column='1' visibility='default' binding='global' size-in-bits='64' elf-symbol-id='_ZNK5boost10filesystem15directory_entry12m_get_statusEPNS_6system10error_codeE' hash='69d1383cc636e9cf'>
              <parameter type-id='type-id-391' is-artificial='yes'/>
              <parameter type-id='type-id-84'/>
              <return type-id='type-id-314'/>
            </function-decl>
          </member-function>
          <member-function access='private' const='yes'>
            <function-decl name='m_get_symlink_status' mangled-name='_ZNK5boost10filesystem15directory_entry20m_get_symlink_statusEPNS_6system10error_codeE' filepath='src/third_party/boost-1.56.0/libs/filesystem/src/operations.cpp' line='1863' column='1' visibility='default' binding='global' size-in-bits='64' elf-symbol-id='_ZNK5boost10filesystem15directory_entry20m_get_symlink_statusEPNS_6system10error_codeE' hash='69d1383cc636e9cf'>
              <parameter type-id='type-id-391' is-artificial='yes'/>
              <parameter type-id='type-id-84'/>
              <return type-id='type-id-314'/>
            </function-decl>
          </member-function>
        </class-decl>
        <class-decl name='directory_iterator' visibility='default' size-in-bits='128' filepath='src/third_party/boost-1.56.0/boost/filesystem/operations.hpp' line='780' column='1' hash='f3845b9cebc117c0' id='type-id-310'>
          <base-class access='public' layout-offset-in-bits='0' type-id='type-id-336'/>
          <data-member access='private' layout-offset-in-bits='0'>
            <var-decl name='m_imp' type-id='type-id-346' visibility='default' filepath='src/third_party/boost-1.56.0/boost/filesystem/operations.hpp' line='816' column='1'/>
          </data-member>
          <member-function access='public' constructor='yes'>
            <function-decl name='directory_iterator' mangled-name='_ZN5boost10filesystem18directory_iteratorC2Ev' filepath='src/third_party/boost-1.56.0/boost/filesystem/operations.hpp' line='787' column='1' declared-inline='yes' visibility='default' binding='global' size-in-bits='64' elf-symbol-id='_ZN5boost10filesystem18directory_iteratorC2Ev' hash='7f32ffea222edbe7'>
              <parameter type-id='type-id-312' is-artificial='yes'/>
              <return type-id='type-id-47'/>
            </function-decl>
          </member-function>
          <member-function access='public' constructor='yes'>
            <function-decl name='directory_iterator' mangled-name='_ZN5boost10filesystem18directory_iteratorC2ERKNS0_4pathE' filepath='src/third_party/boost-1.56.0/boost/filesystem/operations.hpp' line='791' column='1' declared-inline='yes' visibility='default' binding='global' size-in-bits='64' elf-symbol-id='_ZN5boost10filesystem18directory_iteratorC2ERKNS0_4pathE' hash='163e19174fdd1315'>
              <parameter type-id='type-id-312' is-artificial='yes'/>
              <parameter type-id='type-id-404'/>
              <return type-id='type-id-47'/>
            </function-decl>
          </member-function>
          <member-function access='public' destructor='yes'>
            <function-decl name='~directory_iterator' mangled-name='_ZN5boost10filesystem18directory_iteratorD2Ev' filepath='src/third_party/boost-1.56.0/boost/filesystem/operations.hpp' line='799' column='1' declared-inline='yes' visibility='default' binding='global' size-in-bits='64' elf-symbol-id='_ZN5boost10filesystem18directory_iteratorD2Ev' hash='7f32ffea222edbe7'>
              <parameter type-id='type-id-312' is-artificial='yes'/>
              <return type-id='type-id-47'/>
            </function-decl>
          </member-function>
          <member-function access='public'>
            <function-decl name='increment' mangled-name='_ZN5boost10filesystem18directory_iterator9incrementERNS_6system10error_codeE' filepath='src/third_party/boost-1.56.0/boost/filesystem/operations.hpp' line='801' column='1' visibility='default' binding='global' size-in-bits='64' elf-symbol-id='_ZN5boost10filesystem18directory_iterator9incrementERNS_6system10error_codeE' hash='e79085ccd13a2322'>
              <parameter type-id='type-id-312' is-artificial='yes'/>
              <parameter type-id='type-id-360'/>
              <return type-id='type-id-311'/>
            </function-decl>
          </member-function>
          <member-function access='private' const='yes'>
            <function-decl name='dereference' mangled-name='_ZNK5boost10filesystem18directory_iterator11dereferenceEv' filepath='src/third_party/boost-1.56.0/boost/filesystem/operations.hpp' line='823' column='1' visibility='default' binding='global' size-in-bits='64' elf-symbol-id='_ZNK5boost10filesystem18directory_iterator11dereferenceEv' hash='47c77028a57d9569'>
              <parameter type-id='type-id-395' is-artificial='yes'/>
              <return type-id='type-id-594'/>
            </function-decl>
          </member-function>
          <member-function access='private'>
            <function-decl name='increment' mangled-name='_ZN5boost10filesystem18directory_iterator9incrementEv' filepath='src/third_party/boost-1.56.0/boost/filesystem/operations.hpp' line='829' column='1' visibility='default' binding='global' size-in-bits='64' elf-symbol-id='_ZN5boost10filesystem18directory_iterator9incrementEv' hash='7f32ffea222edbe7'>
              <parameter type-id='type-id-312' is-artificial='yes'/>
              <return type-id='type-id-47'/>
            </function-decl>
          </member-function>
          <member-function access='private' const='yes'>
            <function-decl name='equal' mangled-name='_ZNK5boost10filesystem18directory_iterator5equalERKS1_' filepath='src/third_party/boost-1.56.0/boost/filesystem/operations.hpp' line='831' column='1' visibility='default' binding='global' size-in-bits='64' elf-symbol-id='_ZNK5boost10filesystem18directory_iterator5equalERKS1_' hash='afa3674094030909'>
              <parameter type-id='type-id-395' is-artificial='yes'/>
              <parameter type-id='type-id-394'/>
              <return type-id='type-id-1'/>
            </function-decl>
          </member-function>
        </class-decl>
        <class-decl name='file_status' visibility='default' size-in-bits='64' filepath='src/third_party/boost-1.56.0/boost/filesystem/operations.hpp' line='256' column='1' hash='691129c47ec4f10e' id='type-id-314'>
          <data-member access='private' layout-offset-in-bits='0'>
            <var-decl name='m_value' type-id='type-id-610' visibility='default' filepath='src/third_party/boost-1.56.0/boost/filesystem/operations.hpp' line='276' column='1'/>
          </data-member>
          <data-member access='private' layout-offset-in-bits='32'>
            <var-decl name='m_perms' type-id='type-id-332' visibility='default' filepath='src/third_party/boost-1.56.0/boost/filesystem/operations.hpp' line='277' column='1'/>
          </data-member>
          <member-function access='public' constructor='yes'>
            <function-decl name='file_status' mangled-name='_ZN5boost10filesystem11file_statusC2Ev' filepath='src/third_party/boost-1.56.0/boost/filesystem/operations.hpp' line='259' column='1' declared-inline='yes' visibility='default' binding='global' size-in-bits='64' elf-symbol-id='_ZN5boost10filesystem11file_statusC2Ev' hash='7f32ffea222edbe7'>
              <parameter type-id='type-id-315' is-artificial='yes'/>
              <return type-id='type-id-47'/>
            </function-decl>
          </member-function>
          <member-function access='public' constructor='yes'>
            <function-decl name='file_status' mangled-name='_ZN5boost10filesystem11file_statusC2ENS0_9file_typeENS0_5permsE' filepath='src/third_party/boost-1.56.0/boost/filesystem/operations.hpp' line='260' column='1' declared-inline='yes' visibility='default' binding='global' size-in-bits='64' elf-symbol-id='_ZN5boost10filesystem11file_statusC2ENS0_9file_typeENS0_5permsE' hash='82a02f3860b56fbc'>
              <parameter type-id='type-id-315' is-artificial='yes'/>
              <parameter type-id='type-id-610'/>
              <parameter type-id='type-id-332'/>
              <return type-id='type-id-47'/>
            </function-decl>
          </member-function>
          <member-function access='public' const='yes'>
            <function-decl name='type' mangled-name='_ZNK5boost10filesystem11file_status4typeEv' filepath='src/third_party/boost-1.56.0/boost/filesystem/operations.hpp' line='264' column='1' visibility='default' binding='global' size-in-bits='64' elf-symbol-id='_ZNK5boost10filesystem11file_status4typeEv' hash='328c678f3f16c40d'>
              <parameter type-id='type-id-399' is-artificial='yes'/>
              <return type-id='type-id-610'/>
            </function-decl>
          </member-function>
          <member-function access='public' const='yes'>
            <function-decl name='permissions' mangled-name='_ZNK5boost10filesystem11file_status11permissionsEv' filepath='src/third_party/boost-1.56.0/boost/filesystem/operations.hpp' line='265' column='1' visibility='default' binding='global' size-in-bits='64' elf-symbol-id='_ZNK5boost10filesystem11file_status11permissionsEv' hash='df05cb43da088d5a'>
              <parameter type-id='type-id-399' is-artificial='yes'/>
              <return type-id='type-id-332'/>
            </function-decl>
          </member-function>
        </class-decl>
        <class-decl name='filesystem_error' visibility='default' size-in-bits='448' filepath='src/third_party/boost-1.56.0/boost/filesystem/operations.hpp' line='64' column='1' hash='ef4b40c46a6b9167' id='type-id-317'>
          <base-class access='public' layout-offset-in-bits='0' type-id='type-id-362'/>
          <member-type access='private'>
            <class-decl name='m_imp' is-struct='yes' visibility='default' size-in-bits='192' filepath='src/third_party/boost-1.56.0/boost/filesystem/operations.hpp' line='159' column='1' hash='9a5931e2e8fd885a' id='type-id-320'>
              <data-member access='public' layout-offset-in-bits='0'>
                <var-decl name='m_path1' type-id='type-id-324' visibility='default' filepath='src/third_party/boost-1.56.0/boost/filesystem/operations.hpp' line='161' column='1'/>
              </data-member>
              <data-member access='public' layout-offset-in-bits='64'>
                <var-decl name='m_path2' type-id='type-id-324' visibility='default' filepath='src/third_party/boost-1.56.0/boost/filesystem/operations.hpp' line='162' column='1'/>
              </data-member>
              <data-member access='public' layout-offset-in-bits='128'>
                <var-decl name='m_what' type-id='type-id-236' visibility='default' filepath='src/third_party/boost-1.56.0/boost/filesystem/operations.hpp' line='163' column='1'/>
              </data-member>
            </class-decl>
          </member-type>
          <data-member access='private' layout-offset-in-bits='320'>
            <var-decl name='m_imp_ptr' type-id='type-id-353' visibility='default' filepath='src/third_party/boost-1.56.0/boost/filesystem/operations.hpp' line='165' column='1'/>
          </data-member>
          <member-function access='public' constructor='yes'>
            <function-decl name='filesystem_error' mangled-name='_ZN5boost10filesystem16filesystem_errorC2ERKSsNS_6system10error_codeE' filepath='src/third_party/boost-1.56.0/boost/filesystem/operations.hpp' line='76' column='1' declared-inline='yes' visibility='default' binding='global' size-in-bits='64' elf-symbol-id='_ZN5boost10filesystem16filesystem_errorC2ERKSsNS_6system10error_codeE' hash='e4d69d935f5c1015'>
              <parameter type-id='type-id-318' is-artificial='yes'/>
              <parameter type-id='type-id-494'/>
              <parameter type-id='type-id-83'/>
              <return type-id='type-id-47'/>
            </function-decl>
          </member-function>
          <member-function access='public' constructor='yes'>
            <function-decl name='filesystem_error' mangled-name='_ZN5boost10filesystem16filesystem_errorC2ERKSsRKNS0_4pathENS_6system10error_codeE' filepath='src/third_party/boost-1.56.0/boost/filesystem/operations.hpp' line='87' column='1' declared-inline='yes' visibility='default' binding='global' size-in-bits='64' elf-symbol-id='_ZN5boost10filesystem16filesystem_errorC2ERKSsRKNS0_4pathENS_6system10error_codeE' hash='d2999eacec1f2107'>
              <parameter type-id='type-id-318' is-artificial='yes'/>
              <parameter type-id='type-id-494'/>
              <parameter type-id='type-id-404'/>
              <parameter type-id='type-id-83'/>
              <return type-id='type-id-47'/>
            </function-decl>
          </member-function>
          <member-function access='public' constructor='yes'>
            <function-decl name='filesystem_error' mangled-name='_ZN5boost10filesystem16filesystem_errorC2ERKSsRKNS0_4pathES6_NS_6system10error_codeE' filepath='src/third_party/boost-1.56.0/boost/filesystem/operations.hpp' line='100' column='1' declared-inline='yes' visibility='default' binding='global' size-in-bits='64' elf-symbol-id='_ZN5boost10filesystem16filesystem_errorC2ERKSsRKNS0_4pathES6_NS_6system10error_codeE' hash='0b6f9da04cbb0e7c'>
              <parameter type-id='type-id-318' is-artificial='yes'/>
              <parameter type-id='type-id-494'/>
              <parameter type-id='type-id-404'/>
              <parameter type-id='type-id-404'/>
              <parameter type-id='type-id-83'/>
              <return type-id='type-id-47'/>
            </function-decl>
          </member-function>
          <member-function access='public' destructor='yes' vtable-offset='-1'>
            <function-decl name='~filesystem_error' filepath='src/third_party/boost-1.56.0/boost/filesystem/operations.hpp' line='114' column='1' visibility='default' binding='global' size-in-bits='64' hash='388da3fa973fde78'>
              <parameter type-id='type-id-318' is-artificial='yes'/>
              <parameter type-id='type-id-12' is-artificial='yes'/>
              <return type-id='type-id-47'/>
            </function-decl>
          </member-function>
          <member-function access='public' destructor='yes' vtable-offset='-1'>
            <function-decl name='~filesystem_error' mangled-name='_ZN5boost10filesystem16filesystem_errorD0Ev' filepath='src/third_party/boost-1.56.0/boost/filesystem/operations.hpp' line='114' column='1' declared-inline='yes' visibility='default' binding='global' size-in-bits='64' elf-symbol-id='_ZN5boost10filesystem16filesystem_errorD0Ev' hash='7f32ffea222edbe7'>
              <parameter type-id='type-id-318' is-artificial='yes'/>
              <return type-id='type-id-47'/>
            </function-decl>
          </member-function>
          <member-function access='public' destructor='yes' vtable-offset='-1'>
            <function-decl name='~filesystem_error' mangled-name='_ZN5boost10filesystem16filesystem_errorD2Ev' filepath='src/third_party/boost-1.56.0/boost/filesystem/operations.hpp' line='114' column='1' declared-inline='yes' visibility='default' binding='global' size-in-bits='64' elf-symbol-id='_ZN5boost10filesystem16filesystem_errorD2Ev' hash='7f32ffea222edbe7'>
              <parameter type-id='type-id-318' is-artificial='yes'/>
              <return type-id='type-id-47'/>
            </function-decl>
          </member-function>
          <member-function access='public' const='yes' vtable-offset='2'>
            <function-decl name='what' mangled-name='_ZNK5boost10filesystem16filesystem_error4whatEv' filepath='src/third_party/boost-1.56.0/boost/filesystem/operations.hpp' line='127' column='1' visibility='default' binding='global' size-in-bits='64' elf-symbol-id='_ZNK5boost10filesystem16filesystem_error4whatEv' hash='53885bde0aa65efe'>
              <parameter type-id='type-id-402' is-artificial='yes'/>
              <return type-id='type-id-43'/>
            </function-decl>
          </member-function>
        </class-decl>
        <class-decl name='path' visibility='default' size-in-bits='64' filepath='src/third_party/boost-1.56.0/boost/filesystem/path.hpp' line='55' column='1' hash='2464ff697f2e6ee0' id='type-id-324'>
          <member-type access='public'>
            <class-decl name='iterator' visibility='default' size-in-bits='192' filepath='src/third_party/boost-1.56.0/boost/filesystem/path.hpp' line='569' column='1' hash='84fe841c4cf0bd7f' id='type-id-328'>
              <base-class access='public' layout-offset-in-bits='0' type-id='type-id-339'/>
              <data-member access='private' layout-offset-in-bits='0'>
                <var-decl name='m_element' type-id='type-id-324' visibility='default' filepath='src/third_party/boost-1.56.0/boost/filesystem/path.hpp' line='593' column='1'/>
              </data-member>
              <data-member access='private' layout-offset-in-bits='64'>
                <var-decl name='m_path_ptr' type-id='type-id-405' visibility='default' filepath='src/third_party/boost-1.56.0/boost/filesystem/path.hpp' line='594' column='1'/>
              </data-member>
              <data-member access='private' layout-offset-in-bits='128'>
                <var-decl name='m_pos' type-id='type-id-145' visibility='default' filepath='src/third_party/boost-1.56.0/boost/filesystem/path.hpp' line='595' column='1'/>
              </data-member>
              <member-function access='private' const='yes'>
                <function-decl name='dereference' mangled-name='_ZNK5boost10filesystem4path8iterator11dereferenceEv' filepath='src/third_party/boost-1.56.0/boost/filesystem/path.hpp' line='581' column='1' visibility='default' binding='global' size-in-bits='64' elf-symbol-id='_ZNK5boost10filesystem4path8iterator11dereferenceEv' hash='163e19174fdd1315'>
                  <parameter type-id='type-id-409' is-artificial='yes'/>
                  <return type-id='type-id-404'/>
                </function-decl>
              </member-function>
              <member-function access='private' const='yes'>
                <function-decl name='equal' mangled-name='_ZNK5boost10filesystem4path8iterator5equalERKS2_' filepath='src/third_party/boost-1.56.0/boost/filesystem/path.hpp' line='583' column='1' visibility='default' binding='global' size-in-bits='64' elf-symbol-id='_ZNK5boost10filesystem4path8iterator5equalERKS2_' hash='872ff89c63d05320'>
                  <parameter type-id='type-id-409' is-artificial='yes'/>
                  <parameter type-id='type-id-408'/>
                  <return type-id='type-id-1'/>
                </function-decl>
              </member-function>
              <member-function access='private'>
                <function-decl name='increment' mangled-name='_ZN5boost10filesystem4path8iterator9incrementEv' filepath='src/third_party/boost-1.56.0/boost/filesystem/path.hpp' line='590' column='1' visibility='default' binding='global' size-in-bits='64' elf-symbol-id='_ZN5boost10filesystem4path8iterator9incrementEv' hash='7f32ffea222edbe7'>
                  <parameter type-id='type-id-330' is-artificial='yes'/>
                  <return type-id='type-id-47'/>
                </function-decl>
              </member-function>
              <member-function access='private'>
                <function-decl name='decrement' mangled-name='_ZN5boost10filesystem4path8iterator9decrementEv' filepath='src/third_party/boost-1.56.0/boost/filesystem/path.hpp' line='591' column='1' visibility='default' binding='global' size-in-bits='64' elf-symbol-id='_ZN5boost10filesystem4path8iterator9decrementEv' hash='7f32ffea222edbe7'>
                  <parameter type-id='type-id-330' is-artificial='yes'/>
                  <return type-id='type-id-47'/>
                </function-decl>
              </member-function>
            </class-decl>
          </member-type>
          <member-type access='public'>
            <typedef-decl name='string_type' type-id='type-id-138' size-in-bits='64' filepath='src/third_party/boost-1.56.0/boost/filesystem/path.hpp' line='69' column='1' id='type-id-411'/>
          </member-type>
          <member-type access='public'>
            <typedef-decl name='value_type' type-id='type-id-2' size-in-bits='8' filepath='src/third_party/boost-1.56.0/boost/filesystem/path.hpp' line='66' column='1' hash='65b2d157027b431a' id='type-id-414'/>
          </member-type>
          <member-type access='public'>
            <typedef-decl name='codecvt_type' type-id='type-id-579' filepath='src/third_party/boost-1.56.0/boost/filesystem/path.hpp' line='71' column='1' id='type-id-529'/>
          </member-type>
          <member-type access='public'>
            <typedef-decl name='codecvt_type' type-id='type-id-612' filepath='src/third_party/boost-1.56.0/boost/filesystem/path.hpp' line='71' column='1' id='type-id-611'/>
          </member-type>
          <member-type access='public'>
            <typedef-decl name='codecvt_type' type-id='type-id-614' filepath='src/third_party/boost-1.56.0/boost/filesystem/path.hpp' line='71' column='1' id='type-id-613'/>
          </member-type>
          <data-member access='private' layout-offset-in-bits='0'>
            <var-decl name='m_pathname' type-id='type-id-411' visibility='default' filepath='src/third_party/boost-1.56.0/boost/filesystem/path.hpp' line='528' column='1'/>
          </data-member>
          <member-function access='public' constructor='yes'>
            <function-decl name='path' mangled-name='_ZN5boost10filesystem4pathC2Ev' filepath='src/third_party/boost-1.56.0/boost/filesystem/path.hpp' line='130' column='1' declared-inline='yes' visibility='default' binding='global' size-in-bits='64' elf-symbol-id='_ZN5boost10filesystem4pathC2Ev' hash='7f32ffea222edbe7'>
              <parameter type-id='type-id-326' is-artificial='yes'/>
              <return type-id='type-id-47'/>
            </function-decl>
          </member-function>
          <member-function access='public' constructor='yes'>
            <function-decl name='path' mangled-name='_ZN5boost10filesystem4pathC2ERKS1_' filepath='src/third_party/boost-1.56.0/boost/filesystem/path.hpp' line='132' column='1' declared-inline='yes' visibility='default' binding='global' size-in-bits='64' elf-symbol-id='_ZN5boost10filesystem4pathC2ERKS1_' hash='163e19174fdd1315'>
              <parameter type-id='type-id-326' is-artificial='yes'/>
              <parameter type-id='type-id-404'/>
              <return type-id='type-id-47'/>
            </function-decl>
          </member-function>
          <member-function access='public' constructor='yes'>
            <function-decl name='path' mangled-name='_ZN5boost10filesystem4pathC2EPKc' filepath='src/third_party/boost-1.56.0/boost/filesystem/path.hpp' line='150' column='1' declared-inline='yes' visibility='default' binding='global' size-in-bits='64' elf-symbol-id='_ZN5boost10filesystem4pathC2EPKc' hash='9dd23d065c046b84'>
              <parameter type-id='type-id-326' is-artificial='yes'/>
              <parameter type-id='type-id-416'/>
              <return type-id='type-id-47'/>
            </function-decl>
          </member-function>
          <member-function access='public' constructor='yes'>
            <function-decl name='path' mangled-name='_ZN5boost10filesystem4pathC2ERKSs' filepath='src/third_party/boost-1.56.0/boost/filesystem/path.hpp' line='151' column='1' declared-inline='yes' visibility='default' binding='global' size-in-bits='64' elf-symbol-id='_ZN5boost10filesystem4pathC2ERKSs' hash='a22918baa1017f33'>
              <parameter type-id='type-id-326' is-artificial='yes'/>
              <parameter type-id='type-id-140'/>
              <return type-id='type-id-47'/>
            </function-decl>
          </member-function>
          <member-function access='public'>
            <function-decl name='operator=' mangled-name='_ZN5boost10filesystem4pathaSERKS1_' filepath='src/third_party/boost-1.56.0/boost/filesystem/path.hpp' line='184' column='1' visibility='default' binding='global' size-in-bits='64' elf-symbol-id='_ZN5boost10filesystem4pathaSERKS1_' hash='6809054422aec0c5'>
              <parameter type-id='type-id-326' is-artificial='yes'/>
              <parameter type-id='type-id-404'/>
              <return type-id='type-id-325'/>
            </function-decl>
          </member-function>
          <member-function access='public'>
            <function-decl name='clear' mangled-name='_ZN5boost10filesystem4path5clearEv' filepath='src/third_party/boost-1.56.0/boost/filesystem/path.hpp' line='325' column='1' visibility='default' binding='global' size-in-bits='64' elf-symbol-id='_ZN5boost10filesystem4path5clearEv' hash='7f32ffea222edbe7'>
              <parameter type-id='type-id-326' is-artificial='yes'/>
              <return type-id='type-id-47'/>
            </function-decl>
          </member-function>
          <member-function access='public' const='yes'>
            <function-decl name='native' mangled-name='_ZNK5boost10filesystem4path6nativeEv' filepath='src/third_party/boost-1.56.0/boost/filesystem/path.hpp' line='357' column='1' visibility='default' binding='global' size-in-bits='64' elf-symbol-id='_ZNK5boost10filesystem4path6nativeEv' hash='f01f3d673c01debf'>
              <parameter type-id='type-id-405' is-artificial='yes'/>
              <return type-id='type-id-413'/>
            </function-decl>
          </member-function>
          <member-function access='public' const='yes'>
            <function-decl name='c_str' mangled-name='_ZNK5boost10filesystem4path5c_strEv' filepath='src/third_party/boost-1.56.0/boost/filesystem/path.hpp' line='358' column='1' visibility='default' binding='global' size-in-bits='64' elf-symbol-id='_ZNK5boost10filesystem4path5c_strEv' hash='9dd23d065c046b84'>
              <parameter type-id='type-id-405' is-artificial='yes'/>
              <return type-id='type-id-416'/>
            </function-decl>
          </member-function>
          <member-function access='public' const='yes'>
            <function-decl name='string' mangled-name='_ZNK5boost10filesystem4path6stringEv' filepath='src/third_party/boost-1.56.0/boost/filesystem/path.hpp' line='383' column='1' visibility='default' binding='global' size-in-bits='64' elf-symbol-id='_ZNK5boost10filesystem4path6stringEv' hash='e4d69d935f5c1015'>
              <parameter type-id='type-id-405' is-artificial='yes'/>
              <return type-id='type-id-494'/>
            </function-decl>
          </member-function>
          <member-function access='public' const='yes'>
            <function-decl name='empty' mangled-name='_ZNK5boost10filesystem4path5emptyEv' filepath='src/third_party/boost-1.56.0/boost/filesystem/path.hpp' line='441' column='1' visibility='default' binding='global' size-in-bits='64' elf-symbol-id='_ZNK5boost10filesystem4path5emptyEv' hash='c7c710e908194b91'>
              <parameter type-id='type-id-405' is-artificial='yes'/>
              <return type-id='type-id-1'/>
            </function-decl>
          </member-function>
          <member-function access='public' const='yes'>
            <function-decl name='has_root_directory' mangled-name='_ZNK5boost10filesystem4path18has_root_directoryEv' filepath='src/third_party/boost-1.56.0/boost/filesystem/path.hpp' line='444' column='1' visibility='default' binding='global' size-in-bits='64' elf-symbol-id='_ZNK5boost10filesystem4path18has_root_directoryEv' hash='c7c710e908194b91'>
              <parameter type-id='type-id-405' is-artificial='yes'/>
              <return type-id='type-id-1'/>
            </function-decl>
          </member-function>
          <member-function access='public' const='yes'>
            <function-decl name='is_absolute' mangled-name='_ZNK5boost10filesystem4path11is_absoluteEv' filepath='src/third_party/boost-1.56.0/boost/filesystem/path.hpp' line='450' column='1' visibility='default' binding='global' size-in-bits='64' elf-symbol-id='_ZNK5boost10filesystem4path11is_absoluteEv' hash='c7c710e908194b91'>
              <parameter type-id='type-id-405' is-artificial='yes'/>
              <return type-id='type-id-1'/>
            </function-decl>
          </member-function>
          <member-function access='public'>
            <function-decl name='operator=&lt;char*&gt;' mangled-name='_ZN5boost10filesystem4pathaSIPcEENS_9enable_ifINS0_11path_traits11is_pathableINS_5decayIT_E4typeEEERS1_E4typeERKS8_' filepath='src/third_party/boost-1.56.0/boost/filesystem/path.hpp' line='199' column='1' visibility='default' binding='global' size-in-bits='64' elf-symbol-id='_ZN5boost10filesystem4pathaSIPcEENS_9enable_ifINS0_11path_traits11is_pathableINS_5decayIT_E4typeEEERS1_E4typeERKS8_' hash='6a9c663333cd7c29'>
              <parameter type-id='type-id-326' is-artificial='yes'/>
              <parameter type-id='type-id-90'/>
              <return type-id='type-id-608'/>
            </function-decl>
          </member-function>
          <member-function access='public'>
            <function-decl name='assign&lt;char*&gt;' mangled-name='_ZN5boost10filesystem4path6assignIPcEERS1_T_S5_' filepath='src/third_party/boost-1.56.0/boost/filesystem/path.hpp' line='221' column='1' visibility='default' binding='global' size-in-bits='64' elf-symbol-id='_ZN5boost10filesystem4path6assignIPcEERS1_T_S5_' hash='eedc2a1726473882'>
              <parameter type-id='type-id-326' is-artificial='yes'/>
              <parameter type-id='type-id-23'/>
              <parameter type-id='type-id-23'/>
              <return type-id='type-id-325'/>
            </function-decl>
          </member-function>
          <member-function access='public'>
            <function-decl name='assign&lt;char*&gt;' mangled-name='_ZN5boost10filesystem4path6assignIPcEERS1_T_S5_RKSt7codecvtIwc11__mbstate_tE' filepath='src/third_party/boost-1.56.0/boost/filesystem/path.hpp' line='227' column='1' visibility='default' binding='global' size-in-bits='64' elf-symbol-id='_ZN5boost10filesystem4path6assignIPcEERS1_T_S5_RKSt7codecvtIwc11__mbstate_tE' hash='eedc2a1726473882'>
              <parameter type-id='type-id-326' is-artificial='yes'/>
              <parameter type-id='type-id-23'/>
              <parameter type-id='type-id-23'/>
              <parameter type-id='type-id-531'/>
              <return type-id='type-id-325'/>
            </function-decl>
          </member-function>
          <member-function access='public'>
            <function-decl name='operator/=' mangled-name='_ZN5boost10filesystem4pathdVERKS1_' filepath='src/third_party/boost-1.56.0/libs/filesystem/src/path.cpp' line='153' column='1' visibility='default' binding='global' size-in-bits='64' elf-symbol-id='_ZN5boost10filesystem4pathdVERKS1_' hash='6809054422aec0c5'>
              <parameter type-id='type-id-326' is-artificial='yes'/>
              <parameter type-id='type-id-404'/>
              <return type-id='type-id-325'/>
            </function-decl>
          </member-function>
          <member-function access='public'>
            <function-decl name='operator/=' mangled-name='_ZN5boost10filesystem4pathdVEPKc' filepath='src/third_party/boost-1.56.0/libs/filesystem/src/path.cpp' line='173' column='1' visibility='default' binding='global' size-in-bits='64' elf-symbol-id='_ZN5boost10filesystem4pathdVEPKc' hash='9de9ea3374606299'>
              <parameter type-id='type-id-326' is-artificial='yes'/>
              <parameter type-id='type-id-416'/>
              <return type-id='type-id-325'/>
            </function-decl>
          </member-function>
          <member-function access='public' const='yes'>
            <function-decl name='compare' mangled-name='_ZNK5boost10filesystem4path7compareERKS1_' filepath='src/third_party/boost-1.56.0/libs/filesystem/src/path.cpp' line='194' column='1' visibility='default' binding='global' size-in-bits='64' elf-symbol-id='_ZNK5boost10filesystem4path7compareERKS1_' hash='80fe3a5f34b19c6f'>
              <parameter type-id='type-id-405' is-artificial='yes'/>
              <parameter type-id='type-id-404'/>
              <return type-id='type-id-12'/>
            </function-decl>
          </member-function>
          <member-function access='private'>
            <function-decl name='m_append_separator_if_needed' mangled-name='_ZN5boost10filesystem4path28m_append_separator_if_neededEv' filepath='src/third_party/boost-1.56.0/libs/filesystem/src/path.cpp' line='219' column='1' visibility='default' binding='global' size-in-bits='64' elf-symbol-id='_ZN5boost10filesystem4path28m_append_separator_if_neededEv' hash='e0055d99adb0e173#2'>
              <parameter type-id='type-id-326' is-artificial='yes'/>
              <return type-id='type-id-145'/>
            </function-decl>
          </member-function>
          <member-function access='private'>
            <function-decl name='m_erase_redundant_separator' mangled-name='_ZN5boost10filesystem4path27m_erase_redundant_separatorEm' filepath='src/third_party/boost-1.56.0/libs/filesystem/src/path.cpp' line='236' column='1' visibility='default' binding='global' size-in-bits='64' elf-symbol-id='_ZN5boost10filesystem4path27m_erase_redundant_separatorEm' hash='e0055d99adb0e173'>
              <parameter type-id='type-id-326' is-artificial='yes'/>
              <parameter type-id='type-id-145'/>
              <return type-id='type-id-47'/>
            </function-decl>
          </member-function>
          <member-function access='public'>
            <function-decl name='remove_filename' mangled-name='_ZN5boost10filesystem4path15remove_filenameEv' filepath='src/third_party/boost-1.56.0/libs/filesystem/src/path.cpp' line='257' column='1' visibility='default' binding='global' size-in-bits='64' elf-symbol-id='_ZN5boost10filesystem4path15remove_filenameEv' hash='3638d6630be4ad96'>
              <parameter type-id='type-id-326' is-artificial='yes'/>
              <return type-id='type-id-325'/>
            </function-decl>
          </member-function>
          <member-function access='public'>
            <function-decl name='replace_extension' mangled-name='_ZN5boost10filesystem4path17replace_extensionERKS1_' filepath='src/third_party/boost-1.56.0/libs/filesystem/src/path.cpp' line='263' column='1' visibility='default' binding='global' size-in-bits='64' elf-symbol-id='_ZN5boost10filesystem4path17replace_extensionERKS1_' hash='6809054422aec0c5'>
              <parameter type-id='type-id-326' is-artificial='yes'/>
              <parameter type-id='type-id-404'/>
              <return type-id='type-id-325'/>
            </function-decl>
          </member-function>
          <member-function access='public' const='yes'>
            <function-decl name='root_path' mangled-name='_ZNK5boost10filesystem4path9root_pathEv' filepath='src/third_party/boost-1.56.0/libs/filesystem/src/path.cpp' line='281' column='1' visibility='default' binding='global' size-in-bits='64' elf-symbol-id='_ZNK5boost10filesystem4path9root_pathEv' hash='7f32ffea222edbe7'>
              <parameter type-id='type-id-405' is-artificial='yes'/>
              <return type-id='type-id-324'/>
            </function-decl>
          </member-function>
          <member-function access='public' const='yes'>
            <function-decl name='root_name' mangled-name='_ZNK5boost10filesystem4path9root_nameEv' filepath='src/third_party/boost-1.56.0/libs/filesystem/src/path.cpp' line='288' column='1' visibility='default' binding='global' size-in-bits='64' elf-symbol-id='_ZNK5boost10filesystem4path9root_nameEv' hash='7f32ffea222edbe7'>
              <parameter type-id='type-id-405' is-artificial='yes'/>
              <return type-id='type-id-324'/>
            </function-decl>
          </member-function>
          <member-function access='public' const='yes'>
            <function-decl name='root_directory' mangled-name='_ZNK5boost10filesystem4path14root_directoryEv' filepath='src/third_party/boost-1.56.0/libs/filesystem/src/path.cpp' line='306' column='1' visibility='default' binding='global' size-in-bits='64' elf-symbol-id='_ZNK5boost10filesystem4path14root_directoryEv' hash='7f32ffea222edbe7'>
              <parameter type-id='type-id-405' is-artificial='yes'/>
              <return type-id='type-id-324'/>
            </function-decl>
          </member-function>
          <member-function access='public' const='yes'>
            <function-decl name='relative_path' mangled-name='_ZNK5boost10filesystem4path13relative_pathEv' filepath='src/third_party/boost-1.56.0/libs/filesystem/src/path.cpp' line='315' column='1' visibility='default' binding='global' size-in-bits='64' elf-symbol-id='_ZNK5boost10filesystem4path13relative_pathEv' hash='7f32ffea222edbe7'>
              <parameter type-id='type-id-405' is-artificial='yes'/>
              <return type-id='type-id-324'/>
            </function-decl>
          </member-function>
          <member-function access='private' const='yes'>
            <function-decl name='m_parent_path_end' mangled-name='_ZNK5boost10filesystem4path17m_parent_path_endEv' filepath='src/third_party/boost-1.56.0/libs/filesystem/src/path.cpp' line='329' column='1' visibility='default' binding='global' size-in-bits='64' elf-symbol-id='_ZNK5boost10filesystem4path17m_parent_path_endEv' hash='e0055d99adb0e173'>
              <parameter type-id='type-id-405' is-artificial='yes'/>
              <return type-id='type-id-145'/>
            </function-decl>
          </member-function>
          <member-function access='public' const='yes'>
            <function-decl name='parent_path' mangled-name='_ZNK5boost10filesystem4path11parent_pathEv' filepath='src/third_party/boost-1.56.0/libs/filesystem/src/path.cpp' line='350' column='1' visibility='default' binding='global' size-in-bits='64' elf-symbol-id='_ZNK5boost10filesystem4path11parent_pathEv' hash='7f32ffea222edbe7'>
              <parameter type-id='type-id-405' is-artificial='yes'/>
              <return type-id='type-id-324'/>
            </function-decl>
          </member-function>
          <member-function access='public' const='yes'>
            <function-decl name='filename' mangled-name='_ZNK5boost10filesystem4path8filenameEv' filepath='src/third_party/boost-1.56.0/libs/filesystem/src/path.cpp' line='358' column='1' visibility='default' binding='global' size-in-bits='64' elf-symbol-id='_ZNK5boost10filesystem4path8filenameEv' hash='7f32ffea222edbe7'>
              <parameter type-id='type-id-405' is-artificial='yes'/>
              <return type-id='type-id-324'/>
            </function-decl>
          </member-function>
          <member-function access='public' const='yes'>
            <function-decl name='stem' mangled-name='_ZNK5boost10filesystem4path4stemEv' filepath='src/third_party/boost-1.56.0/libs/filesystem/src/path.cpp' line='369' column='1' visibility='default' binding='global' size-in-bits='64' elf-symbol-id='_ZNK5boost10filesystem4path4stemEv' hash='7f32ffea222edbe7'>
              <parameter type-id='type-id-405' is-artificial='yes'/>
              <return type-id='type-id-324'/>
            </function-decl>
          </member-function>
          <member-function access='public' const='yes'>
            <function-decl name='extension' mangled-name='_ZNK5boost10filesystem4path9extensionEv' filepath='src/third_party/boost-1.56.0/libs/filesystem/src/path.cpp' line='379' column='1' visibility='default' binding='global' size-in-bits='64' elf-symbol-id='_ZNK5boost10filesystem4path9extensionEv' hash='7f32ffea222edbe7'>
              <parameter type-id='type-id-405' is-artificial='yes'/>
              <return type-id='type-id-324'/>
            </function-decl>
          </member-function>
          <member-function access='private'>
            <function-decl name='m_normalize' mangled-name='_ZN5boost10filesystem4path11m_normalizeEv' filepath='src/third_party/boost-1.56.0/libs/filesystem/src/path.cpp' line='391' column='1' visibility='default' binding='global' size-in-bits='64' elf-symbol-id='_ZN5boost10filesystem4path11m_normalizeEv' hash='3638d6630be4ad96'>
              <parameter type-id='type-id-326' is-artificial='yes'/>
              <return type-id='type-id-325'/>
            </function-decl>
          </member-function>
          <member-function access='public' const='yes'>
            <function-decl name='begin' mangled-name='_ZNK5boost10filesystem4path5beginEv' filepath='src/third_party/boost-1.56.0/libs/filesystem/src/path.cpp' line='672' column='1' visibility='default' binding='global' size-in-bits='64' elf-symbol-id='_ZNK5boost10filesystem4path5beginEv' hash='7f32ffea222edbe7'>
              <parameter type-id='type-id-405' is-artificial='yes'/>
              <return type-id='type-id-328'/>
            </function-decl>
          </member-function>
          <member-function access='public' const='yes'>
            <function-decl name='end' mangled-name='_ZNK5boost10filesystem4path3endEv' filepath='src/third_party/boost-1.56.0/libs/filesystem/src/path.cpp' line='684' column='1' visibility='default' binding='global' size-in-bits='64' elf-symbol-id='_ZNK5boost10filesystem4path3endEv' hash='7f32ffea222edbe7'>
              <parameter type-id='type-id-405' is-artificial='yes'/>
              <return type-id='type-id-328'/>
            </function-decl>
          </member-function>
          <member-function access='private' static='yes'>
            <function-decl name='m_path_iterator_increment' mangled-name='_ZN5boost10filesystem4path25m_path_iterator_incrementERNS1_8iteratorE' filepath='src/third_party/boost-1.56.0/libs/filesystem/src/path.cpp' line='692' column='1' visibility='default' binding='global' size-in-bits='64' elf-symbol-id='_ZN5boost10filesystem4path25m_path_iterator_incrementERNS1_8iteratorE' hash='3752971c606a7f94'>
              <parameter type-id='type-id-329'/>
              <return type-id='type-id-47'/>
            </function-decl>
          </member-function>
          <member-function access='private' static='yes'>
            <function-decl name='m_path_iterator_decrement' mangled-name='_ZN5boost10filesystem4path25m_path_iterator_decrementERNS1_8iteratorE' filepath='src/third_party/boost-1.56.0/libs/filesystem/src/path.cpp' line='751' column='1' visibility='default' binding='global' size-in-bits='64' elf-symbol-id='_ZN5boost10filesystem4path25m_path_iterator_decrementERNS1_8iteratorE' hash='3752971c606a7f94'>
              <parameter type-id='type-id-329'/>
              <return type-id='type-id-47'/>
            </function-decl>
          </member-function>
          <member-function access='public' static='yes'>
            <function-decl name='codecvt' mangled-name='_ZN5boost10filesystem4path7codecvtEv' filepath='src/third_party/boost-1.56.0/libs/filesystem/src/path.cpp' line='872' column='1' visibility='default' binding='global' size-in-bits='64' elf-symbol-id='_ZN5boost10filesystem4path7codecvtEv' hash='7f32ffea222edbe7'>
              <return type-id='type-id-531'/>
            </function-decl>
          </member-function>
          <member-function access='public' static='yes'>
            <function-decl name='imbue' mangled-name='_ZN5boost10filesystem4path5imbueERKSt6locale' filepath='src/third_party/boost-1.56.0/libs/filesystem/src/path.cpp' line='879' column='1' visibility='default' binding='global' size-in-bits='64' elf-symbol-id='_ZN5boost10filesystem4path5imbueERKSt6locale' hash='81edaeb7d812470b'>
              <parameter type-id='type-id-476'/>
              <return type-id='type-id-474'/>
            </function-decl>
          </member-function>
          <member-function access='public'>
            <function-decl name='path&lt;char const*&gt;' mangled-name='_ZN5boost10filesystem4pathC2IPKcEET_S5_' filepath='src/third_party/boost-1.56.0/boost/filesystem/path.hpp' line='161' column='1' declared-inline='yes' visibility='default' binding='global' size-in-bits='64' elf-symbol-id='_ZN5boost10filesystem4pathC2IPKcEET_S5_' hash='3d5693612af11c46'>
              <parameter type-id='type-id-326' is-artificial='yes'/>
              <parameter type-id='type-id-43'/>
              <parameter type-id='type-id-43'/>
              <return type-id='type-id-47'/>
            </function-decl>
          </member-function>
          <member-function access='public'>
            <function-decl name='operator=&lt;std::basic_string&lt;char&gt; &gt;' mangled-name='_ZN5boost10filesystem4pathaSISsEENS_9enable_ifINS0_11path_traits11is_pathableINS_5decayIT_E4typeEEERS1_E4typeERKS7_' filepath='src/third_party/boost-1.56.0/boost/filesystem/path.hpp' line='199' column='1' visibility='default' binding='global' size-in-bits='64' elf-symbol-id='_ZN5boost10filesystem4pathaSISsEENS_9enable_ifINS0_11path_traits11is_pathableINS_5decayIT_E4typeEEERS1_E4typeERKS7_' hash='1db552061383949c'>
              <parameter type-id='type-id-326' is-artificial='yes'/>
              <parameter type-id='type-id-140'/>
              <return type-id='type-id-608'/>
            </function-decl>
          </member-function>
          <member-function access='public' const='yes'>
            <function-decl name='wstring' mangled-name='_ZNK5boost10filesystem4path7wstringEv' filepath='src/third_party/boost-1.56.0/boost/filesystem/path.hpp' line='386' column='1' visibility='default' binding='global' size-in-bits='64' elf-symbol-id='_ZNK5boost10filesystem4path7wstringEv' hash='328fbb3775d3a9e0'>
              <parameter type-id='type-id-405' is-artificial='yes'/>
              <return type-id='type-id-496'/>
            </function-decl>
          </member-function>
          <member-function access='public' const='yes'>
            <function-decl name='wstring' mangled-name='_ZNK5boost10filesystem4path7wstringERKSt7codecvtIwc11__mbstate_tE' filepath='src/third_party/boost-1.56.0/boost/filesystem/path.hpp' line='387' column='1' visibility='default' binding='global' size-in-bits='64' elf-symbol-id='_ZNK5boost10filesystem4path7wstringERKSt7codecvtIwc11__mbstate_tE' hash='328fbb3775d3a9e0'>
              <parameter type-id='type-id-405' is-artificial='yes'/>
              <parameter type-id='type-id-531'/>
              <return type-id='type-id-496'/>
            </function-decl>
          </member-function>
          <member-function access='public'>
            <function-decl name='path&lt;std::basic_string&lt;wchar_t&gt; &gt;' mangled-name='_ZN5boost10filesystem4pathC2ISbIwSt11char_traitsIwESaIwEEEERKT_PNS_9enable_ifINS0_11path_traits11is_pathableINS_5decayIS7_E4typeEEEvE4typeE' filepath='src/third_party/boost-1.56.0/boost/filesystem/path.hpp' line='135' column='1' declared-inline='yes' visibility='default' binding='global' size-in-bits='64' elf-symbol-id='_ZN5boost10filesystem4pathC2ISbIwSt11char_traitsIwESaIwEEEERKT_PNS_9enable_ifINS0_11path_traits11is_pathableINS_5decayIS7_E4typeEEEvE4typeE' hash='7b2ce37d1ce46d14'>
              <parameter type-id='type-id-326' is-artificial='yes'/>
              <parameter type-id='type-id-464'/>
              <parameter type-id='type-id-615'/>
              <return type-id='type-id-47'/>
            </function-decl>
          </member-function>
        </class-decl>
        <enum-decl name='copy_option' size-in-bits='32' alignment-in-bits='32' filepath='src/third_party/boost-1.56.0/boost/filesystem/operations.hpp' line='304' column='1' hash='a837949d2c075c87' id='type-id-616'>
          <underlying-type type-id='type-id-265'/>
          <enumerator name='none' value='0'/>
          <enumerator name='fail_if_exists' value='0'/>
          <enumerator name='overwrite_if_exists' value='1'/>
        </enum-decl>
        <enum-decl name='file_type' size-in-bits='32' alignment-in-bits='32' filepath='src/third_party/boost-1.56.0/boost/filesystem/operations.hpp' line='172' column='1' hash='064f74cb60dc2f73' id='type-id-610'>
          <underlying-type type-id='type-id-265'/>
          <enumerator name='status_error' value='0'/>
          <enumerator name='status_unknown' value='0'/>
          <enumerator name='file_not_found' value='1'/>
          <enumerator name='regular_file' value='2'/>
          <enumerator name='directory_file' value='3'/>
          <enumerator name='symlink_file' value='4'/>
          <enumerator name='block_file' value='5'/>
          <enumerator name='character_file' value='6'/>
          <enumerator name='fifo_file' value='7'/>
          <enumerator name='socket_file' value='8'/>
          <enumerator name='reparse_file' value='9'/>
          <enumerator name='type_unknown' value='10'/>
          <enumerator name='_detail_directory_symlink' value='11'/>
        </enum-decl>
        <enum-decl name='perms' size-in-bits='32' alignment-in-bits='32' filepath='src/third_party/boost-1.56.0/boost/filesystem/operations.hpp' line='198' column='1' hash='9e85a92882e94023' id='type-id-332'>
          <underlying-type type-id='type-id-265'/>
          <enumerator name='no_perms' value='0'/>
          <enumerator name='owner_read' value='256'/>
          <enumerator name='owner_write' value='128'/>
          <enumerator name='owner_exe' value='64'/>
          <enumerator name='owner_all' value='448'/>
          <enumerator name='group_read' value='32'/>
          <enumerator name='group_write' value='16'/>
          <enumerator name='group_exe' value='8'/>
          <enumerator name='group_all' value='56'/>
          <enumerator name='others_read' value='4'/>
          <enumerator name='others_write' value='2'/>
          <enumerator name='others_exe' value='1'/>
          <enumerator name='others_all' value='7'/>
          <enumerator name='all_all' value='511'/>
          <enumerator name='set_uid_on_exe' value='2048'/>
          <enumerator name='set_gid_on_exe' value='1024'/>
          <enumerator name='sticky_bit' value='512'/>
          <enumerator name='perms_mask' value='4095'/>
          <enumerator name='perms_not_known' value='65535'/>
          <enumerator name='add_perms' value='4096'/>
          <enumerator name='remove_perms' value='8192'/>
          <enumerator name='symlink_perms' value='16384'/>
        </enum-decl>
        <class-decl name='space_info' is-struct='yes' visibility='default' size-in-bits='192' filepath='src/third_party/boost-1.56.0/boost/filesystem/operations.hpp' line='296' column='1' hash='ddb6d1e89307108f' id='type-id-617'>
          <data-member access='public' layout-offset-in-bits='0'>
            <var-decl name='capacity' type-id='type-id-264' visibility='default' filepath='src/third_party/boost-1.56.0/boost/filesystem/operations.hpp' line='299' column='1'/>
          </data-member>
          <data-member access='public' layout-offset-in-bits='64'>
            <var-decl name='free' type-id='type-id-264' visibility='default' filepath='src/third_party/boost-1.56.0/boost/filesystem/operations.hpp' line='300' column='1'/>
          </data-member>
          <data-member access='public' layout-offset-in-bits='128'>
            <var-decl name='available' type-id='type-id-264' visibility='default' filepath='src/third_party/boost-1.56.0/boost/filesystem/operations.hpp' line='301' column='1'/>
          </data-member>
        </class-decl>
        <function-decl name='operator&amp;' mangled-name='_ZN5boost10filesystemanENS0_5permsES1_' filepath='src/third_party/boost-1.56.0/boost/filesystem/operations.hpp' line='250' column='1' visibility='default' binding='global' size-in-bits='64' elf-symbol-id='_ZN5boost10filesystemanENS0_5permsES1_' hash='71aae249fd78d6cf'>
          <parameter type-id='type-id-332'/>
          <parameter type-id='type-id-332'/>
          <return type-id='type-id-332'/>
        </function-decl>
        <function-decl name='operator|' mangled-name='_ZN5boost10filesystemorENS0_5permsES1_' filepath='src/third_party/boost-1.56.0/boost/filesystem/operations.hpp' line='250' column='1' visibility='default' binding='global' size-in-bits='64' elf-symbol-id='_ZN5boost10filesystemorENS0_5permsES1_' hash='71aae249fd78d6cf'>
          <parameter type-id='type-id-332'/>
          <parameter type-id='type-id-332'/>
          <return type-id='type-id-332'/>
        </function-decl>
        <function-decl name='operator~' mangled-name='_ZN5boost10filesystemcoENS0_5permsE' filepath='src/third_party/boost-1.56.0/boost/filesystem/operations.hpp' line='250' column='1' visibility='default' binding='global' size-in-bits='64' elf-symbol-id='_ZN5boost10filesystemcoENS0_5permsE' hash='5dac84ade855e315'>
          <parameter type-id='type-id-332'/>
          <return type-id='type-id-332'/>
        </function-decl>
        <function-decl name='operator|=' mangled-name='_ZN5boost10filesystemoRERNS0_5permsES1_' filepath='src/third_party/boost-1.56.0/boost/filesystem/operations.hpp' line='250' column='1' visibility='default' binding='global' size-in-bits='64' elf-symbol-id='_ZN5boost10filesystemoRERNS0_5permsES1_' hash='60246736b901486a'>
          <parameter type-id='type-id-333'/>
          <parameter type-id='type-id-332'/>
          <return type-id='type-id-333'/>
        </function-decl>
        <function-decl name='type_present' mangled-name='_ZN5boost10filesystem12type_presentENS0_11file_statusE' filepath='src/third_party/boost-1.56.0/boost/filesystem/operations.hpp' line='280' column='1' visibility='default' binding='global' size-in-bits='64' elf-symbol-id='_ZN5boost10filesystem12type_presentENS0_11file_statusE' hash='c7c710e908194b91'>
          <parameter type-id='type-id-314'/>
          <return type-id='type-id-1'/>
        </function-decl>
        <function-decl name='permissions_present' mangled-name='_ZN5boost10filesystem19permissions_presentENS0_11file_statusE' filepath='src/third_party/boost-1.56.0/boost/filesystem/operations.hpp' line='281' column='1' visibility='default' binding='global' size-in-bits='64' elf-symbol-id='_ZN5boost10filesystem19permissions_presentENS0_11file_statusE' hash='c7c710e908194b91'>
          <parameter type-id='type-id-314'/>
          <return type-id='type-id-1'/>
        </function-decl>
        <function-decl name='status_known' mangled-name='_ZN5boost10filesystem12status_knownENS0_11file_statusE' filepath='src/third_party/boost-1.56.0/boost/filesystem/operations.hpp' line='283' column='1' visibility='default' binding='global' size-in-bits='64' elf-symbol-id='_ZN5boost10filesystem12status_knownENS0_11file_statusE' hash='c7c710e908194b91'>
          <parameter type-id='type-id-314'/>
          <return type-id='type-id-1'/>
        </function-decl>
        <function-decl name='is_regular_file' mangled-name='_ZN5boost10filesystem15is_regular_fileENS0_11file_statusE' filepath='src/third_party/boost-1.56.0/boost/filesystem/operations.hpp' line='286' column='1' visibility='default' binding='global' size-in-bits='64' elf-symbol-id='_ZN5boost10filesystem15is_regular_fileENS0_11file_statusE' hash='c7c710e908194b91'>
          <parameter type-id='type-id-314'/>
          <return type-id='type-id-1'/>
        </function-decl>
        <function-decl name='is_directory' mangled-name='_ZN5boost10filesystem12is_directoryENS0_11file_statusE' filepath='src/third_party/boost-1.56.0/boost/filesystem/operations.hpp' line='287' column='1' visibility='default' binding='global' size-in-bits='64' elf-symbol-id='_ZN5boost10filesystem12is_directoryENS0_11file_statusE' hash='c7c710e908194b91'>
          <parameter type-id='type-id-314'/>
          <return type-id='type-id-1'/>
        </function-decl>
        <function-decl name='is_symlink' mangled-name='_ZN5boost10filesystem10is_symlinkENS0_11file_statusE' filepath='src/third_party/boost-1.56.0/boost/filesystem/operations.hpp' line='288' column='1' visibility='default' binding='global' size-in-bits='64' elf-symbol-id='_ZN5boost10filesystem10is_symlinkENS0_11file_statusE' hash='c7c710e908194b91'>
          <parameter type-id='type-id-314'/>
          <return type-id='type-id-1'/>
        </function-decl>
        <function-decl name='status' mangled-name='_ZN5boost10filesystem6statusERKNS0_4pathERNS_6system10error_codeE' filepath='src/third_party/boost-1.56.0/boost/filesystem/operations.hpp' line='392' column='1' visibility='default' binding='global' size-in-bits='64' elf-symbol-id='_ZN5boost10filesystem6statusERKNS0_4pathERNS_6system10error_codeE' hash='f9d260a0f6548879'>
          <parameter type-id='type-id-404'/>
          <parameter type-id='type-id-360'/>
          <return type-id='type-id-314'/>
        </function-decl>
        <function-decl name='symlink_status' mangled-name='_ZN5boost10filesystem14symlink_statusERKNS0_4pathERNS_6system10error_codeE' filepath='src/third_party/boost-1.56.0/boost/filesystem/operations.hpp' line='397' column='1' visibility='default' binding='global' size-in-bits='64' elf-symbol-id='_ZN5boost10filesystem14symlink_statusERKNS0_4pathERNS_6system10error_codeE' hash='f9d260a0f6548879'>
          <parameter type-id='type-id-404'/>
          <parameter type-id='type-id-360'/>
          <return type-id='type-id-314'/>
        </function-decl>
        <function-decl name='is_directory' mangled-name='_ZN5boost10filesystem12is_directoryERKNS0_4pathE' filepath='src/third_party/boost-1.56.0/boost/filesystem/operations.hpp' line='405' column='1' visibility='default' binding='global' size-in-bits='64' elf-symbol-id='_ZN5boost10filesystem12is_directoryERKNS0_4pathE' hash='a5301eaffe66a9c3'>
          <parameter type-id='type-id-404'/>
          <return type-id='type-id-1'/>
        </function-decl>
        <function-decl name='is_directory' mangled-name='_ZN5boost10filesystem12is_directoryERKNS0_4pathERNS_6system10error_codeE' filepath='src/third_party/boost-1.56.0/boost/filesystem/operations.hpp' line='407' column='1' visibility='default' binding='global' size-in-bits='64' elf-symbol-id='_ZN5boost10filesystem12is_directoryERKNS0_4pathERNS_6system10error_codeE' hash='2f583a512aef4b53'>
          <parameter type-id='type-id-404'/>
          <parameter type-id='type-id-360'/>
          <return type-id='type-id-1'/>
        </function-decl>
        <function-decl name='copy_directory' mangled-name='_ZN5boost10filesystem14copy_directoryERKNS0_4pathES3_RNS_6system10error_codeE' filepath='src/third_party/boost-1.56.0/boost/filesystem/operations.hpp' line='487' column='1' visibility='default' binding='global' size-in-bits='64' elf-symbol-id='_ZN5boost10filesystem14copy_directoryERKNS0_4pathES3_RNS_6system10error_codeE' hash='93af5b683d8dc72b'>
          <parameter type-id='type-id-404'/>
          <parameter type-id='type-id-404'/>
          <parameter type-id='type-id-360'/>
          <return type-id='type-id-47'/>
        </function-decl>
        <function-decl name='copy_file' mangled-name='_ZN5boost10filesystem9copy_fileERKNS0_4pathES3_NS0_11copy_optionERNS_6system10error_codeE' filepath='src/third_party/boost-1.56.0/boost/filesystem/operations.hpp' line='497' column='1' visibility='default' binding='global' size-in-bits='64' elf-symbol-id='_ZN5boost10filesystem9copy_fileERKNS0_4pathES3_NS0_11copy_optionERNS_6system10error_codeE' hash='c6c19e27c17e8ef2'>
          <parameter type-id='type-id-404'/>
          <parameter type-id='type-id-404'/>
          <parameter type-id='type-id-616'/>
          <parameter type-id='type-id-360'/>
          <return type-id='type-id-47'/>
        </function-decl>
        <function-decl name='copy_symlink' mangled-name='_ZN5boost10filesystem12copy_symlinkERKNS0_4pathES3_RNS_6system10error_codeE' filepath='src/third_party/boost-1.56.0/boost/filesystem/operations.hpp' line='507' column='1' visibility='default' binding='global' size-in-bits='64' elf-symbol-id='_ZN5boost10filesystem12copy_symlinkERKNS0_4pathES3_RNS_6system10error_codeE' hash='93af5b683d8dc72b'>
          <parameter type-id='type-id-404'/>
          <parameter type-id='type-id-404'/>
          <parameter type-id='type-id-360'/>
          <return type-id='type-id-47'/>
        </function-decl>
        <function-decl name='create_directories' mangled-name='_ZN5boost10filesystem18create_directoriesERKNS0_4pathERNS_6system10error_codeE' filepath='src/third_party/boost-1.56.0/boost/filesystem/operations.hpp' line='513' column='1' visibility='default' binding='global' size-in-bits='64' elf-symbol-id='_ZN5boost10filesystem18create_directoriesERKNS0_4pathERNS_6system10error_codeE' hash='2f583a512aef4b53'>
          <parameter type-id='type-id-404'/>
          <parameter type-id='type-id-360'/>
          <return type-id='type-id-1'/>
        </function-decl>
        <function-decl name='current_path' mangled-name='_ZN5boost10filesystem12current_pathEv' filepath='src/third_party/boost-1.56.0/boost/filesystem/operations.hpp' line='540' column='1' visibility='default' binding='global' size-in-bits='64' elf-symbol-id='_ZN5boost10filesystem12current_pathEv' hash='7f32ffea222edbe7'>
          <return type-id='type-id-324'/>
        </function-decl>
        <namespace-decl name='detail'>
          <class-decl name='dir_itr_imp' is-struct='yes' visibility='default' size-in-bits='320' filepath='src/third_party/boost-1.56.0/boost/filesystem/operations.hpp' line='741' column='1' hash='e8d34d546c7a9f64' id='type-id-301'>
            <data-member access='public' layout-offset-in-bits='0'>
              <var-decl name='dir_entry' type-id='type-id-306' visibility='default' filepath='src/third_party/boost-1.56.0/boost/filesystem/operations.hpp' line='743' column='1'/>
            </data-member>
            <data-member access='public' layout-offset-in-bits='192'>
              <var-decl name='handle' type-id='type-id-29' visibility='default' filepath='src/third_party/boost-1.56.0/boost/filesystem/operations.hpp' line='744' column='1'/>
            </data-member>
            <data-member access='public' layout-offset-in-bits='256'>
              <var-decl name='buffer' type-id='type-id-29' visibility='default' filepath='src/third_party/boost-1.56.0/boost/filesystem/operations.hpp' line='747' column='1'/>
            </data-member>
            <member-function access='public' constructor='yes'>
              <function-decl name='dir_itr_imp' mangled-name='_ZN5boost10filesystem6detail11dir_itr_impC2Ev' filepath='src/third_party/boost-1.56.0/boost/filesystem/operations.hpp' line='750' column='1' declared-inline='yes' visibility='default' binding='global' size-in-bits='64' elf-symbol-id='_ZN5boost10filesystem6detail11dir_itr_impC2Ev' hash='7f32ffea222edbe7'>
                <parameter type-id='type-id-303' is-artificial='yes'/>
                <return type-id='type-id-47'/>
              </function-decl>
            </member-function>
            <member-function access='public' destructor='yes'>
              <function-decl name='~dir_itr_imp' mangled-name='_ZN5boost10filesystem6detail11dir_itr_impD2Ev' filepath='src/third_party/boost-1.56.0/boost/filesystem/operations.hpp' line='756' column='1' declared-inline='yes' visibility='default' binding='global' size-in-bits='64' elf-symbol-id='_ZN5boost10filesystem6detail11dir_itr_impD2Ev' hash='7f32ffea222edbe7'>
                <parameter type-id='type-id-303' is-artificial='yes'/>
                <return type-id='type-id-47'/>
              </function-decl>
            </member-function>
          </class-decl>
          <function-decl name='possible_large_file_size_support' mangled-name='_ZN5boost10filesystem6detail32possible_large_file_size_supportEv' filepath='src/third_party/boost-1.56.0/libs/filesystem/src/operations.cpp' line='764' column='1' visibility='default' binding='global' size-in-bits='64' elf-symbol-id='_ZN5boost10filesystem6detail32possible_large_file_size_supportEv' hash='c7c710e908194b91'>
            <return type-id='type-id-1'/>
          </function-decl>
          <function-decl name='canonical' mangled-name='_ZN5boost10filesystem6detail9canonicalERKNS0_4pathES4_PNS_6system10error_codeE' filepath='src/third_party/boost-1.56.0/libs/filesystem/src/operations.cpp' line='775' column='1' visibility='default' binding='global' size-in-bits='64' elf-symbol-id='_ZN5boost10filesystem6detail9canonicalERKNS0_4pathES4_PNS_6system10error_codeE' hash='65ef8b1f0a7a4d0e'>
            <parameter type-id='type-id-404'/>
            <parameter type-id='type-id-404'/>
            <parameter type-id='type-id-84'/>
            <return type-id='type-id-324'/>
          </function-decl>
          <function-decl name='copy' mangled-name='_ZN5boost10filesystem6detail4copyERKNS0_4pathES4_PNS_6system10error_codeE' filepath='src/third_party/boost-1.56.0/libs/filesystem/src/operations.cpp' line='857' column='1' visibility='default' binding='global' size-in-bits='64' elf-symbol-id='_ZN5boost10filesystem6detail4copyERKNS0_4pathES4_PNS_6system10error_codeE' hash='65ef8b1f0a7a4d0e'>
            <parameter type-id='type-id-404'/>
            <parameter type-id='type-id-404'/>
            <parameter type-id='type-id-84'/>
            <return type-id='type-id-47'/>
          </function-decl>
          <function-decl name='copy_directory' mangled-name='_ZN5boost10filesystem6detail14copy_directoryERKNS0_4pathES4_PNS_6system10error_codeE' filepath='src/third_party/boost-1.56.0/libs/filesystem/src/operations.cpp' line='884' column='1' visibility='default' binding='global' size-in-bits='64' elf-symbol-id='_ZN5boost10filesystem6detail14copy_directoryERKNS0_4pathES4_PNS_6system10error_codeE' hash='65ef8b1f0a7a4d0e'>
            <parameter type-id='type-id-404'/>
            <parameter type-id='type-id-404'/>
            <parameter type-id='type-id-84'/>
            <return type-id='type-id-47'/>
          </function-decl>
          <function-decl name='copy_file' mangled-name='_ZN5boost10filesystem6detail9copy_fileERKNS0_4pathES4_NS0_11copy_optionEPNS_6system10error_codeE' filepath='src/third_party/boost-1.56.0/libs/filesystem/src/operations.cpp' line='894' column='1' visibility='default' binding='global' size-in-bits='64' elf-symbol-id='_ZN5boost10filesystem6detail9copy_fileERKNS0_4pathES4_NS0_11copy_optionEPNS_6system10error_codeE' hash='6500fcd9a109c514'>
            <parameter type-id='type-id-404'/>
            <parameter type-id='type-id-404'/>
            <parameter type-id='type-id-616'/>
            <parameter type-id='type-id-84'/>
            <return type-id='type-id-47'/>
          </function-decl>
          <function-decl name='copy_symlink' mangled-name='_ZN5boost10filesystem6detail12copy_symlinkERKNS0_4pathES4_PNS_6system10error_codeE' filepath='src/third_party/boost-1.56.0/libs/filesystem/src/operations.cpp' line='904' column='1' visibility='default' binding='global' size-in-bits='64' elf-symbol-id='_ZN5boost10filesystem6detail12copy_symlinkERKNS0_4pathES4_PNS_6system10error_codeE' hash='65ef8b1f0a7a4d0e'>
            <parameter type-id='type-id-404'/>
            <parameter type-id='type-id-404'/>
            <parameter type-id='type-id-84'/>
            <return type-id='type-id-47'/>
          </function-decl>
          <function-decl name='create_directories' mangled-name='_ZN5boost10filesystem6detail18create_directoriesERKNS0_4pathEPNS_6system10error_codeE' filepath='src/third_party/boost-1.56.0/libs/filesystem/src/operations.cpp' line='921' column='1' visibility='default' binding='global' size-in-bits='64' elf-symbol-id='_ZN5boost10filesystem6detail18create_directoriesERKNS0_4pathEPNS_6system10error_codeE' hash='b29833b5238c504f'>
            <parameter type-id='type-id-404'/>
            <parameter type-id='type-id-84'/>
            <return type-id='type-id-1'/>
          </function-decl>
          <function-decl name='create_directory' mangled-name='_ZN5boost10filesystem6detail16create_directoryERKNS0_4pathEPNS_6system10error_codeE' filepath='src/third_party/boost-1.56.0/libs/filesystem/src/operations.cpp' line='961' column='1' visibility='default' binding='global' size-in-bits='64' elf-symbol-id='_ZN5boost10filesystem6detail16create_directoryERKNS0_4pathEPNS_6system10error_codeE' hash='b29833b5238c504f'>
            <parameter type-id='type-id-404'/>
            <parameter type-id='type-id-84'/>
            <return type-id='type-id-1'/>
          </function-decl>
          <function-decl name='create_directory_symlink' mangled-name='_ZN5boost10filesystem6detail24create_directory_symlinkERKNS0_4pathES4_PNS_6system10error_codeE' filepath='src/third_party/boost-1.56.0/libs/filesystem/src/operations.cpp' line='990' column='1' visibility='default' binding='global' size-in-bits='64' elf-symbol-id='_ZN5boost10filesystem6detail24create_directory_symlinkERKNS0_4pathES4_PNS_6system10error_codeE' hash='65ef8b1f0a7a4d0e'>
            <parameter type-id='type-id-404'/>
            <parameter type-id='type-id-404'/>
            <parameter type-id='type-id-84'/>
            <return type-id='type-id-47'/>
          </function-decl>
          <function-decl name='create_hard_link' mangled-name='_ZN5boost10filesystem6detail16create_hard_linkERKNS0_4pathES4_PNS_6system10error_codeE' filepath='src/third_party/boost-1.56.0/libs/filesystem/src/operations.cpp' line='1014' column='1' visibility='default' binding='global' size-in-bits='64' elf-symbol-id='_ZN5boost10filesystem6detail16create_hard_linkERKNS0_4pathES4_PNS_6system10error_codeE' hash='65ef8b1f0a7a4d0e'>
            <parameter type-id='type-id-404'/>
            <parameter type-id='type-id-404'/>
            <parameter type-id='type-id-84'/>
            <return type-id='type-id-47'/>
          </function-decl>
          <function-decl name='create_symlink' mangled-name='_ZN5boost10filesystem6detail14create_symlinkERKNS0_4pathES4_PNS_6system10error_codeE' filepath='src/third_party/boost-1.56.0/libs/filesystem/src/operations.cpp' line='1038' column='1' visibility='default' binding='global' size-in-bits='64' elf-symbol-id='_ZN5boost10filesystem6detail14create_symlinkERKNS0_4pathES4_PNS_6system10error_codeE' hash='65ef8b1f0a7a4d0e'>
            <parameter type-id='type-id-404'/>
            <parameter type-id='type-id-404'/>
            <parameter type-id='type-id-84'/>
            <return type-id='type-id-47'/>
          </function-decl>
          <function-decl name='current_path' mangled-name='_ZN5boost10filesystem6detail12current_pathEPNS_6system10error_codeE' filepath='src/third_party/boost-1.56.0/libs/filesystem/src/operations.cpp' line='1060' column='1' visibility='default' binding='global' size-in-bits='64' elf-symbol-id='_ZN5boost10filesystem6detail12current_pathEPNS_6system10error_codeE' hash='69d1383cc636e9cf'>
            <parameter type-id='type-id-84'/>
            <return type-id='type-id-324'/>
          </function-decl>
          <function-decl name='current_path' mangled-name='_ZN5boost10filesystem6detail12current_pathERKNS0_4pathEPNS_6system10error_codeE' filepath='src/third_party/boost-1.56.0/libs/filesystem/src/operations.cpp' line='1101' column='1' visibility='default' binding='global' size-in-bits='64' elf-symbol-id='_ZN5boost10filesystem6detail12current_pathERKNS0_4pathEPNS_6system10error_codeE' hash='e2bb4aa31bf09068'>
            <parameter type-id='type-id-404'/>
            <parameter type-id='type-id-84'/>
            <return type-id='type-id-47'/>
          </function-decl>
          <function-decl name='equivalent' mangled-name='_ZN5boost10filesystem6detail10equivalentERKNS0_4pathES4_PNS_6system10error_codeE' filepath='src/third_party/boost-1.56.0/libs/filesystem/src/operations.cpp' line='1108' column='1' visibility='default' binding='global' size-in-bits='64' elf-symbol-id='_ZN5boost10filesystem6detail10equivalentERKNS0_4pathES4_PNS_6system10error_codeE' hash='7ef241bf668cf60b'>
            <parameter type-id='type-id-404'/>
            <parameter type-id='type-id-404'/>
            <parameter type-id='type-id-84'/>
            <return type-id='type-id-1'/>
          </function-decl>
          <function-decl name='file_size' mangled-name='_ZN5boost10filesystem6detail9file_sizeERKNS0_4pathEPNS_6system10error_codeE' filepath='src/third_party/boost-1.56.0/libs/filesystem/src/operations.cpp' line='1201' column='1' visibility='default' binding='global' size-in-bits='64' elf-symbol-id='_ZN5boost10filesystem6detail9file_sizeERKNS0_4pathEPNS_6system10error_codeE' hash='0e3a6fb94d99bb21'>
            <parameter type-id='type-id-404'/>
            <parameter type-id='type-id-84'/>
            <return type-id='type-id-264'/>
          </function-decl>
          <function-decl name='hard_link_count' mangled-name='_ZN5boost10filesystem6detail15hard_link_countERKNS0_4pathEPNS_6system10error_codeE' filepath='src/third_party/boost-1.56.0/libs/filesystem/src/operations.cpp' line='1237' column='1' visibility='default' binding='global' size-in-bits='64' elf-symbol-id='_ZN5boost10filesystem6detail15hard_link_countERKNS0_4pathEPNS_6system10error_codeE' hash='0e3a6fb94d99bb21'>
            <parameter type-id='type-id-404'/>
            <parameter type-id='type-id-84'/>
            <return type-id='type-id-264'/>
          </function-decl>
          <function-decl name='initial_path' mangled-name='_ZN5boost10filesystem6detail12initial_pathEPNS_6system10error_codeE' filepath='src/third_party/boost-1.56.0/libs/filesystem/src/operations.cpp' line='1266' column='1' visibility='default' binding='global' size-in-bits='64' elf-symbol-id='_ZN5boost10filesystem6detail12initial_pathEPNS_6system10error_codeE' hash='69d1383cc636e9cf'>
            <parameter type-id='type-id-84'/>
            <return type-id='type-id-324'/>
          </function-decl>
          <function-decl name='is_empty' mangled-name='_ZN5boost10filesystem6detail8is_emptyERKNS0_4pathEPNS_6system10error_codeE' filepath='src/third_party/boost-1.56.0/libs/filesystem/src/operations.cpp' line='1276' column='1' visibility='default' binding='global' size-in-bits='64' elf-symbol-id='_ZN5boost10filesystem6detail8is_emptyERKNS0_4pathEPNS_6system10error_codeE' hash='b29833b5238c504f'>
            <parameter type-id='type-id-404'/>
            <parameter type-id='type-id-84'/>
            <return type-id='type-id-1'/>
          </function-decl>
          <function-decl name='last_write_time' mangled-name='_ZN5boost10filesystem6detail15last_write_timeERKNS0_4pathEPNS_6system10error_codeE' filepath='src/third_party/boost-1.56.0/libs/filesystem/src/operations.cpp' line='1303' column='1' visibility='default' binding='global' size-in-bits='64' elf-symbol-id='_ZN5boost10filesystem6detail15last_write_timeERKNS0_4pathEPNS_6system10error_codeE' hash='53de53fc9b859590'>
            <parameter type-id='type-id-404'/>
            <parameter type-id='type-id-84'/>
            <return type-id='type-id-59'/>
          </function-decl>
          <function-decl name='last_write_time' mangled-name='_ZN5boost10filesystem6detail15last_write_timeERKNS0_4pathElPNS_6system10error_codeE' filepath='src/third_party/boost-1.56.0/libs/filesystem/src/operations.cpp' line='1335' column='1' visibility='default' binding='global' size-in-bits='64' elf-symbol-id='_ZN5boost10filesystem6detail15last_write_timeERKNS0_4pathElPNS_6system10error_codeE' hash='1bebcfe8d84b44be'>
            <parameter type-id='type-id-404' filepath='src/third_party/boost-1.56.0/libs/filesystem/src/operations.cpp' line='1335' column='1'/>
            <parameter type-id='type-id-156' filepath='src/third_party/boost-1.56.0/libs/filesystem/src/operations.cpp' line='1335' column='1'/>
            <parameter type-id='type-id-84' filepath='src/third_party/boost-1.56.0/libs/filesystem/src/operations.cpp' line='1336' column='1'/>
            <return type-id='type-id-47'/>
          </function-decl>
          <function-decl name='mode_cast' mangled-name='_ZN5boost10filesystem6detail9mode_castENS0_5permsE' filepath='src/third_party/boost-1.56.0/libs/filesystem/src/operations.cpp' line='1371' column='1' visibility='default' binding='global' size-in-bits='64' elf-symbol-id='_ZN5boost10filesystem6detail9mode_castENS0_5permsE' hash='c1596e1c0d8f81a6'>
            <parameter type-id='type-id-332'/>
            <return type-id='type-id-263'/>
          </function-decl>
          <function-decl name='permissions' mangled-name='_ZN5boost10filesystem6detail11permissionsERKNS0_4pathENS0_5permsEPNS_6system10error_codeE' filepath='src/third_party/boost-1.56.0/libs/filesystem/src/operations.cpp' line='1375' column='1' visibility='default' binding='global' size-in-bits='64' elf-symbol-id='_ZN5boost10filesystem6detail11permissionsERKNS0_4pathENS0_5permsEPNS_6system10error_codeE' hash='baeed7d2ccb10b05'>
            <parameter type-id='type-id-404'/>
            <parameter type-id='type-id-332'/>
            <parameter type-id='type-id-84'/>
            <return type-id='type-id-47'/>
          </function-decl>
          <function-decl name='read_symlink' mangled-name='_ZN5boost10filesystem6detail12read_symlinkERKNS0_4pathEPNS_6system10error_codeE' filepath='src/third_party/boost-1.56.0/libs/filesystem/src/operations.cpp' line='1458' column='1' visibility='default' binding='global' size-in-bits='64' elf-symbol-id='_ZN5boost10filesystem6detail12read_symlinkERKNS0_4pathEPNS_6system10error_codeE' hash='e2bb4aa31bf09068'>
            <parameter type-id='type-id-404'/>
            <parameter type-id='type-id-84'/>
            <return type-id='type-id-324'/>
          </function-decl>
          <function-decl name='remove' mangled-name='_ZN5boost10filesystem6detail6removeERKNS0_4pathEPNS_6system10error_codeE' filepath='src/third_party/boost-1.56.0/libs/filesystem/src/operations.cpp' line='1521' column='1' visibility='default' binding='global' size-in-bits='64' elf-symbol-id='_ZN5boost10filesystem6detail6removeERKNS0_4pathEPNS_6system10error_codeE' hash='b29833b5238c504f'>
            <parameter type-id='type-id-404'/>
            <parameter type-id='type-id-84'/>
            <return type-id='type-id-1'/>
          </function-decl>
          <function-decl name='remove_all' mangled-name='_ZN5boost10filesystem6detail10remove_allERKNS0_4pathEPNS_6system10error_codeE' filepath='src/third_party/boost-1.56.0/libs/filesystem/src/operations.cpp' line='1537' column='1' visibility='default' binding='global' size-in-bits='64' elf-symbol-id='_ZN5boost10filesystem6detail10remove_allERKNS0_4pathEPNS_6system10error_codeE' hash='0e3a6fb94d99bb21'>
            <parameter type-id='type-id-404'/>
            <parameter type-id='type-id-84'/>
            <return type-id='type-id-264'/>
          </function-decl>
          <function-decl name='rename' mangled-name='_ZN5boost10filesystem6detail6renameERKNS0_4pathES4_PNS_6system10error_codeE' filepath='src/third_party/boost-1.56.0/libs/filesystem/src/operations.cpp' line='1551' column='1' visibility='default' binding='global' size-in-bits='64' elf-symbol-id='_ZN5boost10filesystem6detail6renameERKNS0_4pathES4_PNS_6system10error_codeE' hash='65ef8b1f0a7a4d0e'>
            <parameter type-id='type-id-404'/>
            <parameter type-id='type-id-404'/>
            <parameter type-id='type-id-84'/>
            <return type-id='type-id-47'/>
          </function-decl>
          <function-decl name='resize_file' mangled-name='_ZN5boost10filesystem6detail11resize_fileERKNS0_4pathEmPNS_6system10error_codeE' filepath='src/third_party/boost-1.56.0/libs/filesystem/src/operations.cpp' line='1558' column='1' visibility='default' binding='global' size-in-bits='64' elf-symbol-id='_ZN5boost10filesystem6detail11resize_fileERKNS0_4pathEmPNS_6system10error_codeE' hash='3a0e4b2cd23903ce'>
            <parameter type-id='type-id-404'/>
            <parameter type-id='type-id-264'/>
            <parameter type-id='type-id-84'/>
            <return type-id='type-id-47'/>
          </function-decl>
          <function-decl name='space' mangled-name='_ZN5boost10filesystem6detail5spaceERKNS0_4pathEPNS_6system10error_codeE' filepath='src/third_party/boost-1.56.0/libs/filesystem/src/operations.cpp' line='1564' column='1' visibility='default' binding='global' size-in-bits='64' elf-symbol-id='_ZN5boost10filesystem6detail5spaceERKNS0_4pathEPNS_6system10error_codeE' hash='e2bb4aa31bf09068'>
            <parameter type-id='type-id-404'/>
            <parameter type-id='type-id-84'/>
            <return type-id='type-id-617'/>
          </function-decl>
          <function-decl name='status' mangled-name='_ZN5boost10filesystem6detail6statusERKNS0_4pathEPNS_6system10error_codeE' filepath='src/third_party/boost-1.56.0/libs/filesystem/src/operations.cpp' line='1608' column='1' visibility='default' binding='global' size-in-bits='64' elf-symbol-id='_ZN5boost10filesystem6detail6statusERKNS0_4pathEPNS_6system10error_codeE' hash='e2bb4aa31bf09068'>
            <parameter type-id='type-id-404'/>
            <parameter type-id='type-id-84'/>
            <return type-id='type-id-314'/>
          </function-decl>
          <function-decl name='symlink_status' mangled-name='_ZN5boost10filesystem6detail14symlink_statusERKNS0_4pathEPNS_6system10error_codeE' filepath='src/third_party/boost-1.56.0/libs/filesystem/src/operations.cpp' line='1688' column='1' visibility='default' binding='global' size-in-bits='64' elf-symbol-id='_ZN5boost10filesystem6detail14symlink_statusERKNS0_4pathEPNS_6system10error_codeE' hash='e2bb4aa31bf09068'>
            <parameter type-id='type-id-404'/>
            <parameter type-id='type-id-84'/>
            <return type-id='type-id-314'/>
          </function-decl>
          <function-decl name='temp_directory_path' mangled-name='_ZN5boost10filesystem6detail19temp_directory_pathEPNS_6system10error_codeE' filepath='src/third_party/boost-1.56.0/libs/filesystem/src/operations.cpp' line='1755' column='1' visibility='default' binding='global' size-in-bits='64' elf-symbol-id='_ZN5boost10filesystem6detail19temp_directory_pathEPNS_6system10error_codeE' hash='69d1383cc636e9cf'>
            <parameter type-id='type-id-84'/>
            <return type-id='type-id-324'/>
          </function-decl>
          <function-decl name='system_complete' mangled-name='_ZN5boost10filesystem6detail15system_completeERKNS0_4pathEPNS_6system10error_codeE' filepath='src/third_party/boost-1.56.0/libs/filesystem/src/operations.cpp' line='1803' column='1' visibility='default' binding='global' size-in-bits='64' elf-symbol-id='_ZN5boost10filesystem6detail15system_completeERKNS0_4pathEPNS_6system10error_codeE' hash='e2bb4aa31bf09068'>
            <parameter type-id='type-id-404'/>
            <parameter type-id='type-id-84'/>
            <return type-id='type-id-324'/>
          </function-decl>
          <function-decl name='dir_itr_close' mangled-name='_ZN5boost10filesystem6detail13dir_itr_closeERPvS3_' filepath='src/third_party/boost-1.56.0/libs/filesystem/src/operations.cpp' line='2120' column='1' visibility='default' binding='global' size-in-bits='64' elf-symbol-id='_ZN5boost10filesystem6detail13dir_itr_closeERPvS3_' hash='881e949315436a97'>
            <parameter type-id='type-id-522'/>
            <parameter type-id='type-id-522'/>
            <return type-id='type-id-83'/>
          </function-decl>
          <function-decl name='directory_iterator_construct' mangled-name='_ZN5boost10filesystem6detail28directory_iterator_constructERNS0_18directory_iteratorERKNS0_4pathEPNS_6system10error_codeE' filepath='src/third_party/boost-1.56.0/libs/filesystem/src/operations.cpp' line='2146' column='1' visibility='default' binding='global' size-in-bits='64' elf-symbol-id='_ZN5boost10filesystem6detail28directory_iterator_constructERNS0_18directory_iteratorERKNS0_4pathEPNS_6system10error_codeE' hash='57c1420c71cd8423'>
            <parameter type-id='type-id-311'/>
            <parameter type-id='type-id-404'/>
            <parameter type-id='type-id-84'/>
            <return type-id='type-id-47'/>
          </function-decl>
          <function-decl name='directory_iterator_increment' mangled-name='_ZN5boost10filesystem6detail28directory_iterator_incrementERNS0_18directory_iteratorEPNS_6system10error_codeE' filepath='src/third_party/boost-1.56.0/libs/filesystem/src/operations.cpp' line='2182' column='1' visibility='default' binding='global' size-in-bits='64' elf-symbol-id='_ZN5boost10filesystem6detail28directory_iterator_incrementERNS0_18directory_iteratorEPNS_6system10error_codeE' hash='c62945ed4b59f331'>
            <parameter type-id='type-id-311'/>
            <parameter type-id='type-id-84'/>
            <return type-id='type-id-47'/>
          </function-decl>
        </namespace-decl>
        <function-decl name='operator==' mangled-name='_ZN5boost10filesystemeqERKNS0_4pathES3_' filepath='src/third_party/boost-1.56.0/boost/filesystem/path.hpp' line='615' column='1' visibility='default' binding='global' size-in-bits='64' elf-symbol-id='_ZN5boost10filesystemeqERKNS0_4pathES3_' hash='8dc5cbec7fc52fb5'>
          <parameter type-id='type-id-404'/>
          <parameter type-id='type-id-404'/>
          <return type-id='type-id-1'/>
        </function-decl>
        <function-decl name='operator!=' mangled-name='_ZN5boost10filesystemneERKNS0_4pathES3_' filepath='src/third_party/boost-1.56.0/boost/filesystem/path.hpp' line='621' column='1' visibility='default' binding='global' size-in-bits='64' elf-symbol-id='_ZN5boost10filesystemneERKNS0_4pathES3_' hash='8dc5cbec7fc52fb5'>
          <parameter type-id='type-id-404'/>
          <parameter type-id='type-id-404'/>
          <return type-id='type-id-1'/>
        </function-decl>
        <function-decl name='operator/' mangled-name='_ZN5boost10filesystemdvERKNS0_4pathES3_' filepath='src/third_party/boost-1.56.0/boost/filesystem/path.hpp' line='648' column='1' visibility='default' binding='global' size-in-bits='64' elf-symbol-id='_ZN5boost10filesystemdvERKNS0_4pathES3_' hash='0cb27ebaac645e48'>
          <parameter type-id='type-id-404'/>
          <parameter type-id='type-id-404'/>
          <return type-id='type-id-324'/>
        </function-decl>
        <namespace-decl name='path_traits'>
          <typedef-decl name='codecvt_type' type-id='type-id-579' filepath='src/third_party/boost-1.56.0/boost/filesystem/path_traits.hpp' line='52' column='1' id='type-id-532'/>
          <function-decl name='convert' mangled-name='_ZN5boost10filesystem11path_traits7convertEPKcS3_RSsRKSt7codecvtIwc11__mbstate_tE' filepath='src/third_party/boost-1.56.0/boost/filesystem/path_traits.hpp' line='130' column='1' visibility='default' binding='global' size-in-bits='64' elf-symbol-id='_ZN5boost10filesystem11path_traits7convertEPKcS3_RSsRKSt7codecvtIwc11__mbstate_tE' hash='851bcd619b26220b'>
            <parameter type-id='type-id-43'/>
            <parameter type-id='type-id-43'/>
            <parameter type-id='type-id-521'/>
            <parameter type-id='type-id-534'/>
            <return type-id='type-id-47'/>
          </function-decl>
          <function-decl name='convert' mangled-name='_ZN5boost10filesystem11path_traits7convertEPKcRSsRKSt7codecvtIwc11__mbstate_tE' filepath='src/third_party/boost-1.56.0/boost/filesystem/path_traits.hpp' line='139' column='1' visibility='default' binding='global' size-in-bits='64' elf-symbol-id='_ZN5boost10filesystem11path_traits7convertEPKcRSsRKSt7codecvtIwc11__mbstate_tE' hash='04883f3f2629b024'>
            <parameter type-id='type-id-43'/>
            <parameter type-id='type-id-521'/>
            <parameter type-id='type-id-534'/>
            <return type-id='type-id-47'/>
          </function-decl>
          <function-decl name='dispatch&lt;char, std::basic_string&lt;char&gt; &gt;' mangled-name='_ZN5boost10filesystem11path_traits8dispatchIcSsEEvRKPT_RT0_RKSt7codecvtIwc11__mbstate_tE' filepath='src/third_party/boost-1.56.0/boost/filesystem/path_traits.hpp' line='211' column='1' visibility='default' binding='global' size-in-bits='64' elf-symbol-id='_ZN5boost10filesystem11path_traits8dispatchIcSsEEvRKPT_RT0_RKSt7codecvtIwc11__mbstate_tE' hash='224b08d301149153'>
            <parameter type-id='type-id-90'/>
            <parameter type-id='type-id-168'/>
            <parameter type-id='type-id-534'/>
            <return type-id='type-id-47'/>
          </function-decl>
          <function-decl name='dispatch' mangled-name='_ZN5boost10filesystem11path_traits8dispatchERKNS0_15directory_entryERSsRKSt7codecvtIwc11__mbstate_tE' filepath='src/third_party/boost-1.56.0/libs/filesystem/src/operations.cpp' line='1877' column='1' visibility='default' binding='global' size-in-bits='64' elf-symbol-id='_ZN5boost10filesystem11path_traits8dispatchERKNS0_15directory_entryERSsRKSt7codecvtIwc11__mbstate_tE' hash='71068cc36953ff55'>
            <parameter type-id='type-id-390'/>
            <parameter type-id='type-id-521'/>
            <parameter type-id='type-id-534'/>
            <return type-id='type-id-47'/>
          </function-decl>
        </namespace-decl>
        <function-decl name='absolute' mangled-name='_ZN5boost10filesystem8absoluteERKNS0_4pathES3_' filepath='src/third_party/boost-1.56.0/libs/filesystem/src/operations.cpp' line='708' column='1' visibility='default' binding='global' size-in-bits='64' elf-symbol-id='_ZN5boost10filesystem8absoluteERKNS0_4pathES3_' hash='0cb27ebaac645e48'>
          <parameter type-id='type-id-404'/>
          <parameter type-id='type-id-404'/>
          <return type-id='type-id-324'/>
        </function-decl>
      </namespace-decl>
      <namespace-decl name='iterators'>
        <class-decl name='enabled&lt;true&gt;' is-struct='yes' visibility='default' size-in-bits='8' filepath='src/third_party/boost-1.56.0/boost/iterator/detail/enable_if.hpp' line='30' column='1' hash='3c549a08bf0c9cdf' id='type-id-618'>
          <member-type access='public'>
            <class-decl name='base&lt;bool&gt;' is-struct='yes' visibility='default' size-in-bits='8' filepath='src/third_party/boost-1.56.0/boost/iterator/detail/enable_if.hpp' line='33' column='1' hash='e11397aaa8685ca3' id='type-id-619'>
              <member-type access='public'>
                <typedef-decl name='type' type-id='type-id-1' size-in-bits='8' filepath='src/third_party/boost-1.56.0/boost/iterator/detail/enable_if.hpp' line='35' column='1' hash='5ba96bb22f4237fb' id='type-id-620'/>
              </member-type>
            </class-decl>
          </member-type>
        </class-decl>
      </namespace-decl>
      <function-decl name='operator==&lt;boost::filesystem::directory_iterator, boost::filesystem::directory_entry, boost::single_pass_traversal_tag, boost::filesystem::directory_entry&amp;, long int, boost::filesystem::directory_iterator, boost::filesystem::directory_entry, boost::single_pass_traversal_tag, boost::filesystem::directory_entry&amp;, long int&gt;' mangled-name='_ZN5boosteqINS_10filesystem18directory_iteratorENS1_15directory_entryENS_25single_pass_traversal_tagERS3_lS2_S3_S4_S5_lEENS_6detail23enable_if_interoperableIT_T4_NS_3mpl6apply2INS6_12always_bool2ES8_S9_E4typeEE4typeERKNS_15iterator_facadeIS8_T0_T1_T2_T3_EERKNSH_IS9_T5_T6_T7_T8_EE' filepath='src/third_party/boost-1.56.0/boost/iterator/iterator_facade.hpp' line='832' column='1' visibility='default' binding='global' size-in-bits='64' elf-symbol-id='_ZN5boosteqINS_10filesystem18directory_iteratorENS1_15directory_entryENS_25single_pass_traversal_tagERS3_lS2_S3_S4_S5_lEENS_6detail23enable_if_interoperableIT_T4_NS_3mpl6apply2INS6_12always_bool2ES8_S9_E4typeEE4typeERKNS_15iterator_facadeIS8_T0_T1_T2_T3_EERKNSH_IS9_T5_T6_T7_T8_EE' hash='94b37945c92f1bec'>
        <parameter type-id='type-id-418'/>
        <parameter type-id='type-id-418'/>
        <return type-id='type-id-620'/>
      </function-decl>
      <function-decl name='operator!=&lt;boost::filesystem::directory_iterator, boost::filesystem::directory_entry, boost::single_pass_traversal_tag, boost::filesystem::directory_entry&amp;, long int, boost::filesystem::directory_iterator, boost::filesystem::directory_entry, boost::single_pass_traversal_tag, boost::filesystem::directory_entry&amp;, long int&gt;' mangled-name='_ZN5boostneINS_10filesystem18directory_iteratorENS1_15directory_entryENS_25single_pass_traversal_tagERS3_lS2_S3_S4_S5_lEENS_6detail23enable_if_interoperableIT_T4_NS_3mpl6apply2INS6_12always_bool2ES8_S9_E4typeEE4typeERKNS_15iterator_facadeIS8_T0_T1_T2_T3_EERKNSH_IS9_T5_T6_T7_T8_EE' filepath='src/third_party/boost-1.56.0/boost/iterator/iterator_facade.hpp' line='833' column='1' visibility='default' binding='global' size-in-bits='64' elf-symbol-id='_ZN5boostneINS_10filesystem18directory_iteratorENS1_15directory_entryENS_25single_pass_traversal_tagERS3_lS2_S3_S4_S5_lEENS_6detail23enable_if_interoperableIT_T4_NS_3mpl6apply2INS6_12always_bool2ES8_S9_E4typeEE4typeERKNS_15iterator_facadeIS8_T0_T1_T2_T3_EERKNSH_IS9_T5_T6_T7_T8_EE' hash='94b37945c92f1bec'>
        <parameter type-id='type-id-418'/>
        <parameter type-id='type-id-418'/>
        <return type-id='type-id-620'/>
      </function-decl>
      <function-decl name='operator!=&lt;boost::filesystem::path::iterator, const boost::filesystem::path, boost::bidirectional_traversal_tag, const boost::filesystem::path&amp;, long int, boost::filesystem::path::iterator, const boost::filesystem::path, boost::bidirectional_traversal_tag, const boost::filesystem::path&amp;, long int&gt;' mangled-name='_ZN5boostneINS_10filesystem4path8iteratorEKS2_NS_27bidirectional_traversal_tagERS4_lS3_S4_S5_S6_lEENS_6detail23enable_if_interoperableIT_T4_NS_3mpl6apply2INS7_12always_bool2ES9_SA_E4typeEE4typeERKNS_15iterator_facadeIS9_T0_T1_T2_T3_EERKNSI_ISA_T5_T6_T7_T8_EE' filepath='src/third_party/boost-1.56.0/boost/iterator/iterator_facade.hpp' line='833' column='1' visibility='default' binding='global' size-in-bits='64' elf-symbol-id='_ZN5boostneINS_10filesystem4path8iteratorEKS2_NS_27bidirectional_traversal_tagERS4_lS3_S4_S5_S6_lEENS_6detail23enable_if_interoperableIT_T4_NS_3mpl6apply2INS7_12always_bool2ES9_SA_E4typeEE4typeERKNS_15iterator_facadeIS9_T0_T1_T2_T3_EERKNSI_ISA_T5_T6_T7_T8_EE' hash='99a8d4e294d8860d'>
        <parameter type-id='type-id-422'/>
        <parameter type-id='type-id-422'/>
        <return type-id='type-id-620'/>
      </function-decl>
      <namespace-decl name='mpl'>
        <class-decl name='if_&lt;boost::detail::use_operator_brackets_proxy&lt;boost::filesystem::directory_entry, boost::filesystem::directory_entry&amp;&gt;, boost::detail::operator_brackets_proxy&lt;boost::filesystem::directory_iterator&gt;, boost::filesystem::directory_entry&gt;' is-struct='yes' visibility='default' size-in-bits='8' filepath='src/third_party/boost-1.56.0/boost/mpl/if.hpp' line='55' column='1' hash='3c3069804cc019b3' id='type-id-621'>
          <member-type access='public'>
            <typedef-decl name='type' type-id='type-id-623' filepath='src/third_party/boost-1.56.0/boost/mpl/if.hpp' line='70' column='1' id='type-id-622'/>
          </member-type>
        </class-decl>
        <class-decl name='if_&lt;boost::detail::use_operator_brackets_proxy&lt;const boost::filesystem::path, const boost::filesystem::path&amp;&gt;, boost::detail::operator_brackets_proxy&lt;boost::filesystem::path::iterator&gt;, const boost::filesystem::path&gt;' is-struct='yes' visibility='default' size-in-bits='8' filepath='src/third_party/boost-1.56.0/boost/mpl/if.hpp' line='55' column='1' hash='1816936eef58e14d' id='type-id-624'>
          <member-type access='public'>
            <typedef-decl name='type' type-id='type-id-626' filepath='src/third_party/boost-1.56.0/boost/mpl/if.hpp' line='70' column='1' id='type-id-625'/>
          </member-type>
          <member-type access='public'>
            <typedef-decl name='type' type-id='type-id-628' filepath='src/third_party/boost-1.56.0/boost/mpl/if.hpp' line='70' column='1' id='type-id-627'/>
          </member-type>
        </class-decl>
        <class-decl name='if_c&lt;true, boost::detail::operator_brackets_proxy&lt;boost::filesystem::directory_iterator&gt;, boost::filesystem::directory_entry&gt;' is-struct='yes' visibility='default' size-in-bits='8' filepath='src/third_party/boost-1.56.0/boost/mpl/if.hpp' line='34' column='1' hash='03ee458f5dff754b' id='type-id-629'>
          <member-type access='public'>
            <typedef-decl name='type' type-id='type-id-630' filepath='src/third_party/boost-1.56.0/boost/mpl/if.hpp' line='36' column='1' id='type-id-623'/>
          </member-type>
        </class-decl>
        <class-decl name='if_c&lt;true, boost::detail::operator_brackets_proxy&lt;boost::filesystem::path::iterator&gt;, const boost::filesystem::path&gt;' is-struct='yes' visibility='default' size-in-bits='8' filepath='src/third_party/boost-1.56.0/boost/mpl/if.hpp' line='34' column='1' hash='790d9f22745466fb' id='type-id-631'>
          <member-type access='public'>
            <typedef-decl name='type' type-id='type-id-632' filepath='src/third_party/boost-1.56.0/boost/mpl/if.hpp' line='36' column='1' id='type-id-626'/>
          </member-type>
          <member-type access='public'>
            <typedef-decl name='type' type-id='type-id-633' filepath='src/third_party/boost-1.56.0/boost/mpl/if.hpp' line='36' column='1' id='type-id-628'/>
          </member-type>
        </class-decl>
      </namespace-decl>
      <function-decl name='operator==&lt;boost::filesystem::detail::dir_itr_imp, boost::filesystem::detail::dir_itr_imp&gt;' mangled-name='_ZN5boosteqINS_10filesystem6detail11dir_itr_impES3_EEbRKNS_10shared_ptrIT_EERKNS4_IT0_EE' filepath='src/third_party/boost-1.56.0/boost/smart_ptr/shared_ptr.hpp' line='728' column='1' visibility='default' binding='global' size-in-bits='64' elf-symbol-id='_ZN5boosteqINS_10filesystem6detail11dir_itr_impES3_EEbRKNS_10shared_ptrIT_EERKNS4_IT0_EE' hash='b5eabc3b5dfc43b2'>
        <parameter type-id='type-id-430'/>
        <parameter type-id='type-id-430'/>
        <return type-id='type-id-1'/>
      </function-decl>
      <namespace-decl name='system'>
        <class-decl name='system_error' visibility='default' size-in-bits='320' filepath='src/third_party/boost-1.56.0/boost/system/system_error.hpp' line='22' column='1' hash='50371aa8a8ad789f' id='type-id-362'>
          <base-class access='public' layout-offset-in-bits='0' type-id='type-id-580'/>
          <data-member access='private' layout-offset-in-bits='128'>
            <var-decl name='m_error_code' type-id='type-id-83' visibility='default' filepath='src/third_party/boost-1.56.0/boost/system/system_error.hpp' line='53' column='1'/>
          </data-member>
          <data-member access='private' layout-offset-in-bits='256'>
            <var-decl name='m_what' type-id='type-id-236' visibility='default' filepath='src/third_party/boost-1.56.0/boost/system/system_error.hpp' line='54' column='1'/>
          </data-member>
          <member-function access='public' constructor='yes'>
            <function-decl name='system_error' mangled-name='_ZN5boost6system12system_errorC2ENS0_10error_codeERKSs' filepath='src/third_party/boost-1.56.0/boost/system/system_error.hpp' line='30' column='1' declared-inline='yes' visibility='default' binding='global' size-in-bits='64' elf-symbol-id='_ZN5boost6system12system_errorC2ENS0_10error_codeERKSs' hash='e4d69d935f5c1015'>
              <parameter type-id='type-id-363' is-artificial='yes'/>
              <parameter type-id='type-id-83'/>
              <parameter type-id='type-id-494'/>
              <return type-id='type-id-47'/>
            </function-decl>
          </member-function>
          <member-function access='public' constructor='yes'>
            <function-decl name='system_error' mangled-name='_ZN5boost6system12system_errorC2EiRKNS0_14error_categoryEPKc' filepath='src/third_party/boost-1.56.0/boost/system/system_error.hpp' line='43' column='1' declared-inline='yes' visibility='default' binding='global' size-in-bits='64' elf-symbol-id='_ZN5boost6system12system_errorC2EiRKNS0_14error_categoryEPKc' hash='dbde26dd4edf1fe0'>
              <parameter type-id='type-id-363' is-artificial='yes'/>
              <parameter type-id='type-id-12'/>
              <parameter type-id='type-id-104'/>
              <parameter type-id='type-id-43'/>
              <return type-id='type-id-47'/>
            </function-decl>
          </member-function>
          <member-function access='public' destructor='yes' vtable-offset='-1'>
            <function-decl name='~system_error' filepath='src/third_party/boost-1.56.0/boost/system/system_error.hpp' line='47' column='1' visibility='default' binding='global' size-in-bits='64' hash='388da3fa973fde78'>
              <parameter type-id='type-id-363' is-artificial='yes'/>
              <parameter type-id='type-id-12' is-artificial='yes'/>
              <return type-id='type-id-47'/>
            </function-decl>
          </member-function>
          <member-function access='public' destructor='yes' vtable-offset='-1'>
            <function-decl name='~system_error' mangled-name='_ZN5boost6system12system_errorD0Ev' filepath='src/third_party/boost-1.56.0/boost/system/system_error.hpp' line='47' column='1' declared-inline='yes' visibility='default' binding='global' size-in-bits='64' elf-symbol-id='_ZN5boost6system12system_errorD0Ev' hash='7f32ffea222edbe7'>
              <parameter type-id='type-id-363' is-artificial='yes'/>
              <return type-id='type-id-47'/>
            </function-decl>
          </member-function>
          <member-function access='public' destructor='yes' vtable-offset='-1'>
            <function-decl name='~system_error' mangled-name='_ZN5boost6system12system_errorD2Ev' filepath='src/third_party/boost-1.56.0/boost/system/system_error.hpp' line='47' column='1' declared-inline='yes' visibility='default' binding='global' size-in-bits='64' elf-symbol-id='_ZN5boost6system12system_errorD2Ev' hash='7f32ffea222edbe7'>
              <parameter type-id='type-id-363' is-artificial='yes'/>
              <return type-id='type-id-47'/>
            </function-decl>
          </member-function>
          <member-function access='public' const='yes' vtable-offset='2'>
            <function-decl name='what' mangled-name='_ZNK5boost6system12system_error4whatEv' filepath='src/third_party/boost-1.56.0/boost/system/system_error.hpp' line='59' column='1' visibility='default' binding='global' size-in-bits='64' elf-symbol-id='_ZNK5boost6system12system_error4whatEv' hash='53885bde0aa65efe'>
              <parameter type-id='type-id-438' is-artificial='yes'/>
              <return type-id='type-id-43'/>
            </function-decl>
          </member-function>
        </class-decl>
        <function-decl name='system_category' mangled-name='_ZN5boost6system15system_categoryEv' filepath='src/third_party/boost-1.56.0/boost/system/error_code.hpp' line='212' column='1' visibility='default' binding='global' size-in-bits='64' hash='43fa35073b692cf4'>
          <return type-id='type-id-104'/>
        </function-decl>
      </namespace-decl>
      <namespace-decl name='detail'>
        <class-decl name='shared_count' visibility='default' size-in-bits='64' filepath='src/third_party/boost-1.56.0/boost/smart_ptr/detail/shared_count.hpp' line='100' column='1' hash='451860ab6d9cb6de' id='type-id-280'>
          <data-member access='private' layout-offset-in-bits='0'>
            <var-decl name='pi_' type-id='type-id-287' visibility='default' filepath='src/third_party/boost-1.56.0/boost/smart_ptr/detail/shared_count.hpp' line='104' column='1'/>
          </data-member>
          <member-function access='public' constructor='yes'>
            <function-decl name='shared_count' mangled-name='_ZN5boost6detail12shared_countC2Ev' filepath='src/third_party/boost-1.56.0/boost/smart_ptr/detail/shared_count.hpp' line='114' column='1' declared-inline='yes' visibility='default' binding='global' size-in-bits='64' elf-symbol-id='_ZN5boost6detail12shared_countC2Ev' hash='7f32ffea222edbe7'>
              <parameter type-id='type-id-283' is-artificial='yes'/>
              <return type-id='type-id-47'/>
            </function-decl>
          </member-function>
          <member-function access='public' destructor='yes'>
            <function-decl name='~shared_count' mangled-name='_ZN5boost6detail12shared_countD2Ev' filepath='src/third_party/boost-1.56.0/boost/smart_ptr/detail/shared_count.hpp' line='441' column='1' declared-inline='yes' visibility='default' binding='global' size-in-bits='64' elf-symbol-id='_ZN5boost6detail12shared_countD2Ev' hash='7f32ffea222edbe7'>
              <parameter type-id='type-id-283' is-artificial='yes'/>
              <return type-id='type-id-47'/>
            </function-decl>
          </member-function>
          <member-function access='public'>
            <function-decl name='swap' mangled-name='_ZN5boost6detail12shared_count4swapERS1_' filepath='src/third_party/boost-1.56.0/boost/smart_ptr/detail/shared_count.hpp' line='486' column='1' visibility='default' binding='global' size-in-bits='64' elf-symbol-id='_ZN5boost6detail12shared_count4swapERS1_' hash='b1b84448cee7e029'>
              <parameter type-id='type-id-283' is-artificial='yes'/>
              <parameter type-id='type-id-281'/>
              <return type-id='type-id-47'/>
            </function-decl>
          </member-function>
          <member-function access='public'>
            <function-decl name='shared_count&lt;boost::filesystem::detail::dir_itr_imp&gt;' mangled-name='_ZN5boost6detail12shared_countC2INS_10filesystem6detail11dir_itr_impEEEPT_' filepath='src/third_party/boost-1.56.0/boost/smart_ptr/detail/shared_count.hpp' line='121' column='1' declared-inline='yes' visibility='default' binding='global' size-in-bits='64' elf-symbol-id='_ZN5boost6detail12shared_countC2INS_10filesystem6detail11dir_itr_impEEEPT_' hash='5fe2ed55636808ca'>
              <parameter type-id='type-id-283' is-artificial='yes'/>
              <parameter type-id='type-id-303'/>
              <return type-id='type-id-47'/>
            </function-decl>
          </member-function>
          <member-function access='public'>
            <function-decl name='shared_count&lt;boost::filesystem::filesystem_error::m_imp&gt;' mangled-name='_ZN5boost6detail12shared_countC2INS_10filesystem16filesystem_error5m_impEEEPT_' filepath='src/third_party/boost-1.56.0/boost/smart_ptr/detail/shared_count.hpp' line='121' column='1' declared-inline='yes' visibility='default' binding='global' size-in-bits='64' elf-symbol-id='_ZN5boost6detail12shared_countC2INS_10filesystem16filesystem_error5m_impEEEPT_' hash='47770069e19ddd92'>
              <parameter type-id='type-id-283' is-artificial='yes'/>
              <parameter type-id='type-id-322'/>
              <return type-id='type-id-47'/>
            </function-decl>
          </member-function>
        </class-decl>
        <class-decl name='sp_counted_base' visibility='default' size-in-bits='128' filepath='src/third_party/boost-1.56.0/boost/smart_ptr/detail/sp_counted_base_gcc_x86.hpp' line='97' column='1' hash='63bd400a3c4aff38' id='type-id-285'>
          <data-member access='private' layout-offset-in-bits='64'>
            <var-decl name='use_count_' type-id='type-id-12' visibility='default' filepath='src/third_party/boost-1.56.0/boost/smart_ptr/detail/sp_counted_base_gcc_x86.hpp' line='104' column='1'/>
          </data-member>
          <data-member access='private' layout-offset-in-bits='96'>
            <var-decl name='weak_count_' type-id='type-id-12' visibility='default' filepath='src/third_party/boost-1.56.0/boost/smart_ptr/detail/sp_counted_base_gcc_x86.hpp' line='105' column='1'/>
          </data-member>
          <member-function access='public' constructor='yes'>
            <function-decl name='sp_counted_base' mangled-name='_ZN5boost6detail15sp_counted_baseC2Ev' filepath='src/third_party/boost-1.56.0/boost/smart_ptr/detail/sp_counted_base_gcc_x86.hpp' line='109' column='1' declared-inline='yes' visibility='default' binding='global' size-in-bits='64' elf-symbol-id='_ZN5boost6detail15sp_counted_baseC2Ev' hash='7f32ffea222edbe7'>
              <parameter type-id='type-id-287' is-artificial='yes'/>
              <return type-id='type-id-47'/>
            </function-decl>
          </member-function>
          <member-function access='public'>
            <function-decl name='release' mangled-name='_ZN5boost6detail15sp_counted_base7releaseEv' filepath='src/third_party/boost-1.56.0/boost/smart_ptr/detail/sp_counted_base_gcc_x86.hpp' line='142' column='1' visibility='default' binding='global' size-in-bits='64' elf-symbol-id='_ZN5boost6detail15sp_counted_base7releaseEv' hash='7f32ffea222edbe7'>
              <parameter type-id='type-id-287' is-artificial='yes'/>
              <return type-id='type-id-47'/>
            </function-decl>
          </member-function>
          <member-function access='public'>
            <function-decl name='weak_release' mangled-name='_ZN5boost6detail15sp_counted_base12weak_releaseEv' filepath='src/third_party/boost-1.56.0/boost/smart_ptr/detail/sp_counted_base_gcc_x86.hpp' line='156' column='1' visibility='default' binding='global' size-in-bits='64' elf-symbol-id='_ZN5boost6detail15sp_counted_base12weak_releaseEv' hash='7f32ffea222edbe7'>
              <parameter type-id='type-id-287' is-artificial='yes'/>
              <return type-id='type-id-47'/>
            </function-decl>
          </member-function>
          <member-function access='public' destructor='yes' vtable-offset='-1'>
            <function-decl name='~sp_counted_base' filepath='src/third_party/boost-1.56.0/boost/smart_ptr/detail/sp_counted_base_gcc_x86.hpp' line='113' column='1' visibility='default' binding='global' size-in-bits='64' hash='388da3fa973fde78'>
              <parameter type-id='type-id-287' is-artificial='yes'/>
              <parameter type-id='type-id-12' is-artificial='yes'/>
              <return type-id='type-id-47'/>
            </function-decl>
          </member-function>
          <member-function access='public' destructor='yes' vtable-offset='-1'>
            <function-decl name='~sp_counted_base' mangled-name='_ZN5boost6detail15sp_counted_baseD0Ev' filepath='src/third_party/boost-1.56.0/boost/smart_ptr/detail/sp_counted_base_gcc_x86.hpp' line='113' column='1' declared-inline='yes' visibility='default' binding='global' size-in-bits='64' elf-symbol-id='_ZN5boost6detail15sp_counted_baseD0Ev' hash='7f32ffea222edbe7'>
              <parameter type-id='type-id-287' is-artificial='yes'/>
              <return type-id='type-id-47'/>
            </function-decl>
          </member-function>
          <member-function access='public' destructor='yes' vtable-offset='-1'>
            <function-decl name='~sp_counted_base' mangled-name='_ZN5boost6detail15sp_counted_baseD2Ev' filepath='src/third_party/boost-1.56.0/boost/smart_ptr/detail/sp_counted_base_gcc_x86.hpp' line='113' column='1' declared-inline='yes' visibility='default' binding='global' size-in-bits='64' elf-symbol-id='_ZN5boost6detail15sp_counted_baseD2Ev' hash='7f32ffea222edbe7'>
              <parameter type-id='type-id-287' is-artificial='yes'/>
              <return type-id='type-id-47'/>
            </function-decl>
          </member-function>
          <member-function access='public' vtable-offset='2'>
            <function-decl name='dispose' mangled-name='_ZN5boost6detail15sp_counted_base7disposeEv' filepath='src/third_party/boost-1.56.0/boost/smart_ptr/detail/sp_counted_base_gcc_x86.hpp' line='120' column='1' visibility='default' binding='global' size-in-bits='64' hash='7f32ffea222edbe7'>
              <parameter type-id='type-id-287' is-artificial='yes'/>
              <return type-id='type-id-47'/>
            </function-decl>
          </member-function>
          <member-function access='public' vtable-offset='3'>
            <function-decl name='destroy' mangled-name='_ZN5boost6detail15sp_counted_base7destroyEv' filepath='src/third_party/boost-1.56.0/boost/smart_ptr/detail/sp_counted_base_gcc_x86.hpp' line='124' column='1' visibility='default' binding='global' size-in-bits='64' elf-symbol-id='_ZN5boost6detail15sp_counted_base7destroyEv' hash='7f32ffea222edbe7'>
              <parameter type-id='type-id-287' is-artificial='yes'/>
              <return type-id='type-id-47'/>
            </function-decl>
          </member-function>
          <member-function access='public' vtable-offset='4'>
            <function-decl name='get_deleter' mangled-name='_ZN5boost6detail15sp_counted_base11get_deleterERKSt9type_info' filepath='src/third_party/boost-1.56.0/boost/smart_ptr/detail/sp_counted_base_gcc_x86.hpp' line='129' column='1' visibility='default' binding='global' size-in-bits='64' hash='7f32ffea222edbe7'>
              <parameter type-id='type-id-287' is-artificial='yes'/>
              <parameter type-id='type-id-528'/>
              <return type-id='type-id-29'/>
            </function-decl>
          </member-function>
          <member-function access='public' vtable-offset='5'>
            <function-decl name='get_untyped_deleter' mangled-name='_ZN5boost6detail15sp_counted_base19get_untyped_deleterEv' filepath='src/third_party/boost-1.56.0/boost/smart_ptr/detail/sp_counted_base_gcc_x86.hpp' line='130' column='1' visibility='default' binding='global' size-in-bits='64' hash='7f32ffea222edbe7'>
              <parameter type-id='type-id-287' is-artificial='yes'/>
              <return type-id='type-id-29'/>
            </function-decl>
          </member-function>
        </class-decl>
        <class-decl name='sp_counted_impl_p&lt;boost::filesystem::detail::dir_itr_imp&gt;' visibility='default' size-in-bits='192' filepath='src/third_party/boost-1.56.0/boost/smart_ptr/detail/sp_counted_impl.hpp' line='53' column='1' hash='35c01ac4b711fd6d' id='type-id-289'>
          <base-class access='public' layout-offset-in-bits='0' type-id='type-id-285'/>
          <data-member access='private' layout-offset-in-bits='128'>
            <var-decl name='px_' type-id='type-id-303' visibility='default' filepath='src/third_party/boost-1.56.0/boost/smart_ptr/detail/sp_counted_impl.hpp' line='57' column='1'/>
          </data-member>
          <member-function access='public'>
            <function-decl name='sp_counted_impl_p' mangled-name='_ZN5boost6detail17sp_counted_impl_pINS_10filesystem6detail11dir_itr_impEEC2EPS4_' filepath='src/third_party/boost-1.56.0/boost/smart_ptr/detail/sp_counted_impl.hpp' line='66' column='1' declared-inline='yes' visibility='default' binding='global' size-in-bits='64' elf-symbol-id='_ZN5boost6detail17sp_counted_impl_pINS_10filesystem6detail11dir_itr_impEEC2EPS4_' hash='5fe2ed55636808ca'>
              <parameter type-id='type-id-291' is-artificial='yes'/>
              <parameter type-id='type-id-303'/>
              <return type-id='type-id-47'/>
            </function-decl>
          </member-function>
          <member-function access='public' vtable-offset='2'>
            <function-decl name='dispose' mangled-name='_ZN5boost6detail17sp_counted_impl_pINS_10filesystem6detail11dir_itr_impEE7disposeEv' filepath='src/third_party/boost-1.56.0/boost/smart_ptr/detail/sp_counted_impl.hpp' line='73' column='1' visibility='default' binding='global' size-in-bits='64' elf-symbol-id='_ZN5boost6detail17sp_counted_impl_pINS_10filesystem6detail11dir_itr_impEE7disposeEv' hash='7f32ffea222edbe7'>
              <parameter type-id='type-id-291' is-artificial='yes'/>
              <return type-id='type-id-47'/>
            </function-decl>
          </member-function>
          <member-function access='public' vtable-offset='4'>
            <function-decl name='get_deleter' mangled-name='_ZN5boost6detail17sp_counted_impl_pINS_10filesystem6detail11dir_itr_impEE11get_deleterERKSt9type_info' filepath='src/third_party/boost-1.56.0/boost/smart_ptr/detail/sp_counted_impl.hpp' line='81' column='1' visibility='default' binding='global' size-in-bits='64' elf-symbol-id='_ZN5boost6detail17sp_counted_impl_pINS_10filesystem6detail11dir_itr_impEE11get_deleterERKSt9type_info' hash='7f32ffea222edbe7'>
              <parameter type-id='type-id-291' is-artificial='yes'/>
              <parameter type-id='type-id-528'/>
              <return type-id='type-id-29'/>
            </function-decl>
          </member-function>
          <member-function access='public' vtable-offset='5'>
            <function-decl name='get_untyped_deleter' mangled-name='_ZN5boost6detail17sp_counted_impl_pINS_10filesystem6detail11dir_itr_impEE19get_untyped_deleterEv' filepath='src/third_party/boost-1.56.0/boost/smart_ptr/detail/sp_counted_impl.hpp' line='86' column='1' visibility='default' binding='global' size-in-bits='64' elf-symbol-id='_ZN5boost6detail17sp_counted_impl_pINS_10filesystem6detail11dir_itr_impEE19get_untyped_deleterEv' hash='7f32ffea222edbe7'>
              <parameter type-id='type-id-291' is-artificial='yes'/>
              <return type-id='type-id-29'/>
            </function-decl>
          </member-function>
        </class-decl>
        <class-decl name='sp_counted_impl_p&lt;boost::filesystem::filesystem_error::m_imp&gt;' visibility='default' size-in-bits='192' filepath='src/third_party/boost-1.56.0/boost/smart_ptr/detail/sp_counted_impl.hpp' line='53' column='1' hash='ef30eafe5f4a5245' id='type-id-293'>
          <base-class access='public' layout-offset-in-bits='0' type-id='type-id-285'/>
          <data-member access='private' layout-offset-in-bits='128'>
            <var-decl name='px_' type-id='type-id-322' visibility='default' filepath='src/third_party/boost-1.56.0/boost/smart_ptr/detail/sp_counted_impl.hpp' line='57' column='1'/>
          </data-member>
          <member-function access='public'>
            <function-decl name='sp_counted_impl_p' mangled-name='_ZN5boost6detail17sp_counted_impl_pINS_10filesystem16filesystem_error5m_impEEC2EPS4_' filepath='src/third_party/boost-1.56.0/boost/smart_ptr/detail/sp_counted_impl.hpp' line='66' column='1' declared-inline='yes' visibility='default' binding='global' size-in-bits='64' elf-symbol-id='_ZN5boost6detail17sp_counted_impl_pINS_10filesystem16filesystem_error5m_impEEC2EPS4_' hash='47770069e19ddd92'>
              <parameter type-id='type-id-295' is-artificial='yes'/>
              <parameter type-id='type-id-322'/>
              <return type-id='type-id-47'/>
            </function-decl>
          </member-function>
          <member-function access='public' vtable-offset='2'>
            <function-decl name='dispose' mangled-name='_ZN5boost6detail17sp_counted_impl_pINS_10filesystem16filesystem_error5m_impEE7disposeEv' filepath='src/third_party/boost-1.56.0/boost/smart_ptr/detail/sp_counted_impl.hpp' line='73' column='1' visibility='default' binding='global' size-in-bits='64' elf-symbol-id='_ZN5boost6detail17sp_counted_impl_pINS_10filesystem16filesystem_error5m_impEE7disposeEv' hash='7f32ffea222edbe7'>
              <parameter type-id='type-id-295' is-artificial='yes'/>
              <return type-id='type-id-47'/>
            </function-decl>
          </member-function>
          <member-function access='public' vtable-offset='4'>
            <function-decl name='get_deleter' mangled-name='_ZN5boost6detail17sp_counted_impl_pINS_10filesystem16filesystem_error5m_impEE11get_deleterERKSt9type_info' filepath='src/third_party/boost-1.56.0/boost/smart_ptr/detail/sp_counted_impl.hpp' line='81' column='1' visibility='default' binding='global' size-in-bits='64' elf-symbol-id='_ZN5boost6detail17sp_counted_impl_pINS_10filesystem16filesystem_error5m_impEE11get_deleterERKSt9type_info' hash='7f32ffea222edbe7'>
              <parameter type-id='type-id-295' is-artificial='yes'/>
              <parameter type-id='type-id-528'/>
              <return type-id='type-id-29'/>
            </function-decl>
          </member-function>
          <member-function access='public' vtable-offset='5'>
            <function-decl name='get_untyped_deleter' mangled-name='_ZN5boost6detail17sp_counted_impl_pINS_10filesystem16filesystem_error5m_impEE19get_untyped_deleterEv' filepath='src/third_party/boost-1.56.0/boost/smart_ptr/detail/sp_counted_impl.hpp' line='86' column='1' visibility='default' binding='global' size-in-bits='64' elf-symbol-id='_ZN5boost6detail17sp_counted_impl_pINS_10filesystem16filesystem_error5m_impEE19get_untyped_deleterEv' hash='7f32ffea222edbe7'>
              <parameter type-id='type-id-295' is-artificial='yes'/>
              <return type-id='type-id-29'/>
            </function-decl>
          </member-function>
        </class-decl>
        <class-decl name='weak_count' visibility='default' size-in-bits='64' filepath='src/third_party/boost-1.56.0/boost/smart_ptr/detail/shared_count.hpp' line='530' column='1' hash='e51692d9a2fa716d' id='type-id-297'>
          <data-member access='private' layout-offset-in-bits='0'>
            <var-decl name='pi_' type-id='type-id-287' visibility='default' filepath='src/third_party/boost-1.56.0/boost/smart_ptr/detail/shared_count.hpp' line='534' column='1'/>
          </data-member>
        </class-decl>
        <class-decl name='addr_impl_ref&lt;boost::filesystem::directory_entry&gt;' is-struct='yes' visibility='default' size-in-bits='64' filepath='src/third_party/boost-1.56.0/boost/core/addressof.hpp' line='25' column='1' hash='0edd04ce35ac01cc' id='type-id-276'>
          <data-member access='public' layout-offset-in-bits='0'>
            <var-decl name='v_' type-id='type-id-307' visibility='default' filepath='src/third_party/boost-1.56.0/boost/core/addressof.hpp' line='27' column='1'/>
          </data-member>
        </class-decl>
        <class-decl name='addressof_impl&lt;boost::filesystem::directory_entry&gt;' is-struct='yes' visibility='default' size-in-bits='8' filepath='src/third_party/boost-1.56.0/boost/core/addressof.hpp' line='36' column='1' hash='557f9b2ee6b73713' id='type-id-634'/>
        <class-decl name='operator_arrow_dispatch&lt;boost::filesystem::directory_entry&amp;, boost::filesystem::directory_entry*&gt;' is-struct='yes' visibility='default' size-in-bits='8' filepath='src/third_party/boost-1.56.0/boost/iterator/iterator_facade.hpp' line='319' column='1' hash='1d6ed8a02036e95b' id='type-id-635'>
          <member-type access='public'>
            <typedef-decl name='result_type' type-id='type-id-308' size-in-bits='64' filepath='src/third_party/boost-1.56.0/boost/iterator/iterator_facade.hpp' line='321' column='1' hash='9f005300b25295c6' id='type-id-598'/>
          </member-type>
          <member-function access='public' static='yes'>
            <function-decl name='apply' mangled-name='_ZN5boost6detail23operator_arrow_dispatchIRNS_10filesystem15directory_entryEPS3_E5applyES4_' filepath='src/third_party/boost-1.56.0/boost/iterator/iterator_facade.hpp' line='322' column='1' visibility='default' binding='global' size-in-bits='64' elf-symbol-id='_ZN5boost6detail23operator_arrow_dispatchIRNS_10filesystem15directory_entryEPS3_E5applyES4_' hash='47506e8746c358d3'>
              <parameter type-id='type-id-307'/>
              <return type-id='type-id-598'/>
            </function-decl>
          </member-function>
        </class-decl>
        <class-decl name='operator_arrow_dispatch&lt;const boost::filesystem::path&amp;, const boost::filesystem::path*&gt;' is-struct='yes' visibility='default' size-in-bits='8' filepath='src/third_party/boost-1.56.0/boost/iterator/iterator_facade.hpp' line='319' column='1' hash='6946bdb427b5fbb9' id='type-id-636'>
          <member-type access='public'>
            <typedef-decl name='result_type' type-id='type-id-405' size-in-bits='64' filepath='src/third_party/boost-1.56.0/boost/iterator/iterator_facade.hpp' line='321' column='1' hash='8d5a29cf878d89fc' id='type-id-601'/>
          </member-type>
          <member-function access='public' static='yes'>
            <function-decl name='apply' mangled-name='_ZN5boost6detail23operator_arrow_dispatchIRKNS_10filesystem4pathEPS4_E5applyES5_' filepath='src/third_party/boost-1.56.0/boost/iterator/iterator_facade.hpp' line='322' column='1' visibility='default' binding='global' size-in-bits='64' elf-symbol-id='_ZN5boost6detail23operator_arrow_dispatchIRKNS_10filesystem4pathEPS4_E5applyES5_' hash='e6fe3225807c7918'>
              <parameter type-id='type-id-404'/>
              <return type-id='type-id-601'/>
            </function-decl>
          </member-function>
        </class-decl>
        <class-decl name='operator_brackets_result&lt;boost::filesystem::directory_iterator, boost::filesystem::directory_entry, boost::filesystem::directory_entry&amp;&gt;' is-struct='yes' visibility='default' size-in-bits='8' filepath='src/third_party/boost-1.56.0/boost/iterator/iterator_facade.hpp' line='383' column='1' hash='f1d15e8d88684e2f' id='type-id-637'>
          <member-type access='public'>
            <typedef-decl name='type' type-id='type-id-622' filepath='src/third_party/boost-1.56.0/boost/iterator/iterator_facade.hpp' line='389' column='1' id='type-id-638'/>
          </member-type>
        </class-decl>
        <class-decl name='operator_brackets_result&lt;boost::filesystem::path::iterator, const boost::filesystem::path, const boost::filesystem::path&amp;&gt;' is-struct='yes' visibility='default' size-in-bits='8' filepath='src/third_party/boost-1.56.0/boost/iterator/iterator_facade.hpp' line='383' column='1' hash='73223cd8acf77ebc' id='type-id-639'>
          <member-type access='public'>
            <typedef-decl name='type' type-id='type-id-625' filepath='src/third_party/boost-1.56.0/boost/iterator/iterator_facade.hpp' line='389' column='1' id='type-id-640'/>
          </member-type>
          <member-type access='public'>
            <typedef-decl name='type' type-id='type-id-627' filepath='src/third_party/boost-1.56.0/boost/iterator/iterator_facade.hpp' line='389' column='1' id='type-id-641'/>
          </member-type>
        </class-decl>
        <class-decl name='sp_dereference&lt;boost::filesystem::detail::dir_itr_imp&gt;' is-struct='yes' visibility='default' size-in-bits='8' filepath='src/third_party/boost-1.56.0/boost/smart_ptr/shared_ptr.hpp' line='88' column='1' hash='dc9cca6ff93a8389' id='type-id-642'>
          <member-type access='public'>
            <typedef-decl name='type' type-id='type-id-302' size-in-bits='64' filepath='src/third_party/boost-1.56.0/boost/smart_ptr/shared_ptr.hpp' line='90' column='1' hash='c1d1be2240bbedde' id='type-id-643'/>
          </member-type>
        </class-decl>
        <class-decl name='sp_dereference&lt;boost::filesystem::filesystem_error::m_imp&gt;' is-struct='yes' visibility='default' size-in-bits='8' filepath='src/third_party/boost-1.56.0/boost/smart_ptr/shared_ptr.hpp' line='88' column='1' hash='d65c6f1897439bc1' id='type-id-644'>
          <member-type access='public'>
            <typedef-decl name='type' type-id='type-id-321' size-in-bits='64' filepath='src/third_party/boost-1.56.0/boost/smart_ptr/shared_ptr.hpp' line='90' column='1' hash='802a2fe98c875c7b' id='type-id-645'/>
          </member-type>
        </class-decl>
        <class-decl name='sp_element&lt;boost::filesystem::detail::dir_itr_imp&gt;' is-struct='yes' visibility='default' size-in-bits='8' filepath='src/third_party/boost-1.56.0/boost/smart_ptr/shared_ptr.hpp' line='63' column='1' hash='1991f8aacc0bac5b' id='type-id-646'>
          <member-type access='public'>
            <typedef-decl name='type' type-id='type-id-301' size-in-bits='320' filepath='src/third_party/boost-1.56.0/boost/smart_ptr/shared_ptr.hpp' line='65' column='1' id='type-id-602'/>
          </member-type>
        </class-decl>
        <class-decl name='sp_element&lt;boost::filesystem::filesystem_error::m_imp&gt;' is-struct='yes' visibility='default' size-in-bits='8' filepath='src/third_party/boost-1.56.0/boost/smart_ptr/shared_ptr.hpp' line='63' column='1' hash='d29a461cd6e034f5' id='type-id-647'>
          <member-type access='public'>
            <typedef-decl name='type' type-id='type-id-320' size-in-bits='192' filepath='src/third_party/boost-1.56.0/boost/smart_ptr/shared_ptr.hpp' line='65' column='1' id='type-id-604'/>
          </member-type>
        </class-decl>
        <class-decl name='sp_member_access&lt;boost::filesystem::detail::dir_itr_imp&gt;' is-struct='yes' visibility='default' size-in-bits='8' filepath='src/third_party/boost-1.56.0/boost/smart_ptr/shared_ptr.hpp' line='137' column='1' hash='a7cb8b508c7d574a' id='type-id-648'>
          <member-type access='public'>
            <typedef-decl name='type' type-id='type-id-303' size-in-bits='64' filepath='src/third_party/boost-1.56.0/boost/smart_ptr/shared_ptr.hpp' line='139' column='1' hash='9e4c6ed13ec05836' id='type-id-603'/>
          </member-type>
        </class-decl>
        <class-decl name='sp_member_access&lt;boost::filesystem::filesystem_error::m_imp&gt;' is-struct='yes' visibility='default' size-in-bits='8' filepath='src/third_party/boost-1.56.0/boost/smart_ptr/shared_ptr.hpp' line='137' column='1' hash='c798715753cb49c8' id='type-id-649'>
          <member-type access='public'>
            <typedef-decl name='type' type-id='type-id-322' size-in-bits='64' filepath='src/third_party/boost-1.56.0/boost/smart_ptr/shared_ptr.hpp' line='139' column='1' hash='d16cc64bab66b9f1' id='type-id-606'/>
          </member-type>
        </class-decl>
        <class-decl name='sp_nothrow_tag' is-struct='yes' visibility='default' size-in-bits='8' filepath='src/third_party/boost-1.56.0/boost/smart_ptr/detail/shared_count.hpp' line='60' column='1' hash='ec8d908a0f47ed49' id='type-id-650'/>
        <class-decl name='operator_brackets_proxy&lt;boost::filesystem::directory_iterator&gt;' visibility='default' is-declaration-only='yes' id='type-id-630'/>
        <class-decl name='operator_brackets_proxy&lt;boost::filesystem::path::iterator&gt;' visibility='default' is-declaration-only='yes' id='type-id-632'/>
        <typedef-decl name='sp_typeinfo' type-id='type-id-609' filepath='src/third_party/boost-1.56.0/boost/detail/sp_typeinfo.hpp' line='28' column='1' id='type-id-526'/>
        <function-decl name='atomic_exchange_and_add' mangled-name='_ZN5boost6detail23atomic_exchange_and_addEPii' filepath='src/third_party/boost-1.56.0/boost/smart_ptr/detail/sp_counted_base_gcc_x86.hpp' line='35' column='1' visibility='default' binding='global' size-in-bits='64' elf-symbol-id='_ZN5boost6detail23atomic_exchange_and_addEPii' hash='d5a833aba721ca51'>
          <parameter type-id='type-id-501'/>
          <parameter type-id='type-id-12'/>
          <return type-id='type-id-12'/>
        </function-decl>
        <function-decl name='sp_enable_shared_from_this' mangled-name='_ZN5boost6detail26sp_enable_shared_from_thisEz' filepath='src/third_party/boost-1.56.0/boost/smart_ptr/shared_ptr.hpp' line='228' column='1' visibility='default' binding='global' size-in-bits='64' elf-symbol-id='_ZN5boost6detail26sp_enable_shared_from_thisEz' hash='7f32ffea222edbe7'>
          <return type-id='type-id-47'/>
        </function-decl>
        <function-decl name='sp_pointer_construct&lt;boost::filesystem::detail::dir_itr_imp, boost::filesystem::detail::dir_itr_imp&gt;' mangled-name='_ZN5boost6detail20sp_pointer_constructINS_10filesystem6detail11dir_itr_impES4_EEvPNS_10shared_ptrIT_EEPT0_RNS0_12shared_countE' filepath='src/third_party/boost-1.56.0/boost/smart_ptr/shared_ptr.hpp' line='269' column='1' visibility='default' binding='global' size-in-bits='64' elf-symbol-id='_ZN5boost6detail20sp_pointer_constructINS_10filesystem6detail11dir_itr_impES4_EEvPNS_10shared_ptrIT_EEPT0_RNS0_12shared_countE' hash='384c521db19f0fb5'>
          <parameter type-id='type-id-349'/>
          <parameter type-id='type-id-303'/>
          <parameter type-id='type-id-281'/>
          <return type-id='type-id-47'/>
        </function-decl>
        <function-decl name='sp_pointer_construct&lt;boost::filesystem::filesystem_error::m_imp, boost::filesystem::filesystem_error::m_imp&gt;' mangled-name='_ZN5boost6detail20sp_pointer_constructINS_10filesystem16filesystem_error5m_impES4_EEvPNS_10shared_ptrIT_EEPT0_RNS0_12shared_countE' filepath='src/third_party/boost-1.56.0/boost/smart_ptr/shared_ptr.hpp' line='269' column='1' visibility='default' binding='global' size-in-bits='64' elf-symbol-id='_ZN5boost6detail20sp_pointer_constructINS_10filesystem16filesystem_error5m_impES4_EEvPNS_10shared_ptrIT_EEPT0_RNS0_12shared_countE' hash='656ff8ac5467f0ae'>
          <parameter type-id='type-id-356'/>
          <parameter type-id='type-id-322'/>
          <parameter type-id='type-id-281'/>
          <return type-id='type-id-47'/>
        </function-decl>
      </namespace-decl>
    </namespace-decl>
    <namespace-decl name='mpl_'>
      <class-decl name='bool_&lt;false&gt;' is-struct='yes' visibility='default' size-in-bits='8' filepath='src/third_party/boost-1.56.0/boost/mpl/bool.hpp' line='23' column='1' hash='dff69c22a318a328' id='type-id-441'>
        <data-member access='public' static='yes'>
          <var-decl name='value' type-id='type-id-100' mangled-name='_ZN4mpl_5bool_ILb0EE5valueE' visibility='default' filepath='src/third_party/boost-1.56.0/boost/mpl/bool.hpp' line='25' column='1'/>
        </data-member>
      </class-decl>
      <class-decl name='bool_&lt;true&gt;' is-struct='yes' visibility='default' size-in-bits='8' filepath='src/third_party/boost-1.56.0/boost/mpl/bool.hpp' line='23' column='1' hash='d9328a5fcc474fb2' id='type-id-444'>
        <data-member access='public' static='yes'>
          <var-decl name='value' type-id='type-id-100' mangled-name='_ZN4mpl_5bool_ILb1EE5valueE' visibility='default' filepath='src/third_party/boost-1.56.0/boost/mpl/bool.hpp' line='25' column='1'/>
        </data-member>
      </class-decl>
      <class-decl name='int_&lt;2&gt;' is-struct='yes' visibility='default' size-in-bits='8' filepath='src/third_party/boost-1.56.0/boost/mpl/aux_/integral_wrapper.hpp' line='43' column='1' hash='60d212e012e8b1ce' id='type-id-447'>
        <data-member access='public' static='yes'>
          <var-decl name='value' type-id='type-id-121' mangled-name='_ZN4mpl_4int_ILi2EE5valueE' visibility='default' filepath='src/third_party/boost-1.56.0/boost/mpl/aux_/integral_wrapper.hpp' line='45' column='1'/>
        </data-member>
      </class-decl>
      <class-decl name='int_&lt;4&gt;' is-struct='yes' visibility='default' size-in-bits='8' filepath='src/third_party/boost-1.56.0/boost/mpl/aux_/integral_wrapper.hpp' line='43' column='1' hash='7c3b7931549bfbc4' id='type-id-450'>
        <data-member access='public' static='yes'>
          <var-decl name='value' type-id='type-id-121' mangled-name='_ZN4mpl_4int_ILi4EE5valueE' visibility='default' filepath='src/third_party/boost-1.56.0/boost/mpl/aux_/integral_wrapper.hpp' line='45' column='1'/>
        </data-member>
      </class-decl>
      <class-decl name='int_&lt;5&gt;' is-struct='yes' visibility='default' size-in-bits='8' filepath='src/third_party/boost-1.56.0/boost/mpl/aux_/integral_wrapper.hpp' line='43' column='1' hash='23df37f1a16beea3' id='type-id-453'>
        <data-member access='public' static='yes'>
          <var-decl name='value' type-id='type-id-121' mangled-name='_ZN4mpl_4int_ILi5EE5valueE' visibility='default' filepath='src/third_party/boost-1.56.0/boost/mpl/aux_/integral_wrapper.hpp' line='45' column='1'/>
        </data-member>
      </class-decl>
      <class-decl name='int_&lt;6&gt;' is-struct='yes' visibility='default' size-in-bits='8' filepath='src/third_party/boost-1.56.0/boost/mpl/aux_/integral_wrapper.hpp' line='43' column='1' hash='bbd393400f4bcd1f' id='type-id-456'>
        <data-member access='public' static='yes'>
          <var-decl name='value' type-id='type-id-121' mangled-name='_ZN4mpl_4int_ILi6EE5valueE' visibility='default' filepath='src/third_party/boost-1.56.0/boost/mpl/aux_/integral_wrapper.hpp' line='45' column='1'/>
        </data-member>
      </class-decl>
      <typedef-decl name='true_' type-id='type-id-444' size-in-bits='8' filepath='src/third_party/boost-1.56.0/boost/mpl/bool_fwd.hpp' line='24' column='1' id='type-id-593'/>
    </namespace-decl>
  </abi-instr>
  <abi-instr address-size='64' path='src/third_party/boost-1.56.0/libs/filesystem/src/path.cpp' comp-dir-path='/home/andrew/Documents/10gen/dev/src/mongodb' language='LANG_C_plus_plus'>
    <qualified-type-def type-id='type-id-73' const='yes' hash='dcdaa772d378930a' id='type-id-651'/>
    <reference-type-def kind='lvalue' type-id='type-id-652' size-in-bits='64' hash='3fe5c22fccb977a4' id='type-id-653'/>
    <pointer-type-def type-id='type-id-652' size-in-bits='64' hash='fb2639733acedf9f' id='type-id-654'/>
    <qualified-type-def type-id='type-id-654' const='yes' hash='84f104a764ff7cde' id='type-id-655'/>
    <qualified-type-def type-id='type-id-93' const='yes' hash='89accc716fe2fb49' id='type-id-656'/>
    <qualified-type-def type-id='type-id-95' const='yes' hash='965e4c369a123308' id='type-id-657'/>
    <qualified-type-def type-id='type-id-652' const='yes' hash='e0a3a1a253dc837a' id='type-id-658'/>
    <reference-type-def kind='lvalue' type-id='type-id-658' size-in-bits='64' hash='490e7d864c8172ea' id='type-id-659'/>
    <pointer-type-def type-id='type-id-658' size-in-bits='64' hash='89c70a5ca2481056' id='type-id-660'/>
    <qualified-type-def type-id='type-id-660' const='yes' hash='0d591f1a05ace90b' id='type-id-661'/>
    <qualified-type-def type-id='type-id-662' const='yes' hash='0d301f00e830e5eb' id='type-id-663'/>
    <reference-type-def kind='lvalue' type-id='type-id-663' size-in-bits='64' hash='d98a60be7234f7c8' id='type-id-664'/>
    <pointer-type-def type-id='type-id-663' size-in-bits='64' hash='f4903706bce76c85' id='type-id-665'/>
    <qualified-type-def type-id='type-id-666' const='yes' hash='9c3f1503b45b0328' id='type-id-667'/>
    <reference-type-def kind='lvalue' type-id='type-id-667' size-in-bits='64' hash='00b5256d58d8bd92' id='type-id-668'/>
    <reference-type-def kind='lvalue' type-id='type-id-662' size-in-bits='64' hash='75929b1513585467' id='type-id-669'/>
    <pointer-type-def type-id='type-id-662' size-in-bits='64' hash='4cef840ef4725ab6' id='type-id-670'/>
    <qualified-type-def type-id='type-id-611' const='yes' id='type-id-671'/>
    <qualified-type-def type-id='type-id-672' const='yes' id='type-id-673'/>
    <qualified-type-def type-id='type-id-535' const='yes' id='type-id-674'/>
    <namespace-decl name='std'>
      <class-decl name='char_traits&lt;char&gt;' is-struct='yes' visibility='default' size-in-bits='8' filepath='/usr/include/c++/4.9/bits/char_traits.h' line='233' column='1' hash='fc88b5d70352b916' id='type-id-675'>
        <member-type access='public'>
          <typedef-decl name='char_type' type-id='type-id-2' size-in-bits='8' filepath='/usr/include/c++/4.9/bits/char_traits.h' line='235' column='1' hash='65b2d157027b431a' id='type-id-662'/>
        </member-type>
        <member-type access='public'>
          <typedef-decl name='int_type' type-id='type-id-12' size-in-bits='32' filepath='/usr/include/c++/4.9/bits/char_traits.h' line='236' column='1' hash='09d17c08f594edc7' id='type-id-666'/>
        </member-type>
        <member-function access='public' static='yes'>
          <function-decl name='compare' mangled-name='_ZNSt11char_traitsIcE7compareEPKcS2_m' filepath='/usr/include/c++/4.9/bits/char_traits.h' line='258' column='1' visibility='default' binding='global' size-in-bits='64' elf-symbol-id='_ZNSt11char_traitsIcE7compareEPKcS2_m' hash='609dbfe42ca73872'>
            <parameter type-id='type-id-665'/>
            <parameter type-id='type-id-665'/>
            <parameter type-id='type-id-186'/>
            <return type-id='type-id-12'/>
          </function-decl>
        </member-function>
      </class-decl>
      <class-decl name='codecvt&lt;wchar_t, char, __mbstate_t&gt;' visibility='default' is-declaration-only='yes' id='type-id-612'/>
      <class-decl name='reverse_iterator&lt;__gnu_cxx::__normal_iterator&lt;char const*, std::basic_string&lt;char, std::char_traits&lt;char&gt;, std::allocator&lt;char&gt; &gt; &gt; &gt;' visibility='default' is-declaration-only='yes' id='type-id-198'/>
      <class-decl name='reverse_iterator&lt;__gnu_cxx::__normal_iterator&lt;char*, std::basic_string&lt;char, std::char_traits&lt;char&gt;, std::allocator&lt;char&gt; &gt; &gt; &gt;' visibility='default' is-declaration-only='yes' id='type-id-210'/>
      <class-decl name='reverse_iterator&lt;__gnu_cxx::__normal_iterator&lt;wchar_t const*, std::basic_string&lt;wchar_t, std::char_traits&lt;wchar_t&gt;, std::allocator&lt;wchar_t&gt; &gt; &gt; &gt;' visibility='default' is-declaration-only='yes' id='type-id-551'/>
      <class-decl name='reverse_iterator&lt;__gnu_cxx::__normal_iterator&lt;wchar_t*, std::basic_string&lt;wchar_t, std::char_traits&lt;wchar_t&gt;, std::allocator&lt;wchar_t&gt; &gt; &gt; &gt;' visibility='default' is-declaration-only='yes' id='type-id-559'/>
      <function-decl name='operator==&lt;char&gt;' mangled-name='_ZSteqIcEN9__gnu_cxx11__enable_ifIXsrSt9__is_charIT_E7__valueEbE6__typeERKSbIS3_St11char_traitsIS3_ESaIS3_EESC_' filepath='/usr/include/c++/4.9/bits/basic_string.h' line='2512' column='1' visibility='default' binding='global' size-in-bits='64' elf-symbol-id='_ZSteqIcEN9__gnu_cxx11__enable_ifIXsrSt9__is_charIT_E7__valueEbE6__typeERKSbIS3_St11char_traitsIS3_ESaIS3_EESC_' hash='1943d81ccf758875'>
        <parameter type-id='type-id-140'/>
        <parameter type-id='type-id-140'/>
        <return type-id='type-id-676'/>
      </function-decl>
      <function-decl name='operator==&lt;char, std::char_traits&lt;char&gt;, std::allocator&lt;char&gt; &gt;' mangled-name='_ZSteqIcSt11char_traitsIcESaIcEEbRKSbIT_T0_T1_EPKS3_' filepath='/usr/include/c++/4.9/bits/basic_string.h' line='2538' column='1' visibility='default' binding='global' size-in-bits='64' elf-symbol-id='_ZSteqIcSt11char_traitsIcESaIcEEbRKSbIT_T0_T1_EPKS3_' hash='efc4d02db7393a00'>
        <parameter type-id='type-id-140'/>
        <parameter type-id='type-id-43'/>
        <return type-id='type-id-1'/>
      </function-decl>
      <function-decl name='operator&lt; &lt;char, std::char_traits&lt;char&gt;, std::allocator&lt;char&gt; &gt;' mangled-name='_ZStltIcSt11char_traitsIcESaIcEEbRKSbIT_T0_T1_ES8_' filepath='/usr/include/c++/4.9/bits/basic_string.h' line='2588' column='1' visibility='default' binding='global' size-in-bits='64' elf-symbol-id='_ZStltIcSt11char_traitsIcESaIcEEbRKSbIT_T0_T1_ES8_' hash='1943d81ccf758875'>
        <parameter type-id='type-id-140'/>
        <parameter type-id='type-id-140'/>
        <return type-id='type-id-1'/>
      </function-decl>
      <function-decl name='__distance&lt;char const*&gt;' mangled-name='_ZSt10__distanceIPKcENSt15iterator_traitsIT_E15difference_typeES3_S3_St26random_access_iterator_tag' filepath='/usr/include/c++/4.9/bits/stl_iterator_base_funcs.h' line='90' column='1' visibility='default' binding='global' size-in-bits='64' elf-symbol-id='_ZSt10__distanceIPKcENSt15iterator_traitsIT_E15difference_typeES3_S3_St26random_access_iterator_tag' hash='4d6816caec6fda1e'>
        <parameter type-id='type-id-43'/>
        <parameter type-id='type-id-43'/>
        <parameter type-id='type-id-228'/>
        <return type-id='type-id-225'/>
      </function-decl>
      <function-decl name='distance&lt;char const*&gt;' mangled-name='_ZSt8distanceIPKcENSt15iterator_traitsIT_E15difference_typeES3_S3_' filepath='/usr/include/c++/4.9/bits/stl_iterator_base_funcs.h' line='114' column='1' visibility='default' binding='global' size-in-bits='64' elf-symbol-id='_ZSt8distanceIPKcENSt15iterator_traitsIT_E15difference_typeES3_S3_' hash='4d6816caec6fda1e'>
        <parameter type-id='type-id-43'/>
        <parameter type-id='type-id-43'/>
        <return type-id='type-id-225'/>
      </function-decl>
      <function-decl name='__iterator_category&lt;char const*&gt;' mangled-name='_ZSt19__iterator_categoryIPKcENSt15iterator_traitsIT_E17iterator_categoryERKS3_' filepath='/usr/include/c++/4.9/bits/stl_iterator_base_types.h' line='201' column='1' visibility='default' binding='global' size-in-bits='64' elf-symbol-id='_ZSt19__iterator_categoryIPKcENSt15iterator_traitsIT_E17iterator_categoryERKS3_' hash='b1603547bc97e161'>
        <parameter type-id='type-id-117'/>
        <return type-id='type-id-227'/>
      </function-decl>
    </namespace-decl>
    <namespace-decl name='__gnu_cxx'>
      <class-decl name='__enable_if&lt;true, bool&gt;' is-struct='yes' visibility='default' size-in-bits='8' filepath='/usr/include/c++/4.9/ext/type_traits.h' line='47' column='1' hash='12afe874787f095c' id='type-id-677'>
        <member-type access='public'>
          <typedef-decl name='__type' type-id='type-id-1' size-in-bits='8' filepath='/usr/include/c++/4.9/ext/type_traits.h' line='48' column='1' hash='5ba96bb22f4237fb' id='type-id-676'/>
        </member-type>
      </class-decl>
      <function-decl name='__is_null_pointer&lt;char const&gt;' mangled-name='_ZN9__gnu_cxx17__is_null_pointerIKcEEbPT_' filepath='/usr/include/c++/4.9/ext/type_traits.h' line='150' column='1' visibility='default' binding='global' size-in-bits='64' elf-symbol-id='_ZN9__gnu_cxx17__is_null_pointerIKcEEbPT_' hash='19a1d02fa5635f5c'>
        <parameter type-id='type-id-43'/>
        <return type-id='type-id-1'/>
      </function-decl>
    </namespace-decl>
    <namespace-decl name='boost'>
      <namespace-decl name='filesystem'>
        <namespace-decl name='detail'>
          <function-decl name='lex_compare' mangled-name='_ZN5boost10filesystem6detail11lex_compareENS0_4path8iteratorES3_S3_S3_' filepath='src/third_party/boost-1.56.0/libs/filesystem/src/path.cpp' line='649' column='1' visibility='default' binding='global' size-in-bits='64' elf-symbol-id='_ZN5boost10filesystem6detail11lex_compareENS0_4path8iteratorES3_S3_S3_' hash='388da3fa973fde78'>
            <parameter type-id='type-id-328'/>
            <parameter type-id='type-id-328'/>
            <parameter type-id='type-id-328'/>
            <parameter type-id='type-id-328'/>
            <return type-id='type-id-12'/>
          </function-decl>
        </namespace-decl>
        <namespace-decl name='path_traits'>
          <typedef-decl name='codecvt_type' type-id='type-id-612' filepath='src/third_party/boost-1.56.0/boost/filesystem/path_traits.hpp' line='52' column='1' id='type-id-672'/>
          <function-decl name='dispatch&lt;std::basic_string&lt;char&gt; &gt;' mangled-name='_ZN5boost10filesystem11path_traits8dispatchISsEEvRKSsRT_RKSt7codecvtIwc11__mbstate_tE' filepath='src/third_party/boost-1.56.0/boost/filesystem/path_traits.hpp' line='171' column='1' visibility='default' binding='global' size-in-bits='64' elf-symbol-id='_ZN5boost10filesystem11path_traits8dispatchISsEEvRKSsRT_RKSt7codecvtIwc11__mbstate_tE' hash='e8318ea3bc63752b'>
            <parameter type-id='type-id-494'/>
            <parameter type-id='type-id-168'/>
            <parameter type-id='type-id-534'/>
            <return type-id='type-id-47'/>
          </function-decl>
        </namespace-decl>
      </namespace-decl>
      <function-decl name='operator==&lt;boost::filesystem::path::iterator, const boost::filesystem::path, boost::bidirectional_traversal_tag, const boost::filesystem::path&amp;, long int, boost::filesystem::path::iterator, const boost::filesystem::path, boost::bidirectional_traversal_tag, const boost::filesystem::path&amp;, long int&gt;' mangled-name='_ZN5boosteqINS_10filesystem4path8iteratorEKS2_NS_27bidirectional_traversal_tagERS4_lS3_S4_S5_S6_lEENS_6detail23enable_if_interoperableIT_T4_NS_3mpl6apply2INS7_12always_bool2ES9_SA_E4typeEE4typeERKNS_15iterator_facadeIS9_T0_T1_T2_T3_EERKNSI_ISA_T5_T6_T7_T8_EE' filepath='src/third_party/boost-1.56.0/boost/iterator/iterator_facade.hpp' line='832' column='1' visibility='default' binding='global' size-in-bits='64' elf-symbol-id='_ZN5boosteqINS_10filesystem4path8iteratorEKS2_NS_27bidirectional_traversal_tagERS4_lS3_S4_S5_S6_lEENS_6detail23enable_if_interoperableIT_T4_NS_3mpl6apply2INS7_12always_bool2ES9_SA_E4typeEE4typeERKNS_15iterator_facadeIS9_T0_T1_T2_T3_EERKNSI_ISA_T5_T6_T7_T8_EE' hash='99a8d4e294d8860d'>
        <parameter type-id='type-id-422'/>
        <parameter type-id='type-id-422'/>
        <return type-id='type-id-620'/>
      </function-decl>
      <namespace-decl name='detail'>
        <class-decl name='addr_impl_ref&lt;const boost::filesystem::path&gt;' is-struct='yes' visibility='default' size-in-bits='64' filepath='src/third_party/boost-1.56.0/boost/core/addressof.hpp' line='25' column='1' hash='cbc6667b51a33555' id='type-id-652'>
          <data-member access='public' layout-offset-in-bits='0'>
            <var-decl name='v_' type-id='type-id-404' visibility='default' filepath='src/third_party/boost-1.56.0/boost/core/addressof.hpp' line='27' column='1'/>
          </data-member>
        </class-decl>
        <class-decl name='addressof_impl&lt;const boost::filesystem::path&gt;' is-struct='yes' visibility='default' size-in-bits='8' filepath='src/third_party/boost-1.56.0/boost/core/addressof.hpp' line='36' column='1' hash='516767c340501e3c' id='type-id-678'/>
        <class-decl name='operator_brackets_proxy&lt;boost::filesystem::path::iterator&gt;' visibility='default' is-declaration-only='yes' id='type-id-633'/>
      </namespace-decl>
    </namespace-decl>
  </abi-instr>
  <abi-instr address-size='64' path='src/third_party/boost-1.56.0/libs/filesystem/src/path_traits.cpp' comp-dir-path='/home/andrew/Documents/10gen/dev/src/mongodb' language='LANG_C_plus_plus'>
    <reference-type-def kind='lvalue' type-id='type-id-679' size-in-bits='64' hash='40bf5a0a5b587921' id='type-id-680'/>
    <pointer-type-def type-id='type-id-679' size-in-bits='64' hash='d87befc265a8b627' id='type-id-681'/>
    <qualified-type-def type-id='type-id-681' const='yes' hash='ba2167e57e98a4ff' id='type-id-682'/>
    <qualified-type-def type-id='type-id-679' const='yes' hash='f6aa6e888a289c55' id='type-id-683'/>
    <reference-type-def kind='lvalue' type-id='type-id-683' size-in-bits='64' hash='2bdccdcb8ad14e82' id='type-id-684'/>
    <pointer-type-def type-id='type-id-683' size-in-bits='64' hash='8a221855d7e44f84' id='type-id-685'/>
    <qualified-type-def type-id='type-id-685' const='yes' hash='e22fd4cd09782767' id='type-id-686'/>
    <qualified-type-def type-id='type-id-687' const='yes' hash='46c6a11afbe8b940' id='type-id-688'/>
    <pointer-type-def type-id='type-id-688' size-in-bits='64' hash='9e1b003299d892fe' id='type-id-689'/>
    <reference-type-def kind='lvalue' type-id='type-id-689' size-in-bits='64' hash='7e784908f7fb6566' id='type-id-690'/>
    <qualified-type-def type-id='type-id-691' const='yes' hash='b6006b0af1c516ca' id='type-id-692'/>
    <pointer-type-def type-id='type-id-692' size-in-bits='64' hash='c8f953f1f918a463' id='type-id-693'/>
    <reference-type-def kind='lvalue' type-id='type-id-693' size-in-bits='64' hash='82dc8640b8d78a21' id='type-id-694'/>
    <pointer-type-def type-id='type-id-687' size-in-bits='64' hash='c5399a63f9eae4e0' id='type-id-695'/>
    <reference-type-def kind='lvalue' type-id='type-id-695' size-in-bits='64' hash='69d3669f162cd7e0' id='type-id-696'/>
    <pointer-type-def type-id='type-id-691' size-in-bits='64' hash='15b63369fcb46792' id='type-id-697'/>
    <reference-type-def kind='lvalue' type-id='type-id-697' size-in-bits='64' hash='76c634f7a3e50b52' id='type-id-698'/>
    <reference-type-def kind='lvalue' type-id='type-id-699' size-in-bits='64' hash='f67ef69d77a6279f' id='type-id-700'/>
    <qualified-type-def type-id='type-id-506' const='yes' hash='5eca4dbf5c6b562f' id='type-id-701'/>
    <reference-type-def kind='lvalue' type-id='type-id-495' size-in-bits='64' hash='79f5ea69f1ca26f2' id='type-id-702'/>
    <qualified-type-def type-id='type-id-703' const='yes' id='type-id-704'/>
    <qualified-type-def type-id='type-id-705' const='yes' id='type-id-706'/>
    <pointer-type-def type-id='type-id-706' size-in-bits='64' id='type-id-707'/>
    <qualified-type-def type-id='type-id-707' const='yes' id='type-id-708'/>
    <namespace-decl name='std'>
      <class-decl name='codecvt_base' visibility='default' size-in-bits='8' filepath='/usr/include/c++/4.9/bits/codecvt.h' line='46' column='1' hash='ee38993160d0ee16' id='type-id-709'>
        <member-type access='public'>
          <enum-decl name='result' size-in-bits='32' alignment-in-bits='32' filepath='/usr/include/c++/4.9/bits/codecvt.h' line='49' column='1' hash='5c877127c91ca69b' id='type-id-710'>
            <underlying-type type-id='type-id-265'/>
            <enumerator name='ok' value='0'/>
            <enumerator name='partial' value='1'/>
            <enumerator name='error' value='2'/>
            <enumerator name='noconv' value='3'/>
          </enum-decl>
        </member-type>
      </class-decl>
      <class-decl name='__codecvt_abstract_base&lt;wchar_t, char, __mbstate_t&gt;' visibility='default' is-declaration-only='yes' id='type-id-705'>
        <member-type access='public'>
          <typedef-decl name='extern_type' type-id='type-id-2' size-in-bits='8' filepath='/usr/include/c++/4.9/bits/codecvt.h' line='75' column='1' hash='65b2d157027b431a' id='type-id-687'/>
        </member-type>
        <member-type access='public'>
          <typedef-decl name='intern_type' type-id='type-id-65' size-in-bits='32' filepath='/usr/include/c++/4.9/bits/codecvt.h' line='74' column='1' hash='4b224bc24abb5f1b' id='type-id-691'/>
        </member-type>
        <member-type access='public'>
          <typedef-decl name='result' type-id='type-id-710' size-in-bits='32' alignment-in-bits='32' filepath='/usr/include/c++/4.9/bits/codecvt.h' line='73' column='1' hash='5c877127c91ca69b' id='type-id-711'/>
        </member-type>
        <member-type access='public'>
          <typedef-decl name='state_type' type-id='type-id-21' size-in-bits='64' filepath='/usr/include/c++/4.9/bits/codecvt.h' line='76' column='1' id='type-id-699'/>
        </member-type>
        <member-function access='public' const='yes'>
          <function-decl name='in' mangled-name='_ZNKSt23__codecvt_abstract_baseIwc11__mbstate_tE2inERS0_PKcS4_RS4_PwS6_RS6_' filepath='/usr/include/c++/4.9/bits/codecvt.h' line='196' column='1' visibility='default' binding='global' size-in-bits='64' elf-symbol-id='_ZNKSt23__codecvt_abstract_baseIwc11__mbstate_tE2inERS0_PKcS4_RS4_PwS6_RS6_' hash='5bc3ecadb0385b37'>
            <parameter type-id='type-id-707' is-artificial='yes'/>
            <parameter type-id='type-id-700' filepath='/usr/include/c++/4.9/bits/codecvt.h' line='196' column='1'/>
            <parameter type-id='type-id-689' filepath='/usr/include/c++/4.9/bits/codecvt.h' line='196' column='1'/>
            <parameter type-id='type-id-689' filepath='/usr/include/c++/4.9/bits/codecvt.h' line='197' column='1'/>
            <parameter type-id='type-id-690' filepath='/usr/include/c++/4.9/bits/codecvt.h' line='197' column='1'/>
            <parameter type-id='type-id-697' filepath='/usr/include/c++/4.9/bits/codecvt.h' line='198' column='1'/>
            <parameter type-id='type-id-697' filepath='/usr/include/c++/4.9/bits/codecvt.h' line='198' column='1'/>
            <parameter type-id='type-id-698' filepath='/usr/include/c++/4.9/bits/codecvt.h' line='199' column='1'/>
            <return type-id='type-id-711'/>
          </function-decl>
        </member-function>
        <member-function access='public' const='yes'>
          <function-decl name='out' mangled-name='_ZNKSt23__codecvt_abstract_baseIwc11__mbstate_tE3outERS0_PKwS4_RS4_PcS6_RS6_' filepath='/usr/include/c++/4.9/bits/codecvt.h' line='116' column='1' visibility='default' binding='global' size-in-bits='64' elf-symbol-id='_ZNKSt23__codecvt_abstract_baseIwc11__mbstate_tE3outERS0_PKwS4_RS4_PcS6_RS6_' hash='1c8b8571595a07f6'>
            <parameter type-id='type-id-707' is-artificial='yes'/>
            <parameter type-id='type-id-700' filepath='/usr/include/c++/4.9/bits/codecvt.h' line='116' column='1'/>
            <parameter type-id='type-id-693' filepath='/usr/include/c++/4.9/bits/codecvt.h' line='116' column='1'/>
            <parameter type-id='type-id-693' filepath='/usr/include/c++/4.9/bits/codecvt.h' line='117' column='1'/>
            <parameter type-id='type-id-694' filepath='/usr/include/c++/4.9/bits/codecvt.h' line='117' column='1'/>
            <parameter type-id='type-id-695' filepath='/usr/include/c++/4.9/bits/codecvt.h' line='118' column='1'/>
            <parameter type-id='type-id-695' filepath='/usr/include/c++/4.9/bits/codecvt.h' line='118' column='1'/>
            <parameter type-id='type-id-696' filepath='/usr/include/c++/4.9/bits/codecvt.h' line='119' column='1'/>
            <return type-id='type-id-711'/>
          </function-decl>
        </member-function>
      </class-decl>
      <class-decl name='codecvt&lt;wchar_t, char, __mbstate_t&gt;' visibility='default' is-declaration-only='yes' id='type-id-712'/>
      <class-decl name='reverse_iterator&lt;__gnu_cxx::__normal_iterator&lt;char const*, std::basic_string&lt;char, std::char_traits&lt;char&gt;, std::allocator&lt;char&gt; &gt; &gt; &gt;' visibility='default' is-declaration-only='yes' id='type-id-200'/>
      <class-decl name='reverse_iterator&lt;__gnu_cxx::__normal_iterator&lt;char*, std::basic_string&lt;char, std::char_traits&lt;char&gt;, std::allocator&lt;char&gt; &gt; &gt; &gt;' visibility='default' is-declaration-only='yes' id='type-id-212'/>
      <class-decl name='reverse_iterator&lt;__gnu_cxx::__normal_iterator&lt;wchar_t const*, std::basic_string&lt;wchar_t, std::char_traits&lt;wchar_t&gt;, std::allocator&lt;wchar_t&gt; &gt; &gt; &gt;' visibility='default' is-declaration-only='yes' id='type-id-553'/>
      <class-decl name='reverse_iterator&lt;__gnu_cxx::__normal_iterator&lt;wchar_t*, std::basic_string&lt;wchar_t, std::char_traits&lt;wchar_t&gt;, std::allocator&lt;wchar_t&gt; &gt; &gt; &gt;' visibility='default' is-declaration-only='yes' id='type-id-561'/>
    </namespace-decl>
    <namespace-decl name='boost'>
      <class-decl name='scoped_array&lt;wchar_t&gt;' visibility='default' size-in-bits='64' filepath='src/third_party/boost-1.56.0/boost/smart_ptr/scoped_array.hpp' line='39' column='1' hash='0139a1ac9e10cc69' id='type-id-679'>
        <data-member access='private' layout-offset-in-bits='0'>
          <var-decl name='px' type-id='type-id-181' visibility='default' filepath='src/third_party/boost-1.56.0/boost/smart_ptr/scoped_array.hpp' line='43' column='1'/>
        </data-member>
        <member-function access='public'>
          <function-decl name='scoped_array' mangled-name='_ZN5boost12scoped_arrayIwEC2EPw' filepath='src/third_party/boost-1.56.0/boost/smart_ptr/scoped_array.hpp' line='57' column='1' declared-inline='yes' visibility='default' binding='global' size-in-bits='64' elf-symbol-id='_ZN5boost12scoped_arrayIwEC2EPw' hash='46a7acc7f7795470'>
            <parameter type-id='type-id-681' is-artificial='yes'/>
            <parameter type-id='type-id-181'/>
            <return type-id='type-id-47'/>
          </function-decl>
        </member-function>
        <member-function access='public' destructor='yes'>
          <function-decl name='~scoped_array' mangled-name='_ZN5boost12scoped_arrayIwED2Ev' filepath='src/third_party/boost-1.56.0/boost/smart_ptr/scoped_array.hpp' line='64' column='1' declared-inline='yes' visibility='default' binding='global' size-in-bits='64' elf-symbol-id='_ZN5boost12scoped_arrayIwED2Ev' hash='7f32ffea222edbe7'>
            <parameter type-id='type-id-681' is-artificial='yes'/>
            <return type-id='type-id-47'/>
          </function-decl>
        </member-function>
        <member-function access='public' const='yes'>
          <function-decl name='get' mangled-name='_ZNK5boost12scoped_arrayIwE3getEv' filepath='src/third_party/boost-1.56.0/boost/smart_ptr/scoped_array.hpp' line='85' column='1' visibility='default' binding='global' size-in-bits='64' elf-symbol-id='_ZNK5boost12scoped_arrayIwE3getEv' hash='46a7acc7f7795470'>
            <parameter type-id='type-id-685' is-artificial='yes'/>
            <return type-id='type-id-181'/>
          </function-decl>
        </member-function>
      </class-decl>
      <function-decl name='checked_array_delete&lt;wchar_t&gt;' mangled-name='_ZN5boost20checked_array_deleteIwEEvPT_' filepath='src/third_party/boost-1.56.0/boost/core/checked_delete.hpp' line='37' column='1' visibility='default' binding='global' size-in-bits='64' elf-symbol-id='_ZN5boost20checked_array_deleteIwEEvPT_' hash='46a7acc7f7795470'>
        <parameter type-id='type-id-181'/>
        <return type-id='type-id-47'/>
      </function-decl>
      <namespace-decl name='filesystem'>
        <namespace-decl name='path_traits'>
          <typedef-decl name='codecvt_type' type-id='type-id-712' filepath='src/third_party/boost-1.56.0/boost/filesystem/path_traits.hpp' line='52' column='1' id='type-id-703'/>
          <function-decl name='convert' mangled-name='_ZN5boost10filesystem11path_traits7convertEPKcS3_RSbIwSt11char_traitsIwESaIwEERKSt7codecvtIwc11__mbstate_tE' filepath='src/third_party/boost-1.56.0/libs/filesystem/src/path_traits.cpp' line='133' column='1' visibility='default' binding='global' size-in-bits='64' elf-symbol-id='_ZN5boost10filesystem11path_traits7convertEPKcS3_RSbIwSt11char_traitsIwESaIwEERKSt7codecvtIwc11__mbstate_tE' hash='c5470aafa97ae0c2'>
            <parameter type-id='type-id-43'/>
            <parameter type-id='type-id-43'/>
            <parameter type-id='type-id-702'/>
            <parameter type-id='type-id-534'/>
            <return type-id='type-id-47'/>
          </function-decl>
          <function-decl name='convert' mangled-name='_ZN5boost10filesystem11path_traits7convertEPKwS3_RSsRKSt7codecvtIwc11__mbstate_tE' filepath='src/third_party/boost-1.56.0/libs/filesystem/src/path_traits.cpp' line='167' column='1' visibility='default' binding='global' size-in-bits='64' elf-symbol-id='_ZN5boost10filesystem11path_traits7convertEPKwS3_RSsRKSt7codecvtIwc11__mbstate_tE' hash='073db04de44a294a'>
            <parameter type-id='type-id-161'/>
            <parameter type-id='type-id-161'/>
            <parameter type-id='type-id-521'/>
            <parameter type-id='type-id-534'/>
            <return type-id='type-id-47'/>
          </function-decl>
        </namespace-decl>
      </namespace-decl>
    </namespace-decl>
  </abi-instr>
  <abi-instr address-size='64' path='src/third_party/boost-1.56.0/libs/filesystem/src/portability.cpp' comp-dir-path='/home/andrew/Documents/10gen/dev/src/mongodb' language='LANG_C_plus_plus'>
    <qualified-type-def type-id='type-id-70' const='yes' hash='fe00387ee317aa9e' id='type-id-713'/>
    <namespace-decl name='std'>
      <class-decl name='reverse_iterator&lt;__gnu_cxx::__normal_iterator&lt;char const*, std::basic_string&lt;char, std::char_traits&lt;char&gt;, std::allocator&lt;char&gt; &gt; &gt; &gt;' visibility='default' is-declaration-only='yes' id='type-id-202'/>
      <class-decl name='reverse_iterator&lt;__gnu_cxx::__normal_iterator&lt;char*, std::basic_string&lt;char, std::char_traits&lt;char&gt;, std::allocator&lt;char&gt; &gt; &gt; &gt;' visibility='default' is-declaration-only='yes' id='type-id-214'/>
      <function-decl name='operator!=&lt;char, std::char_traits&lt;char&gt;, std::allocator&lt;char&gt; &gt;' mangled-name='_ZStneIcSt11char_traitsIcESaIcEEbRKSbIT_T0_T1_EPKS3_' filepath='/usr/include/c++/4.9/bits/basic_string.h' line='2575' column='1' visibility='default' binding='global' size-in-bits='64' elf-symbol-id='_ZStneIcSt11char_traitsIcESaIcEEbRKSbIT_T0_T1_EPKS3_' hash='efc4d02db7393a00'>
        <parameter type-id='type-id-140'/>
        <parameter type-id='type-id-43'/>
        <return type-id='type-id-1'/>
      </function-decl>
    </namespace-decl>
    <namespace-decl name='boost'>
      <namespace-decl name='filesystem'>
        <function-decl name='native' mangled-name='_ZN5boost10filesystem6nativeERKSs' filepath='src/third_party/boost-1.56.0/libs/filesystem/src/portability.cpp' line='61' column='1' visibility='default' binding='global' size-in-bits='64' elf-symbol-id='_ZN5boost10filesystem6nativeERKSs' hash='8dcbbafdc3523821'>
          <parameter type-id='type-id-494'/>
          <return type-id='type-id-1'/>
        </function-decl>
        <function-decl name='portable_posix_name' mangled-name='_ZN5boost10filesystem19portable_posix_nameERKSs' filepath='src/third_party/boost-1.56.0/libs/filesystem/src/portability.cpp' line='69' column='1' visibility='default' binding='global' size-in-bits='64' elf-symbol-id='_ZN5boost10filesystem19portable_posix_nameERKSs' hash='8dcbbafdc3523821'>
          <parameter type-id='type-id-494'/>
          <return type-id='type-id-1'/>
        </function-decl>
        <function-decl name='windows_name' mangled-name='_ZN5boost10filesystem12windows_nameERKSs' filepath='src/third_party/boost-1.56.0/libs/filesystem/src/portability.cpp' line='75' column='1' visibility='default' binding='global' size-in-bits='64' elf-symbol-id='_ZN5boost10filesystem12windows_nameERKSs' hash='8dcbbafdc3523821'>
          <parameter type-id='type-id-494'/>
          <return type-id='type-id-1'/>
        </function-decl>
        <function-decl name='portable_name' mangled-name='_ZN5boost10filesystem13portable_nameERKSs' filepath='src/third_party/boost-1.56.0/libs/filesystem/src/portability.cpp' line='85' column='1' visibility='default' binding='global' size-in-bits='64' elf-symbol-id='_ZN5boost10filesystem13portable_nameERKSs' hash='8dcbbafdc3523821'>
          <parameter type-id='type-id-494'/>
          <return type-id='type-id-1'/>
        </function-decl>
        <function-decl name='portable_directory_name' mangled-name='_ZN5boost10filesystem23portable_directory_nameERKSs' filepath='src/third_party/boost-1.56.0/libs/filesystem/src/portability.cpp' line='96' column='1' visibility='default' binding='global' size-in-bits='64' elf-symbol-id='_ZN5boost10filesystem23portable_directory_nameERKSs' hash='8dcbbafdc3523821'>
          <parameter type-id='type-id-494'/>
          <return type-id='type-id-1'/>
        </function-decl>
        <function-decl name='portable_file_name' mangled-name='_ZN5boost10filesystem18portable_file_nameERKSs' filepath='src/third_party/boost-1.56.0/libs/filesystem/src/portability.cpp' line='105' column='1' visibility='default' binding='global' size-in-bits='64' elf-symbol-id='_ZN5boost10filesystem18portable_file_nameERKSs' hash='8dcbbafdc3523821'>
          <parameter type-id='type-id-494'/>
          <return type-id='type-id-1'/>
        </function-decl>
      </namespace-decl>
    </namespace-decl>
  </abi-instr>
  <abi-instr address-size='64' path='src/third_party/boost-1.56.0/libs/filesystem/src/unique_path.cpp' comp-dir-path='/home/andrew/Documents/10gen/dev/src/mongodb' language='LANG_C_plus_plus'>
    <qualified-type-def type-id='type-id-366' const='yes' hash='d123f30b8779ac9b' id='type-id-714'/>
    <reference-type-def kind='lvalue' type-id='type-id-496' size-in-bits='64' hash='2034aeb6cc1b5046' id='type-id-715'/>
    <pointer-type-def type-id='type-id-716' size-in-bits='64' id='type-id-615'/>
    <qualified-type-def type-id='type-id-613' const='yes' id='type-id-717'/>
    <qualified-type-def type-id='type-id-718' const='yes' id='type-id-719'/>
    <namespace-decl name='std'>
      <class-decl name='codecvt&lt;wchar_t, char, __mbstate_t&gt;' visibility='default' is-declaration-only='yes' id='type-id-614'/>
      <class-decl name='reverse_iterator&lt;__gnu_cxx::__normal_iterator&lt;char const*, std::basic_string&lt;char, std::char_traits&lt;char&gt;, std::allocator&lt;char&gt; &gt; &gt; &gt;' visibility='default' is-declaration-only='yes' id='type-id-204'/>
      <class-decl name='reverse_iterator&lt;__gnu_cxx::__normal_iterator&lt;char*, std::basic_string&lt;char, std::char_traits&lt;char&gt;, std::allocator&lt;char&gt; &gt; &gt; &gt;' visibility='default' is-declaration-only='yes' id='type-id-216'/>
      <class-decl name='reverse_iterator&lt;__gnu_cxx::__normal_iterator&lt;wchar_t const*, std::basic_string&lt;wchar_t, std::char_traits&lt;wchar_t&gt;, std::allocator&lt;wchar_t&gt; &gt; &gt; &gt;' visibility='default' is-declaration-only='yes' id='type-id-555'/>
      <class-decl name='reverse_iterator&lt;__gnu_cxx::__normal_iterator&lt;wchar_t*, std::basic_string&lt;wchar_t, std::char_traits&lt;wchar_t&gt;, std::allocator&lt;wchar_t&gt; &gt; &gt; &gt;' visibility='default' is-declaration-only='yes' id='type-id-563'/>
    </namespace-decl>
    <namespace-decl name='boost'>
      <class-decl name='enable_if_c&lt;true, void&gt;' is-struct='yes' visibility='default' size-in-bits='8' filepath='src/third_party/boost-1.56.0/boost/core/enable_if.hpp' line='28' column='1' hash='07f7f3a65542219e' id='type-id-720'>
        <member-type access='public'>
          <typedef-decl name='type' type-id='type-id-47' filepath='src/third_party/boost-1.56.0/boost/core/enable_if.hpp' line='29' column='1' id='type-id-716'/>
        </member-type>
      </class-decl>
      <namespace-decl name='filesystem'>
        <namespace-decl name='detail'>
          <function-decl name='unique_path' mangled-name='_ZN5boost10filesystem6detail11unique_pathERKNS0_4pathEPNS_6system10error_codeE' filepath='src/third_party/boost-1.56.0/libs/filesystem/src/unique_path.cpp' line='111' column='1' visibility='default' binding='global' size-in-bits='64' elf-symbol-id='_ZN5boost10filesystem6detail11unique_pathERKNS0_4pathEPNS_6system10error_codeE' hash='e2bb4aa31bf09068'>
            <parameter type-id='type-id-404'/>
            <parameter type-id='type-id-84'/>
            <return type-id='type-id-324'/>
          </function-decl>
        </namespace-decl>
        <namespace-decl name='path_traits'>
          <typedef-decl name='codecvt_type' type-id='type-id-614' filepath='src/third_party/boost-1.56.0/boost/filesystem/path_traits.hpp' line='52' column='1' id='type-id-718'/>
          <function-decl name='dispatch&lt;std::basic_string&lt;char&gt; &gt;' mangled-name='_ZN5boost10filesystem11path_traits8dispatchISsEEvRKSbIwSt11char_traitsIwESaIwEERT_RKSt7codecvtIwc11__mbstate_tE' filepath='src/third_party/boost-1.56.0/boost/filesystem/path_traits.hpp' line='177' column='1' visibility='default' binding='global' size-in-bits='64' elf-symbol-id='_ZN5boost10filesystem11path_traits8dispatchISsEEvRKSbIwSt11char_traitsIwESaIwEERT_RKSt7codecvtIwc11__mbstate_tE' hash='fa7817680613ff2f'>
            <parameter type-id='type-id-715'/>
            <parameter type-id='type-id-168'/>
            <parameter type-id='type-id-534'/>
            <return type-id='type-id-47'/>
          </function-decl>
        </namespace-decl>
      </namespace-decl>
    </namespace-decl>
  </abi-instr>
  <abi-instr address-size='64' path='src/third_party/boost-1.56.0/libs/filesystem/src/utf8_codecvt_facet.cpp' comp-dir-path='/home/andrew/Documents/10gen/dev/src/mongodb' language='LANG_C_plus_plus'>
    <type-decl name='unsigned char' size-in-bits='8' hash='6ebac62b3366db68' id='type-id-721'/>
    <pointer-type-def type-id='type-id-722' size-in-bits='64' hash='ba1e5873973ca4e6' id='type-id-723'/>
    <reference-type-def kind='lvalue' type-id='type-id-23' size-in-bits='64' hash='41930ea09a217155' id='type-id-724'/>
    <qualified-type-def type-id='type-id-722' const='yes' hash='2a14a95b0fc4be20' id='type-id-725'/>
    <pointer-type-def type-id='type-id-725' size-in-bits='64' hash='67616be38690ad43' id='type-id-726'/>
    <qualified-type-def type-id='type-id-726' const='yes' hash='fa1d6533d6d65625' id='type-id-727'/>
    <reference-type-def kind='lvalue' type-id='type-id-43' size-in-bits='64' hash='61b8d56ccba036f1' id='type-id-728'/>
    <reference-type-def kind='lvalue' type-id='type-id-161' size-in-bits='64' hash='29ed0da342be01b8' id='type-id-729'/>
    <reference-type-def kind='lvalue' type-id='type-id-57' size-in-bits='64' hash='ec4da5915db20925' id='type-id-730'/>
    <reference-type-def kind='lvalue' type-id='type-id-181' size-in-bits='64' hash='33c98d2013f11f5d' id='type-id-731'/>
    <namespace-decl name='std'>
      <class-decl name='numeric_limits&lt;wchar_t&gt;' is-struct='yes' visibility='default' size-in-bits='8' filepath='/usr/include/c++/4.9/limits' line='650' column='1' hash='1ae247166ea6388a' id='type-id-732'>
        <member-function access='public' static='yes'>
          <function-decl name='max' mangled-name='_ZNSt14numeric_limitsIwE3maxEv' filepath='/usr/include/c++/4.9/limits' line='658' column='1' visibility='default' binding='global' size-in-bits='64' elf-symbol-id='_ZNSt14numeric_limitsIwE3maxEv' hash='4a8a9b20b25a907c'>
            <return type-id='type-id-65'/>
          </function-decl>
        </member-function>
      </class-decl>
    </namespace-decl>
    <namespace-decl name='boost'>
      <namespace-decl name='filesystem'>
        <namespace-decl name='detail'>
          <class-decl name='utf8_codecvt_facet' is-struct='yes' visibility='default' size-in-bits='192' filepath='src/third_party/boost-1.56.0/boost/detail/utf8_codecvt_facet.hpp' line='106' column='1' hash='4cc13da41afb68c3' id='type-id-722'>
            <base-class access='public' layout-offset-in-bits='0' type-id='type-id-614'/>
            <member-function access='protected' const='yes'>
              <function-decl name='invalid_continuing_octet' mangled-name='_ZNK5boost10filesystem6detail18utf8_codecvt_facet24invalid_continuing_octetEh' filepath='src/third_party/boost-1.56.0/boost/detail/utf8_codecvt_facet.hpp' line='134' column='1' visibility='default' binding='global' size-in-bits='64' elf-symbol-id='_ZNK5boost10filesystem6detail18utf8_codecvt_facet24invalid_continuing_octetEh' hash='d5e141ff0e52545d'>
                <parameter type-id='type-id-726' is-artificial='yes'/>
                <parameter type-id='type-id-721'/>
                <return type-id='type-id-1'/>
              </function-decl>
            </member-function>
            <member-function access='protected' const='yes'>
              <function-decl name='invalid_leading_octet' mangled-name='_ZNK5boost10filesystem6detail18utf8_codecvt_facet21invalid_leading_octetEh' filepath='src/third_party/boost-1.56.0/boost/detail/utf8_codecvt_facet.hpp' line='138' column='1' visibility='default' binding='global' size-in-bits='64' elf-symbol-id='_ZNK5boost10filesystem6detail18utf8_codecvt_facet21invalid_leading_octetEh' hash='d5e141ff0e52545d'>
                <parameter type-id='type-id-726' is-artificial='yes'/>
                <parameter type-id='type-id-721'/>
                <return type-id='type-id-1'/>
              </function-decl>
            </member-function>
            <member-function access='protected' static='yes'>
              <function-decl name='get_cont_octet_count' mangled-name='_ZN5boost10filesystem6detail18utf8_codecvt_facet20get_cont_octet_countEh' filepath='src/third_party/boost-1.56.0/boost/detail/utf8_codecvt_facet.hpp' line='144' column='1' visibility='default' binding='global' size-in-bits='64' elf-symbol-id='_ZN5boost10filesystem6detail18utf8_codecvt_facet20get_cont_octet_countEh' hash='c0c40da8db3556e9'>
                <parameter type-id='type-id-721'/>
                <return type-id='type-id-34'/>
              </function-decl>
            </member-function>
            <member-function access='protected' static='yes'>
              <function-decl name='get_octet_count' mangled-name='_ZN5boost10filesystem6detail18utf8_codecvt_facet15get_octet_countEh' filepath='src/third_party/boost-1.56.0/boost/detail/utf8_codecvt_facet.ipp' line='204' column='1' visibility='default' binding='global' size-in-bits='64' elf-symbol-id='_ZN5boost10filesystem6detail18utf8_codecvt_facet15get_octet_countEh' hash='c0c40da8db3556e9'>
                <parameter type-id='type-id-721'/>
                <return type-id='type-id-34'/>
              </function-decl>
            </member-function>
            <member-function access='protected' const='yes'>
              <function-decl name='get_cont_octet_out_count' mangled-name='_ZNK5boost10filesystem6detail18utf8_codecvt_facet24get_cont_octet_out_countEw' filepath='src/third_party/boost-1.56.0/boost/detail/utf8_codecvt_facet.ipp' line='277' column='1' visibility='default' binding='global' size-in-bits='64' elf-symbol-id='_ZNK5boost10filesystem6detail18utf8_codecvt_facet24get_cont_octet_out_countEw' hash='2e53064594462585'>
                <parameter type-id='type-id-726' is-artificial='yes'/>
                <parameter type-id='type-id-65'/>
                <return type-id='type-id-12'/>
              </function-decl>
            </member-function>
            <member-function access='protected' const='yes' vtable-offset='2'>
              <function-decl name='do_out' mangled-name='_ZNK5boost10filesystem6detail18utf8_codecvt_facet6do_outER11__mbstate_tPKwS6_RS6_PcS8_RS8_' filepath='src/third_party/boost-1.56.0/boost/detail/utf8_codecvt_facet.ipp' line='111' column='1' visibility='default' binding='global' size-in-bits='64' elf-symbol-id='_ZNK5boost10filesystem6detail18utf8_codecvt_facet6do_outER11__mbstate_tPKwS6_RS6_PcS8_RS8_' hash='75f51592806027fd'>
                <parameter type-id='type-id-726' is-artificial='yes'/>
                <parameter type-id='type-id-730'/>
                <parameter type-id='type-id-161'/>
                <parameter type-id='type-id-161'/>
                <parameter type-id='type-id-729'/>
                <parameter type-id='type-id-23'/>
                <parameter type-id='type-id-23'/>
                <parameter type-id='type-id-724'/>
                <return type-id='type-id-710'/>
              </function-decl>
            </member-function>
            <member-function access='protected' const='yes' vtable-offset='3'>
              <function-decl name='do_unshift' mangled-name='_ZNK5boost10filesystem6detail18utf8_codecvt_facet10do_unshiftER11__mbstate_tPcS5_RS5_' filepath='src/third_party/boost-1.56.0/boost/detail/utf8_codecvt_facet.hpp' line='159' column='1' visibility='default' binding='global' size-in-bits='64' elf-symbol-id='_ZNK5boost10filesystem6detail18utf8_codecvt_facet10do_unshiftER11__mbstate_tPcS5_RS5_' hash='2611fc3865c5898d'>
                <parameter type-id='type-id-726' is-artificial='yes'/>
                <parameter type-id='type-id-730'/>
                <parameter type-id='type-id-23'/>
                <parameter type-id='type-id-23'/>
                <parameter type-id='type-id-724'/>
                <return type-id='type-id-710'/>
              </function-decl>
            </member-function>
            <member-function access='protected' const='yes' vtable-offset='4'>
              <function-decl name='do_in' mangled-name='_ZNK5boost10filesystem6detail18utf8_codecvt_facet5do_inER11__mbstate_tPKcS6_RS6_PwS8_RS8_' filepath='src/third_party/boost-1.56.0/boost/detail/utf8_codecvt_facet.ipp' line='34' column='1' visibility='default' binding='global' size-in-bits='64' elf-symbol-id='_ZNK5boost10filesystem6detail18utf8_codecvt_facet5do_inER11__mbstate_tPKcS6_RS6_PwS8_RS8_' hash='b64632c634f2b1f9'>
                <parameter type-id='type-id-726' is-artificial='yes'/>
                <parameter type-id='type-id-730'/>
                <parameter type-id='type-id-43'/>
                <parameter type-id='type-id-43'/>
                <parameter type-id='type-id-728'/>
                <parameter type-id='type-id-181'/>
                <parameter type-id='type-id-181'/>
                <parameter type-id='type-id-731'/>
                <return type-id='type-id-710'/>
              </function-decl>
            </member-function>
            <member-function access='protected' const='yes' vtable-offset='5'>
              <function-decl name='do_encoding' mangled-name='_ZNK5boost10filesystem6detail18utf8_codecvt_facet11do_encodingEv' filepath='src/third_party/boost-1.56.0/boost/detail/utf8_codecvt_facet.hpp' line='169' column='1' visibility='default' binding='global' size-in-bits='64' elf-symbol-id='_ZNK5boost10filesystem6detail18utf8_codecvt_facet11do_encodingEv' hash='388da3fa973fde78'>
                <parameter type-id='type-id-726' is-artificial='yes'/>
                <return type-id='type-id-12'/>
              </function-decl>
            </member-function>
            <member-function access='protected' const='yes' vtable-offset='6'>
              <function-decl name='do_always_noconv' mangled-name='_ZNK5boost10filesystem6detail18utf8_codecvt_facet16do_always_noconvEv' filepath='src/third_party/boost-1.56.0/boost/detail/utf8_codecvt_facet.hpp' line='154' column='1' visibility='default' binding='global' size-in-bits='64' elf-symbol-id='_ZNK5boost10filesystem6detail18utf8_codecvt_facet16do_always_noconvEv' hash='c7c710e908194b91'>
                <parameter type-id='type-id-726' is-artificial='yes'/>
                <return type-id='type-id-1'/>
              </function-decl>
            </member-function>
            <member-function access='protected' const='yes' vtable-offset='7'>
              <function-decl name='do_length' mangled-name='_ZNK5boost10filesystem6detail18utf8_codecvt_facet9do_lengthER11__mbstate_tPKcS6_m' filepath='src/third_party/boost-1.56.0/boost/detail/utf8_codecvt_facet.ipp' line='173' column='1' visibility='default' binding='global' size-in-bits='64' elf-symbol-id='_ZNK5boost10filesystem6detail18utf8_codecvt_facet9do_lengthER11__mbstate_tPKcS6_m' hash='d7ae9a2214d4d254'>
                <parameter type-id='type-id-726' is-artificial='yes'/>
                <parameter type-id='type-id-730'/>
                <parameter type-id='type-id-43'/>
                <parameter type-id='type-id-43'/>
                <parameter type-id='type-id-186'/>
                <return type-id='type-id-12'/>
              </function-decl>
            </member-function>
            <member-function access='protected' const='yes' vtable-offset='8'>
              <function-decl name='do_max_length' mangled-name='_ZNK5boost10filesystem6detail18utf8_codecvt_facet13do_max_lengthEv' filepath='src/third_party/boost-1.56.0/boost/detail/utf8_codecvt_facet.hpp' line='184' column='1' visibility='default' binding='global' size-in-bits='64' elf-symbol-id='_ZNK5boost10filesystem6detail18utf8_codecvt_facet13do_max_lengthEv' hash='388da3fa973fde78'>
                <parameter type-id='type-id-726' is-artificial='yes'/>
                <return type-id='type-id-12'/>
              </function-decl>
            </member-function>
          </class-decl>
        </namespace-decl>
      </namespace-decl>
    </namespace-decl>
  </abi-instr>
  <abi-instr address-size='64' path='src/third_party/boost-1.56.0/libs/filesystem/src/windows_file_codecvt.cpp' comp-dir-path='/home/andrew/Documents/10gen/dev/src/mongodb' language='LANG_C_plus_plus'>
  </abi-instr>
</abi-corpus>
