<abi-corpus version='2.4' soname='libandroid.so'>
  <elf-needed>
    <dependency name='liblog.so'/>
    <dependency name='libhidlbase.so'/>
    <dependency name='libcutils.so'/>
    <dependency name='libandroidfw.so'/>
    <dependency name='libinput.so'/>
    <dependency name='libutils.so'/>
    <dependency name='libbinder.so'/>
    <dependency name='libui.so'/>
    <dependency name='libgui.so'/>
    <dependency name='libharfbuzz_ng.so'/>
    <dependency name='libsensor.so'/>
    <dependency name='libandroid_runtime.so'/>
    <dependency name='libminikin.so'/>
    <dependency name='libnetd_client.so'/>
    <dependency name='libhwui.so'/>
    <dependency name='libxml2.so'/>
    <dependency name='android.hardware.configstore@1.0.so'/>
    <dependency name='android.hardware.configstore-utils.so'/>
    <dependency name='libc++.so'/>
    <dependency name='libc.so'/>
    <dependency name='libm.so'/>
    <dependency name='libdl.so'/>
  </elf-needed>
  <elf-function-symbols>
    <elf-symbol name='AAssetDir_close' version='LIBANDROID' is-default-version='yes' type='func-type' binding='global-binding' visibility='default-visibility' is-defined='yes'/>
    <elf-symbol name='AAssetDir_getNextFileName' version='LIBANDROID' is-default-version='yes' type='func-type' binding='global-binding' visibility='default-visibility' is-defined='yes'/>
    <elf-symbol name='AAssetDir_rewind' version='LIBANDROID' is-default-version='yes' type='func-type' binding='global-binding' visibility='default-visibility' is-defined='yes'/>
    <elf-symbol name='AAssetManager_fromJava' version='LIBANDROID' is-default-version='yes' type='func-type' binding='global-binding' visibility='default-visibility' is-defined='yes'/>
    <elf-symbol name='AAssetManager_open' version='LIBANDROID' is-default-version='yes' type='func-type' binding='global-binding' visibility='default-visibility' is-defined='yes'/>
    <elf-symbol name='AAssetManager_openDir' version='LIBANDROID' is-default-version='yes' type='func-type' binding='global-binding' visibility='default-visibility' is-defined='yes'/>
    <elf-symbol name='AAsset_close' version='LIBANDROID' is-default-version='yes' type='func-type' binding='global-binding' visibility='default-visibility' is-defined='yes'/>
    <elf-symbol name='AAsset_getBuffer' version='LIBANDROID' is-default-version='yes' type='func-type' binding='global-binding' visibility='default-visibility' is-defined='yes'/>
    <elf-symbol name='AAsset_getLength64' version='LIBANDROID' is-default-version='yes' type='func-type' binding='global-binding' visibility='default-visibility' is-defined='yes'/>
    <elf-symbol name='AAsset_getLength' version='LIBANDROID' is-default-version='yes' type='func-type' binding='global-binding' visibility='default-visibility' is-defined='yes'/>
    <elf-symbol name='AAsset_getRemainingLength64' version='LIBANDROID' is-default-version='yes' type='func-type' binding='global-binding' visibility='default-visibility' is-defined='yes'/>
    <elf-symbol name='AAsset_getRemainingLength' version='LIBANDROID' is-default-version='yes' type='func-type' binding='global-binding' visibility='default-visibility' is-defined='yes'/>
    <elf-symbol name='AAsset_isAllocated' version='LIBANDROID' is-default-version='yes' type='func-type' binding='global-binding' visibility='default-visibility' is-defined='yes'/>
    <elf-symbol name='AAsset_openFileDescriptor64' version='LIBANDROID' is-default-version='yes' type='func-type' binding='global-binding' visibility='default-visibility' is-defined='yes'/>
    <elf-symbol name='AAsset_openFileDescriptor' version='LIBANDROID' is-default-version='yes' type='func-type' binding='global-binding' visibility='default-visibility' is-defined='yes'/>
    <elf-symbol name='AAsset_read' version='LIBANDROID' is-default-version='yes' type='func-type' binding='global-binding' visibility='default-visibility' is-defined='yes'/>
    <elf-symbol name='AAsset_seek64' version='LIBANDROID' is-default-version='yes' type='func-type' binding='global-binding' visibility='default-visibility' is-defined='yes'/>
    <elf-symbol name='AAsset_seek' version='LIBANDROID' is-default-version='yes' type='func-type' binding='global-binding' visibility='default-visibility' is-defined='yes'/>
    <elf-symbol name='AChoreographer_getInstance' version='LIBANDROID' is-default-version='yes' type='func-type' binding='global-binding' visibility='default-visibility' is-defined='yes'/>
    <elf-symbol name='AChoreographer_postFrameCallback64' version='LIBANDROID' is-default-version='yes' type='func-type' binding='global-binding' visibility='default-visibility' is-defined='yes'/>
    <elf-symbol name='AChoreographer_postFrameCallback' version='LIBANDROID' is-default-version='yes' type='func-type' binding='global-binding' visibility='default-visibility' is-defined='yes'/>
    <elf-symbol name='AChoreographer_postFrameCallbackDelayed64' version='LIBANDROID' is-default-version='yes' type='func-type' binding='global-binding' visibility='default-visibility' is-defined='yes'/>
    <elf-symbol name='AChoreographer_postFrameCallbackDelayed' version='LIBANDROID' is-default-version='yes' type='func-type' binding='global-binding' visibility='default-visibility' is-defined='yes'/>
    <elf-symbol name='AConfiguration_copy' version='LIBANDROID' is-default-version='yes' type='func-type' binding='global-binding' visibility='default-visibility' is-defined='yes'/>
    <elf-symbol name='AConfiguration_delete' version='LIBANDROID' is-default-version='yes' type='func-type' binding='global-binding' visibility='default-visibility' is-defined='yes'/>
    <elf-symbol name='AConfiguration_diff' version='LIBANDROID' is-default-version='yes' type='func-type' binding='global-binding' visibility='default-visibility' is-defined='yes'/>
    <elf-symbol name='AConfiguration_fromAssetManager' version='LIBANDROID' is-default-version='yes' type='func-type' binding='global-binding' visibility='default-visibility' is-defined='yes'/>
    <elf-symbol name='AConfiguration_getCountry' version='LIBANDROID' is-default-version='yes' type='func-type' binding='global-binding' visibility='default-visibility' is-defined='yes'/>
    <elf-symbol name='AConfiguration_getDensity' version='LIBANDROID' is-default-version='yes' type='func-type' binding='global-binding' visibility='default-visibility' is-defined='yes'/>
    <elf-symbol name='AConfiguration_getKeyboard' version='LIBANDROID' is-default-version='yes' type='func-type' binding='global-binding' visibility='default-visibility' is-defined='yes'/>
    <elf-symbol name='AConfiguration_getKeysHidden' version='LIBANDROID' is-default-version='yes' type='func-type' binding='global-binding' visibility='default-visibility' is-defined='yes'/>
    <elf-symbol name='AConfiguration_getLanguage' version='LIBANDROID' is-default-version='yes' type='func-type' binding='global-binding' visibility='default-visibility' is-defined='yes'/>
    <elf-symbol name='AConfiguration_getLayoutDirection' version='LIBANDROID' is-default-version='yes' type='func-type' binding='global-binding' visibility='default-visibility' is-defined='yes'/>
    <elf-symbol name='AConfiguration_getMcc' version='LIBANDROID' is-default-version='yes' type='func-type' binding='global-binding' visibility='default-visibility' is-defined='yes'/>
    <elf-symbol name='AConfiguration_getMnc' version='LIBANDROID' is-default-version='yes' type='func-type' binding='global-binding' visibility='default-visibility' is-defined='yes'/>
    <elf-symbol name='AConfiguration_getNavHidden' version='LIBANDROID' is-default-version='yes' type='func-type' binding='global-binding' visibility='default-visibility' is-defined='yes'/>
    <elf-symbol name='AConfiguration_getNavigation' version='LIBANDROID' is-default-version='yes' type='func-type' binding='global-binding' visibility='default-visibility' is-defined='yes'/>
    <elf-symbol name='AConfiguration_getOrientation' version='LIBANDROID' is-default-version='yes' type='func-type' binding='global-binding' visibility='default-visibility' is-defined='yes'/>
    <elf-symbol name='AConfiguration_getScreenHeightDp' version='LIBANDROID' is-default-version='yes' type='func-type' binding='global-binding' visibility='default-visibility' is-defined='yes'/>
    <elf-symbol name='AConfiguration_getScreenLong' version='LIBANDROID' is-default-version='yes' type='func-type' binding='global-binding' visibility='default-visibility' is-defined='yes'/>
    <elf-symbol name='AConfiguration_getScreenRound' version='LIBANDROID' is-default-version='yes' type='func-type' binding='global-binding' visibility='default-visibility' is-defined='yes'/>
    <elf-symbol name='AConfiguration_getScreenSize' version='LIBANDROID' is-default-version='yes' type='func-type' binding='global-binding' visibility='default-visibility' is-defined='yes'/>
    <elf-symbol name='AConfiguration_getScreenWidthDp' version='LIBANDROID' is-default-version='yes' type='func-type' binding='global-binding' visibility='default-visibility' is-defined='yes'/>
    <elf-symbol name='AConfiguration_getSdkVersion' version='LIBANDROID' is-default-version='yes' type='func-type' binding='global-binding' visibility='default-visibility' is-defined='yes'/>
    <elf-symbol name='AConfiguration_getSmallestScreenWidthDp' version='LIBANDROID' is-default-version='yes' type='func-type' binding='global-binding' visibility='default-visibility' is-defined='yes'/>
    <elf-symbol name='AConfiguration_getTouchscreen' version='LIBANDROID' is-default-version='yes' type='func-type' binding='global-binding' visibility='default-visibility' is-defined='yes'/>
    <elf-symbol name='AConfiguration_getUiModeNight' version='LIBANDROID' is-default-version='yes' type='func-type' binding='global-binding' visibility='default-visibility' is-defined='yes'/>
    <elf-symbol name='AConfiguration_getUiModeType' version='LIBANDROID' is-default-version='yes' type='func-type' binding='global-binding' visibility='default-visibility' is-defined='yes'/>
    <elf-symbol name='AConfiguration_isBetterThan' version='LIBANDROID' is-default-version='yes' type='func-type' binding='global-binding' visibility='default-visibility' is-defined='yes'/>
    <elf-symbol name='AConfiguration_match' version='LIBANDROID' is-default-version='yes' type='func-type' binding='global-binding' visibility='default-visibility' is-defined='yes'/>
    <elf-symbol name='AConfiguration_new' version='LIBANDROID' is-default-version='yes' type='func-type' binding='global-binding' visibility='default-visibility' is-defined='yes'/>
    <elf-symbol name='AConfiguration_setCountry' version='LIBANDROID' is-default-version='yes' type='func-type' binding='global-binding' visibility='default-visibility' is-defined='yes'/>
    <elf-symbol name='AConfiguration_setDensity' version='LIBANDROID' is-default-version='yes' type='func-type' binding='global-binding' visibility='default-visibility' is-defined='yes'/>
    <elf-symbol name='AConfiguration_setKeyboard' version='LIBANDROID' is-default-version='yes' type='func-type' binding='global-binding' visibility='default-visibility' is-defined='yes'/>
    <elf-symbol name='AConfiguration_setKeysHidden' version='LIBANDROID' is-default-version='yes' type='func-type' binding='global-binding' visibility='default-visibility' is-defined='yes'/>
    <elf-symbol name='AConfiguration_setLanguage' version='LIBANDROID' is-default-version='yes' type='func-type' binding='global-binding' visibility='default-visibility' is-defined='yes'/>
    <elf-symbol name='AConfiguration_setLayoutDirection' version='LIBANDROID' is-default-version='yes' type='func-type' binding='global-binding' visibility='default-visibility' is-defined='yes'/>
    <elf-symbol name='AConfiguration_setMcc' version='LIBANDROID' is-default-version='yes' type='func-type' binding='global-binding' visibility='default-visibility' is-defined='yes'/>
    <elf-symbol name='AConfiguration_setMnc' version='LIBANDROID' is-default-version='yes' type='func-type' binding='global-binding' visibility='default-visibility' is-defined='yes'/>
    <elf-symbol name='AConfiguration_setNavHidden' version='LIBANDROID' is-default-version='yes' type='func-type' binding='global-binding' visibility='default-visibility' is-defined='yes'/>
    <elf-symbol name='AConfiguration_setNavigation' version='LIBANDROID' is-default-version='yes' type='func-type' binding='global-binding' visibility='default-visibility' is-defined='yes'/>
    <elf-symbol name='AConfiguration_setOrientation' version='LIBANDROID' is-default-version='yes' type='func-type' binding='global-binding' visibility='default-visibility' is-defined='yes'/>
    <elf-symbol name='AConfiguration_setScreenHeightDp' version='LIBANDROID' is-default-version='yes' type='func-type' binding='global-binding' visibility='default-visibility' is-defined='yes'/>
    <elf-symbol name='AConfiguration_setScreenLong' version='LIBANDROID' is-default-version='yes' type='func-type' binding='global-binding' visibility='default-visibility' is-defined='yes'/>
    <elf-symbol name='AConfiguration_setScreenSize' version='LIBANDROID' is-default-version='yes' type='func-type' binding='global-binding' visibility='default-visibility' is-defined='yes'/>
    <elf-symbol name='AConfiguration_setScreenWidthDp' version='LIBANDROID' is-default-version='yes' type='func-type' binding='global-binding' visibility='default-visibility' is-defined='yes'/>
    <elf-symbol name='AConfiguration_setSdkVersion' version='LIBANDROID' is-default-version='yes' type='func-type' binding='global-binding' visibility='default-visibility' is-defined='yes'/>
    <elf-symbol name='AConfiguration_setSmallestScreenWidthDp' version='LIBANDROID' is-default-version='yes' type='func-type' binding='global-binding' visibility='default-visibility' is-defined='yes'/>
    <elf-symbol name='AConfiguration_setTouchscreen' version='LIBANDROID' is-default-version='yes' type='func-type' binding='global-binding' visibility='default-visibility' is-defined='yes'/>
    <elf-symbol name='AConfiguration_setUiModeNight' version='LIBANDROID' is-default-version='yes' type='func-type' binding='global-binding' visibility='default-visibility' is-defined='yes'/>
    <elf-symbol name='AConfiguration_setUiModeType' version='LIBANDROID' is-default-version='yes' type='func-type' binding='global-binding' visibility='default-visibility' is-defined='yes'/>
    <elf-symbol name='AFontMatcher_create' version='LIBANDROID' is-default-version='yes' type='func-type' binding='global-binding' visibility='default-visibility' is-defined='yes'/>
    <elf-symbol name='AFontMatcher_destroy' version='LIBANDROID' is-default-version='yes' type='func-type' binding='global-binding' visibility='default-visibility' is-defined='yes'/>
    <elf-symbol name='AFontMatcher_match' version='LIBANDROID' is-default-version='yes' type='func-type' binding='global-binding' visibility='default-visibility' is-defined='yes'/>
    <elf-symbol name='AFontMatcher_setFamilyVariant' version='LIBANDROID' is-default-version='yes' type='func-type' binding='global-binding' visibility='default-visibility' is-defined='yes'/>
    <elf-symbol name='AFontMatcher_setLocales' version='LIBANDROID' is-default-version='yes' type='func-type' binding='global-binding' visibility='default-visibility' is-defined='yes'/>
    <elf-symbol name='AFontMatcher_setStyle' version='LIBANDROID' is-default-version='yes' type='func-type' binding='global-binding' visibility='default-visibility' is-defined='yes'/>
    <elf-symbol name='AFont_close' version='LIBANDROID' is-default-version='yes' type='func-type' binding='global-binding' visibility='default-visibility' is-defined='yes'/>
    <elf-symbol name='AFont_getAxisCount' version='LIBANDROID' is-default-version='yes' type='func-type' binding='global-binding' visibility='default-visibility' is-defined='yes'/>
    <elf-symbol name='AFont_getAxisTag' version='LIBANDROID' is-default-version='yes' type='func-type' binding='global-binding' visibility='default-visibility' is-defined='yes'/>
    <elf-symbol name='AFont_getAxisValue' version='LIBANDROID' is-default-version='yes' type='func-type' binding='global-binding' visibility='default-visibility' is-defined='yes'/>
    <elf-symbol name='AFont_getCollectionIndex' version='LIBANDROID' is-default-version='yes' type='func-type' binding='global-binding' visibility='default-visibility' is-defined='yes'/>
    <elf-symbol name='AFont_getFontFilePath' version='LIBANDROID' is-default-version='yes' type='func-type' binding='global-binding' visibility='default-visibility' is-defined='yes'/>
    <elf-symbol name='AFont_getLocale' version='LIBANDROID' is-default-version='yes' type='func-type' binding='global-binding' visibility='default-visibility' is-defined='yes'/>
    <elf-symbol name='AFont_getWeight' version='LIBANDROID' is-default-version='yes' type='func-type' binding='global-binding' visibility='default-visibility' is-defined='yes'/>
    <elf-symbol name='AFont_isItalic' version='LIBANDROID' is-default-version='yes' type='func-type' binding='global-binding' visibility='default-visibility' is-defined='yes'/>
    <elf-symbol name='AHardwareBuffer_acquire' version='LIBANDROID' is-default-version='yes' type='func-type' binding='global-binding' visibility='default-visibility' is-defined='yes'/>
    <elf-symbol name='AHardwareBuffer_allocate' version='LIBANDROID' is-default-version='yes' type='func-type' binding='global-binding' visibility='default-visibility' is-defined='yes'/>
    <elf-symbol name='AHardwareBuffer_describe' version='LIBANDROID' is-default-version='yes' type='func-type' binding='global-binding' visibility='default-visibility' is-defined='yes'/>
    <elf-symbol name='AHardwareBuffer_fromHardwareBuffer' version='LIBANDROID' is-default-version='yes' type='func-type' binding='global-binding' visibility='default-visibility' is-defined='yes'/>
    <elf-symbol name='AHardwareBuffer_getNativeHandle' version='LIBANDROID' is-default-version='yes' type='func-type' binding='global-binding' visibility='default-visibility' is-defined='yes'/>
    <elf-symbol name='AHardwareBuffer_isSupported' version='LIBANDROID' is-default-version='yes' type='func-type' binding='global-binding' visibility='default-visibility' is-defined='yes'/>
    <elf-symbol name='AHardwareBuffer_lock' version='LIBANDROID' is-default-version='yes' type='func-type' binding='global-binding' visibility='default-visibility' is-defined='yes'/>
    <elf-symbol name='AHardwareBuffer_lockAndGetInfo' version='LIBANDROID' is-default-version='yes' type='func-type' binding='global-binding' visibility='default-visibility' is-defined='yes'/>
    <elf-symbol name='AHardwareBuffer_lockPlanes' version='LIBANDROID' is-default-version='yes' type='func-type' binding='global-binding' visibility='default-visibility' is-defined='yes'/>
    <elf-symbol name='AHardwareBuffer_recvHandleFromUnixSocket' version='LIBANDROID' is-default-version='yes' type='func-type' binding='global-binding' visibility='default-visibility' is-defined='yes'/>
    <elf-symbol name='AHardwareBuffer_release' version='LIBANDROID' is-default-version='yes' type='func-type' binding='global-binding' visibility='default-visibility' is-defined='yes'/>
    <elf-symbol name='AHardwareBuffer_sendHandleToUnixSocket' version='LIBANDROID' is-default-version='yes' type='func-type' binding='global-binding' visibility='default-visibility' is-defined='yes'/>
    <elf-symbol name='AHardwareBuffer_toHardwareBuffer' version='LIBANDROID' is-default-version='yes' type='func-type' binding='global-binding' visibility='default-visibility' is-defined='yes'/>
    <elf-symbol name='AHardwareBuffer_unlock' version='LIBANDROID' is-default-version='yes' type='func-type' binding='global-binding' visibility='default-visibility' is-defined='yes'/>
    <elf-symbol name='AInputEvent_getDeviceId' version='LIBANDROID' is-default-version='yes' type='func-type' binding='global-binding' visibility='default-visibility' is-defined='yes'/>
    <elf-symbol name='AInputEvent_getSource' version='LIBANDROID' is-default-version='yes' type='func-type' binding='global-binding' visibility='default-visibility' is-defined='yes'/>
    <elf-symbol name='AInputEvent_getType' version='LIBANDROID' is-default-version='yes' type='func-type' binding='global-binding' visibility='default-visibility' is-defined='yes'/>
    <elf-symbol name='AInputQueue_attachLooper' version='LIBANDROID' is-default-version='yes' type='func-type' binding='global-binding' visibility='default-visibility' is-defined='yes'/>
    <elf-symbol name='AInputQueue_detachLooper' version='LIBANDROID' is-default-version='yes' type='func-type' binding='global-binding' visibility='default-visibility' is-defined='yes'/>
    <elf-symbol name='AInputQueue_finishEvent' version='LIBANDROID' is-default-version='yes' type='func-type' binding='global-binding' visibility='default-visibility' is-defined='yes'/>
    <elf-symbol name='AInputQueue_getEvent' version='LIBANDROID' is-default-version='yes' type='func-type' binding='global-binding' visibility='default-visibility' is-defined='yes'/>
    <elf-symbol name='AInputQueue_hasEvents' version='LIBANDROID' is-default-version='yes' type='func-type' binding='global-binding' visibility='default-visibility' is-defined='yes'/>
    <elf-symbol name='AInputQueue_preDispatchEvent' version='LIBANDROID' is-default-version='yes' type='func-type' binding='global-binding' visibility='default-visibility' is-defined='yes'/>
    <elf-symbol name='AKeyEvent_getAction' version='LIBANDROID' is-default-version='yes' type='func-type' binding='global-binding' visibility='default-visibility' is-defined='yes'/>
    <elf-symbol name='AKeyEvent_getDownTime' version='LIBANDROID' is-default-version='yes' type='func-type' binding='global-binding' visibility='default-visibility' is-defined='yes'/>
    <elf-symbol name='AKeyEvent_getEventTime' version='LIBANDROID' is-default-version='yes' type='func-type' binding='global-binding' visibility='default-visibility' is-defined='yes'/>
    <elf-symbol name='AKeyEvent_getFlags' version='LIBANDROID' is-default-version='yes' type='func-type' binding='global-binding' visibility='default-visibility' is-defined='yes'/>
    <elf-symbol name='AKeyEvent_getKeyCode' version='LIBANDROID' is-default-version='yes' type='func-type' binding='global-binding' visibility='default-visibility' is-defined='yes'/>
    <elf-symbol name='AKeyEvent_getMetaState' version='LIBANDROID' is-default-version='yes' type='func-type' binding='global-binding' visibility='default-visibility' is-defined='yes'/>
    <elf-symbol name='AKeyEvent_getRepeatCount' version='LIBANDROID' is-default-version='yes' type='func-type' binding='global-binding' visibility='default-visibility' is-defined='yes'/>
    <elf-symbol name='AKeyEvent_getScanCode' version='LIBANDROID' is-default-version='yes' type='func-type' binding='global-binding' visibility='default-visibility' is-defined='yes'/>
    <elf-symbol name='ALooper_acquire' version='LIBANDROID' is-default-version='yes' type='func-type' binding='global-binding' visibility='default-visibility' is-defined='yes'/>
    <elf-symbol name='ALooper_addFd' version='LIBANDROID' is-default-version='yes' type='func-type' binding='global-binding' visibility='default-visibility' is-defined='yes'/>
    <elf-symbol name='ALooper_forThread' version='LIBANDROID' is-default-version='yes' type='func-type' binding='global-binding' visibility='default-visibility' is-defined='yes'/>
    <elf-symbol name='ALooper_pollAll' version='LIBANDROID' is-default-version='yes' type='func-type' binding='global-binding' visibility='default-visibility' is-defined='yes'/>
    <elf-symbol name='ALooper_pollOnce' version='LIBANDROID' is-default-version='yes' type='func-type' binding='global-binding' visibility='default-visibility' is-defined='yes'/>
    <elf-symbol name='ALooper_prepare' version='LIBANDROID' is-default-version='yes' type='func-type' binding='global-binding' visibility='default-visibility' is-defined='yes'/>
    <elf-symbol name='ALooper_release' version='LIBANDROID' is-default-version='yes' type='func-type' binding='global-binding' visibility='default-visibility' is-defined='yes'/>
    <elf-symbol name='ALooper_removeFd' version='LIBANDROID' is-default-version='yes' type='func-type' binding='global-binding' visibility='default-visibility' is-defined='yes'/>
    <elf-symbol name='ALooper_wake' version='LIBANDROID' is-default-version='yes' type='func-type' binding='global-binding' visibility='default-visibility' is-defined='yes'/>
    <elf-symbol name='AMotionEvent_getAction' version='LIBANDROID' is-default-version='yes' type='func-type' binding='global-binding' visibility='default-visibility' is-defined='yes'/>
    <elf-symbol name='AMotionEvent_getAxisValue' version='LIBANDROID' is-default-version='yes' type='func-type' binding='global-binding' visibility='default-visibility' is-defined='yes'/>
    <elf-symbol name='AMotionEvent_getButtonState' version='LIBANDROID' is-default-version='yes' type='func-type' binding='global-binding' visibility='default-visibility' is-defined='yes'/>
    <elf-symbol name='AMotionEvent_getDownTime' version='LIBANDROID' is-default-version='yes' type='func-type' binding='global-binding' visibility='default-visibility' is-defined='yes'/>
    <elf-symbol name='AMotionEvent_getEdgeFlags' version='LIBANDROID' is-default-version='yes' type='func-type' binding='global-binding' visibility='default-visibility' is-defined='yes'/>
    <elf-symbol name='AMotionEvent_getEventTime' version='LIBANDROID' is-default-version='yes' type='func-type' binding='global-binding' visibility='default-visibility' is-defined='yes'/>
    <elf-symbol name='AMotionEvent_getFlags' version='LIBANDROID' is-default-version='yes' type='func-type' binding='global-binding' visibility='default-visibility' is-defined='yes'/>
    <elf-symbol name='AMotionEvent_getHistoricalAxisValue' version='LIBANDROID' is-default-version='yes' type='func-type' binding='global-binding' visibility='default-visibility' is-defined='yes'/>
    <elf-symbol name='AMotionEvent_getHistoricalEventTime' version='LIBANDROID' is-default-version='yes' type='func-type' binding='global-binding' visibility='default-visibility' is-defined='yes'/>
    <elf-symbol name='AMotionEvent_getHistoricalOrientation' version='LIBANDROID' is-default-version='yes' type='func-type' binding='global-binding' visibility='default-visibility' is-defined='yes'/>
    <elf-symbol name='AMotionEvent_getHistoricalPressure' version='LIBANDROID' is-default-version='yes' type='func-type' binding='global-binding' visibility='default-visibility' is-defined='yes'/>
    <elf-symbol name='AMotionEvent_getHistoricalRawX' version='LIBANDROID' is-default-version='yes' type='func-type' binding='global-binding' visibility='default-visibility' is-defined='yes'/>
    <elf-symbol name='AMotionEvent_getHistoricalRawY' version='LIBANDROID' is-default-version='yes' type='func-type' binding='global-binding' visibility='default-visibility' is-defined='yes'/>
    <elf-symbol name='AMotionEvent_getHistoricalSize' version='LIBANDROID' is-default-version='yes' type='func-type' binding='global-binding' visibility='default-visibility' is-defined='yes'/>
    <elf-symbol name='AMotionEvent_getHistoricalToolMajor' version='LIBANDROID' is-default-version='yes' type='func-type' binding='global-binding' visibility='default-visibility' is-defined='yes'/>
    <elf-symbol name='AMotionEvent_getHistoricalToolMinor' version='LIBANDROID' is-default-version='yes' type='func-type' binding='global-binding' visibility='default-visibility' is-defined='yes'/>
    <elf-symbol name='AMotionEvent_getHistoricalTouchMajor' version='LIBANDROID' is-default-version='yes' type='func-type' binding='global-binding' visibility='default-visibility' is-defined='yes'/>
    <elf-symbol name='AMotionEvent_getHistoricalTouchMinor' version='LIBANDROID' is-default-version='yes' type='func-type' binding='global-binding' visibility='default-visibility' is-defined='yes'/>
    <elf-symbol name='AMotionEvent_getHistoricalX' version='LIBANDROID' is-default-version='yes' type='func-type' binding='global-binding' visibility='default-visibility' is-defined='yes'/>
    <elf-symbol name='AMotionEvent_getHistoricalY' version='LIBANDROID' is-default-version='yes' type='func-type' binding='global-binding' visibility='default-visibility' is-defined='yes'/>
    <elf-symbol name='AMotionEvent_getHistorySize' version='LIBANDROID' is-default-version='yes' type='func-type' binding='global-binding' visibility='default-visibility' is-defined='yes'/>
    <elf-symbol name='AMotionEvent_getMetaState' version='LIBANDROID' is-default-version='yes' type='func-type' binding='global-binding' visibility='default-visibility' is-defined='yes'/>
    <elf-symbol name='AMotionEvent_getOrientation' version='LIBANDROID' is-default-version='yes' type='func-type' binding='global-binding' visibility='default-visibility' is-defined='yes'/>
    <elf-symbol name='AMotionEvent_getPointerCount' version='LIBANDROID' is-default-version='yes' type='func-type' binding='global-binding' visibility='default-visibility' is-defined='yes'/>
    <elf-symbol name='AMotionEvent_getPointerId' version='LIBANDROID' is-default-version='yes' type='func-type' binding='global-binding' visibility='default-visibility' is-defined='yes'/>
    <elf-symbol name='AMotionEvent_getPressure' version='LIBANDROID' is-default-version='yes' type='func-type' binding='global-binding' visibility='default-visibility' is-defined='yes'/>
    <elf-symbol name='AMotionEvent_getRawX' version='LIBANDROID' is-default-version='yes' type='func-type' binding='global-binding' visibility='default-visibility' is-defined='yes'/>
    <elf-symbol name='AMotionEvent_getRawY' version='LIBANDROID' is-default-version='yes' type='func-type' binding='global-binding' visibility='default-visibility' is-defined='yes'/>
    <elf-symbol name='AMotionEvent_getSize' version='LIBANDROID' is-default-version='yes' type='func-type' binding='global-binding' visibility='default-visibility' is-defined='yes'/>
    <elf-symbol name='AMotionEvent_getToolMajor' version='LIBANDROID' is-default-version='yes' type='func-type' binding='global-binding' visibility='default-visibility' is-defined='yes'/>
    <elf-symbol name='AMotionEvent_getToolMinor' version='LIBANDROID' is-default-version='yes' type='func-type' binding='global-binding' visibility='default-visibility' is-defined='yes'/>
    <elf-symbol name='AMotionEvent_getToolType' version='LIBANDROID' is-default-version='yes' type='func-type' binding='global-binding' visibility='default-visibility' is-defined='yes'/>
    <elf-symbol name='AMotionEvent_getTouchMajor' version='LIBANDROID' is-default-version='yes' type='func-type' binding='global-binding' visibility='default-visibility' is-defined='yes'/>
    <elf-symbol name='AMotionEvent_getTouchMinor' version='LIBANDROID' is-default-version='yes' type='func-type' binding='global-binding' visibility='default-visibility' is-defined='yes'/>
    <elf-symbol name='AMotionEvent_getX' version='LIBANDROID' is-default-version='yes' type='func-type' binding='global-binding' visibility='default-visibility' is-defined='yes'/>
    <elf-symbol name='AMotionEvent_getXOffset' version='LIBANDROID' is-default-version='yes' type='func-type' binding='global-binding' visibility='default-visibility' is-defined='yes'/>
    <elf-symbol name='AMotionEvent_getXPrecision' version='LIBANDROID' is-default-version='yes' type='func-type' binding='global-binding' visibility='default-visibility' is-defined='yes'/>
    <elf-symbol name='AMotionEvent_getY' version='LIBANDROID' is-default-version='yes' type='func-type' binding='global-binding' visibility='default-visibility' is-defined='yes'/>
    <elf-symbol name='AMotionEvent_getYOffset' version='LIBANDROID' is-default-version='yes' type='func-type' binding='global-binding' visibility='default-visibility' is-defined='yes'/>
    <elf-symbol name='AMotionEvent_getYPrecision' version='LIBANDROID' is-default-version='yes' type='func-type' binding='global-binding' visibility='default-visibility' is-defined='yes'/>
    <elf-symbol name='ANativeActivity_finish' version='LIBANDROID' is-default-version='yes' type='func-type' binding='global-binding' visibility='default-visibility' is-defined='yes'/>
    <elf-symbol name='ANativeActivity_hideSoftInput' version='LIBANDROID' is-default-version='yes' type='func-type' binding='global-binding' visibility='default-visibility' is-defined='yes'/>
    <elf-symbol name='ANativeActivity_setWindowFlags' version='LIBANDROID' is-default-version='yes' type='func-type' binding='global-binding' visibility='default-visibility' is-defined='yes'/>
    <elf-symbol name='ANativeActivity_setWindowFormat' version='LIBANDROID' is-default-version='yes' type='func-type' binding='global-binding' visibility='default-visibility' is-defined='yes'/>
    <elf-symbol name='ANativeActivity_showSoftInput' version='LIBANDROID' is-default-version='yes' type='func-type' binding='global-binding' visibility='default-visibility' is-defined='yes'/>
    <elf-symbol name='ANativeWindow_acquire' version='LIBANDROID' is-default-version='yes' type='func-type' binding='global-binding' visibility='default-visibility' is-defined='yes'/>
    <elf-symbol name='ANativeWindow_fromSurface' version='LIBANDROID' is-default-version='yes' type='func-type' binding='global-binding' visibility='default-visibility' is-defined='yes'/>
    <elf-symbol name='ANativeWindow_getFormat' version='LIBANDROID' is-default-version='yes' type='func-type' binding='global-binding' visibility='default-visibility' is-defined='yes'/>
    <elf-symbol name='ANativeWindow_getHeight' version='LIBANDROID' is-default-version='yes' type='func-type' binding='global-binding' visibility='default-visibility' is-defined='yes'/>
    <elf-symbol name='ANativeWindow_getWidth' version='LIBANDROID' is-default-version='yes' type='func-type' binding='global-binding' visibility='default-visibility' is-defined='yes'/>
    <elf-symbol name='ANativeWindow_lock' version='LIBANDROID' is-default-version='yes' type='func-type' binding='global-binding' visibility='default-visibility' is-defined='yes'/>
    <elf-symbol name='ANativeWindow_release' version='LIBANDROID' is-default-version='yes' type='func-type' binding='global-binding' visibility='default-visibility' is-defined='yes'/>
    <elf-symbol name='ANativeWindow_setBuffersGeometry' version='LIBANDROID' is-default-version='yes' type='func-type' binding='global-binding' visibility='default-visibility' is-defined='yes'/>
    <elf-symbol name='ANativeWindow_toSurface' version='LIBANDROID' is-default-version='yes' type='func-type' binding='global-binding' visibility='default-visibility' is-defined='yes'/>
    <elf-symbol name='ANativeWindow_unlockAndPost' version='LIBANDROID' is-default-version='yes' type='func-type' binding='global-binding' visibility='default-visibility' is-defined='yes'/>
    <elf-symbol name='AObbInfo_delete' version='LIBANDROID' is-default-version='yes' type='func-type' binding='global-binding' visibility='default-visibility' is-defined='yes'/>
    <elf-symbol name='AObbInfo_getFlags' version='LIBANDROID' is-default-version='yes' type='func-type' binding='global-binding' visibility='default-visibility' is-defined='yes'/>
    <elf-symbol name='AObbInfo_getPackageName' version='LIBANDROID' is-default-version='yes' type='func-type' binding='global-binding' visibility='default-visibility' is-defined='yes'/>
    <elf-symbol name='AObbInfo_getVersion' version='LIBANDROID' is-default-version='yes' type='func-type' binding='global-binding' visibility='default-visibility' is-defined='yes'/>
    <elf-symbol name='AObbScanner_getObbInfo' version='LIBANDROID' is-default-version='yes' type='func-type' binding='global-binding' visibility='default-visibility' is-defined='yes'/>
    <elf-symbol name='ASensorEventQueue_disableSensor' version='LIBANDROID' is-default-version='yes' type='func-type' binding='global-binding' visibility='default-visibility' is-defined='yes'/>
    <elf-symbol name='ASensorEventQueue_enableSensor' version='LIBANDROID' is-default-version='yes' type='func-type' binding='global-binding' visibility='default-visibility' is-defined='yes'/>
    <elf-symbol name='ASensorEventQueue_getEvents' version='LIBANDROID' is-default-version='yes' type='func-type' binding='global-binding' visibility='default-visibility' is-defined='yes'/>
    <elf-symbol name='ASensorEventQueue_hasEvents' version='LIBANDROID' is-default-version='yes' type='func-type' binding='global-binding' visibility='default-visibility' is-defined='yes'/>
    <elf-symbol name='ASensorEventQueue_registerSensor' version='LIBANDROID' is-default-version='yes' type='func-type' binding='global-binding' visibility='default-visibility' is-defined='yes'/>
    <elf-symbol name='ASensorEventQueue_requestAdditionalInfoEvents' version='LIBANDROID' is-default-version='yes' type='func-type' binding='global-binding' visibility='default-visibility' is-defined='yes'/>
    <elf-symbol name='ASensorEventQueue_setEventRate' version='LIBANDROID' is-default-version='yes' type='func-type' binding='global-binding' visibility='default-visibility' is-defined='yes'/>
    <elf-symbol name='ASensorManager_configureDirectReport' version='LIBANDROID' is-default-version='yes' type='func-type' binding='global-binding' visibility='default-visibility' is-defined='yes'/>
    <elf-symbol name='ASensorManager_createEventQueue' version='LIBANDROID' is-default-version='yes' type='func-type' binding='global-binding' visibility='default-visibility' is-defined='yes'/>
    <elf-symbol name='ASensorManager_createHardwareBufferDirectChannel' version='LIBANDROID' is-default-version='yes' type='func-type' binding='global-binding' visibility='default-visibility' is-defined='yes'/>
    <elf-symbol name='ASensorManager_createSharedMemoryDirectChannel' version='LIBANDROID' is-default-version='yes' type='func-type' binding='global-binding' visibility='default-visibility' is-defined='yes'/>
    <elf-symbol name='ASensorManager_destroyDirectChannel' version='LIBANDROID' is-default-version='yes' type='func-type' binding='global-binding' visibility='default-visibility' is-defined='yes'/>
    <elf-symbol name='ASensorManager_destroyEventQueue' version='LIBANDROID' is-default-version='yes' type='func-type' binding='global-binding' visibility='default-visibility' is-defined='yes'/>
    <elf-symbol name='ASensorManager_getDefaultSensor' version='LIBANDROID' is-default-version='yes' type='func-type' binding='global-binding' visibility='default-visibility' is-defined='yes'/>
    <elf-symbol name='ASensorManager_getDefaultSensorEx' version='LIBANDROID' is-default-version='yes' type='func-type' binding='global-binding' visibility='default-visibility' is-defined='yes'/>
    <elf-symbol name='ASensorManager_getInstance' version='LIBANDROID' is-default-version='yes' type='func-type' binding='global-binding' visibility='default-visibility' is-defined='yes'/>
    <elf-symbol name='ASensorManager_getInstanceForPackage' version='LIBANDROID' is-default-version='yes' type='func-type' binding='global-binding' visibility='default-visibility' is-defined='yes'/>
    <elf-symbol name='ASensorManager_getSensorList' version='LIBANDROID' is-default-version='yes' type='func-type' binding='global-binding' visibility='default-visibility' is-defined='yes'/>
    <elf-symbol name='ASensor_getFifoMaxEventCount' version='LIBANDROID' is-default-version='yes' type='func-type' binding='global-binding' visibility='default-visibility' is-defined='yes'/>
    <elf-symbol name='ASensor_getFifoReservedEventCount' version='LIBANDROID' is-default-version='yes' type='func-type' binding='global-binding' visibility='default-visibility' is-defined='yes'/>
    <elf-symbol name='ASensor_getHandle' version='LIBANDROID' is-default-version='yes' type='func-type' binding='global-binding' visibility='default-visibility' is-defined='yes'/>
    <elf-symbol name='ASensor_getHighestDirectReportRateLevel' version='LIBANDROID' is-default-version='yes' type='func-type' binding='global-binding' visibility='default-visibility' is-defined='yes'/>
    <elf-symbol name='ASensor_getMinDelay' version='LIBANDROID' is-default-version='yes' type='func-type' binding='global-binding' visibility='default-visibility' is-defined='yes'/>
    <elf-symbol name='ASensor_getName' version='LIBANDROID' is-default-version='yes' type='func-type' binding='global-binding' visibility='default-visibility' is-defined='yes'/>
    <elf-symbol name='ASensor_getReportingMode' version='LIBANDROID' is-default-version='yes' type='func-type' binding='global-binding' visibility='default-visibility' is-defined='yes'/>
    <elf-symbol name='ASensor_getResolution' version='LIBANDROID' is-default-version='yes' type='func-type' binding='global-binding' visibility='default-visibility' is-defined='yes'/>
    <elf-symbol name='ASensor_getStringType' version='LIBANDROID' is-default-version='yes' type='func-type' binding='global-binding' visibility='default-visibility' is-defined='yes'/>
    <elf-symbol name='ASensor_getType' version='LIBANDROID' is-default-version='yes' type='func-type' binding='global-binding' visibility='default-visibility' is-defined='yes'/>
    <elf-symbol name='ASensor_getVendor' version='LIBANDROID' is-default-version='yes' type='func-type' binding='global-binding' visibility='default-visibility' is-defined='yes'/>
    <elf-symbol name='ASensor_isDirectChannelTypeSupported' version='LIBANDROID' is-default-version='yes' type='func-type' binding='global-binding' visibility='default-visibility' is-defined='yes'/>
    <elf-symbol name='ASensor_isWakeUpSensor' version='LIBANDROID' is-default-version='yes' type='func-type' binding='global-binding' visibility='default-visibility' is-defined='yes'/>
    <elf-symbol name='ASharedMemory_create' version='LIBANDROID' is-default-version='yes' type='func-type' binding='global-binding' visibility='default-visibility' is-defined='yes'/>
    <elf-symbol name='ASharedMemory_dupFromJava' version='LIBANDROID' is-default-version='yes' type='func-type' binding='global-binding' visibility='default-visibility' is-defined='yes'/>
    <elf-symbol name='ASharedMemory_getSize' version='LIBANDROID' is-default-version='yes' type='func-type' binding='global-binding' visibility='default-visibility' is-defined='yes'/>
    <elf-symbol name='ASharedMemory_setProt' version='LIBANDROID' is-default-version='yes' type='func-type' binding='global-binding' visibility='default-visibility' is-defined='yes'/>
    <elf-symbol name='AStorageManager_delete' version='LIBANDROID' is-default-version='yes' type='func-type' binding='global-binding' visibility='default-visibility' is-defined='yes'/>
    <elf-symbol name='AStorageManager_getMountedObbPath' version='LIBANDROID' is-default-version='yes' type='func-type' binding='global-binding' visibility='default-visibility' is-defined='yes'/>
    <elf-symbol name='AStorageManager_isObbMounted' version='LIBANDROID' is-default-version='yes' type='func-type' binding='global-binding' visibility='default-visibility' is-defined='yes'/>
    <elf-symbol name='AStorageManager_mountObb' version='LIBANDROID' is-default-version='yes' type='func-type' binding='global-binding' visibility='default-visibility' is-defined='yes'/>
    <elf-symbol name='AStorageManager_new' version='LIBANDROID' is-default-version='yes' type='func-type' binding='global-binding' visibility='default-visibility' is-defined='yes'/>
    <elf-symbol name='AStorageManager_unmountObb' version='LIBANDROID' is-default-version='yes' type='func-type' binding='global-binding' visibility='default-visibility' is-defined='yes'/>
    <elf-symbol name='ASurfaceControl_create' version='LIBANDROID' is-default-version='yes' type='func-type' binding='global-binding' visibility='default-visibility' is-defined='yes'/>
    <elf-symbol name='ASurfaceControl_createFromWindow' version='LIBANDROID' is-default-version='yes' type='func-type' binding='global-binding' visibility='default-visibility' is-defined='yes'/>
    <elf-symbol name='ASurfaceControl_release' version='LIBANDROID' is-default-version='yes' type='func-type' binding='global-binding' visibility='default-visibility' is-defined='yes'/>
    <elf-symbol name='ASurfaceTexture_acquireANativeWindow' version='LIBANDROID' is-default-version='yes' type='func-type' binding='global-binding' visibility='default-visibility' is-defined='yes'/>
    <elf-symbol name='ASurfaceTexture_attachToGLContext' version='LIBANDROID' is-default-version='yes' type='func-type' binding='global-binding' visibility='default-visibility' is-defined='yes'/>
    <elf-symbol name='ASurfaceTexture_detachFromGLContext' version='LIBANDROID' is-default-version='yes' type='func-type' binding='global-binding' visibility='default-visibility' is-defined='yes'/>
    <elf-symbol name='ASurfaceTexture_fromSurfaceTexture' version='LIBANDROID' is-default-version='yes' type='func-type' binding='global-binding' visibility='default-visibility' is-defined='yes'/>
    <elf-symbol name='ASurfaceTexture_getTimestamp' version='LIBANDROID' is-default-version='yes' type='func-type' binding='global-binding' visibility='default-visibility' is-defined='yes'/>
    <elf-symbol name='ASurfaceTexture_getTransformMatrix' version='LIBANDROID' is-default-version='yes' type='func-type' binding='global-binding' visibility='default-visibility' is-defined='yes'/>
    <elf-symbol name='ASurfaceTexture_release' version='LIBANDROID' is-default-version='yes' type='func-type' binding='global-binding' visibility='default-visibility' is-defined='yes'/>
    <elf-symbol name='ASurfaceTexture_updateTexImage' version='LIBANDROID' is-default-version='yes' type='func-type' binding='global-binding' visibility='default-visibility' is-defined='yes'/>
    <elf-symbol name='ASurfaceTransactionStats_getASurfaceControls' version='LIBANDROID' is-default-version='yes' type='func-type' binding='global-binding' visibility='default-visibility' is-defined='yes'/>
    <elf-symbol name='ASurfaceTransactionStats_getAcquireTime' version='LIBANDROID' is-default-version='yes' type='func-type' binding='global-binding' visibility='default-visibility' is-defined='yes'/>
    <elf-symbol name='ASurfaceTransactionStats_getLatchTime' version='LIBANDROID' is-default-version='yes' type='func-type' binding='global-binding' visibility='default-visibility' is-defined='yes'/>
    <elf-symbol name='ASurfaceTransactionStats_getPresentFenceFd' version='LIBANDROID' is-default-version='yes' type='func-type' binding='global-binding' visibility='default-visibility' is-defined='yes'/>
    <elf-symbol name='ASurfaceTransactionStats_getPreviousReleaseFenceFd' version='LIBANDROID' is-default-version='yes' type='func-type' binding='global-binding' visibility='default-visibility' is-defined='yes'/>
    <elf-symbol name='ASurfaceTransactionStats_releaseASurfaceControls' version='LIBANDROID' is-default-version='yes' type='func-type' binding='global-binding' visibility='default-visibility' is-defined='yes'/>
    <elf-symbol name='ASurfaceTransaction_apply' version='LIBANDROID' is-default-version='yes' type='func-type' binding='global-binding' visibility='default-visibility' is-defined='yes'/>
    <elf-symbol name='ASurfaceTransaction_create' version='LIBANDROID' is-default-version='yes' type='func-type' binding='global-binding' visibility='default-visibility' is-defined='yes'/>
    <elf-symbol name='ASurfaceTransaction_delete' version='LIBANDROID' is-default-version='yes' type='func-type' binding='global-binding' visibility='default-visibility' is-defined='yes'/>
    <elf-symbol name='ASurfaceTransaction_reparent' version='LIBANDROID' is-default-version='yes' type='func-type' binding='global-binding' visibility='default-visibility' is-defined='yes'/>
    <elf-symbol name='ASurfaceTransaction_setBuffer' version='LIBANDROID' is-default-version='yes' type='func-type' binding='global-binding' visibility='default-visibility' is-defined='yes'/>
    <elf-symbol name='ASurfaceTransaction_setBufferAlpha' version='LIBANDROID' is-default-version='yes' type='func-type' binding='global-binding' visibility='default-visibility' is-defined='yes'/>
    <elf-symbol name='ASurfaceTransaction_setBufferDataSpace' version='LIBANDROID' is-default-version='yes' type='func-type' binding='global-binding' visibility='default-visibility' is-defined='yes'/>
    <elf-symbol name='ASurfaceTransaction_setBufferTransparency' version='LIBANDROID' is-default-version='yes' type='func-type' binding='global-binding' visibility='default-visibility' is-defined='yes'/>
    <elf-symbol name='ASurfaceTransaction_setColor' version='LIBANDROID' is-default-version='yes' type='func-type' binding='global-binding' visibility='default-visibility' is-defined='yes'/>
    <elf-symbol name='ASurfaceTransaction_setDamageRegion' version='LIBANDROID' is-default-version='yes' type='func-type' binding='global-binding' visibility='default-visibility' is-defined='yes'/>
    <elf-symbol name='ASurfaceTransaction_setDesiredPresentTime' version='LIBANDROID' is-default-version='yes' type='func-type' binding='global-binding' visibility='default-visibility' is-defined='yes'/>
    <elf-symbol name='ASurfaceTransaction_setGeometry' version='LIBANDROID' is-default-version='yes' type='func-type' binding='global-binding' visibility='default-visibility' is-defined='yes'/>
    <elf-symbol name='ASurfaceTransaction_setHdrMetadata_cta861_3' version='LIBANDROID' is-default-version='yes' type='func-type' binding='global-binding' visibility='default-visibility' is-defined='yes'/>
    <elf-symbol name='ASurfaceTransaction_setHdrMetadata_smpte2086' version='LIBANDROID' is-default-version='yes' type='func-type' binding='global-binding' visibility='default-visibility' is-defined='yes'/>
    <elf-symbol name='ASurfaceTransaction_setOnComplete' version='LIBANDROID' is-default-version='yes' type='func-type' binding='global-binding' visibility='default-visibility' is-defined='yes'/>
    <elf-symbol name='ASurfaceTransaction_setVisibility' version='LIBANDROID' is-default-version='yes' type='func-type' binding='global-binding' visibility='default-visibility' is-defined='yes'/>
    <elf-symbol name='ASurfaceTransaction_setZOrder' version='LIBANDROID' is-default-version='yes' type='func-type' binding='global-binding' visibility='default-visibility' is-defined='yes'/>
    <elf-symbol name='ASystemFontIterator_close' version='LIBANDROID' is-default-version='yes' type='func-type' binding='global-binding' visibility='default-visibility' is-defined='yes'/>
    <elf-symbol name='ASystemFontIterator_next' version='LIBANDROID' is-default-version='yes' type='func-type' binding='global-binding' visibility='default-visibility' is-defined='yes'/>
    <elf-symbol name='ASystemFontIterator_open' version='LIBANDROID' is-default-version='yes' type='func-type' binding='global-binding' visibility='default-visibility' is-defined='yes'/>
    <elf-symbol name='ATrace_beginAsyncSection' version='LIBANDROID' is-default-version='yes' type='func-type' binding='global-binding' visibility='default-visibility' is-defined='yes'/>
    <elf-symbol name='ATrace_beginSection' version='LIBANDROID' is-default-version='yes' type='func-type' binding='global-binding' visibility='default-visibility' is-defined='yes'/>
    <elf-symbol name='ATrace_endAsyncSection' version='LIBANDROID' is-default-version='yes' type='func-type' binding='global-binding' visibility='default-visibility' is-defined='yes'/>
    <elf-symbol name='ATrace_endSection' version='LIBANDROID' is-default-version='yes' type='func-type' binding='global-binding' visibility='default-visibility' is-defined='yes'/>
    <elf-symbol name='ATrace_isEnabled' version='LIBANDROID' is-default-version='yes' type='func-type' binding='global-binding' visibility='default-visibility' is-defined='yes'/>
    <elf-symbol name='ATrace_setCounter' version='LIBANDROID' is-default-version='yes' type='func-type' binding='global-binding' visibility='default-visibility' is-defined='yes'/>
    <elf-symbol name='android_getaddrinfofornetwork' version='LIBANDROID' is-default-version='yes' type='func-type' binding='global-binding' visibility='default-visibility' is-defined='yes'/>
    <elf-symbol name='android_res_cancel' version='LIBANDROID' is-default-version='yes' type='func-type' binding='global-binding' visibility='default-visibility' is-defined='yes'/>
    <elf-symbol name='android_res_nquery' version='LIBANDROID' is-default-version='yes' type='func-type' binding='global-binding' visibility='default-visibility' is-defined='yes'/>
    <elf-symbol name='android_res_nresult' version='LIBANDROID' is-default-version='yes' type='func-type' binding='global-binding' visibility='default-visibility' is-defined='yes'/>
    <elf-symbol name='android_res_nsend' version='LIBANDROID' is-default-version='yes' type='func-type' binding='global-binding' visibility='default-visibility' is-defined='yes'/>
    <elf-symbol name='android_setprocnetwork' version='LIBANDROID' is-default-version='yes' type='func-type' binding='global-binding' visibility='default-visibility' is-defined='yes'/>
    <elf-symbol name='android_setsocknetwork' version='LIBANDROID' is-default-version='yes' type='func-type' binding='global-binding' visibility='default-visibility' is-defined='yes'/>
  </elf-function-symbols>
  <abi-instr address-size='32' path='frameworks/base/libs/storage/IMountService.cpp' language='LANG_C_plus_plus_14'>
    <array-type-def dimensions='1' type-id='801a266d' size-in-bits='560' hash='b477220dccc11446' id='5da7196d'>
      <subrange length='35' lower-bound='0' upper-bound='34' type-id='7ff19f0f' size-in-bits='64' is-anonymous='yes' hash='81627a4365755e9e' id='6e6845b5'/>
    </array-type-def>
    <pointer-type-def type-id='22d61b29' size-in-bits='32' hash='8548aff4a2525f6f' id='9892ee61'/>
    <pointer-type-def type-id='7807f886' size-in-bits='32' hash='f3c803b33b8e0869' id='27ec51bc'/>
    <qualified-type-def type-id='9cb9149f' const='yes' hash='51e4ee191ac727b6' id='dee60e2c'/>
    <reference-type-def kind='lvalue' type-id='dee60e2c' size-in-bits='32' hash='ca456591de8504db' id='ee2819be'/>
    <reference-type-def kind='lvalue' type-id='9cb9149f' size-in-bits='32' hash='51eb83f4246c22a9' id='705b9f3b'/>
    <reference-type-def kind='lvalue' type-id='26924198' size-in-bits='32' hash='f91cf110dd755510' id='763d7e1a'/>
    <pointer-type-def type-id='6807f016' size-in-bits='32' hash='3097e3bb64beee07' id='ba5970bc'/>
    <reference-type-def kind='lvalue' type-id='a2aa88e3' size-in-bits='32' hash='68ede6713ed430aa' id='cab8cdd7'/>
    <reference-type-def kind='rvalue' type-id='a2aa88e3' size-in-bits='32' hash='429415605225715a' id='11ec3263'/>
    <pointer-type-def type-id='a2aa88e3' size-in-bits='32' hash='55cc64ddc226d8e8' id='beb8baf3'/>
    <reference-type-def kind='lvalue' type-id='3f075162' size-in-bits='32' hash='f17d3d6ca0cb3317' id='4cb59d14'/>
    <reference-type-def kind='rvalue' type-id='3f075162' size-in-bits='32' hash='b045dffa5f2269f1' id='f3e675b6'/>
    <pointer-type-def type-id='3f075162' size-in-bits='32' hash='0c7007e09110c9c4' id='40b58a30'/>
    <qualified-type-def type-id='bf075117' const='yes' hash='22065c34e42ff9f4' id='d11f779a'/>
    <pointer-type-def type-id='d11f779a' size-in-bits='32' hash='789f30aabc84971d' id='e4896a10'/>
    <qualified-type-def type-id='6807f016' const='yes' hash='60470849cbbe3e70' id='6cf1e15d'/>
    <reference-type-def kind='lvalue' type-id='6cf1e15d' size-in-bits='32' hash='6771c41776a2ecea' id='fbc5f4a1'/>
    <qualified-type-def type-id='a2aa88e3' const='yes' hash='30fbb2fdf592e385' id='e2905de8'/>
    <reference-type-def kind='lvalue' type-id='e2905de8' size-in-bits='32' hash='6659dc36f371dd2f' id='7743ab4a'/>
    <pointer-type-def type-id='e2905de8' size-in-bits='32' hash='783e8e3735bb9a5f' id='6b439866'/>
    <qualified-type-def type-id='3f075162' const='yes' hash='8447d6fd137a1ab9' id='1a6371f3'/>
    <reference-type-def kind='lvalue' type-id='1a6371f3' size-in-bits='32' hash='a8b72e56a6dcc07f' id='5f8c324f'/>
    <pointer-type-def type-id='1a6371f3' size-in-bits='32' hash='4af8191671c3257c' id='638c389b'/>
    <qualified-type-def type-id='452328e6' const='yes' hash='bc2c1c7dafcf30f5' id='08f75d23'/>
    <pointer-type-def type-id='08f75d23' size-in-bits='32' hash='f7cec0ddf587e7ba' id='2667752b'/>
    <qualified-type-def type-id='5ddaf272' const='yes' hash='f9894aefb51ab317' id='0cbf5aab'/>
    <pointer-type-def type-id='0cbf5aab' size-in-bits='32' hash='706d0acedbbdf3eb' id='923b7913'/>
    <qualified-type-def type-id='a1aaab37' const='yes' hash='803c0d6af842de76' id='5649c4ec'/>
    <pointer-type-def type-id='5649c4ec' size-in-bits='32' hash='97c655afdeaaa318' id='9c20c3b2'/>
    <qualified-type-def type-id='e4c905b6' const='yes' hash='81eed4a104866efd' id='0f556883'/>
    <reference-type-def kind='lvalue' type-id='0f556883' size-in-bits='32' hash='a308725e4652f8e6' id='c873bbbf'/>
    <pointer-type-def type-id='0f556883' size-in-bits='32' hash='867b5826f68db805' id='cc73c20b'/>
    <qualified-type-def type-id='34e3553c' const='yes' hash='130f15159c09a055' id='9d0984bf'/>
    <reference-type-def kind='lvalue' type-id='9d0984bf' size-in-bits='32' hash='187bc90b9ded8265' id='cefbbcdb'/>
    <pointer-type-def type-id='9d0984bf' size-in-bits='32' hash='1e25a4d2095a1cb7' id='cafbb68f'/>
    <qualified-type-def type-id='1bb55f07' const='yes' hash='e3dfcfb72e1ddcb2#5' id='fc5a3b88'/>
    <reference-type-def kind='lvalue' type-id='fc5a3b88' size-in-bits='32' hash='768b1e3ba2096387#5' id='f00bf2ea'/>
    <pointer-type-def type-id='4aafb922' size-in-bits='32' hash='b46abb7b0a3bfe43' id='9aa04798'/>
    <reference-type-def kind='lvalue' type-id='452328e6' size-in-bits='32' hash='6bb7975d127dd867' id='84e43118'/>
    <pointer-type-def type-id='452328e6' size-in-bits='32' hash='ce409ad286cfd389' id='80e42acc'/>
    <pointer-type-def type-id='5ddaf272' size-in-bits='32' hash='1dc5e2cd235ab4f6' id='606e1a50'/>
    <pointer-type-def type-id='a1aaab37' size-in-bits='32' hash='c7ccefe18485dda0' id='97e1a22f'/>
    <reference-type-def kind='lvalue' type-id='e4c905b6' size-in-bits='32' hash='260eb3c792812fa8' id='55daf9c8'/>
    <pointer-type-def type-id='e4c905b6' size-in-bits='32' hash='e828b1cc69242937' id='51daf37c'/>
    <reference-type-def kind='lvalue' type-id='34e3553c' size-in-bits='32' hash='dae43022e987cee9' id='ef24a0d6'/>
    <reference-type-def kind='rvalue' type-id='34e3553c' size-in-bits='32' hash='2a158e36f508c19b' id='66a959d0'/>
    <pointer-type-def type-id='34e3553c' size-in-bits='32' hash='4da355b4eecd84e2' id='fb24b3ba'/>
    <reference-type-def kind='lvalue' type-id='1bb55f07' size-in-bits='32' hash='9cc027997a70e9c1#5' id='ff242d41'/>
    <pointer-type-def type-id='aa12d1ba' size-in-bits='32' id='822cd80b'/>
    <pointer-type-def type-id='df458ae6' size-in-bits='32' id='621ed18c'/>
    <pointer-type-def type-id='edff7cb3' size-in-bits='32' id='b5a5bc13'/>
    <pointer-type-def type-id='40b6343a' size-in-bits='32' id='6d5a3b78'/>
    <reference-type-def kind='lvalue' type-id='748cb1b7' size-in-bits='32' id='d7c9afdb'/>
    <pointer-type-def type-id='748cb1b7' size-in-bits='32' id='d3c9a98f'/>
    <reference-type-def kind='lvalue' type-id='60976dc0' size-in-bits='32' id='bb0cd27a'/>
    <pointer-type-def type-id='60976dc0' size-in-bits='32' id='af0cbf96'/>
    <namespace-decl name='android'>
      <class-decl name='BpInterface&lt;android::IMountService&gt;' visibility='default' size-in-bits='224' filepath='frameworks/native/libs/binder/include/binder/IInterface.h' line='86' column='1' hash='dc8c46692e2a3a2d' id='22d61b29'>
        <base-class access='public' layout-offset-in-bits='0' type-id='bf075117'/>
        <base-class access='public' layout-offset-in-bits='32' type-id='df458ae7'/>
        <member-function access='protected' vtable-offset='2'>
          <function-decl name='onAsBinder' mangled-name='_ZN7android11BpInterfaceINS_13IMountServiceEE10onAsBinderEv' filepath='frameworks/native/libs/binder/include/binder/IInterface.h' line='93' column='1' visibility='default' binding='global' size-in-bits='32' hash='28f93d42079c2801'>
            <parameter type-id='9892ee61' is-artificial='yes'/>
            <return type-id='b5a5bc13'/>
          </function-decl>
        </member-function>
      </class-decl>
      <class-decl name='BpMountService' visibility='default' size-in-bits='224' filepath='frameworks/base/libs/storage/IMountService.cpp' line='55' column='1' hash='0adb8cfd26d14339' id='7807f886'>
        <base-class access='public' layout-offset-in-bits='0' type-id='22d61b29'/>
        <member-function access='public' vtable-offset='4'>
          <function-decl name='registerListener' mangled-name='_ZN7android14BpMountService16registerListenerERKNS_2spINS_21IMountServiceListenerEEE' filepath='frameworks/base/libs/storage/IMountService.cpp' line='63' column='1' visibility='default' binding='global' size-in-bits='32' hash='033988c26c3eacc1'>
            <parameter type-id='27ec51bc' is-artificial='yes'/>
            <parameter type-id='7743ab4a'/>
            <return type-id='48b5725f'/>
          </function-decl>
        </member-function>
        <member-function access='public' vtable-offset='5'>
          <function-decl name='unregisterListener' mangled-name='_ZN7android14BpMountService18unregisterListenerERKNS_2spINS_21IMountServiceListenerEEE' filepath='frameworks/base/libs/storage/IMountService.cpp' line='79' column='1' visibility='default' binding='global' size-in-bits='32' hash='033988c26c3eacc1'>
            <parameter type-id='27ec51bc' is-artificial='yes'/>
            <parameter type-id='7743ab4a'/>
            <return type-id='48b5725f'/>
          </function-decl>
        </member-function>
        <member-function access='public' vtable-offset='6'>
          <function-decl name='isUsbMassStorageConnected' mangled-name='_ZN7android14BpMountService25isUsbMassStorageConnectedEv' filepath='frameworks/base/libs/storage/IMountService.cpp' line='95' column='1' visibility='default' binding='global' size-in-bits='32' hash='78f6a3cdaf3f98f3'>
            <parameter type-id='27ec51bc' is-artificial='yes'/>
            <return type-id='c894953d'/>
          </function-decl>
        </member-function>
        <member-function access='public' vtable-offset='7'>
          <function-decl name='setUsbMassStorageEnabled' mangled-name='_ZN7android14BpMountService24setUsbMassStorageEnabledEb' filepath='frameworks/base/libs/storage/IMountService.cpp' line='111' column='1' visibility='default' binding='global' size-in-bits='32' hash='839073eeb99b5999'>
            <parameter type-id='27ec51bc' is-artificial='yes'/>
            <parameter type-id='4ab96a04'/>
            <return type-id='48b5725f'/>
          </function-decl>
        </member-function>
        <member-function access='public' vtable-offset='8'>
          <function-decl name='isUsbMassStorageEnabled' mangled-name='_ZN7android14BpMountService23isUsbMassStorageEnabledEv' filepath='frameworks/base/libs/storage/IMountService.cpp' line='127' column='1' visibility='default' binding='global' size-in-bits='32' hash='78f6a3cdaf3f98f3'>
            <parameter type-id='27ec51bc' is-artificial='yes'/>
            <return type-id='c894953d'/>
          </function-decl>
        </member-function>
        <member-function access='public' vtable-offset='9'>
          <function-decl name='mountVolume' mangled-name='_ZN7android14BpMountService11mountVolumeERKNS_8String16E' filepath='frameworks/base/libs/storage/IMountService.cpp' line='143' column='1' visibility='default' binding='global' size-in-bits='32' hash='401cc094f7d8ed35'>
            <parameter type-id='27ec51bc' is-artificial='yes'/>
            <parameter type-id='157d4f95'/>
            <return type-id='3ff5601b'/>
          </function-decl>
        </member-function>
        <member-function access='public' vtable-offset='10'>
          <function-decl name='unmountVolume' mangled-name='_ZN7android14BpMountService13unmountVolumeERKNS_8String16Ebb' filepath='frameworks/base/libs/storage/IMountService.cpp' line='160' column='1' visibility='default' binding='global' size-in-bits='32' hash='e226098566fe87fd'>
            <parameter type-id='27ec51bc' is-artificial='yes'/>
            <parameter type-id='157d4f95'/>
            <parameter type-id='4ab96a04'/>
            <parameter type-id='4ab96a04'/>
            <return type-id='3ff5601b'/>
          </function-decl>
        </member-function>
        <member-function access='public' vtable-offset='11'>
          <function-decl name='formatVolume' mangled-name='_ZN7android14BpMountService12formatVolumeERKNS_8String16E' filepath='frameworks/base/libs/storage/IMountService.cpp' line='179' column='1' visibility='default' binding='global' size-in-bits='32' hash='401cc094f7d8ed35'>
            <parameter type-id='27ec51bc' is-artificial='yes'/>
            <parameter type-id='157d4f95'/>
            <return type-id='3ff5601b'/>
          </function-decl>
        </member-function>
        <member-function access='public' vtable-offset='12'>
          <function-decl name='getStorageUsers' mangled-name='_ZN7android14BpMountService15getStorageUsersERKNS_8String16EPPi' filepath='frameworks/base/libs/storage/IMountService.cpp' line='196' column='1' visibility='default' binding='global' size-in-bits='32' hash='c0aeb1b798922da1'>
            <parameter type-id='27ec51bc' is-artificial='yes'/>
            <parameter type-id='157d4f95'/>
            <parameter type-id='9aa04798'/>
            <return type-id='3ff5601b'/>
          </function-decl>
        </member-function>
        <member-function access='public' vtable-offset='13'>
          <function-decl name='getVolumeState' mangled-name='_ZN7android14BpMountService14getVolumeStateERKNS_8String16E' filepath='frameworks/base/libs/storage/IMountService.cpp' line='225' column='1' visibility='default' binding='global' size-in-bits='32' hash='401cc094f7d8ed35'>
            <parameter type-id='27ec51bc' is-artificial='yes'/>
            <parameter type-id='157d4f95'/>
            <return type-id='3ff5601b'/>
          </function-decl>
        </member-function>
        <member-function access='public' vtable-offset='14'>
          <function-decl name='createSecureContainer' mangled-name='_ZN7android14BpMountService21createSecureContainerERKNS_8String16EiS3_S3_i' filepath='frameworks/base/libs/storage/IMountService.cpp' line='242' column='1' visibility='default' binding='global' size-in-bits='32' hash='1640f5b4c846088d'>
            <parameter type-id='27ec51bc' is-artificial='yes'/>
            <parameter type-id='157d4f95'/>
            <parameter type-id='922df12b'/>
            <parameter type-id='157d4f95'/>
            <parameter type-id='157d4f95'/>
            <parameter type-id='922df12b'/>
            <return type-id='3ff5601b'/>
          </function-decl>
        </member-function>
        <member-function access='public' vtable-offset='15'>
          <function-decl name='finalizeSecureContainer' mangled-name='_ZN7android14BpMountService23finalizeSecureContainerERKNS_8String16E' filepath='frameworks/base/libs/storage/IMountService.cpp' line='264' column='1' visibility='default' binding='global' size-in-bits='32' hash='401cc094f7d8ed35'>
            <parameter type-id='27ec51bc' is-artificial='yes'/>
            <parameter type-id='157d4f95'/>
            <return type-id='3ff5601b'/>
          </function-decl>
        </member-function>
        <member-function access='public' vtable-offset='16'>
          <function-decl name='destroySecureContainer' mangled-name='_ZN7android14BpMountService22destroySecureContainerERKNS_8String16E' filepath='frameworks/base/libs/storage/IMountService.cpp' line='281' column='1' visibility='default' binding='global' size-in-bits='32' hash='401cc094f7d8ed35'>
            <parameter type-id='27ec51bc' is-artificial='yes'/>
            <parameter type-id='157d4f95'/>
            <return type-id='3ff5601b'/>
          </function-decl>
        </member-function>
        <member-function access='public' vtable-offset='17'>
          <function-decl name='mountSecureContainer' mangled-name='_ZN7android14BpMountService20mountSecureContainerERKNS_8String16ES3_i' filepath='frameworks/base/libs/storage/IMountService.cpp' line='298' column='1' visibility='default' binding='global' size-in-bits='32' hash='8c3ecc0de8623f46'>
            <parameter type-id='27ec51bc' is-artificial='yes'/>
            <parameter type-id='157d4f95'/>
            <parameter type-id='157d4f95'/>
            <parameter type-id='922df12b'/>
            <return type-id='3ff5601b'/>
          </function-decl>
        </member-function>
        <member-function access='public' vtable-offset='18'>
          <function-decl name='unmountSecureContainer' mangled-name='_ZN7android14BpMountService22unmountSecureContainerERKNS_8String16Eb' filepath='frameworks/base/libs/storage/IMountService.cpp' line='319' column='1' visibility='default' binding='global' size-in-bits='32' hash='9f208319cc45b066'>
            <parameter type-id='27ec51bc' is-artificial='yes'/>
            <parameter type-id='157d4f95'/>
            <parameter type-id='4ab96a04'/>
            <return type-id='3ff5601b'/>
          </function-decl>
        </member-function>
        <member-function access='public' vtable-offset='19'>
          <function-decl name='isSecureContainerMounted' mangled-name='_ZN7android14BpMountService24isSecureContainerMountedERKNS_8String16E' filepath='frameworks/base/libs/storage/IMountService.cpp' line='337' column='1' visibility='default' binding='global' size-in-bits='32' hash='0fb6ef930ab1581d'>
            <parameter type-id='27ec51bc' is-artificial='yes'/>
            <parameter type-id='157d4f95'/>
            <return type-id='c894953d'/>
          </function-decl>
        </member-function>
        <member-function access='public' vtable-offset='20'>
          <function-decl name='renameSecureContainer' mangled-name='_ZN7android14BpMountService21renameSecureContainerERKNS_8String16ES3_' filepath='frameworks/base/libs/storage/IMountService.cpp' line='354' column='1' visibility='default' binding='global' size-in-bits='32' hash='62d55fb1ee036e3c'>
            <parameter type-id='27ec51bc' is-artificial='yes'/>
            <parameter type-id='157d4f95'/>
            <parameter type-id='157d4f95'/>
            <return type-id='3ff5601b'/>
          </function-decl>
        </member-function>
        <member-function access='public' vtable-offset='21'>
          <function-decl name='getSecureContainerPath' mangled-name='_ZN7android14BpMountService22getSecureContainerPathERKNS_8String16ERS1_' filepath='frameworks/base/libs/storage/IMountService.cpp' line='372' column='1' visibility='default' binding='global' size-in-bits='32' hash='a67a0af5b468a148'>
            <parameter type-id='27ec51bc' is-artificial='yes'/>
            <parameter type-id='157d4f95'/>
            <parameter type-id='22923b4c'/>
            <return type-id='c894953d'/>
          </function-decl>
        </member-function>
        <member-function access='public' vtable-offset='22'>
          <function-decl name='getSecureContainerList' mangled-name='_ZN7android14BpMountService22getSecureContainerListERKNS_8String16ERPS1_' filepath='frameworks/base/libs/storage/IMountService.cpp' line='390' column='1' visibility='default' binding='global' size-in-bits='32' hash='3b2892980509d689'>
            <parameter type-id='27ec51bc' is-artificial='yes'/>
            <parameter type-id='157d4f95'/>
            <parameter type-id='763d7e1a'/>
            <return type-id='3ff5601b'/>
          </function-decl>
        </member-function>
        <member-function access='public' vtable-offset='23'>
          <function-decl name='shutdown' mangled-name='_ZN7android14BpMountService8shutdownERKNS_2spINS_22IMountShutdownObserverEEE' filepath='frameworks/base/libs/storage/IMountService.cpp' line='412' column='1' visibility='default' binding='global' size-in-bits='32' hash='bfc622881c5696ee'>
            <parameter type-id='27ec51bc' is-artificial='yes'/>
            <parameter type-id='5f8c324f'/>
            <return type-id='48b5725f'/>
          </function-decl>
        </member-function>
        <member-function access='public' vtable-offset='24'>
          <function-decl name='finishMediaUpdate' mangled-name='_ZN7android14BpMountService17finishMediaUpdateEv' filepath='frameworks/base/libs/storage/IMountService.cpp' line='429' column='1' visibility='default' binding='global' size-in-bits='32' hash='28f93d42079c2801'>
            <parameter type-id='27ec51bc' is-artificial='yes'/>
            <return type-id='48b5725f'/>
          </function-decl>
        </member-function>
        <member-function access='public' vtable-offset='25'>
          <function-decl name='mountObb' mangled-name='_ZN7android14BpMountService8mountObbERKNS_8String16ES3_S3_RKNS_2spINS_18IObbActionListenerEEEiRKNS4_INS_7ObbInfoEEE' filepath='frameworks/base/libs/storage/IMountService.cpp' line='445' column='1' visibility='default' binding='global' size-in-bits='32' hash='366f21a9b034425a'>
            <parameter type-id='27ec51bc' is-artificial='yes'/>
            <parameter type-id='157d4f95'/>
            <parameter type-id='157d4f95'/>
            <parameter type-id='157d4f95'/>
            <parameter type-id='990ef79d'/>
            <parameter type-id='3ff5601b'/>
            <parameter type-id='0c3db078'/>
            <return type-id='48b5725f'/>
          </function-decl>
        </member-function>
        <member-function access='public' vtable-offset='26'>
          <function-decl name='unmountObb' mangled-name='_ZN7android14BpMountService10unmountObbERKNS_8String16EbRKNS_2spINS_18IObbActionListenerEEEi' filepath='frameworks/base/libs/storage/IMountService.cpp' line='467' column='1' visibility='default' binding='global' size-in-bits='32' hash='ebbfb0d88bd24f74'>
            <parameter type-id='27ec51bc' is-artificial='yes'/>
            <parameter type-id='157d4f95'/>
            <parameter type-id='4ab96a04'/>
            <parameter type-id='990ef79d'/>
            <parameter type-id='922df12b'/>
            <return type-id='48b5725f'/>
          </function-decl>
        </member-function>
        <member-function access='public' vtable-offset='27'>
          <function-decl name='isObbMounted' mangled-name='_ZN7android14BpMountService12isObbMountedERKNS_8String16E' filepath='frameworks/base/libs/storage/IMountService.cpp' line='487' column='1' visibility='default' binding='global' size-in-bits='32' hash='0fb6ef930ab1581d'>
            <parameter type-id='27ec51bc' is-artificial='yes'/>
            <parameter type-id='157d4f95'/>
            <return type-id='c894953d'/>
          </function-decl>
        </member-function>
        <member-function access='public' vtable-offset='28'>
          <function-decl name='getMountedObbPath' mangled-name='_ZN7android14BpMountService17getMountedObbPathERKNS_8String16ERS1_' filepath='frameworks/base/libs/storage/IMountService.cpp' line='504' column='1' visibility='default' binding='global' size-in-bits='32' hash='a67a0af5b468a148'>
            <parameter type-id='27ec51bc' is-artificial='yes'/>
            <parameter type-id='157d4f95'/>
            <parameter type-id='22923b4c'/>
            <return type-id='c894953d'/>
          </function-decl>
        </member-function>
        <member-function access='public' vtable-offset='29'>
          <function-decl name='decryptStorage' mangled-name='_ZN7android14BpMountService14decryptStorageERKNS_8String16E' filepath='frameworks/base/libs/storage/IMountService.cpp' line='522' column='1' visibility='default' binding='global' size-in-bits='32' hash='401cc094f7d8ed35'>
            <parameter type-id='27ec51bc' is-artificial='yes'/>
            <parameter type-id='157d4f95'/>
            <return type-id='3ff5601b'/>
          </function-decl>
        </member-function>
        <member-function access='public' vtable-offset='30'>
          <function-decl name='encryptStorage' mangled-name='_ZN7android14BpMountService14encryptStorageERKNS_8String16E' filepath='frameworks/base/libs/storage/IMountService.cpp' line='539' column='1' visibility='default' binding='global' size-in-bits='32' hash='401cc094f7d8ed35'>
            <parameter type-id='27ec51bc' is-artificial='yes'/>
            <parameter type-id='157d4f95'/>
            <return type-id='3ff5601b'/>
          </function-decl>
        </member-function>
      </class-decl>
      <class-decl name='IMountService' visibility='default' size-in-bits='96' filepath='frameworks/base/libs/storage/include/storage/IMountService.h' line='32' column='1' hash='5c2013c54a5e0323' id='bf075117'>
        <base-class access='public' layout-offset-in-bits='0' type-id='40b6343b'/>
        <data-member access='public' static='yes'>
          <var-decl name='descriptor' type-id='a3cec311' mangled-name='_ZN7android13IMountService10descriptorE' visibility='default' filepath='frameworks/base/libs/storage/include/storage/IMountService.h' line='34' column='1'/>
        </data-member>
        <data-member access='public' static='yes'>
          <var-decl name='default_impl' type-id='34e3553c' mangled-name='_ZN7android13IMountService12default_implE' visibility='default' filepath='frameworks/base/libs/storage/include/storage/IMountService.h' line='34' column='1'/>
        </data-member>
        <member-function access='public' destructor='yes' vtable-offset='0'>
          <function-decl name='~IMountService' filepath='frameworks/base/libs/storage/include/storage/IMountService.h' line='34' column='1' visibility='default' binding='global' size-in-bits='32' hash='28f93d42079c2801'>
            <parameter type-id='9cb9149f' is-artificial='yes'/>
            <return type-id='48b5725f'/>
          </function-decl>
        </member-function>
        <member-function access='public' destructor='yes' vtable-offset='0'>
          <function-decl name='~IMountService' mangled-name='_ZN7android13IMountServiceD0Ev' filepath='frameworks/base/libs/storage/IMountService.cpp' line='557' column='1' visibility='default' binding='global' size-in-bits='32' hash='28f93d42079c2801'>
            <parameter type-id='9cb9149f' is-artificial='yes'/>
            <return type-id='48b5725f'/>
          </function-decl>
        </member-function>
        <member-function access='public' destructor='yes' vtable-offset='0'>
          <function-decl name='~IMountService' mangled-name='_ZN7android13IMountServiceD1Ev' filepath='frameworks/base/libs/storage/IMountService.cpp' line='557' column='1' visibility='default' binding='global' size-in-bits='32' hash='28f93d42079c2801'>
            <parameter type-id='9cb9149f' is-artificial='yes'/>
            <return type-id='48b5725f'/>
          </function-decl>
        </member-function>
        <member-function access='public' destructor='yes' vtable-offset='0'>
          <function-decl name='~IMountService' mangled-name='_ZN7android13IMountServiceD2Ev' filepath='frameworks/base/libs/storage/IMountService.cpp' line='557' column='1' visibility='default' binding='global' size-in-bits='32' hash='d450a6b77a69de79'>
            <parameter type-id='9cb9149f' is-artificial='yes'/>
            <parameter type-id='63e171df' is-artificial='yes'/>
            <return type-id='48b5725f'/>
          </function-decl>
        </member-function>
        <member-function access='public' const='yes' vtable-offset='3'>
          <function-decl name='getInterfaceDescriptor' mangled-name='_ZNK7android13IMountService22getInterfaceDescriptorEv' filepath='frameworks/base/libs/storage/include/storage/IMountService.h' line='34' column='1' visibility='default' binding='global' size-in-bits='32' hash='0f2942b388595d26'>
            <parameter type-id='e4896a10' is-artificial='yes'/>
            <return type-id='157d4f95'/>
          </function-decl>
        </member-function>
        <member-function access='public' vtable-offset='4'>
          <function-decl name='registerListener' mangled-name='_ZN7android13IMountService16registerListenerERKNS_2spINS_21IMountServiceListenerEEE' filepath='frameworks/base/libs/storage/include/storage/IMountService.h' line='36' column='1' visibility='default' binding='global' size-in-bits='32' hash='033988c26c3eacc1'>
            <parameter type-id='9cb9149f' is-artificial='yes'/>
            <parameter type-id='7743ab4a'/>
            <return type-id='48b5725f'/>
          </function-decl>
        </member-function>
        <member-function access='public' vtable-offset='5'>
          <function-decl name='unregisterListener' mangled-name='_ZN7android13IMountService18unregisterListenerERKNS_2spINS_21IMountServiceListenerEEE' filepath='frameworks/base/libs/storage/include/storage/IMountService.h' line='38' column='1' visibility='default' binding='global' size-in-bits='32' hash='033988c26c3eacc1'>
            <parameter type-id='9cb9149f' is-artificial='yes'/>
            <parameter type-id='7743ab4a'/>
            <return type-id='48b5725f'/>
          </function-decl>
        </member-function>
        <member-function access='public' vtable-offset='6'>
          <function-decl name='isUsbMassStorageConnected' mangled-name='_ZN7android13IMountService25isUsbMassStorageConnectedEv' filepath='frameworks/base/libs/storage/include/storage/IMountService.h' line='39' column='1' visibility='default' binding='global' size-in-bits='32' hash='78f6a3cdaf3f98f3'>
            <parameter type-id='9cb9149f' is-artificial='yes'/>
            <return type-id='c894953d'/>
          </function-decl>
        </member-function>
        <member-function access='public' vtable-offset='7'>
          <function-decl name='setUsbMassStorageEnabled' mangled-name='_ZN7android13IMountService24setUsbMassStorageEnabledEb' filepath='frameworks/base/libs/storage/include/storage/IMountService.h' line='40' column='1' visibility='default' binding='global' size-in-bits='32' hash='839073eeb99b5999'>
            <parameter type-id='9cb9149f' is-artificial='yes'/>
            <parameter type-id='4ab96a04'/>
            <return type-id='48b5725f'/>
          </function-decl>
        </member-function>
        <member-function access='public' vtable-offset='8'>
          <function-decl name='isUsbMassStorageEnabled' mangled-name='_ZN7android13IMountService23isUsbMassStorageEnabledEv' filepath='frameworks/base/libs/storage/include/storage/IMountService.h' line='41' column='1' visibility='default' binding='global' size-in-bits='32' hash='78f6a3cdaf3f98f3'>
            <parameter type-id='9cb9149f' is-artificial='yes'/>
            <return type-id='c894953d'/>
          </function-decl>
        </member-function>
        <member-function access='public' vtable-offset='9'>
          <function-decl name='mountVolume' mangled-name='_ZN7android13IMountService11mountVolumeERKNS_8String16E' filepath='frameworks/base/libs/storage/include/storage/IMountService.h' line='42' column='1' visibility='default' binding='global' size-in-bits='32' hash='401cc094f7d8ed35'>
            <parameter type-id='9cb9149f' is-artificial='yes'/>
            <parameter type-id='157d4f95'/>
            <return type-id='3ff5601b'/>
          </function-decl>
        </member-function>
        <member-function access='public' vtable-offset='10'>
          <function-decl name='unmountVolume' mangled-name='_ZN7android13IMountService13unmountVolumeERKNS_8String16Ebb' filepath='frameworks/base/libs/storage/include/storage/IMountService.h' line='43' column='1' visibility='default' binding='global' size-in-bits='32' hash='e226098566fe87fd'>
            <parameter type-id='9cb9149f' is-artificial='yes'/>
            <parameter type-id='157d4f95'/>
            <parameter type-id='4ab96a04'/>
            <parameter type-id='4ab96a04'/>
            <return type-id='3ff5601b'/>
          </function-decl>
        </member-function>
        <member-function access='public' vtable-offset='11'>
          <function-decl name='formatVolume' mangled-name='_ZN7android13IMountService12formatVolumeERKNS_8String16E' filepath='frameworks/base/libs/storage/include/storage/IMountService.h' line='45' column='1' visibility='default' binding='global' size-in-bits='32' hash='401cc094f7d8ed35'>
            <parameter type-id='9cb9149f' is-artificial='yes'/>
            <parameter type-id='157d4f95'/>
            <return type-id='3ff5601b'/>
          </function-decl>
        </member-function>
        <member-function access='public' vtable-offset='12'>
          <function-decl name='getStorageUsers' mangled-name='_ZN7android13IMountService15getStorageUsersERKNS_8String16EPPi' filepath='frameworks/base/libs/storage/include/storage/IMountService.h' line='47' column='1' visibility='default' binding='global' size-in-bits='32' hash='c0aeb1b798922da1'>
            <parameter type-id='9cb9149f' is-artificial='yes'/>
            <parameter type-id='157d4f95'/>
            <parameter type-id='9aa04798'/>
            <return type-id='3ff5601b'/>
          </function-decl>
        </member-function>
        <member-function access='public' vtable-offset='13'>
          <function-decl name='getVolumeState' mangled-name='_ZN7android13IMountService14getVolumeStateERKNS_8String16E' filepath='frameworks/base/libs/storage/include/storage/IMountService.h' line='48' column='1' visibility='default' binding='global' size-in-bits='32' hash='401cc094f7d8ed35'>
            <parameter type-id='9cb9149f' is-artificial='yes'/>
            <parameter type-id='157d4f95'/>
            <return type-id='3ff5601b'/>
          </function-decl>
        </member-function>
        <member-function access='public' vtable-offset='14'>
          <function-decl name='createSecureContainer' mangled-name='_ZN7android13IMountService21createSecureContainerERKNS_8String16EiS3_S3_i' filepath='frameworks/base/libs/storage/include/storage/IMountService.h' line='49' column='1' visibility='default' binding='global' size-in-bits='32' hash='1640f5b4c846088d'>
            <parameter type-id='9cb9149f' is-artificial='yes'/>
            <parameter type-id='157d4f95'/>
            <parameter type-id='922df12b'/>
            <parameter type-id='157d4f95'/>
            <parameter type-id='157d4f95'/>
            <parameter type-id='922df12b'/>
            <return type-id='3ff5601b'/>
          </function-decl>
        </member-function>
        <member-function access='public' vtable-offset='15'>
          <function-decl name='finalizeSecureContainer' mangled-name='_ZN7android13IMountService23finalizeSecureContainerERKNS_8String16E' filepath='frameworks/base/libs/storage/include/storage/IMountService.h' line='52' column='1' visibility='default' binding='global' size-in-bits='32' hash='401cc094f7d8ed35'>
            <parameter type-id='9cb9149f' is-artificial='yes'/>
            <parameter type-id='157d4f95'/>
            <return type-id='3ff5601b'/>
          </function-decl>
        </member-function>
        <member-function access='public' vtable-offset='16'>
          <function-decl name='destroySecureContainer' mangled-name='_ZN7android13IMountService22destroySecureContainerERKNS_8String16E' filepath='frameworks/base/libs/storage/include/storage/IMountService.h' line='53' column='1' visibility='default' binding='global' size-in-bits='32' hash='401cc094f7d8ed35'>
            <parameter type-id='9cb9149f' is-artificial='yes'/>
            <parameter type-id='157d4f95'/>
            <return type-id='3ff5601b'/>
          </function-decl>
        </member-function>
        <member-function access='public' vtable-offset='17'>
          <function-decl name='mountSecureContainer' mangled-name='_ZN7android13IMountService20mountSecureContainerERKNS_8String16ES3_i' filepath='frameworks/base/libs/storage/include/storage/IMountService.h' line='54' column='1' visibility='default' binding='global' size-in-bits='32' hash='8c3ecc0de8623f46'>
            <parameter type-id='9cb9149f' is-artificial='yes'/>
            <parameter type-id='157d4f95'/>
            <parameter type-id='157d4f95'/>
            <parameter type-id='922df12b'/>
            <return type-id='3ff5601b'/>
          </function-decl>
        </member-function>
        <member-function access='public' vtable-offset='18'>
          <function-decl name='unmountSecureContainer' mangled-name='_ZN7android13IMountService22unmountSecureContainerERKNS_8String16Eb' filepath='frameworks/base/libs/storage/include/storage/IMountService.h' line='57' column='1' visibility='default' binding='global' size-in-bits='32' hash='9f208319cc45b066'>
            <parameter type-id='9cb9149f' is-artificial='yes'/>
            <parameter type-id='157d4f95'/>
            <parameter type-id='4ab96a04'/>
            <return type-id='3ff5601b'/>
          </function-decl>
        </member-function>
        <member-function access='public' vtable-offset='19'>
          <function-decl name='isSecureContainerMounted' mangled-name='_ZN7android13IMountService24isSecureContainerMountedERKNS_8String16E' filepath='frameworks/base/libs/storage/include/storage/IMountService.h' line='58' column='1' visibility='default' binding='global' size-in-bits='32' hash='0fb6ef930ab1581d'>
            <parameter type-id='9cb9149f' is-artificial='yes'/>
            <parameter type-id='157d4f95'/>
            <return type-id='c894953d'/>
          </function-decl>
        </member-function>
        <member-function access='public' vtable-offset='20'>
          <function-decl name='renameSecureContainer' mangled-name='_ZN7android13IMountService21renameSecureContainerERKNS_8String16ES3_' filepath='frameworks/base/libs/storage/include/storage/IMountService.h' line='59' column='1' visibility='default' binding='global' size-in-bits='32' hash='62d55fb1ee036e3c'>
            <parameter type-id='9cb9149f' is-artificial='yes'/>
            <parameter type-id='157d4f95'/>
            <parameter type-id='157d4f95'/>
            <return type-id='3ff5601b'/>
          </function-decl>
        </member-function>
        <member-function access='public' vtable-offset='21'>
          <function-decl name='getSecureContainerPath' mangled-name='_ZN7android13IMountService22getSecureContainerPathERKNS_8String16ERS1_' filepath='frameworks/base/libs/storage/include/storage/IMountService.h' line='61' column='1' visibility='default' binding='global' size-in-bits='32' hash='a67a0af5b468a148'>
            <parameter type-id='9cb9149f' is-artificial='yes'/>
            <parameter type-id='157d4f95'/>
            <parameter type-id='22923b4c'/>
            <return type-id='c894953d'/>
          </function-decl>
        </member-function>
        <member-function access='public' vtable-offset='22'>
          <function-decl name='getSecureContainerList' mangled-name='_ZN7android13IMountService22getSecureContainerListERKNS_8String16ERPS1_' filepath='frameworks/base/libs/storage/include/storage/IMountService.h' line='62' column='1' visibility='default' binding='global' size-in-bits='32' hash='3b2892980509d689'>
            <parameter type-id='9cb9149f' is-artificial='yes'/>
            <parameter type-id='157d4f95'/>
            <parameter type-id='763d7e1a'/>
            <return type-id='3ff5601b'/>
          </function-decl>
        </member-function>
        <member-function access='public' vtable-offset='23'>
          <function-decl name='shutdown' mangled-name='_ZN7android13IMountService8shutdownERKNS_2spINS_22IMountShutdownObserverEEE' filepath='frameworks/base/libs/storage/include/storage/IMountService.h' line='64' column='1' visibility='default' binding='global' size-in-bits='32' hash='bfc622881c5696ee'>
            <parameter type-id='9cb9149f' is-artificial='yes'/>
            <parameter type-id='5f8c324f'/>
            <return type-id='48b5725f'/>
          </function-decl>
        </member-function>
        <member-function access='public' vtable-offset='24'>
          <function-decl name='finishMediaUpdate' mangled-name='_ZN7android13IMountService17finishMediaUpdateEv' filepath='frameworks/base/libs/storage/include/storage/IMountService.h' line='65' column='1' visibility='default' binding='global' size-in-bits='32' hash='28f93d42079c2801'>
            <parameter type-id='9cb9149f' is-artificial='yes'/>
            <return type-id='48b5725f'/>
          </function-decl>
        </member-function>
        <member-function access='public' vtable-offset='25'>
          <function-decl name='mountObb' mangled-name='_ZN7android13IMountService8mountObbERKNS_8String16ES3_S3_RKNS_2spINS_18IObbActionListenerEEEiRKNS4_INS_7ObbInfoEEE' filepath='frameworks/base/libs/storage/include/storage/IMountService.h' line='66' column='1' visibility='default' binding='global' size-in-bits='32' hash='7f673cf9a12b7977'>
            <parameter type-id='9cb9149f' is-artificial='yes'/>
            <parameter type-id='157d4f95'/>
            <parameter type-id='157d4f95'/>
            <parameter type-id='157d4f95'/>
            <parameter type-id='990ef79d'/>
            <parameter type-id='922df12b'/>
            <parameter type-id='0c3db078'/>
            <return type-id='48b5725f'/>
          </function-decl>
        </member-function>
        <member-function access='public' vtable-offset='26'>
          <function-decl name='unmountObb' mangled-name='_ZN7android13IMountService10unmountObbERKNS_8String16EbRKNS_2spINS_18IObbActionListenerEEEi' filepath='frameworks/base/libs/storage/include/storage/IMountService.h' line='69' column='1' visibility='default' binding='global' size-in-bits='32' hash='ebbfb0d88bd24f74'>
            <parameter type-id='9cb9149f' is-artificial='yes'/>
            <parameter type-id='157d4f95'/>
            <parameter type-id='4ab96a04'/>
            <parameter type-id='990ef79d'/>
            <parameter type-id='922df12b'/>
            <return type-id='48b5725f'/>
          </function-decl>
        </member-function>
        <member-function access='public' vtable-offset='27'>
          <function-decl name='isObbMounted' mangled-name='_ZN7android13IMountService12isObbMountedERKNS_8String16E' filepath='frameworks/base/libs/storage/include/storage/IMountService.h' line='71' column='1' visibility='default' binding='global' size-in-bits='32' hash='0fb6ef930ab1581d'>
            <parameter type-id='9cb9149f' is-artificial='yes'/>
            <parameter type-id='157d4f95'/>
            <return type-id='c894953d'/>
          </function-decl>
        </member-function>
        <member-function access='public' vtable-offset='28'>
          <function-decl name='getMountedObbPath' mangled-name='_ZN7android13IMountService17getMountedObbPathERKNS_8String16ERS1_' filepath='frameworks/base/libs/storage/include/storage/IMountService.h' line='72' column='1' visibility='default' binding='global' size-in-bits='32' hash='a67a0af5b468a148'>
            <parameter type-id='9cb9149f' is-artificial='yes'/>
            <parameter type-id='157d4f95'/>
            <parameter type-id='22923b4c'/>
            <return type-id='c894953d'/>
          </function-decl>
        </member-function>
        <member-function access='public' vtable-offset='29'>
          <function-decl name='decryptStorage' mangled-name='_ZN7android13IMountService14decryptStorageERKNS_8String16E' filepath='frameworks/base/libs/storage/include/storage/IMountService.h' line='73' column='1' visibility='default' binding='global' size-in-bits='32' hash='401cc094f7d8ed35'>
            <parameter type-id='9cb9149f' is-artificial='yes'/>
            <parameter type-id='157d4f95'/>
            <return type-id='3ff5601b'/>
          </function-decl>
        </member-function>
        <member-function access='public' vtable-offset='30'>
          <function-decl name='encryptStorage' mangled-name='_ZN7android13IMountService14encryptStorageERKNS_8String16E' filepath='frameworks/base/libs/storage/include/storage/IMountService.h' line='74' column='1' visibility='default' binding='global' size-in-bits='32' hash='401cc094f7d8ed35'>
            <parameter type-id='9cb9149f' is-artificial='yes'/>
            <parameter type-id='157d4f95'/>
            <return type-id='3ff5601b'/>
          </function-decl>
        </member-function>
      </class-decl>
      <class-decl name='sp&lt;android::IMountServiceListener&gt;' visibility='default' size-in-bits='32' filepath='system/core/libutils/include/utils/StrongPointer.h' line='31' column='1' hash='6f6da2d4858c7c6d' id='a2aa88e3'>
        <data-member access='private' layout-offset-in-bits='0'>
          <var-decl name='m_ptr' type-id='d3c9a98f' visibility='default' filepath='system/core/libutils/include/utils/StrongPointer.h' line='90' column='1'/>
        </data-member>
      </class-decl>
      <class-decl name='sp&lt;android::IMountShutdownObserver&gt;' visibility='default' size-in-bits='32' filepath='system/core/libutils/include/utils/StrongPointer.h' line='31' column='1' hash='f118a44aadb5cbcb' id='3f075162'>
        <data-member access='private' layout-offset-in-bits='0'>
          <var-decl name='m_ptr' type-id='af0cbf96' visibility='default' filepath='system/core/libutils/include/utils/StrongPointer.h' line='90' column='1'/>
        </data-member>
      </class-decl>
      <class-decl name='BpRefBase' visibility='default' is-declaration-only='yes' id='df458ae6'/>
      <class-decl name='IBinder' visibility='default' is-declaration-only='yes' id='edff7cb3'/>
      <class-decl name='IInterface' visibility='default' is-declaration-only='yes' id='40b6343a'/>
      <class-decl name='IMountServiceListener' visibility='default' is-declaration-only='yes' id='748cb1b7'/>
      <class-decl name='IMountShutdownObserver' visibility='default' is-declaration-only='yes' id='60976dc0'/>
      <class-decl name='IObbActionListener' visibility='default' size-in-bits='96' filepath='frameworks/base/libs/storage/include/storage/IObbActionListener.h' line='27' column='1' hash='5d5dba6aaaf5eb66' id='f7c5ae1e'>
        <base-class access='public' layout-offset-in-bits='0' type-id='40b6343c'/>
        <data-member access='public' static='yes'>
          <var-decl name='descriptor' type-id='a3cec311' mangled-name='_ZN7android18IObbActionListener10descriptorE' visibility='default' filepath='frameworks/base/libs/storage/include/storage/IObbActionListener.h' line='30' column='1'/>
        </data-member>
        <data-member access='public' static='yes'>
          <var-decl name='default_impl' type-id='c722890a' mangled-name='_ZN7android18IObbActionListener12default_implE' visibility='default' filepath='frameworks/base/libs/storage/include/storage/IObbActionListener.h' line='30' column='1'/>
        </data-member>
        <member-function access='public' destructor='yes' vtable-offset='0'>
          <function-decl name='~IObbActionListener' filepath='frameworks/base/libs/storage/include/storage/IObbActionListener.h' line='30' column='1' visibility='default' binding='global' size-in-bits='32' hash='28f93d42079c2801'>
            <parameter type-id='c70198d4' is-artificial='yes'/>
            <return type-id='48b5725f'/>
          </function-decl>
        </member-function>
        <member-function access='public' destructor='yes' vtable-offset='0'>
          <function-decl name='~IObbActionListener' mangled-name='_ZN7android18IObbActionListenerD0Ev' filepath='frameworks/base/libs/storage/IObbActionListener.cpp' line='37' column='1' visibility='default' binding='global' size-in-bits='32' hash='28f93d42079c2801'>
            <parameter type-id='c70198d4' is-artificial='yes'/>
            <return type-id='48b5725f'/>
          </function-decl>
        </member-function>
        <member-function access='public' destructor='yes' vtable-offset='0'>
          <function-decl name='~IObbActionListener' mangled-name='_ZN7android18IObbActionListenerD1Ev' filepath='frameworks/base/libs/storage/IObbActionListener.cpp' line='37' column='1' visibility='default' binding='global' size-in-bits='32' hash='28f93d42079c2801'>
            <parameter type-id='c70198d4' is-artificial='yes'/>
            <return type-id='48b5725f'/>
          </function-decl>
        </member-function>
        <member-function access='public' destructor='yes' vtable-offset='0'>
          <function-decl name='~IObbActionListener' mangled-name='_ZN7android18IObbActionListenerD2Ev' filepath='frameworks/base/libs/storage/IObbActionListener.cpp' line='37' column='1' visibility='default' binding='global' size-in-bits='32' hash='d450a6b77a69de79'>
            <parameter type-id='c70198d4' is-artificial='yes'/>
            <parameter type-id='63e171df' is-artificial='yes'/>
            <return type-id='48b5725f'/>
          </function-decl>
        </member-function>
        <member-function access='public' const='yes' vtable-offset='3'>
          <function-decl name='getInterfaceDescriptor' mangled-name='_ZNK7android18IObbActionListener22getInterfaceDescriptorEv' filepath='frameworks/base/libs/storage/include/storage/IObbActionListener.h' line='30' column='1' visibility='default' binding='global' size-in-bits='32' hash='0f2942b388595d26'>
            <parameter type-id='32d2f295' is-artificial='yes'/>
            <return type-id='157d4f95'/>
          </function-decl>
        </member-function>
        <member-function access='public' vtable-offset='4'>
          <function-decl name='onObbResult' mangled-name='_ZN7android18IObbActionListener11onObbResultERKNS_8String16Eii' filepath='frameworks/base/libs/storage/include/storage/IObbActionListener.h' line='32' column='1' visibility='default' binding='global' size-in-bits='32' hash='1919c44d971cd13f'>
            <parameter type-id='c70198d4' is-artificial='yes'/>
            <parameter type-id='157d4f95'/>
            <parameter type-id='922df12b'/>
            <parameter type-id='922df12b'/>
            <return type-id='48b5725f'/>
          </function-decl>
        </member-function>
      </class-decl>
      <class-decl name='ObbInfo' visibility='default' size-in-bits='288' filepath='frameworks/base/libs/storage/include/storage/ObbInfo.h' line='27' column='1' hash='4ba9d79239cf87e2' id='65c10d3d'>
        <base-class access='public' layout-offset-in-bits='0' type-id='f8f7e309'/>
        <base-class access='public' layout-offset-in-bits='96' is-virtual='yes' type-id='12f619c0'/>
        <data-member access='private' layout-offset-in-bits='32'>
          <var-decl name='mFileName' type-id='a3cec311' visibility='default' filepath='frameworks/base/libs/storage/include/storage/ObbInfo.h' line='38' column='1'/>
        </data-member>
        <data-member access='private' layout-offset-in-bits='64'>
          <var-decl name='mPackageName' type-id='a3cec311' visibility='default' filepath='frameworks/base/libs/storage/include/storage/ObbInfo.h' line='39' column='1'/>
        </data-member>
        <data-member access='private' layout-offset-in-bits='96'>
          <var-decl name='mVersion' type-id='3ff5601b' visibility='default' filepath='frameworks/base/libs/storage/include/storage/ObbInfo.h' line='40' column='1'/>
        </data-member>
        <data-member access='private' layout-offset-in-bits='128'>
          <var-decl name='mFlags' type-id='3ff5601b' visibility='default' filepath='frameworks/base/libs/storage/include/storage/ObbInfo.h' line='41' column='1'/>
        </data-member>
        <data-member access='private' layout-offset-in-bits='160'>
          <var-decl name='mSaltSize' type-id='b59d7dce' visibility='default' filepath='frameworks/base/libs/storage/include/storage/ObbInfo.h' line='42' column='1'/>
        </data-member>
        <data-member access='private' layout-offset-in-bits='192'>
          <var-decl name='mSalt' type-id='9f7200cf' visibility='default' filepath='frameworks/base/libs/storage/include/storage/ObbInfo.h' line='43' column='1'/>
        </data-member>
        <member-function access='public' destructor='yes' vtable-offset='0'>
          <function-decl name='~ObbInfo' filepath='frameworks/base/libs/storage/include/storage/ObbInfo.h' line='32' column='1' visibility='default' binding='global' size-in-bits='32' hash='28f93d42079c2801'>
            <parameter type-id='5a61729d' is-artificial='yes'/>
            <return type-id='48b5725f'/>
          </function-decl>
        </member-function>
        <member-function access='public' destructor='yes' vtable-offset='0'>
          <function-decl name='~ObbInfo' mangled-name='_ZN7android7ObbInfoD0Ev' filepath='frameworks/base/libs/storage/ObbInfo.cpp' line='30' column='1' visibility='default' binding='global' size-in-bits='32' hash='28f93d42079c2801'>
            <parameter type-id='5a61729d' is-artificial='yes'/>
            <return type-id='48b5725f'/>
          </function-decl>
        </member-function>
        <member-function access='public' destructor='yes' vtable-offset='0'>
          <function-decl name='~ObbInfo' mangled-name='_ZN7android7ObbInfoD1Ev' filepath='frameworks/base/libs/storage/ObbInfo.cpp' line='30' column='1' visibility='default' binding='global' size-in-bits='32' hash='28f93d42079c2801'>
            <parameter type-id='5a61729d' is-artificial='yes'/>
            <return type-id='48b5725f'/>
          </function-decl>
        </member-function>
        <member-function access='public' destructor='yes' vtable-offset='0'>
          <function-decl name='~ObbInfo' mangled-name='_ZN7android7ObbInfoD2Ev' filepath='frameworks/base/libs/storage/ObbInfo.cpp' line='30' column='1' visibility='default' binding='global' size-in-bits='32' hash='d450a6b77a69de79'>
            <parameter type-id='5a61729d' is-artificial='yes'/>
            <parameter type-id='63e171df' is-artificial='yes'/>
            <return type-id='48b5725f'/>
          </function-decl>
        </member-function>
        <member-function access='public' const='yes' vtable-offset='2'>
          <function-decl name='writeToParcel' mangled-name='_ZNK7android7ObbInfo13writeToParcelEPNS_6ParcelE' filepath='frameworks/base/libs/storage/include/storage/ObbInfo.h' line='34' column='1' visibility='default' binding='global' size-in-bits='32' hash='a1f93a033e1719c7'>
            <parameter type-id='a5f3e61a' is-artificial='yes'/>
            <parameter type-id='1a1ddb91'/>
            <return type-id='6e9756f6'/>
          </function-decl>
        </member-function>
        <member-function access='public' vtable-offset='3'>
          <function-decl name='readFromParcel' mangled-name='_ZN7android7ObbInfo14readFromParcelEPKNS_6ParcelE' filepath='frameworks/base/libs/storage/include/storage/ObbInfo.h' line='35' column='1' visibility='default' binding='global' size-in-bits='32' hash='f31d8124ce96fd87'>
            <parameter type-id='5a61729d' is-artificial='yes'/>
            <parameter type-id='79927164'/>
            <return type-id='6e9756f6'/>
          </function-decl>
        </member-function>
      </class-decl>
      <typedef-decl name='status_t' type-id='3ff5601b' size-in-bits='32' filepath='system/core/libutils/include/utils/Errors.h' line='30' column='1' hash='09d17c08f594edc7' id='6e9756f6'/>
    </namespace-decl>
    <namespace-decl name='std'>
      <namespace-decl name='__1'>
        <class-decl name='__compressed_pair&lt;android::IMountService *, std::__1::default_delete&lt;android::IMountService&gt; &gt;' visibility='default' size-in-bits='32' filepath='external/libcxx/include/memory' line='2211' column='1' hash='de9f1a901e504e0b' id='452328e6'>
          <base-class access='private' layout-offset-in-bits='0' type-id='5ddaf272'/>
          <base-class access='private' layout-offset-in-bits='0' type-id='a1aaab37'/>
        </class-decl>
        <class-decl name='unique_ptr&lt;android::IMountService, std::__1::default_delete&lt;android::IMountService&gt; &gt;' visibility='default' size-in-bits='32' filepath='external/libcxx/include/memory' line='2401' column='1' hash='5b4763caaf71184f' id='34e3553c'>
          <member-type access='private'>
            <typedef-decl name='deleter_type' type-id='e4c905b6' size-in-bits='8' filepath='external/libcxx/include/memory' line='2404' column='1' id='1bb55f07'/>
          </member-type>
          <member-type access='private'>
            <typedef-decl name='pointer' type-id='91be3de9' size-in-bits='32' filepath='external/libcxx/include/memory' line='2405' column='1' hash='3ebd063f5b71295b' id='e9157ebc'/>
          </member-type>
          <data-member access='private' layout-offset-in-bits='0'>
            <var-decl name='__ptr_' type-id='452328e6' visibility='default' filepath='external/libcxx/include/memory' line='2411' column='1'/>
          </data-member>
        </class-decl>
        <class-decl name='__add_lvalue_reference_impl&lt;android::IMountService, true&gt;' is-struct='yes' visibility='default' size-in-bits='8' filepath='external/libcxx/include/type_traits' line='1125' column='1' hash='3f1557fe4c084f1b' id='0503b309'>
          <member-type access='public'>
            <typedef-decl name='type' type-id='a0b91aeb' size-in-bits='32' filepath='external/libcxx/include/type_traits' line='1125' column='1' hash='258d2074e124a969' id='bb677b9a'/>
          </member-type>
        </class-decl>
        <class-decl name='__compressed_pair_elem&lt;android::IMountService *, 0, false&gt;' is-struct='yes' visibility='default' size-in-bits='32' filepath='external/libcxx/include/memory' line='2134' column='1' hash='e363e79e1719320b' id='5ddaf272'>
          <member-type access='public'>
            <typedef-decl name='const_reference' type-id='ee2819be' size-in-bits='32' filepath='external/libcxx/include/memory' line='2137' column='1' hash='ca456591de8504db' id='552e1b00'/>
          </member-type>
          <member-type access='public'>
            <typedef-decl name='reference' type-id='705b9f3b' size-in-bits='32' filepath='external/libcxx/include/memory' line='2136' column='1' hash='51eb83f4246c22a9' id='935477b0'/>
          </member-type>
          <data-member access='private' layout-offset-in-bits='0'>
            <var-decl name='__value_' type-id='9cb9149f' visibility='default' filepath='external/libcxx/include/memory' line='2168' column='1'/>
          </data-member>
        </class-decl>
        <class-decl name='__compressed_pair_elem&lt;std::__1::default_delete&lt;android::IMountService&gt;, 1, true&gt;' is-struct='yes' visibility='default' size-in-bits='8' filepath='external/libcxx/include/memory' line='2172' column='1' hash='dd79f393eabf2d7e' id='a1aaab37'>
          <base-class access='private' layout-offset-in-bits='0' type-id='e4c905b6'/>
          <member-type access='public'>
            <typedef-decl name='const_reference' type-id='c873bbbf' size-in-bits='32' filepath='external/libcxx/include/memory' line='2175' column='1' hash='a308725e4652f8e6' id='71d0c941'/>
          </member-type>
          <member-type access='public'>
            <typedef-decl name='reference' type-id='55daf9c8' size-in-bits='32' filepath='external/libcxx/include/memory' line='2174' column='1' hash='260eb3c792812fa8' id='01ed4df5'/>
          </member-type>
        </class-decl>
        <class-decl name='__pointer_type&lt;android::IMountService, std::__1::default_delete&lt;android::IMountService&gt; &gt;' is-struct='yes' visibility='default' size-in-bits='8' filepath='external/libcxx/include/memory' line='1029' column='1' hash='3c5b14a2312a73a8' id='5c33a3c6'>
          <member-type access='public'>
            <typedef-decl name='type' type-id='782ab327' size-in-bits='32' filepath='external/libcxx/include/memory' line='1031' column='1' hash='3ebd063f5b71295b' id='91be3de9'/>
          </member-type>
        </class-decl>
        <class-decl name='add_lvalue_reference&lt;android::IMountService&gt;' is-struct='yes' visibility='default' size-in-bits='8' filepath='external/libcxx/include/type_traits' line='1127' column='1' hash='8fce4bb9a2049fb9' id='12435004'>
          <member-type access='public'>
            <typedef-decl name='type' type-id='bb677b9a' size-in-bits='32' filepath='external/libcxx/include/type_traits' line='1128' column='1' hash='258d2074e124a969' id='0f9f0681'/>
          </member-type>
        </class-decl>
        <class-decl name='default_delete&lt;android::IMountService&gt;' is-struct='yes' visibility='default' size-in-bits='8' filepath='external/libcxx/include/memory' line='2320' column='1' hash='e6cad6dae09d3405' id='e4c905b6'/>
        <class-decl name='basic_string&lt;char, std::__1::char_traits&lt;char&gt;, std::__1::allocator&lt;char&gt; &gt;' visibility='default' is-declaration-only='yes' id='27619c1c'/>
        <namespace-decl name='__pointer_type_imp'>
          <class-decl name='__pointer_type&lt;android::IMountService, std::__1::default_delete&lt;android::IMountService&gt;, false&gt;' is-struct='yes' visibility='default' size-in-bits='8' filepath='external/libcxx/include/memory' line='1021' column='1' hash='8b249a4b1cf84f73' id='a5b82b2c'>
            <member-type access='public'>
              <typedef-decl name='type' type-id='9cb9149f' size-in-bits='32' filepath='external/libcxx/include/memory' line='1023' column='1' hash='3ebd063f5b71295b' id='782ab327'/>
            </member-type>
          </class-decl>
        </namespace-decl>
        <typedef-decl name='string' type-id='27619c1c' filepath='external/libcxx/include/iosfwd' line='211' column='1' id='2e84cb7b'/>
      </namespace-decl>
    </namespace-decl>
    <class-decl name='__sFILE' is-struct='yes' visibility='default' is-declaration-only='yes' id='8d7b2c1e'/>
    <typedef-decl name='wctrans_t' type-id='eaa32e2f' filepath='bionic/libc/include/bits/wctype.h' line='60' column='1' id='183c72c3'/>
    <function-decl name='malloc' filepath='bionic/libc/include/malloc.h' line='43' column='1' visibility='default' binding='global' size-in-bits='32' hash='9d519c215ecaff9e'>
      <parameter type-id='b59d7dce'/>
      <return type-id='eaa32e2f'/>
    </function-decl>
    <function-decl name='realloc' filepath='bionic/libc/include/malloc.h' line='61' column='1' visibility='default' binding='global' size-in-bits='32' hash='9d519c215ecaff9e'>
      <parameter type-id='eaa32e2f'/>
      <parameter type-id='b59d7dce'/>
      <return type-id='eaa32e2f'/>
    </function-decl>
    <function-decl name='free' filepath='bionic/libc/include/malloc.h' line='79' column='1' visibility='default' binding='global' size-in-bits='32' hash='28f93d42079c2801'>
      <parameter type-id='eaa32e2f'/>
      <return type-id='48b5725f'/>
    </function-decl>
    <typedef-decl name='FILE' type-id='8d7b2c1e' filepath='bionic/libc/include/stdio.h' line='59' column='1' id='aa12d1ba'/>
    <function-decl name='abort' filepath='bionic/libc/include/stdlib.h' line='44' column='1' visibility='default' binding='global' size-in-bits='32' hash='28f93d42079c2801'>
      <return type-id='48b5725f'/>
    </function-decl>
    <function-decl name='strtol' filepath='bionic/libc/include/stdlib.h' line='75' column='1' visibility='default' binding='global' size-in-bits='32' hash='1d7d2becbf03bd8b'>
      <parameter type-id='80f4b756'/>
      <parameter type-id='9b23c9ad'/>
      <parameter type-id='95e97e5e'/>
      <return type-id='95e97e5f'/>
    </function-decl>
    <function-decl name='strtod' filepath='bionic/libc/include/stdlib.h' line='84' column='1' visibility='default' binding='global' size-in-bits='32' hash='72e5c33de920fe38'>
      <parameter type-id='80f4b756'/>
      <parameter type-id='9b23c9ad'/>
      <return type-id='a0eb0f08'/>
    </function-decl>
    <function-decl name='strtold' mangled-name='strtod' filepath='bionic/libc/include/stdlib.h' line='85' column='1' visibility='default' binding='global' size-in-bits='32' hash='9b6bc90e0bc98a46'>
      <parameter type-id='80f4b756'/>
      <parameter type-id='9b23c9ad'/>
      <return type-id='a0eb0f09'/>
    </function-decl>
    <function-decl name='strerror' filepath='bionic/libc/include/string.h' line='94' column='1' visibility='default' binding='global' size-in-bits='32' hash='e8cfd5aa2f1a6baa'>
      <parameter type-id='95e97e5e'/>
      <return type-id='26a90f95'/>
    </function-decl>
    <function-type size-in-bits='32' hash='28f93d42079c2801' id='30a82da4'>
      <return type-id='48b5725f'/>
    </function-type>
    <function-type method-class-id='65c10d3d' const='yes' size-in-bits='32' hash='a1f93a033e1719c7' id='7800ddc3'>
      <parameter type-id='a5f3e61a' is-artificial='yes'/>
      <parameter type-id='1a1ddb91'/>
      <return type-id='6e9756f6'/>
    </function-type>
    <function-type method-class-id='65c10d3d' size-in-bits='32' hash='f31d8124ce96fd87' id='ec772de4'>
      <parameter type-id='5a61729d' is-artificial='yes'/>
      <parameter type-id='79927164'/>
      <return type-id='6e9756f6'/>
    </function-type>
    <function-type method-class-id='bf075117' size-in-bits='32' hash='78f6a3cdaf3f98f3' id='4da81c6e'>
      <parameter type-id='9cb9149f' is-artificial='yes'/>
      <return type-id='c894953d'/>
    </function-type>
    <function-type method-class-id='bf075117' size-in-bits='32' hash='0fb6ef930ab1581d' id='3a429a52'>
      <parameter type-id='9cb9149f' is-artificial='yes'/>
      <parameter type-id='157d4f95'/>
      <return type-id='c894953d'/>
    </function-type>
    <function-type method-class-id='bf075117' size-in-bits='32' hash='a67a0af5b468a148' id='79e48c45'>
      <parameter type-id='9cb9149f' is-artificial='yes'/>
      <parameter type-id='157d4f95'/>
      <parameter type-id='22923b4c'/>
      <return type-id='c894953d'/>
    </function-type>
    <function-type method-class-id='bf075117' const='yes' size-in-bits='32' hash='0f2942b388595d26' id='98de5d56'>
      <parameter type-id='e4896a10' is-artificial='yes'/>
      <return type-id='157d4f95'/>
    </function-type>
    <function-type method-class-id='f7c5ae1e' const='yes' size-in-bits='32' hash='0f2942b388595d26' id='3002cd03'>
      <parameter type-id='32d2f295' is-artificial='yes'/>
      <return type-id='157d4f95'/>
    </function-type>
    <function-type method-class-id='bf075117' size-in-bits='32' hash='401cc094f7d8ed35' id='8fcdba47'>
      <parameter type-id='9cb9149f' is-artificial='yes'/>
      <parameter type-id='157d4f95'/>
      <return type-id='3ff5601b'/>
    </function-type>
    <function-type method-class-id='bf075117' size-in-bits='32' hash='3b2892980509d689' id='9147daf8'>
      <parameter type-id='9cb9149f' is-artificial='yes'/>
      <parameter type-id='157d4f95'/>
      <parameter type-id='763d7e1a'/>
      <return type-id='3ff5601b'/>
    </function-type>
    <function-type method-class-id='bf075117' size-in-bits='32' hash='62d55fb1ee036e3c' id='3f99935b'>
      <parameter type-id='9cb9149f' is-artificial='yes'/>
      <parameter type-id='157d4f95'/>
      <parameter type-id='157d4f95'/>
      <return type-id='3ff5601b'/>
    </function-type>
    <function-type method-class-id='bf075117' size-in-bits='32' hash='8c3ecc0de8623f46' id='dcb51357'>
      <parameter type-id='9cb9149f' is-artificial='yes'/>
      <parameter type-id='157d4f95'/>
      <parameter type-id='157d4f95'/>
      <parameter type-id='922df12b'/>
      <return type-id='3ff5601b'/>
    </function-type>
    <function-type method-class-id='bf075117' size-in-bits='32' hash='9f208319cc45b066' id='acf1e218'>
      <parameter type-id='9cb9149f' is-artificial='yes'/>
      <parameter type-id='157d4f95'/>
      <parameter type-id='4ab96a04'/>
      <return type-id='3ff5601b'/>
    </function-type>
    <function-type method-class-id='bf075117' size-in-bits='32' hash='e226098566fe87fd' id='c9d3f127'>
      <parameter type-id='9cb9149f' is-artificial='yes'/>
      <parameter type-id='157d4f95'/>
      <parameter type-id='4ab96a04'/>
      <parameter type-id='4ab96a04'/>
      <return type-id='3ff5601b'/>
    </function-type>
    <function-type method-class-id='bf075117' size-in-bits='32' hash='1640f5b4c846088d' id='ec037fd7'>
      <parameter type-id='9cb9149f' is-artificial='yes'/>
      <parameter type-id='157d4f95'/>
      <parameter type-id='922df12b'/>
      <parameter type-id='157d4f95'/>
      <parameter type-id='157d4f95'/>
      <parameter type-id='922df12b'/>
      <return type-id='3ff5601b'/>
    </function-type>
    <function-type method-class-id='bf075117' size-in-bits='32' hash='c0aeb1b798922da1' id='a1591e12'>
      <parameter type-id='9cb9149f' is-artificial='yes'/>
      <parameter type-id='157d4f95'/>
      <parameter type-id='9aa04798'/>
      <return type-id='3ff5601b'/>
    </function-type>
    <function-type method-class-id='c73fabea' const='yes' size-in-bits='32' hash='9d519c215ecaff9e' id='6fad5765'>
      <parameter type-id='197d55e1' is-artificial='yes'/>
      <return type-id='b59d7dce'/>
    </function-type>
    <function-type method-class-id='bf075117' size-in-bits='32' hash='28f93d42079c2801' id='735b9074'>
      <parameter type-id='9cb9149f' is-artificial='yes'/>
      <return type-id='48b5725f'/>
    </function-type>
    <function-type method-class-id='bf075117' size-in-bits='32' hash='7f673cf9a12b7977' id='7392516d'>
      <parameter type-id='9cb9149f' is-artificial='yes'/>
      <parameter type-id='157d4f95'/>
      <parameter type-id='157d4f95'/>
      <parameter type-id='157d4f95'/>
      <parameter type-id='990ef79d'/>
      <parameter type-id='922df12b'/>
      <parameter type-id='0c3db078'/>
      <return type-id='48b5725f'/>
    </function-type>
    <function-type method-class-id='bf075117' size-in-bits='32' hash='ebbfb0d88bd24f74' id='e38eb461'>
      <parameter type-id='9cb9149f' is-artificial='yes'/>
      <parameter type-id='157d4f95'/>
      <parameter type-id='4ab96a04'/>
      <parameter type-id='990ef79d'/>
      <parameter type-id='922df12b'/>
      <return type-id='48b5725f'/>
    </function-type>
    <function-type method-class-id='bf075117' size-in-bits='32' hash='033988c26c3eacc1' id='70de3849'>
      <parameter type-id='9cb9149f' is-artificial='yes'/>
      <parameter type-id='7743ab4a'/>
      <return type-id='48b5725f'/>
    </function-type>
    <function-type method-class-id='bf075117' size-in-bits='32' hash='bfc622881c5696ee' id='b45faa62'>
      <parameter type-id='9cb9149f' is-artificial='yes'/>
      <parameter type-id='5f8c324f'/>
      <return type-id='48b5725f'/>
    </function-type>
    <function-type method-class-id='bf075117' size-in-bits='32' hash='839073eeb99b5999' id='1c886047'>
      <parameter type-id='9cb9149f' is-artificial='yes'/>
      <parameter type-id='4ab96a04'/>
      <return type-id='48b5725f'/>
    </function-type>
    <function-type method-class-id='bf075117' size-in-bits='32' hash='d450a6b77a69de79' id='9954ec52'>
      <parameter type-id='9cb9149f' is-artificial='yes'/>
      <parameter type-id='63e171df' is-artificial='yes'/>
      <return type-id='48b5725f'/>
    </function-type>
    <function-type method-class-id='f7c5ae1e' size-in-bits='32' hash='28f93d42079c2801' id='facc63b9'>
      <parameter type-id='c70198d4' is-artificial='yes'/>
      <return type-id='48b5725f'/>
    </function-type>
    <function-type method-class-id='f7c5ae1e' size-in-bits='32' hash='1919c44d971cd13f' id='58e4150d'>
      <parameter type-id='c70198d4' is-artificial='yes'/>
      <parameter type-id='157d4f95'/>
      <parameter type-id='922df12b'/>
      <parameter type-id='922df12b'/>
      <return type-id='48b5725f'/>
    </function-type>
    <function-type method-class-id='f7c5ae1e' size-in-bits='32' hash='d450a6b77a69de79' id='f09ea7db'>
      <parameter type-id='c70198d4' is-artificial='yes'/>
      <parameter type-id='63e171df' is-artificial='yes'/>
      <return type-id='48b5725f'/>
    </function-type>
    <function-type method-class-id='65c10d3d' size-in-bits='32' hash='28f93d42079c2801' id='3cf3871e'>
      <parameter type-id='5a61729d' is-artificial='yes'/>
      <return type-id='48b5725f'/>
    </function-type>
    <function-type method-class-id='65c10d3d' size-in-bits='32' hash='d450a6b77a69de79' id='30b6456c'>
      <parameter type-id='5a61729d' is-artificial='yes'/>
      <parameter type-id='63e171df' is-artificial='yes'/>
      <return type-id='48b5725f'/>
    </function-type>
    <function-type method-class-id='c73fabea' size-in-bits='32' hash='0f2942b388595d26' id='ea5cd5f9'>
      <parameter type-id='26924198' is-artificial='yes'/>
      <parameter type-id='157d4f95'/>
      <return type-id='48b5725f'/>
    </function-type>
  </abi-instr>
  <abi-instr address-size='32' path='frameworks/base/libs/storage/IObbActionListener.cpp' language='LANG_C_plus_plus_14'>
    <array-type-def dimensions='1' type-id='801a266d' size-in-bits='608' hash='b33a7056eda8a26b' id='19b37a54'>
      <subrange length='38' lower-bound='0' upper-bound='37' type-id='7ff19f0f' size-in-bits='64' is-anonymous='yes' hash='7d1550c62dd1a20a' id='aa4ccdac'/>
    </array-type-def>
    <pointer-type-def type-id='b4c0d64f' size-in-bits='32' hash='9f776b62bfb415d1' id='36e31287'/>
    <pointer-type-def type-id='3224f91e' size-in-bits='32' hash='412c205e1b21aa4f' id='e09894a4'/>
    <pointer-type-def type-id='af342359' size-in-bits='32' hash='6c295af9877db9aa' id='e1c45961'/>
    <qualified-type-def type-id='c70198d4' const='yes' hash='9d708ab0837ff00d' id='a48c009f'/>
    <reference-type-def kind='lvalue' type-id='a48c009f' size-in-bits='32' hash='eecd5af27682fd09' id='c165233b'/>
    <reference-type-def kind='lvalue' type-id='c70198d4' size-in-bits='32' hash='90c85182015ca0ae' id='3983c4f6'/>
    <pointer-type-def type-id='6a14bf2f' size-in-bits='32' hash='fe1748048ae5fca5' id='6ec90c77'/>
    <qualified-type-def type-id='f7c5ae1e' const='yes' hash='56cb5d428fcff0df' id='79f4741d'/>
    <pointer-type-def type-id='79f4741d' size-in-bits='32' hash='5198745b0b180253' id='32d2f295'/>
    <qualified-type-def type-id='6a14bf2f' const='yes' hash='f36543eac6a60e8b' id='eae5dbc4'/>
    <reference-type-def kind='lvalue' type-id='eae5dbc4' size-in-bits='32' hash='0b15410a24e5d505' id='a9d924c6'/>
    <qualified-type-def type-id='9a8c82c0' const='yes' hash='377c43f1fdc74e01' id='589f2895'/>
    <pointer-type-def type-id='589f2895' size-in-bits='32' hash='0d52d6af87494167' id='418d24ad'/>
    <qualified-type-def type-id='15f35f71' const='yes' hash='626f4b61ea445fec' id='5d62d332'/>
    <pointer-type-def type-id='5d62d332' size-in-bits='32' hash='68b0c30771818976' id='1a924ec8'/>
    <qualified-type-def type-id='17e76a52' const='yes' hash='9566b08343695f00' id='91a7fe13'/>
    <pointer-type-def type-id='91a7fe13' size-in-bits='32' hash='ba06fbe4cf9ac42e' id='847533bb'/>
    <qualified-type-def type-id='0de0b2fb' const='yes' hash='4c050a30bd7835e9' id='990dfc58'/>
    <reference-type-def kind='lvalue' type-id='990dfc58' size-in-bits='32' hash='ec947f151753314f' id='6f047a5a'/>
    <pointer-type-def type-id='990dfc58' size-in-bits='32' hash='657c7734c5467469' id='63046776'/>
    <qualified-type-def type-id='c722890a' const='yes' hash='50b9c5de7b922aa4' id='3e775081'/>
    <reference-type-def kind='lvalue' type-id='3e775081' size-in-bits='32' hash='29c0a97d164e7f9d' id='fcd3f6e5'/>
    <pointer-type-def type-id='3e775081' size-in-bits='32' hash='a3806b5319800cfc' id='00d3fd31'/>
    <qualified-type-def type-id='4337a511' const='yes' hash='e3dfcfb72e1ddcb2#6' id='fc5a3b89'/>
    <reference-type-def kind='lvalue' type-id='fc5a3b89' size-in-bits='32' hash='768b1e3ba2096387#6' id='f00bf2eb'/>
    <reference-type-def kind='lvalue' type-id='9a8c82c0' size-in-bits='32' hash='f9c1e3d0dda3f05a' id='83c15dea'/>
    <pointer-type-def type-id='9a8c82c0' size-in-bits='32' hash='4691a7739c6da1e2' id='77c14b06'/>
    <pointer-type-def type-id='15f35f71' size-in-bits='32' hash='2feb978547aba747' id='10cb6749'/>
    <pointer-type-def type-id='17e76a52' size-in-bits='32' hash='417d2534a8f7645e' id='1e283db0'/>
    <reference-type-def kind='lvalue' type-id='0de0b2fb' size-in-bits='32' hash='9ecc4938370e2590' id='b43a7bff'/>
    <pointer-type-def type-id='0de0b2fb' size-in-bits='32' hash='e86cd83adc9fbd2d' id='b83a824b'/>
    <reference-type-def kind='lvalue' type-id='c722890a' size-in-bits='32' hash='9cf0514ac2dbba6b' id='cfba356c'/>
    <reference-type-def kind='rvalue' type-id='c722890a' size-in-bits='32' hash='526590fe8f99b81c' id='4c21e37e'/>
    <pointer-type-def type-id='c722890a' size-in-bits='32' hash='b984387fdd261180' id='d3ba3bb8'/>
    <reference-type-def kind='lvalue' type-id='4337a511' size-in-bits='32' hash='9cc027997a70e9c1#6' id='ff242d42'/>
    <pointer-type-def type-id='aa12d1bb' size-in-bits='32' id='822cd80c'/>
    <pointer-type-def type-id='df458ae7' size-in-bits='32' id='621ed18d'/>
    <pointer-type-def type-id='edff7cb4' size-in-bits='32' id='b5a5bc14'/>
    <pointer-type-def type-id='40b6343b' size-in-bits='32' id='6d5a3b79'/>
    <pointer-type-def type-id='b5977877' size-in-bits='32' id='0657c1ff'/>
    <pointer-type-def type-id='a87dbeee' size-in-bits='32' id='ce9e5ae4'/>
    <pointer-type-def type-id='259563fa' size-in-bits='32' id='e7293458'/>
    <qualified-type-def type-id='783cc678' const='yes' id='44c384ef'/>
    <qualified-type-def type-id='8fc19046' const='yes' id='d452635d'/>
    <pointer-type-def type-id='d452635d' size-in-bits='32' id='b4b29455'/>
    <qualified-type-def type-id='63080be8' const='yes' id='75a1230f'/>
    <qualified-type-def type-id='dff69842' const='yes' id='5be53127'/>
    <qualified-type-def type-id='b04db2dd' const='yes' id='00633158'/>
    <qualified-type-def type-id='7bb1d8e1' const='yes' id='0e59eb20'/>
    <qualified-type-def type-id='606d2805' const='yes' id='cbdbf7d2'/>
    <qualified-type-def type-id='359485b5' const='yes' id='53334ee2'/>
    <qualified-type-def type-id='2a92430d' const='yes' id='b80399ca'/>
    <qualified-type-def type-id='23f2d06f' const='yes' id='dcc28adc'/>
    <qualified-type-def type-id='8c662fc5' const='yes' id='4db497f2'/>
    <qualified-type-def type-id='482d220b' const='yes' id='06ffb900'/>
    <qualified-type-def type-id='6ba1fceb' const='yes' id='eb2629cc'/>
    <qualified-type-def type-id='3f8702cf' const='yes' id='37aad5fa'/>
    <qualified-type-def type-id='560c92f7' const='yes' id='12d46c22'/>
    <qualified-type-def type-id='49eccd9d' const='yes' id='f53b94fe'/>
    <qualified-type-def type-id='a3295715' const='yes' id='d73e162a'/>
    <qualified-type-def type-id='2e84cb7c' const='yes' id='17a746bd'/>
    <qualified-type-def type-id='427e4b8a' const='yes' id='1dd04bd9'/>
    <qualified-type-def type-id='82a684ba' const='yes' id='03a9204f'/>
    <qualified-type-def type-id='b54229ce' const='yes' id='e1f2fe13'/>
    <qualified-type-def type-id='ff70dc94' const='yes' id='c508b1b1'/>
    <qualified-type-def type-id='0e839744' const='yes' id='95bfe8d1'/>
    <qualified-type-def type-id='cdd69b5c' const='yes' id='fbb12461'/>
    <qualified-type-def type-id='b9fa8f40' const='yes' id='2533de45'/>
    <qualified-type-def type-id='5417a89c' const='yes' id='8fa83ea9'/>
    <qualified-type-def type-id='2f680da0' const='yes' id='224503c5'/>
    <qualified-type-def type-id='9360eadc' const='yes' id='3e9fa921'/>
    <qualified-type-def type-id='a3eca172' const='yes' id='4f54b247'/>
    <qualified-type-def type-id='444756ca' const='yes' id='4729bdff'/>
    <qualified-type-def type-id='9c9ad7b0' const='yes' id='14d1d5fd'/>
    <qualified-type-def type-id='cab02d1c' const='yes' id='99b40a09'/>
    <qualified-type-def type-id='d5fd3ca7' const='yes' id='8dba978e'/>
    <qualified-type-def type-id='4de8320f' const='yes' id='de6e0290'/>
    <qualified-type-def type-id='45e7b03b' const='yes' id='1733cb18'/>
    <qualified-type-def type-id='aa688d0f' const='yes' id='14b1b7ea'/>
    <qualified-type-def type-id='8e24268f' const='yes' id='3e60ea5a'/>
    <qualified-type-def type-id='9f0bbb87' const='yes' id='330d96aa'/>
    <qualified-type-def type-id='255041c5' const='yes' id='5ae3c360'/>
    <qualified-type-def type-id='3c4ae4e9' const='yes' id='e0150e18'/>
    <qualified-type-def type-id='46767cd5' const='yes' id='d8498116'/>
    <namespace-decl name='android'>
      <class-decl name='BnObbActionListener' visibility='default' size-in-bits='192' filepath='frameworks/base/libs/storage/include/storage/IObbActionListener.h' line='37' column='1' hash='66f8a8b821475227' id='b4c0d64f'>
        <base-class access='public' layout-offset-in-bits='0' type-id='2144ef38'/>
        <member-function access='public' vtable-offset='6'>
          <function-decl name='onTransact' mangled-name='_ZN7android19BnObbActionListener10onTransactEjRKNS_6ParcelEPS1_j' filepath='frameworks/base/libs/storage/include/storage/IObbActionListener.h' line='40' column='1' visibility='default' binding='global' size-in-bits='32' hash='c0cdb3c6fb0414b3'>
            <parameter type-id='36e31287' is-artificial='yes'/>
            <parameter type-id='8f92235e'/>
            <parameter type-id='6d925e80'/>
            <parameter type-id='1a1ddb91'/>
            <parameter type-id='8f92235e'/>
            <return type-id='6e9756f6'/>
          </function-decl>
        </member-function>
      </class-decl>
      <class-decl name='BpInterface&lt;android::IObbActionListener&gt;' visibility='default' size-in-bits='224' filepath='frameworks/native/libs/binder/include/binder/IInterface.h' line='86' column='1' hash='22acd28f0b262223' id='3224f91e'>
        <base-class access='public' layout-offset-in-bits='0' type-id='f7c5ae1e'/>
        <base-class access='public' layout-offset-in-bits='32' type-id='df458ae7'/>
        <member-function access='protected' vtable-offset='2'>
          <function-decl name='onAsBinder' mangled-name='_ZN7android11BpInterfaceINS_18IObbActionListenerEE10onAsBinderEv' filepath='frameworks/native/libs/binder/include/binder/IInterface.h' line='93' column='1' visibility='default' binding='global' size-in-bits='32' hash='28f93d42079c2801'>
            <parameter type-id='e09894a4' is-artificial='yes'/>
            <return type-id='b5a5bc14'/>
          </function-decl>
        </member-function>
      </class-decl>
      <class-decl name='BpObbActionListener' visibility='default' size-in-bits='224' filepath='frameworks/base/libs/storage/IObbActionListener.cpp' line='27' column='1' hash='00db99e20a8370c8' id='af342359'>
        <base-class access='public' layout-offset-in-bits='0' type-id='3224f91e'/>
        <member-function access='public' vtable-offset='4'>
          <function-decl name='onObbResult' mangled-name='_ZN7android19BpObbActionListener11onObbResultERKNS_8String16Eii' filepath='frameworks/base/libs/storage/IObbActionListener.cpp' line='33' column='1' visibility='default' binding='global' size-in-bits='32' hash='1919c44d971cd13f'>
            <parameter type-id='e1c45961' is-artificial='yes'/>
            <parameter type-id='157d4f95'/>
            <parameter type-id='922df12b'/>
            <parameter type-id='922df12b'/>
            <return type-id='48b5725f'/>
          </function-decl>
        </member-function>
      </class-decl>
      <class-decl name='BpRefBase' visibility='default' is-declaration-only='yes' id='df458ae7'/>
      <class-decl name='IBinder' visibility='default' is-declaration-only='yes' id='edff7cb4'/>
      <class-decl name='IInterface' visibility='default' is-declaration-only='yes' id='40b6343b'/>
      <class-decl name='IPCThreadState' visibility='default' is-declaration-only='yes' id='b5977877'/>
      <class-decl name='Parcelable' visibility='default' size-in-bits='32' filepath='frameworks/native/libs/binder/include/binder/Parcelable.h' line='35' column='1' hash='eae88e16f65c374b' id='f8f7e309'>
        <member-function access='public' destructor='yes' vtable-offset='0'>
          <function-decl name='~Parcelable' filepath='frameworks/native/libs/binder/include/binder/Parcelable.h' line='37' column='1' visibility='default' binding='global' size-in-bits='32' hash='28f93d42079c2801'>
            <parameter type-id='f7891b51' is-artificial='yes'/>
            <return type-id='48b5725f'/>
          </function-decl>
        </member-function>
        <member-function access='public' destructor='yes' vtable-offset='0'>
          <function-decl name='~Parcelable' mangled-name='_ZN7android10ParcelableD0Ev' filepath='frameworks/native/libs/binder/include/binder/Parcelable.h' line='37' column='1' visibility='default' binding='global' size-in-bits='32' hash='28f93d42079c2801'>
            <parameter type-id='f7891b51' is-artificial='yes'/>
            <return type-id='48b5725f'/>
          </function-decl>
        </member-function>
        <member-function access='public' destructor='yes' vtable-offset='0'>
          <function-decl name='~Parcelable' mangled-name='_ZN7android10ParcelableD2Ev' filepath='frameworks/native/libs/binder/include/binder/Parcelable.h' line='37' column='1' visibility='default' binding='global' size-in-bits='32' hash='28f93d42079c2801'>
            <parameter type-id='f7891b51' is-artificial='yes'/>
            <return type-id='48b5725f'/>
          </function-decl>
        </member-function>
        <member-function access='public' const='yes' vtable-offset='2'>
          <function-decl name='writeToParcel' mangled-name='_ZNK7android10Parcelable13writeToParcelEPNS_6ParcelE' filepath='frameworks/native/libs/binder/include/binder/Parcelable.h' line='47' column='1' visibility='default' binding='global' size-in-bits='32' hash='a1f93a033e1719c7'>
            <parameter type-id='6a9db9a0' is-artificial='yes'/>
            <parameter type-id='1a1ddb91'/>
            <return type-id='6e9756f6'/>
          </function-decl>
        </member-function>
        <member-function access='public' vtable-offset='3'>
          <function-decl name='readFromParcel' mangled-name='_ZN7android10Parcelable14readFromParcelEPKNS_6ParcelE' filepath='frameworks/native/libs/binder/include/binder/Parcelable.h' line='54' column='1' visibility='default' binding='global' size-in-bits='32' hash='f31d8124ce96fd87'>
            <parameter type-id='f7891b51' is-artificial='yes'/>
            <parameter type-id='79927164'/>
            <return type-id='6e9756f6'/>
          </function-decl>
        </member-function>
        <member-function access='public' const='yes' vtable-offset='4'>
          <function-decl name='isStable' mangled-name='_ZNK7android10Parcelable8isStableEv' filepath='frameworks/native/libs/binder/include/binder/Parcelable.h' line='60' column='1' visibility='default' binding='global' size-in-bits='32' hash='78f6a3cdaf3f98f3'>
            <parameter type-id='6a9db9a0' is-artificial='yes'/>
            <return type-id='c894953d'/>
          </function-decl>
        </member-function>
      </class-decl>
      <class-decl name='TextOutput' visibility='default' is-declaration-only='yes' id='32215dca'/>
      <namespace-decl name='base'>
        <typedef-decl name='unique_fd' type-id='bd6f4e31' size-in-bits='32' filepath='system/libbase/include/android-base/unique_fd.h' line='178' column='1' id='ca770154'/>
      </namespace-decl>
      <class-decl name='flat_binder_object' is-struct='yes' visibility='default' is-declaration-only='yes' id='8fc19046'/>
    </namespace-decl>
    <namespace-decl name='std'>
      <namespace-decl name='__1'>
        <class-decl name='__compressed_pair&lt;android::IObbActionListener *, std::__1::default_delete&lt;android::IObbActionListener&gt; &gt;' visibility='default' size-in-bits='32' filepath='external/libcxx/include/memory' line='2211' column='1' hash='77e60eab77d2f8ab' id='9a8c82c0'>
          <base-class access='private' layout-offset-in-bits='0' type-id='15f35f71'/>
          <base-class access='private' layout-offset-in-bits='0' type-id='17e76a52'/>
        </class-decl>
        <class-decl name='unique_ptr&lt;android::IObbActionListener, std::__1::default_delete&lt;android::IObbActionListener&gt; &gt;' visibility='default' size-in-bits='32' filepath='external/libcxx/include/memory' line='2401' column='1' hash='01dd7a25e6f404ab' id='c722890a'>
          <member-type access='private'>
            <typedef-decl name='deleter_type' type-id='0de0b2fb' size-in-bits='8' filepath='external/libcxx/include/memory' line='2404' column='1' id='4337a511'/>
          </member-type>
          <member-type access='private'>
            <typedef-decl name='pointer' type-id='3ac420f3' size-in-bits='32' filepath='external/libcxx/include/memory' line='2405' column='1' hash='88d73b1acd44a67f' id='670db6be'/>
          </member-type>
          <data-member access='private' layout-offset-in-bits='0'>
            <var-decl name='__ptr_' type-id='9a8c82c0' visibility='default' filepath='external/libcxx/include/memory' line='2411' column='1'/>
          </data-member>
        </class-decl>
        <class-decl name='__add_lvalue_reference_impl&lt;android::IObbActionListener, true&gt;' is-struct='yes' visibility='default' size-in-bits='8' filepath='external/libcxx/include/type_traits' line='1125' column='1' hash='0923826da3ef0df1' id='9ce38486'>
          <member-type access='public'>
            <typedef-decl name='type' type-id='bb0185f0' size-in-bits='32' filepath='external/libcxx/include/type_traits' line='1125' column='1' hash='1267d3592ce73b17' id='608b97af'/>
          </member-type>
        </class-decl>
        <class-decl name='__compressed_pair_elem&lt;android::IObbActionListener *, 0, false&gt;' is-struct='yes' visibility='default' size-in-bits='32' filepath='external/libcxx/include/memory' line='2134' column='1' hash='f359093e77e5207a' id='15f35f71'>
          <member-type access='public'>
            <typedef-decl name='const_reference' type-id='c165233b' size-in-bits='32' filepath='external/libcxx/include/memory' line='2137' column='1' hash='eecd5af27682fd09' id='6df490d3'/>
          </member-type>
          <member-type access='public'>
            <typedef-decl name='reference' type-id='3983c4f6' size-in-bits='32' filepath='external/libcxx/include/memory' line='2136' column='1' hash='90c85182015ca0ae' id='43aaeec3'/>
          </member-type>
          <data-member access='private' layout-offset-in-bits='0'>
            <var-decl name='__value_' type-id='c70198d4' visibility='default' filepath='external/libcxx/include/memory' line='2168' column='1'/>
          </data-member>
        </class-decl>
        <class-decl name='__compressed_pair_elem&lt;std::__1::default_delete&lt;android::IObbActionListener&gt;, 1, true&gt;' is-struct='yes' visibility='default' size-in-bits='8' filepath='external/libcxx/include/memory' line='2172' column='1' hash='396afa6904d9fe2f' id='17e76a52'>
          <base-class access='private' layout-offset-in-bits='0' type-id='0de0b2fb'/>
          <member-type access='public'>
            <typedef-decl name='const_reference' type-id='6f047a5a' size-in-bits='32' filepath='external/libcxx/include/memory' line='2175' column='1' hash='ec947f151753314f' id='d750daf8'/>
          </member-type>
          <member-type access='public'>
            <typedef-decl name='reference' type-id='b43a7bff' size-in-bits='32' filepath='external/libcxx/include/memory' line='2174' column='1' hash='9ecc4938370e2590' id='f7172ed8'/>
          </member-type>
        </class-decl>
        <class-decl name='__pointer_type&lt;android::IObbActionListener, std::__1::default_delete&lt;android::IObbActionListener&gt; &gt;' is-struct='yes' visibility='default' size-in-bits='8' filepath='external/libcxx/include/memory' line='1029' column='1' hash='4b73f220fa48eec9' id='4ef6f3a4'>
          <member-type access='public'>
            <typedef-decl name='type' type-id='1e232805' size-in-bits='32' filepath='external/libcxx/include/memory' line='1031' column='1' hash='88d73b1acd44a67f' id='3ac420f3'/>
          </member-type>
        </class-decl>
        <class-decl name='add_lvalue_reference&lt;android::IObbActionListener&gt;' is-struct='yes' visibility='default' size-in-bits='8' filepath='external/libcxx/include/type_traits' line='1127' column='1' hash='740158bc83bf800a' id='12c60191'>
          <member-type access='public'>
            <typedef-decl name='type' type-id='608b97af' size-in-bits='32' filepath='external/libcxx/include/type_traits' line='1128' column='1' hash='1267d3592ce73b17' id='6f181d72'/>
          </member-type>
        </class-decl>
        <class-decl name='default_delete&lt;android::IObbActionListener&gt;' is-struct='yes' visibility='default' size-in-bits='8' filepath='external/libcxx/include/memory' line='2320' column='1' hash='f9ab39cc2403a9f6' id='0de0b2fb'/>
        <class-decl name='basic_string&lt;char, std::__1::char_traits&lt;char&gt;, std::__1::allocator&lt;char&gt; &gt;' visibility='default' is-declaration-only='yes' id='27619c1d'/>
        <class-decl name='optional&lt;android::String16&gt;' visibility='default' is-declaration-only='yes' id='63080be8'/>
        <class-decl name='optional&lt;std::__1::basic_string&lt;char, std::__1::char_traits&lt;char&gt;, std::__1::allocator&lt;char&gt; &gt; &gt;' visibility='default' is-declaration-only='yes' id='dff69842'/>
        <class-decl name='optional&lt;std::__1::vector&lt;android::base::unique_fd_impl&lt;android::base::DefaultCloser&gt;, std::__1::allocator&lt;android::base::unique_fd_impl&lt;android::base::DefaultCloser&gt; &gt; &gt; &gt;' visibility='default' is-declaration-only='yes' id='b04db2dd'/>
        <class-decl name='optional&lt;std::__1::vector&lt;android::sp&lt;android::IBinder&gt;, std::__1::allocator&lt;android::sp&lt;android::IBinder&gt; &gt; &gt; &gt;' visibility='default' is-declaration-only='yes' id='7bb1d8e1'/>
        <class-decl name='optional&lt;std::__1::vector&lt;bool, std::__1::allocator&lt;bool&gt; &gt; &gt;' visibility='default' is-declaration-only='yes' id='606d2805'/>
        <class-decl name='optional&lt;std::__1::vector&lt;char16_t, std::__1::allocator&lt;char16_t&gt; &gt; &gt;' visibility='default' is-declaration-only='yes' id='359485b5'/>
        <class-decl name='optional&lt;std::__1::vector&lt;double, std::__1::allocator&lt;double&gt; &gt; &gt;' visibility='default' is-declaration-only='yes' id='2a92430d'/>
        <class-decl name='optional&lt;std::__1::vector&lt;float, std::__1::allocator&lt;float&gt; &gt; &gt;' visibility='default' is-declaration-only='yes' id='23f2d06f'/>
        <class-decl name='optional&lt;std::__1::vector&lt;int, std::__1::allocator&lt;int&gt; &gt; &gt;' visibility='default' is-declaration-only='yes' id='8c662fc5'/>
        <class-decl name='optional&lt;std::__1::vector&lt;long long, std::__1::allocator&lt;long long&gt; &gt; &gt;' visibility='default' is-declaration-only='yes' id='482d220b'/>
        <class-decl name='optional&lt;std::__1::vector&lt;signed char, std::__1::allocator&lt;signed char&gt; &gt; &gt;' visibility='default' is-declaration-only='yes' id='6ba1fceb'/>
        <class-decl name='optional&lt;std::__1::vector&lt;std::__1::optional&lt;android::String16&gt;, std::__1::allocator&lt;std::__1::optional&lt;android::String16&gt; &gt; &gt; &gt;' visibility='default' is-declaration-only='yes' id='3f8702cf'/>
        <class-decl name='optional&lt;std::__1::vector&lt;std::__1::optional&lt;std::__1::basic_string&lt;char, std::__1::char_traits&lt;char&gt;, std::__1::allocator&lt;char&gt; &gt; &gt;, std::__1::allocator&lt;std::__1::optional&lt;std::__1::basic_string&lt;char, std::__1::char_traits&lt;char&gt;, std::__1::allocator&lt;char&gt; &gt; &gt; &gt; &gt; &gt;' visibility='default' is-declaration-only='yes' id='560c92f7'/>
        <class-decl name='optional&lt;std::__1::vector&lt;unsigned char, std::__1::allocator&lt;unsigned char&gt; &gt; &gt;' visibility='default' is-declaration-only='yes' id='49eccd9d'/>
        <class-decl name='optional&lt;std::__1::vector&lt;unsigned long long, std::__1::allocator&lt;unsigned long long&gt; &gt; &gt;' visibility='default' is-declaration-only='yes' id='a3295715'/>
        <class-decl name='unique_ptr&lt;android::String16, std::__1::default_delete&lt;android::String16&gt; &gt;' visibility='default' is-declaration-only='yes' id='427e4b8a'/>
        <class-decl name='unique_ptr&lt;std::__1::basic_string&lt;char, std::__1::char_traits&lt;char&gt;, std::__1::allocator&lt;char&gt; &gt;, std::__1::default_delete&lt;std::__1::basic_string&lt;char, std::__1::char_traits&lt;char&gt;, std::__1::allocator&lt;char&gt; &gt; &gt; &gt;' visibility='default' size-in-bits='32' filepath='external/libcxx/include/memory' line='2401' column='1' hash='18003c3011d9cdfc' id='ee11ffd6'>
          <member-type access='private'>
            <typedef-decl name='deleter_type' type-id='523e1257' size-in-bits='8' filepath='external/libcxx/include/memory' line='2404' column='1' id='87233a23'/>
          </member-type>
          <member-type access='private'>
            <typedef-decl name='pointer' type-id='538091a9' size-in-bits='32' filepath='external/libcxx/include/memory' line='2405' column='1' id='0136fab8'/>
          </member-type>
          <data-member access='private' layout-offset-in-bits='0'>
            <var-decl name='__ptr_' type-id='dc8bc990' visibility='default' filepath='external/libcxx/include/memory' line='2411' column='1'/>
          </data-member>
        </class-decl>
        <class-decl name='unique_ptr&lt;std::__1::vector&lt;android::base::unique_fd_impl&lt;android::base::DefaultCloser&gt;, std::__1::allocator&lt;android::base::unique_fd_impl&lt;android::base::DefaultCloser&gt; &gt; &gt;, std::__1::default_delete&lt;std::__1::vector&lt;android::base::unique_fd_impl&lt;android::base::DefaultCloser&gt;, std::__1::allocator&lt;android::base::unique_fd_impl&lt;android::base::DefaultCloser&gt; &gt; &gt; &gt; &gt;' visibility='default' is-declaration-only='yes' id='82a684ba'/>
        <class-decl name='unique_ptr&lt;std::__1::vector&lt;android::sp&lt;android::IBinder&gt;, std::__1::allocator&lt;android::sp&lt;android::IBinder&gt; &gt; &gt;, std::__1::default_delete&lt;std::__1::vector&lt;android::sp&lt;android::IBinder&gt;, std::__1::allocator&lt;android::sp&lt;android::IBinder&gt; &gt; &gt; &gt; &gt;' visibility='default' is-declaration-only='yes' id='b54229ce'/>
        <class-decl name='unique_ptr&lt;std::__1::vector&lt;bool, std::__1::allocator&lt;bool&gt; &gt;, std::__1::default_delete&lt;std::__1::vector&lt;bool, std::__1::allocator&lt;bool&gt; &gt; &gt; &gt;' visibility='default' is-declaration-only='yes' id='ff70dc94'/>
        <class-decl name='unique_ptr&lt;std::__1::vector&lt;char16_t, std::__1::allocator&lt;char16_t&gt; &gt;, std::__1::default_delete&lt;std::__1::vector&lt;char16_t, std::__1::allocator&lt;char16_t&gt; &gt; &gt; &gt;' visibility='default' is-declaration-only='yes' id='0e839744'/>
        <class-decl name='unique_ptr&lt;std::__1::vector&lt;double, std::__1::allocator&lt;double&gt; &gt;, std::__1::default_delete&lt;std::__1::vector&lt;double, std::__1::allocator&lt;double&gt; &gt; &gt; &gt;' visibility='default' is-declaration-only='yes' id='cdd69b5c'/>
        <class-decl name='unique_ptr&lt;std::__1::vector&lt;float, std::__1::allocator&lt;float&gt; &gt;, std::__1::default_delete&lt;std::__1::vector&lt;float, std::__1::allocator&lt;float&gt; &gt; &gt; &gt;' visibility='default' is-declaration-only='yes' id='b9fa8f40'/>
        <class-decl name='unique_ptr&lt;std::__1::vector&lt;int, std::__1::allocator&lt;int&gt; &gt;, std::__1::default_delete&lt;std::__1::vector&lt;int, std::__1::allocator&lt;int&gt; &gt; &gt; &gt;' visibility='default' is-declaration-only='yes' id='5417a89c'/>
        <class-decl name='unique_ptr&lt;std::__1::vector&lt;long long, std::__1::allocator&lt;long long&gt; &gt;, std::__1::default_delete&lt;std::__1::vector&lt;long long, std::__1::allocator&lt;long long&gt; &gt; &gt; &gt;' visibility='default' is-declaration-only='yes' id='2f680da0'/>
        <class-decl name='unique_ptr&lt;std::__1::vector&lt;signed char, std::__1::allocator&lt;signed char&gt; &gt;, std::__1::default_delete&lt;std::__1::vector&lt;signed char, std::__1::allocator&lt;signed char&gt; &gt; &gt; &gt;' visibility='default' is-declaration-only='yes' id='9360eadc'/>
        <class-decl name='unique_ptr&lt;std::__1::vector&lt;std::__1::unique_ptr&lt;android::String16, std::__1::default_delete&lt;android::String16&gt; &gt;, std::__1::allocator&lt;std::__1::unique_ptr&lt;android::String16, std::__1::default_delete&lt;android::String16&gt; &gt; &gt; &gt;, std::__1::default_delete&lt;std::__1::vector&lt;std::__1::unique_ptr&lt;android::String16, std::__1::default_delete&lt;android::String16&gt; &gt;, std::__1::allocator&lt;std::__1::unique_ptr&lt;android::String16, std::__1::default_delete&lt;android::String16&gt; &gt; &gt; &gt; &gt; &gt;' visibility='default' is-declaration-only='yes' id='a3eca172'/>
        <class-decl name='unique_ptr&lt;std::__1::vector&lt;std::__1::unique_ptr&lt;std::__1::basic_string&lt;char, std::__1::char_traits&lt;char&gt;, std::__1::allocator&lt;char&gt; &gt;, std::__1::default_delete&lt;std::__1::basic_string&lt;char, std::__1::char_traits&lt;char&gt;, std::__1::allocator&lt;char&gt; &gt; &gt; &gt;, std::__1::allocator&lt;std::__1::unique_ptr&lt;std::__1::basic_string&lt;char, std::__1::char_traits&lt;char&gt;, std::__1::allocator&lt;char&gt; &gt;, std::__1::default_delete&lt;std::__1::basic_string&lt;char, std::__1::char_traits&lt;char&gt;, std::__1::allocator&lt;char&gt; &gt; &gt; &gt; &gt; &gt;, std::__1::default_delete&lt;std::__1::vector&lt;std::__1::unique_ptr&lt;std::__1::basic_string&lt;char, std::__1::char_traits&lt;char&gt;, std::__1::allocator&lt;char&gt; &gt;, std::__1::default_delete&lt;std::__1::basic_string&lt;char, std::__1::char_traits&lt;char&gt;, std::__1::allocator&lt;char&gt; &gt; &gt; &gt;, std::__1::allocator&lt;std::__1::unique_ptr&lt;std::__1::basic_string&lt;char, std::__1::char_traits&lt;char&gt;, std::__1::allocator&lt;char&gt; &gt;, std::__1::default_delete&lt;std::__1::basic_string&lt;char, std::__1::char_traits&lt;char&gt;, std::__1::allocator&lt;char&gt; &gt; &gt; &gt; &gt; &gt; &gt; &gt;' visibility='default' is-declaration-only='yes' id='444756ca'/>
        <class-decl name='unique_ptr&lt;std::__1::vector&lt;unsigned char, std::__1::allocator&lt;unsigned char&gt; &gt;, std::__1::default_delete&lt;std::__1::vector&lt;unsigned char, std::__1::allocator&lt;unsigned char&gt; &gt; &gt; &gt;' visibility='default' is-declaration-only='yes' id='9c9ad7b0'/>
        <class-decl name='unique_ptr&lt;std::__1::vector&lt;unsigned long long, std::__1::allocator&lt;unsigned long long&gt; &gt;, std::__1::default_delete&lt;std::__1::vector&lt;unsigned long long, std::__1::allocator&lt;unsigned long long&gt; &gt; &gt; &gt;' visibility='default' is-declaration-only='yes' id='cab02d1c'/>
        <class-decl name='vector&lt;android::String16, std::__1::allocator&lt;android::String16&gt; &gt;' visibility='default' is-declaration-only='yes' id='d5fd3ca7'/>
        <class-decl name='vector&lt;android::base::unique_fd_impl&lt;android::base::DefaultCloser&gt;, std::__1::allocator&lt;android::base::unique_fd_impl&lt;android::base::DefaultCloser&gt; &gt; &gt;' visibility='default' is-declaration-only='yes' id='4de8320f'/>
        <class-decl name='vector&lt;android::sp&lt;android::IBinder&gt;, std::__1::allocator&lt;android::sp&lt;android::IBinder&gt; &gt; &gt;' visibility='default' is-declaration-only='yes' id='45e7b03b'/>
        <class-decl name='vector&lt;bool, std::__1::allocator&lt;bool&gt; &gt;' visibility='default' is-declaration-only='yes' id='aa688d0f'/>
        <class-decl name='vector&lt;char16_t, std::__1::allocator&lt;char16_t&gt; &gt;' visibility='default' is-declaration-only='yes' id='8e24268f'/>
        <class-decl name='vector&lt;double, std::__1::allocator&lt;double&gt; &gt;' visibility='default' is-declaration-only='yes' id='9f0bbb87'/>
        <class-decl name='vector&lt;float, std::__1::allocator&lt;float&gt; &gt;' visibility='default' is-declaration-only='yes' id='255041c5'/>
        <class-decl name='vector&lt;int, std::__1::allocator&lt;int&gt; &gt;' visibility='default' size-in-bits='96' filepath='external/libcxx/include/vector' line='470' column='1' hash='189111e72ed7823d' id='21156a1f'>
          <base-class access='private' layout-offset-in-bits='0' type-id='ccc1a701'/>
          <member-type access='private'>
            <typedef-decl name='allocator_type' type-id='fe392671' size-in-bits='8' filepath='external/libcxx/include/vector' line='479' column='1' id='56f28cc0'/>
          </member-type>
          <member-type access='private'>
            <typedef-decl name='const_pointer' type-id='ccad1293' size-in-bits='32' filepath='external/libcxx/include/vector' line='486' column='1' hash='ef757f31dcad8445' id='eab552d7'/>
          </member-type>
          <member-type access='private'>
            <typedef-decl name='const_reference' type-id='0ed56687' size-in-bits='32' filepath='external/libcxx/include/vector' line='482' column='1' hash='c7887eaeb279961f' id='a9e34b1b'/>
          </member-type>
          <member-type access='private'>
            <typedef-decl name='pointer' type-id='73ca7213' size-in-bits='32' filepath='external/libcxx/include/vector' line='485' column='1' hash='e51b662ac2a28f93' id='ca253657'/>
          </member-type>
          <member-type access='private'>
            <typedef-decl name='reference' type-id='58649207' size-in-bits='32' filepath='external/libcxx/include/vector' line='481' column='1' hash='cdff542d0f812be1' id='68329a9b'/>
          </member-type>
          <member-type access='private'>
            <typedef-decl name='size_type' type-id='4519a764' size-in-bits='32' filepath='external/libcxx/include/vector' line='483' column='1' hash='e66b43f97c38e87a' id='c7871c78'/>
          </member-type>
          <member-type access='private'>
            <typedef-decl name='value_type' type-id='95e97e5e' size-in-bits='32' filepath='external/libcxx/include/vector' line='478' column='1' hash='09d17c08f594edc7' id='21d18d18'/>
          </member-type>
          <member-type access='private'>
            <typedef-decl name='const_iterator' type-id='27a9a4b2' filepath='external/libcxx/include/vector' line='488' column='1' id='83e002e4'/>
          </member-type>
          <member-type access='private'>
            <typedef-decl name='const_reverse_iterator' type-id='d9249d9b' filepath='external/libcxx/include/vector' line='490' column='1' id='2564d967'/>
          </member-type>
          <member-type access='private'>
            <typedef-decl name='iterator' type-id='a55d0f63' filepath='external/libcxx/include/vector' line='487' column='1' id='c1032564'/>
          </member-type>
          <member-type access='private'>
            <typedef-decl name='reverse_iterator' type-id='f6e567a6' filepath='external/libcxx/include/vector' line='489' column='1' id='a339cbe7'/>
          </member-type>
        </class-decl>
        <class-decl name='vector&lt;long long, std::__1::allocator&lt;long long&gt; &gt;' visibility='default' size-in-bits='96' filepath='external/libcxx/include/vector' line='470' column='1' hash='d104a4797e60f2db' id='1e253049'>
          <base-class access='private' layout-offset-in-bits='0' type-id='721e3983'/>
          <member-type access='private'>
            <typedef-decl name='allocator_type' type-id='f4b76f72' size-in-bits='8' filepath='external/libcxx/include/vector' line='479' column='1' id='3b3f6d46'/>
          </member-type>
          <member-type access='private'>
            <typedef-decl name='const_pointer' type-id='0518e5f1' size-in-bits='32' filepath='external/libcxx/include/vector' line='486' column='1' hash='aa94fdaca09f7333' id='d986b775'/>
          </member-type>
          <member-type access='private'>
            <typedef-decl name='const_reference' type-id='cc0c668d' size-in-bits='32' filepath='external/libcxx/include/vector' line='482' column='1' hash='14e56267565252b6' id='5d912f41'/>
          </member-type>
          <member-type access='private'>
            <typedef-decl name='pointer' type-id='2a5e9835' size-in-bits='32' filepath='external/libcxx/include/vector' line='485' column='1' hash='f1187c111f8fe0d4' id='81c398b9'/>
          </member-type>
          <member-type access='private'>
            <typedef-decl name='reference' type-id='959ee201' size-in-bits='32' filepath='external/libcxx/include/vector' line='481' column='1' hash='f94c286a02f44cfa' id='642663f5'/>
          </member-type>
          <member-type access='private'>
            <typedef-decl name='size_type' type-id='f3dbad4e' size-in-bits='32' filepath='external/libcxx/include/vector' line='483' column='1' hash='e66b43f97c38e87a' id='48b8e292'/>
          </member-type>
          <member-type access='private'>
            <typedef-decl name='value_type' type-id='95e97e60' size-in-bits='64' filepath='external/libcxx/include/vector' line='478' column='1' hash='5ae7f9eec1fc43d6' id='7f6e0a92'/>
          </member-type>
          <member-type access='private'>
            <typedef-decl name='const_iterator' type-id='2d3a5701' filepath='external/libcxx/include/vector' line='488' column='1' id='9aea7a46'/>
          </member-type>
          <member-type access='private'>
            <typedef-decl name='const_reverse_iterator' type-id='0a83870c' filepath='external/libcxx/include/vector' line='490' column='1' id='0d624ef5'/>
          </member-type>
          <member-type access='private'>
            <typedef-decl name='iterator' type-id='efded478' filepath='external/libcxx/include/vector' line='487' column='1' id='99bfba62'/>
          </member-type>
          <member-type access='private'>
            <typedef-decl name='reverse_iterator' type-id='bab30871' filepath='external/libcxx/include/vector' line='489' column='1' id='a8d2cb89'/>
          </member-type>
        </class-decl>
        <class-decl name='vector&lt;signed char, std::__1::allocator&lt;signed char&gt; &gt;' visibility='default' is-declaration-only='yes' id='3c4ae4e9'/>
        <class-decl name='vector&lt;std::__1::basic_string&lt;char, std::__1::char_traits&lt;char&gt;, std::__1::allocator&lt;char&gt; &gt;, std::__1::allocator&lt;std::__1::basic_string&lt;char, std::__1::char_traits&lt;char&gt;, std::__1::allocator&lt;char&gt; &gt; &gt; &gt;' visibility='default' is-declaration-only='yes' id='46767cd5'/>
        <class-decl name='vector&lt;unsigned char, std::__1::allocator&lt;unsigned char&gt; &gt;' visibility='default' size-in-bits='96' filepath='external/libcxx/include/vector' line='470' column='1' hash='9a42af590966c081' id='b05cdcb7'>
          <base-class access='private' layout-offset-in-bits='0' type-id='d5b8afe1'/>
          <member-type access='private'>
            <typedef-decl name='allocator_type' type-id='28ac9f25' size-in-bits='8' filepath='external/libcxx/include/vector' line='479' column='1' id='61c54ac4'/>
          </member-type>
          <member-type access='private'>
            <typedef-decl name='const_pointer' type-id='413a012f' size-in-bits='32' filepath='external/libcxx/include/vector' line='486' column='1' hash='a08d47b345bf64aa' id='9da97f83'/>
          </member-type>
          <member-type access='private'>
            <typedef-decl name='const_reference' type-id='8b583b33' size-in-bits='32' filepath='external/libcxx/include/vector' line='482' column='1' hash='69d16db03af4d9b5' id='b7731497'/>
          </member-type>
          <member-type access='private'>
            <typedef-decl name='pointer' type-id='c59bbd7f' size-in-bits='32' filepath='external/libcxx/include/vector' line='485' column='1' hash='3de15ce4de5e6fc6' id='628edda3'/>
          </member-type>
          <member-type access='private'>
            <typedef-decl name='reference' type-id='35ba8be3' size-in-bits='32' filepath='external/libcxx/include/vector' line='481' column='1' hash='6ce9e571b8c35900' id='374cd9b7'/>
          </member-type>
          <member-type access='private'>
            <typedef-decl name='size_type' type-id='26dd3530' size-in-bits='32' filepath='external/libcxx/include/vector' line='483' column='1' hash='e66b43f97c38e87a' id='d5277a54'/>
          </member-type>
          <member-type access='private'>
            <typedef-decl name='value_type' type-id='002ac4a6' size-in-bits='8' filepath='external/libcxx/include/vector' line='478' column='1' hash='6ebac62b3366db68' id='58b97fd4'/>
          </member-type>
          <member-type access='private'>
            <typedef-decl name='const_iterator' type-id='5ec92c0a' filepath='external/libcxx/include/vector' line='488' column='1' id='35ddcf48'/>
          </member-type>
          <member-type access='private'>
            <typedef-decl name='const_iterator' type-id='5ec92c0b' filepath='external/libcxx/include/vector' line='488' column='1' id='35ddcf49'/>
          </member-type>
          <member-type access='private'>
            <typedef-decl name='const_reverse_iterator' type-id='5f2bceeb' filepath='external/libcxx/include/vector' line='490' column='1' id='88519a53'/>
          </member-type>
          <member-type access='private'>
            <typedef-decl name='const_reverse_iterator' type-id='5f2bceec' filepath='external/libcxx/include/vector' line='490' column='1' id='88519a54'/>
          </member-type>
          <member-type access='private'>
            <typedef-decl name='iterator' type-id='68fdf037' filepath='external/libcxx/include/vector' line='487' column='1' id='b239ece8'/>
          </member-type>
          <member-type access='private'>
            <typedef-decl name='iterator' type-id='68fdf038' filepath='external/libcxx/include/vector' line='487' column='1' id='b239ece9'/>
          </member-type>
          <member-type access='private'>
            <typedef-decl name='reverse_iterator' type-id='b0b63972' filepath='external/libcxx/include/vector' line='489' column='1' id='ef32aa33'/>
          </member-type>
          <member-type access='private'>
            <typedef-decl name='reverse_iterator' type-id='b0b63973' filepath='external/libcxx/include/vector' line='489' column='1' id='ef32aa34'/>
          </member-type>
        </class-decl>
        <class-decl name='vector&lt;unsigned long long, std::__1::allocator&lt;unsigned long long&gt; &gt;' visibility='default' size-in-bits='96' filepath='external/libcxx/include/vector' line='470' column='1' hash='e1bc81a7ad44aad9' id='2d13208f'>
          <base-class access='private' layout-offset-in-bits='0' type-id='fd1a2199'/>
          <member-type access='private'>
            <typedef-decl name='allocator_type' type-id='d83d0edf' size-in-bits='8' filepath='external/libcxx/include/vector' line='479' column='1' id='c8801c48'/>
          </member-type>
          <member-type access='private'>
            <typedef-decl name='const_pointer' type-id='89bd90bb' size-in-bits='32' filepath='external/libcxx/include/vector' line='486' column='1' hash='201e3bbd9a2fbb8a' id='ca75396f'/>
          </member-type>
          <member-type access='private'>
            <typedef-decl name='const_reference' type-id='9ea2182f' size-in-bits='32' filepath='external/libcxx/include/vector' line='482' column='1' hash='6510d8e54593f930' id='d662e673'/>
          </member-type>
          <member-type access='private'>
            <typedef-decl name='pointer' type-id='bae2992b' size-in-bits='32' filepath='external/libcxx/include/vector' line='485' column='1' hash='4205c85b1e765dae' id='29f224bf'/>
          </member-type>
          <member-type access='private'>
            <typedef-decl name='reference' type-id='3796997f' size-in-bits='32' filepath='external/libcxx/include/vector' line='481' column='1' hash='1c986c77a5f160f9' id='d7aaab23'/>
          </member-type>
          <member-type access='private'>
            <typedef-decl name='size_type' type-id='5f167a8c' size-in-bits='32' filepath='external/libcxx/include/vector' line='483' column='1' hash='e66b43f97c38e87a' id='02ffc270'/>
          </member-type>
          <member-type access='private'>
            <typedef-decl name='value_type' type-id='f0981eeb' size-in-bits='64' filepath='external/libcxx/include/vector' line='478' column='1' hash='ebdfc4685a1e82df' id='b4e634f0'/>
          </member-type>
          <member-type access='private'>
            <typedef-decl name='const_iterator' type-id='82d2f516' filepath='external/libcxx/include/vector' line='488' column='1' id='1a75b53c'/>
          </member-type>
          <member-type access='private'>
            <typedef-decl name='const_reverse_iterator' type-id='8ae647e9' filepath='external/libcxx/include/vector' line='490' column='1' id='5bd8044f'/>
          </member-type>
          <member-type access='private'>
            <typedef-decl name='iterator' type-id='998e238d' filepath='external/libcxx/include/vector' line='487' column='1' id='81f2f90c'/>
          </member-type>
          <member-type access='private'>
            <typedef-decl name='reverse_iterator' type-id='83076282' filepath='external/libcxx/include/vector' line='489' column='1' id='c7ab0ebf'/>
          </member-type>
        </class-decl>
        <namespace-decl name='__pointer_type_imp'>
          <class-decl name='__pointer_type&lt;android::IObbActionListener, std::__1::default_delete&lt;android::IObbActionListener&gt;, false&gt;' is-struct='yes' visibility='default' size-in-bits='8' filepath='external/libcxx/include/memory' line='1021' column='1' hash='ea34ef1b31535808' id='123fea2e'>
            <member-type access='public'>
              <typedef-decl name='type' type-id='c70198d4' size-in-bits='32' filepath='external/libcxx/include/memory' line='1023' column='1' hash='88d73b1acd44a67f' id='1e232805'/>
            </member-type>
          </class-decl>
        </namespace-decl>
        <typedef-decl name='string' type-id='27619c1d' filepath='external/libcxx/include/iosfwd' line='211' column='1' id='2e84cb7c'/>
      </namespace-decl>
    </namespace-decl>
    <pointer-type-def type-id='63080be8' size-in-bits='32' id='82a8162e'/>
    <pointer-type-def type-id='dff69842' size-in-bits='32' id='b83994e0'/>
    <pointer-type-def type-id='b04db2dd' size-in-bits='32' id='1465dabd'/>
    <pointer-type-def type-id='7bb1d8e1' size-in-bits='32' id='adb8b339'/>
    <pointer-type-def type-id='606d2805' size-in-bits='32' id='0cc07935'/>
    <pointer-type-def type-id='359485b5' size-in-bits='32' id='a499e5c5'/>
    <pointer-type-def type-id='2a92430d' size-in-bits='32' id='4ed8b0dd'/>
    <pointer-type-def type-id='23f2d06f' size-in-bits='32' id='6ae37fb7'/>
    <pointer-type-def type-id='8c662fc5' size-in-bits='32' id='2fde1255'/>
    <pointer-type-def type-id='482d220b' size-in-bits='32' id='47d1f2cb'/>
    <pointer-type-def type-id='6ba1fceb' size-in-bits='32' id='0d40426b'/>
    <pointer-type-def type-id='3f8702cf' size-in-bits='32' id='8ca5b7e7'/>
    <pointer-type-def type-id='560c92f7' size-in-bits='32' id='be42202f'/>
    <pointer-type-def type-id='49eccd9d' size-in-bits='32' id='37ed344d'/>
    <pointer-type-def type-id='a3295715' size-in-bits='32' id='307ae6a5'/>
    <pointer-type-def type-id='2e84cb7c' size-in-bits='32' id='77721b56'/>
    <pointer-type-def type-id='427e4b8a' size-in-bits='32' id='f79cba78'/>
    <pointer-type-def type-id='82a684ba' size-in-bits='32' id='21b84758'/>
    <pointer-type-def type-id='b54229ce' size-in-bits='32' id='2cc2a2b4'/>
    <pointer-type-def type-id='ff70dc94' size-in-bits='32' id='fbd34862'/>
    <pointer-type-def type-id='0e839744' size-in-bits='32' id='d32daf72'/>
    <pointer-type-def type-id='cdd69b5c' size-in-bits='32' id='a1bcde0a'/>
    <pointer-type-def type-id='b9fa8f40' size-in-bits='32' id='38ec2026'/>
    <pointer-type-def type-id='5417a89c' size-in-bits='32' id='f0e86b2a'/>
    <pointer-type-def type-id='2f680da0' size-in-bits='32' id='efee7846'/>
    <pointer-type-def type-id='9360eadc' size-in-bits='32' id='719a934a'/>
    <pointer-type-def type-id='a3eca172' size-in-bits='32' id='46ab91d0'/>
    <pointer-type-def type-id='444756ca' size-in-bits='32' id='56fab488'/>
    <pointer-type-def type-id='9c9ad7b0' size-in-bits='32' id='f160fb56'/>
    <pointer-type-def type-id='cab02d1c' size-in-bits='32' id='bd7ee60a'/>
    <pointer-type-def type-id='d5fd3ca7' size-in-bits='32' id='35865e6f'/>
    <pointer-type-def type-id='4de8320f' size-in-bits='32' id='82ceaaa7'/>
    <pointer-type-def type-id='45e7b03b' size-in-bits='32' id='40eba30b'/>
    <pointer-type-def type-id='aa688d0f' size-in-bits='32' id='4dcecd77'/>
    <pointer-type-def type-id='8e24268f' size-in-bits='32' id='763f4b97'/>
    <pointer-type-def type-id='9f0bbb87' size-in-bits='32' id='f84d584f'/>
    <pointer-type-def type-id='255041c5' size-in-bits='32' id='afa37b15'/>
    <pointer-type-def type-id='3c4ae4e9' size-in-bits='32' id='892d0ff1'/>
    <pointer-type-def type-id='46767cd5' size-in-bits='32' id='9d474d15'/>
    <class-decl name='__sFILE' is-struct='yes' visibility='default' is-declaration-only='yes' id='8d7b2c1f'/>
    <class-decl name='native_handle' is-struct='yes' visibility='default' size-in-bits='96' filepath='system/core/libcutils/include/cutils/native_handle.h' line='34' column='1' hash='ef15da297b06eb78' id='3181ea79'>
      <data-member access='public' layout-offset-in-bits='0'>
        <var-decl name='version' type-id='95e97e5e' visibility='default' filepath='system/core/libcutils/include/cutils/native_handle.h' line='36' column='1'/>
      </data-member>
      <data-member access='public' layout-offset-in-bits='32'>
        <var-decl name='numFds' type-id='95e97e5e' visibility='default' filepath='system/core/libcutils/include/cutils/native_handle.h' line='37' column='1'/>
      </data-member>
      <data-member access='public' layout-offset-in-bits='64'>
        <var-decl name='numInts' type-id='95e97e5e' visibility='default' filepath='system/core/libcutils/include/cutils/native_handle.h' line='38' column='1'/>
      </data-member>
      <data-member access='public' layout-offset-in-bits='96'>
        <var-decl name='data' type-id='1fdc7fa6' visibility='default' filepath='system/core/libcutils/include/cutils/native_handle.h' line='43' column='1'/>
      </data-member>
    </class-decl>
    <typedef-decl name='wctrans_t' type-id='eaa32e2f' filepath='bionic/libc/include/bits/wctype.h' line='60' column='1' id='183c72c4'/>
    <typedef-decl name='FILE' type-id='8d7b2c1f' filepath='bionic/libc/include/stdio.h' line='59' column='1' id='aa12d1bb'/>
    <function-type method-class-id='b4c0d64f' size-in-bits='32' hash='c0cdb3c6fb0414b3' id='5916a086'>
      <parameter type-id='36e31287' is-artificial='yes'/>
      <parameter type-id='8f92235e'/>
      <parameter type-id='6d925e80'/>
      <parameter type-id='1a1ddb91'/>
      <parameter type-id='8f92235e'/>
      <return type-id='6e9756f6'/>
    </function-type>
    <function-type method-class-id='f8f7e309' const='yes' size-in-bits='32' hash='a1f93a033e1719c7' id='a2b8ed4f'>
      <parameter type-id='6a9db9a0' is-artificial='yes'/>
      <parameter type-id='1a1ddb91'/>
      <return type-id='6e9756f6'/>
    </function-type>
    <function-type method-class-id='f8f7e309' size-in-bits='32' hash='f31d8124ce96fd87' id='1546df38'>
      <parameter type-id='f7891b51' is-artificial='yes'/>
      <parameter type-id='79927164'/>
      <return type-id='6e9756f6'/>
    </function-type>
    <function-type method-class-id='f8f7e309' const='yes' size-in-bits='32' hash='78f6a3cdaf3f98f3' id='ff801c86'>
      <parameter type-id='6a9db9a0' is-artificial='yes'/>
      <return type-id='c894953d'/>
    </function-type>
    <function-type method-class-id='f8f7e309' size-in-bits='32' hash='28f93d42079c2801' id='e4473514'>
      <parameter type-id='f7891b51' is-artificial='yes'/>
      <return type-id='48b5725f'/>
    </function-type>
  </abi-instr>
  <abi-instr address-size='32' path='frameworks/base/libs/storage/ObbInfo.cpp' language='LANG_C_plus_plus_14'>
    <qualified-type-def type-id='65c10d3d' const='yes' hash='b5b27a65e7a683ea' id='dda33994'/>
    <pointer-type-def type-id='dda33994' size-in-bits='32' hash='c4c36d0300fc2853' id='a5f3e61a'/>
    <pointer-type-def type-id='aa12d1bc' size-in-bits='32' id='822cd80d'/>
    <pointer-type-def type-id='edff7cb5' size-in-bits='32' id='b5a5bc15'/>
    <pointer-type-def type-id='b5977878' size-in-bits='32' id='0657c200'/>
    <pointer-type-def type-id='a87dbeee' size-in-bits='32' id='ce9e5ae5'/>
    <pointer-type-def type-id='259563fa' size-in-bits='32' id='e7293459'/>
    <qualified-type-def type-id='783cc678' const='yes' id='44c384f0'/>
    <qualified-type-def type-id='8fc19047' const='yes' id='d452635e'/>
    <pointer-type-def type-id='d452635e' size-in-bits='32' id='b4b29456'/>
    <qualified-type-def type-id='63080be9' const='yes' id='75a12310'/>
    <qualified-type-def type-id='dff69843' const='yes' id='5be53128'/>
    <qualified-type-def type-id='b04db2de' const='yes' id='00633159'/>
    <qualified-type-def type-id='7bb1d8e2' const='yes' id='0e59eb21'/>
    <qualified-type-def type-id='606d2806' const='yes' id='cbdbf7d3'/>
    <qualified-type-def type-id='359485b6' const='yes' id='53334ee3'/>
    <qualified-type-def type-id='2a92430e' const='yes' id='b80399cb'/>
    <qualified-type-def type-id='23f2d070' const='yes' id='dcc28add'/>
    <qualified-type-def type-id='8c662fc6' const='yes' id='4db497f3'/>
    <qualified-type-def type-id='482d220c' const='yes' id='06ffb901'/>
    <qualified-type-def type-id='6ba1fcec' const='yes' id='eb2629cd'/>
    <qualified-type-def type-id='3f8702d0' const='yes' id='37aad5fb'/>
    <qualified-type-def type-id='560c92f8' const='yes' id='12d46c23'/>
    <qualified-type-def type-id='49eccd9e' const='yes' id='f53b94ff'/>
    <qualified-type-def type-id='a3295716' const='yes' id='d73e162b'/>
    <qualified-type-def type-id='2e84cb7d' const='yes' id='17a746be'/>
    <qualified-type-def type-id='427e4b8b' const='yes' id='1dd04bda'/>
    <qualified-type-def type-id='82a684bb' const='yes' id='03a92050'/>
    <qualified-type-def type-id='b54229cf' const='yes' id='e1f2fe14'/>
    <qualified-type-def type-id='ff70dc95' const='yes' id='c508b1b2'/>
    <qualified-type-def type-id='0e839745' const='yes' id='95bfe8d2'/>
    <qualified-type-def type-id='cdd69b5d' const='yes' id='fbb12462'/>
    <qualified-type-def type-id='b9fa8f41' const='yes' id='2533de46'/>
    <qualified-type-def type-id='5417a89d' const='yes' id='8fa83eaa'/>
    <qualified-type-def type-id='2f680da1' const='yes' id='224503c6'/>
    <qualified-type-def type-id='9360eadd' const='yes' id='3e9fa922'/>
    <qualified-type-def type-id='a3eca173' const='yes' id='4f54b248'/>
    <qualified-type-def type-id='444756cb' const='yes' id='4729be00'/>
    <qualified-type-def type-id='9c9ad7b1' const='yes' id='14d1d5fe'/>
    <qualified-type-def type-id='cab02d1d' const='yes' id='99b40a0a'/>
    <qualified-type-def type-id='d5fd3ca8' const='yes' id='8dba978f'/>
    <qualified-type-def type-id='4de83210' const='yes' id='de6e0291'/>
    <qualified-type-def type-id='45e7b03c' const='yes' id='1733cb19'/>
    <qualified-type-def type-id='aa688d10' const='yes' id='14b1b7eb'/>
    <qualified-type-def type-id='8e242690' const='yes' id='3e60ea5b'/>
    <qualified-type-def type-id='9f0bbb88' const='yes' id='330d96ab'/>
    <qualified-type-def type-id='255041c6' const='yes' id='5ae3c361'/>
    <qualified-type-def type-id='3c4ae4ea' const='yes' id='e0150e19'/>
    <qualified-type-def type-id='46767cd6' const='yes' id='d8498117'/>
    <namespace-decl name='android'>
      <class-decl name='IBinder' visibility='default' is-declaration-only='yes' id='edff7cb5'/>
      <class-decl name='IPCThreadState' visibility='default' is-declaration-only='yes' id='b5977878'/>
      <class-decl name='TextOutput' visibility='default' is-declaration-only='yes' id='32215dcb'/>
      <namespace-decl name='base'>
      </namespace-decl>
      <class-decl name='flat_binder_object' is-struct='yes' visibility='default' is-declaration-only='yes' id='8fc19047'/>
    </namespace-decl>
    <namespace-decl name='std'>
      <namespace-decl name='__1'>
        <class-decl name='basic_string&lt;char, std::__1::char_traits&lt;char&gt;, std::__1::allocator&lt;char&gt; &gt;' visibility='default' is-declaration-only='yes' id='27619c1e'/>
        <class-decl name='optional&lt;android::String16&gt;' visibility='default' is-declaration-only='yes' id='63080be9'/>
        <class-decl name='optional&lt;std::__1::basic_string&lt;char, std::__1::char_traits&lt;char&gt;, std::__1::allocator&lt;char&gt; &gt; &gt;' visibility='default' is-declaration-only='yes' id='dff69843'/>
        <class-decl name='optional&lt;std::__1::vector&lt;android::base::unique_fd_impl&lt;android::base::DefaultCloser&gt;, std::__1::allocator&lt;android::base::unique_fd_impl&lt;android::base::DefaultCloser&gt; &gt; &gt; &gt;' visibility='default' is-declaration-only='yes' id='b04db2de'/>
        <class-decl name='optional&lt;std::__1::vector&lt;android::sp&lt;android::IBinder&gt;, std::__1::allocator&lt;android::sp&lt;android::IBinder&gt; &gt; &gt; &gt;' visibility='default' is-declaration-only='yes' id='7bb1d8e2'/>
        <class-decl name='optional&lt;std::__1::vector&lt;bool, std::__1::allocator&lt;bool&gt; &gt; &gt;' visibility='default' is-declaration-only='yes' id='606d2806'/>
        <class-decl name='optional&lt;std::__1::vector&lt;char16_t, std::__1::allocator&lt;char16_t&gt; &gt; &gt;' visibility='default' is-declaration-only='yes' id='359485b6'/>
        <class-decl name='optional&lt;std::__1::vector&lt;double, std::__1::allocator&lt;double&gt; &gt; &gt;' visibility='default' is-declaration-only='yes' id='2a92430e'/>
        <class-decl name='optional&lt;std::__1::vector&lt;float, std::__1::allocator&lt;float&gt; &gt; &gt;' visibility='default' is-declaration-only='yes' id='23f2d070'/>
        <class-decl name='optional&lt;std::__1::vector&lt;int, std::__1::allocator&lt;int&gt; &gt; &gt;' visibility='default' is-declaration-only='yes' id='8c662fc6'/>
        <class-decl name='optional&lt;std::__1::vector&lt;long long, std::__1::allocator&lt;long long&gt; &gt; &gt;' visibility='default' is-declaration-only='yes' id='482d220c'/>
        <class-decl name='optional&lt;std::__1::vector&lt;signed char, std::__1::allocator&lt;signed char&gt; &gt; &gt;' visibility='default' is-declaration-only='yes' id='6ba1fcec'/>
        <class-decl name='optional&lt;std::__1::vector&lt;std::__1::optional&lt;android::String16&gt;, std::__1::allocator&lt;std::__1::optional&lt;android::String16&gt; &gt; &gt; &gt;' visibility='default' is-declaration-only='yes' id='3f8702d0'/>
        <class-decl name='optional&lt;std::__1::vector&lt;std::__1::optional&lt;std::__1::basic_string&lt;char, std::__1::char_traits&lt;char&gt;, std::__1::allocator&lt;char&gt; &gt; &gt;, std::__1::allocator&lt;std::__1::optional&lt;std::__1::basic_string&lt;char, std::__1::char_traits&lt;char&gt;, std::__1::allocator&lt;char&gt; &gt; &gt; &gt; &gt; &gt;' visibility='default' is-declaration-only='yes' id='560c92f8'/>
        <class-decl name='optional&lt;std::__1::vector&lt;unsigned char, std::__1::allocator&lt;unsigned char&gt; &gt; &gt;' visibility='default' is-declaration-only='yes' id='49eccd9e'/>
        <class-decl name='optional&lt;std::__1::vector&lt;unsigned long long, std::__1::allocator&lt;unsigned long long&gt; &gt; &gt;' visibility='default' is-declaration-only='yes' id='a3295716'/>
        <class-decl name='unique_ptr&lt;android::String16, std::__1::default_delete&lt;android::String16&gt; &gt;' visibility='default' is-declaration-only='yes' id='427e4b8b'/>
        <class-decl name='unique_ptr&lt;std::__1::vector&lt;android::base::unique_fd_impl&lt;android::base::DefaultCloser&gt;, std::__1::allocator&lt;android::base::unique_fd_impl&lt;android::base::DefaultCloser&gt; &gt; &gt;, std::__1::default_delete&lt;std::__1::vector&lt;android::base::unique_fd_impl&lt;android::base::DefaultCloser&gt;, std::__1::allocator&lt;android::base::unique_fd_impl&lt;android::base::DefaultCloser&gt; &gt; &gt; &gt; &gt;' visibility='default' is-declaration-only='yes' id='82a684bb'/>
        <class-decl name='unique_ptr&lt;std::__1::vector&lt;android::sp&lt;android::IBinder&gt;, std::__1::allocator&lt;android::sp&lt;android::IBinder&gt; &gt; &gt;, std::__1::default_delete&lt;std::__1::vector&lt;android::sp&lt;android::IBinder&gt;, std::__1::allocator&lt;android::sp&lt;android::IBinder&gt; &gt; &gt; &gt; &gt;' visibility='default' is-declaration-only='yes' id='b54229cf'/>
        <class-decl name='unique_ptr&lt;std::__1::vector&lt;bool, std::__1::allocator&lt;bool&gt; &gt;, std::__1::default_delete&lt;std::__1::vector&lt;bool, std::__1::allocator&lt;bool&gt; &gt; &gt; &gt;' visibility='default' is-declaration-only='yes' id='ff70dc95'/>
        <class-decl name='unique_ptr&lt;std::__1::vector&lt;char16_t, std::__1::allocator&lt;char16_t&gt; &gt;, std::__1::default_delete&lt;std::__1::vector&lt;char16_t, std::__1::allocator&lt;char16_t&gt; &gt; &gt; &gt;' visibility='default' is-declaration-only='yes' id='0e839745'/>
        <class-decl name='unique_ptr&lt;std::__1::vector&lt;double, std::__1::allocator&lt;double&gt; &gt;, std::__1::default_delete&lt;std::__1::vector&lt;double, std::__1::allocator&lt;double&gt; &gt; &gt; &gt;' visibility='default' is-declaration-only='yes' id='cdd69b5d'/>
        <class-decl name='unique_ptr&lt;std::__1::vector&lt;float, std::__1::allocator&lt;float&gt; &gt;, std::__1::default_delete&lt;std::__1::vector&lt;float, std::__1::allocator&lt;float&gt; &gt; &gt; &gt;' visibility='default' is-declaration-only='yes' id='b9fa8f41'/>
        <class-decl name='unique_ptr&lt;std::__1::vector&lt;int, std::__1::allocator&lt;int&gt; &gt;, std::__1::default_delete&lt;std::__1::vector&lt;int, std::__1::allocator&lt;int&gt; &gt; &gt; &gt;' visibility='default' is-declaration-only='yes' id='5417a89d'/>
        <class-decl name='unique_ptr&lt;std::__1::vector&lt;long long, std::__1::allocator&lt;long long&gt; &gt;, std::__1::default_delete&lt;std::__1::vector&lt;long long, std::__1::allocator&lt;long long&gt; &gt; &gt; &gt;' visibility='default' is-declaration-only='yes' id='2f680da1'/>
        <class-decl name='unique_ptr&lt;std::__1::vector&lt;signed char, std::__1::allocator&lt;signed char&gt; &gt;, std::__1::default_delete&lt;std::__1::vector&lt;signed char, std::__1::allocator&lt;signed char&gt; &gt; &gt; &gt;' visibility='default' is-declaration-only='yes' id='9360eadd'/>
        <class-decl name='unique_ptr&lt;std::__1::vector&lt;std::__1::unique_ptr&lt;android::String16, std::__1::default_delete&lt;android::String16&gt; &gt;, std::__1::allocator&lt;std::__1::unique_ptr&lt;android::String16, std::__1::default_delete&lt;android::String16&gt; &gt; &gt; &gt;, std::__1::default_delete&lt;std::__1::vector&lt;std::__1::unique_ptr&lt;android::String16, std::__1::default_delete&lt;android::String16&gt; &gt;, std::__1::allocator&lt;std::__1::unique_ptr&lt;android::String16, std::__1::default_delete&lt;android::String16&gt; &gt; &gt; &gt; &gt; &gt;' visibility='default' is-declaration-only='yes' id='a3eca173'/>
        <class-decl name='unique_ptr&lt;std::__1::vector&lt;std::__1::unique_ptr&lt;std::__1::basic_string&lt;char, std::__1::char_traits&lt;char&gt;, std::__1::allocator&lt;char&gt; &gt;, std::__1::default_delete&lt;std::__1::basic_string&lt;char, std::__1::char_traits&lt;char&gt;, std::__1::allocator&lt;char&gt; &gt; &gt; &gt;, std::__1::allocator&lt;std::__1::unique_ptr&lt;std::__1::basic_string&lt;char, std::__1::char_traits&lt;char&gt;, std::__1::allocator&lt;char&gt; &gt;, std::__1::default_delete&lt;std::__1::basic_string&lt;char, std::__1::char_traits&lt;char&gt;, std::__1::allocator&lt;char&gt; &gt; &gt; &gt; &gt; &gt;, std::__1::default_delete&lt;std::__1::vector&lt;std::__1::unique_ptr&lt;std::__1::basic_string&lt;char, std::__1::char_traits&lt;char&gt;, std::__1::allocator&lt;char&gt; &gt;, std::__1::default_delete&lt;std::__1::basic_string&lt;char, std::__1::char_traits&lt;char&gt;, std::__1::allocator&lt;char&gt; &gt; &gt; &gt;, std::__1::allocator&lt;std::__1::unique_ptr&lt;std::__1::basic_string&lt;char, std::__1::char_traits&lt;char&gt;, std::__1::allocator&lt;char&gt; &gt;, std::__1::default_delete&lt;std::__1::basic_string&lt;char, std::__1::char_traits&lt;char&gt;, std::__1::allocator&lt;char&gt; &gt; &gt; &gt; &gt; &gt; &gt; &gt;' visibility='default' is-declaration-only='yes' id='444756cb'/>
        <class-decl name='unique_ptr&lt;std::__1::vector&lt;unsigned char, std::__1::allocator&lt;unsigned char&gt; &gt;, std::__1::default_delete&lt;std::__1::vector&lt;unsigned char, std::__1::allocator&lt;unsigned char&gt; &gt; &gt; &gt;' visibility='default' is-declaration-only='yes' id='9c9ad7b1'/>
        <class-decl name='unique_ptr&lt;std::__1::vector&lt;unsigned long long, std::__1::allocator&lt;unsigned long long&gt; &gt;, std::__1::default_delete&lt;std::__1::vector&lt;unsigned long long, std::__1::allocator&lt;unsigned long long&gt; &gt; &gt; &gt;' visibility='default' is-declaration-only='yes' id='cab02d1d'/>
        <class-decl name='vector&lt;android::String16, std::__1::allocator&lt;android::String16&gt; &gt;' visibility='default' is-declaration-only='yes' id='d5fd3ca8'/>
        <class-decl name='vector&lt;android::base::unique_fd_impl&lt;android::base::DefaultCloser&gt;, std::__1::allocator&lt;android::base::unique_fd_impl&lt;android::base::DefaultCloser&gt; &gt; &gt;' visibility='default' is-declaration-only='yes' id='4de83210'/>
        <class-decl name='vector&lt;android::sp&lt;android::IBinder&gt;, std::__1::allocator&lt;android::sp&lt;android::IBinder&gt; &gt; &gt;' visibility='default' is-declaration-only='yes' id='45e7b03c'/>
        <class-decl name='vector&lt;bool, std::__1::allocator&lt;bool&gt; &gt;' visibility='default' is-declaration-only='yes' id='aa688d10'/>
        <class-decl name='vector&lt;char16_t, std::__1::allocator&lt;char16_t&gt; &gt;' visibility='default' is-declaration-only='yes' id='8e242690'/>
        <class-decl name='vector&lt;double, std::__1::allocator&lt;double&gt; &gt;' visibility='default' is-declaration-only='yes' id='9f0bbb88'/>
        <class-decl name='vector&lt;float, std::__1::allocator&lt;float&gt; &gt;' visibility='default' is-declaration-only='yes' id='255041c6'/>
        <class-decl name='vector&lt;signed char, std::__1::allocator&lt;signed char&gt; &gt;' visibility='default' is-declaration-only='yes' id='3c4ae4ea'/>
        <class-decl name='vector&lt;std::__1::basic_string&lt;char, std::__1::char_traits&lt;char&gt;, std::__1::allocator&lt;char&gt; &gt;, std::__1::allocator&lt;std::__1::basic_string&lt;char, std::__1::char_traits&lt;char&gt;, std::__1::allocator&lt;char&gt; &gt; &gt; &gt;' visibility='default' is-declaration-only='yes' id='46767cd6'/>
        <typedef-decl name='string' type-id='27619c1e' filepath='external/libcxx/include/iosfwd' line='211' column='1' id='2e84cb7d'/>
      </namespace-decl>
    </namespace-decl>
    <pointer-type-def type-id='63080be9' size-in-bits='32' id='82a8162f'/>
    <pointer-type-def type-id='dff69843' size-in-bits='32' id='b83994e1'/>
    <pointer-type-def type-id='b04db2de' size-in-bits='32' id='1465dabe'/>
    <pointer-type-def type-id='7bb1d8e2' size-in-bits='32' id='adb8b33a'/>
    <pointer-type-def type-id='606d2806' size-in-bits='32' id='0cc07936'/>
    <pointer-type-def type-id='359485b6' size-in-bits='32' id='a499e5c6'/>
    <pointer-type-def type-id='2a92430e' size-in-bits='32' id='4ed8b0de'/>
    <pointer-type-def type-id='23f2d070' size-in-bits='32' id='6ae37fb8'/>
    <pointer-type-def type-id='8c662fc6' size-in-bits='32' id='2fde1256'/>
    <pointer-type-def type-id='482d220c' size-in-bits='32' id='47d1f2cc'/>
    <pointer-type-def type-id='6ba1fcec' size-in-bits='32' id='0d40426c'/>
    <pointer-type-def type-id='3f8702d0' size-in-bits='32' id='8ca5b7e8'/>
    <pointer-type-def type-id='560c92f8' size-in-bits='32' id='be422030'/>
    <pointer-type-def type-id='49eccd9e' size-in-bits='32' id='37ed344e'/>
    <pointer-type-def type-id='a3295716' size-in-bits='32' id='307ae6a6'/>
    <pointer-type-def type-id='2e84cb7d' size-in-bits='32' id='77721b57'/>
    <pointer-type-def type-id='427e4b8b' size-in-bits='32' id='f79cba79'/>
    <pointer-type-def type-id='82a684bb' size-in-bits='32' id='21b84759'/>
    <pointer-type-def type-id='b54229cf' size-in-bits='32' id='2cc2a2b5'/>
    <pointer-type-def type-id='ff70dc95' size-in-bits='32' id='fbd34863'/>
    <pointer-type-def type-id='0e839745' size-in-bits='32' id='d32daf73'/>
    <pointer-type-def type-id='cdd69b5d' size-in-bits='32' id='a1bcde0b'/>
    <pointer-type-def type-id='b9fa8f41' size-in-bits='32' id='38ec2027'/>
    <pointer-type-def type-id='5417a89d' size-in-bits='32' id='f0e86b2b'/>
    <pointer-type-def type-id='2f680da1' size-in-bits='32' id='efee7847'/>
    <pointer-type-def type-id='9360eadd' size-in-bits='32' id='719a934b'/>
    <pointer-type-def type-id='a3eca173' size-in-bits='32' id='46ab91d1'/>
    <pointer-type-def type-id='444756cb' size-in-bits='32' id='56fab489'/>
    <pointer-type-def type-id='9c9ad7b1' size-in-bits='32' id='f160fb57'/>
    <pointer-type-def type-id='cab02d1d' size-in-bits='32' id='bd7ee60b'/>
    <pointer-type-def type-id='d5fd3ca8' size-in-bits='32' id='35865e70'/>
    <pointer-type-def type-id='4de83210' size-in-bits='32' id='82ceaaa8'/>
    <pointer-type-def type-id='45e7b03c' size-in-bits='32' id='40eba30c'/>
    <pointer-type-def type-id='aa688d10' size-in-bits='32' id='4dcecd78'/>
    <pointer-type-def type-id='8e242690' size-in-bits='32' id='763f4b98'/>
    <pointer-type-def type-id='9f0bbb88' size-in-bits='32' id='f84d5850'/>
    <pointer-type-def type-id='255041c6' size-in-bits='32' id='afa37b16'/>
    <pointer-type-def type-id='3c4ae4ea' size-in-bits='32' id='892d0ff2'/>
    <pointer-type-def type-id='46767cd6' size-in-bits='32' id='9d474d16'/>
    <class-decl name='__sFILE' is-struct='yes' visibility='default' is-declaration-only='yes' id='8d7b2c20'/>
    <typedef-decl name='wctrans_t' type-id='eaa32e2f' filepath='bionic/libc/include/bits/wctype.h' line='60' column='1' id='183c72c5'/>
    <typedef-decl name='FILE' type-id='8d7b2c20' filepath='bionic/libc/include/stdio.h' line='59' column='1' id='aa12d1bc'/>
  </abi-instr>
  <abi-instr address-size='32' path='frameworks/base/native/android/asset_manager.cpp' language='LANG_C_plus_plus_14'>
    <type-decl name='__ARRAY_SIZE_TYPE__' size-in-bits='64' hash='4ee7381753f6ca11' id='7ff19f0f'/>
    <array-type-def dimensions='1' type-id='1b3b87e1' size-in-bits='512' hash='ba54f34584bab9df' id='224e4514'>
      <subrange length='16' lower-bound='0' upper-bound='15' type-id='7ff19f0f' size-in-bits='64' is-anonymous='yes' hash='6c35b1e999eba398' id='848d0938'/>
    </array-type-def>
    <array-type-def dimensions='1' type-id='71ad5e8a' size-in-bits='unknown' hash='4835c8912888775c' id='86626492'>
      <subrange length='unknown' lower-bound='0' upper-bound='0' type-id='7ff19f0f' size-in-bits='64' is-anonymous='yes' hash='eba0a2b392137dcb' id='031f2035'/>
    </array-type-def>
    <array-type-def dimensions='1' type-id='2d5c5fc5' size-in-bits='512' hash='8aa802e6868e2dbc' id='98ae5868'>
      <subrange length='16' lower-bound='0' upper-bound='15' type-id='7ff19f0f' size-in-bits='64' is-anonymous='yes' hash='6c35b1e999eba398' id='848d0938'/>
    </array-type-def>
    <type-decl name='bool' size-in-bits='8' hash='5ba96bb22f4237fb' id='c894953d'/>
    <type-decl name='char' size-in-bits='8' hash='65b2d157027b431a' id='a84c031d'/>
    <type-decl name='char16_t' size-in-bits='16' hash='5fef4c2ad66dfe2e' id='801a266d'/>
    <type-decl name='char32_t' size-in-bits='32' hash='b4c1d1e47e03fb87' id='a846fc93'/>
    <array-type-def dimensions='1' type-id='a84c031d' size-in-bits='16' hash='079f95133f6f2c28' id='49f79167'>
      <subrange length='2' lower-bound='0' upper-bound='1' type-id='7ff19f0f' size-in-bits='64' is-anonymous='yes' hash='95f31efc53154467' id='52efc4ef'/>
    </array-type-def>
    <array-type-def dimensions='1' type-id='a84c031d' size-in-bits='32' hash='932523ac2c3bfb84' id='8e0573fd'>
      <subrange length='4' lower-bound='0' upper-bound='3' type-id='7ff19f0f' size-in-bits='64' is-anonymous='yes' hash='cee611f4a73e486c' id='16fe7105'/>
    </array-type-def>
    <array-type-def dimensions='1' type-id='a84c031d' size-in-bits='64' hash='e1c8b625c73024c4' id='8e100159'>
      <subrange length='8' lower-bound='0' upper-bound='7' type-id='7ff19f0f' size-in-bits='64' is-anonymous='yes' hash='6e87a8ff484907ad' id='56e0c0b1'/>
    </array-type-def>
    <class-decl name='_jarray' visibility='default' size-in-bits='8' filepath='libnativehelper/include_jni/jni.h' line='49' column='1' hash='4e7e5aaebfea0375' id='440aaf49'>
      <base-class access='public' layout-offset-in-bits='0' type-id='baffb083'/>
    </class-decl>
    <class-decl name='_jobject' visibility='default' size-in-bits='8' filepath='libnativehelper/include_jni/jni.h' line='46' column='1' hash='196a3ce7f3ed869e' id='baffb083'/>
    <array-type-def dimensions='1' type-id='bfebf634' size-in-bits='unknown' hash='b8c6ce859630a8b2' id='b51730a0'>
      <subrange length='unknown' lower-bound='0' upper-bound='0' type-id='7ff19f0f' size-in-bits='64' is-anonymous='yes' hash='eba0a2b392137dcb' id='031f2035'/>
    </array-type-def>
    <type-decl name='double' size-in-bits='64' hash='e9e9b320886d9aa6' id='a0eb0f08'/>
    <enum-decl name='jobjectRefType' size-in-bits='32' alignment-in-bits='32' filepath='libnativehelper/include_jni/jni.h' line='121' column='1' hash='de66c02dea2456b4' id='4f771c8a'>
      <underlying-type type-id='9cac1fee'/>
      <enumerator name='JNIInvalidRefType' value='0'/>
      <enumerator name='JNILocalRefType' value='1'/>
      <enumerator name='JNIGlobalRefType' value='2'/>
      <enumerator name='JNIWeakGlobalRefType' value='3'/>
    </enum-decl>
    <type-decl name='float' size-in-bits='32' hash='d7ec3bf03d3c5690' id='a6c45d85'/>
    <type-decl name='int' size-in-bits='32' hash='09d17c08f594edc7' id='95e97e5e'/>
    <array-type-def dimensions='1' type-id='3ff5601b' size-in-bits='32' hash='d92ec14877998fd7' id='e4652d73'>
      <subrange length='1' lower-bound='0' upper-bound='0' type-id='7ff19f0f' size-in-bits='64' is-anonymous='yes' hash='eba0a2b392137dcb' id='52f813b4'/>
    </array-type-def>
    <type-decl name='long double' size-in-bits='64' hash='2758d848d714000f#2' id='a0eb0f09'/>
    <type-decl name='long int' size-in-bits='32' hash='bfe66886a48d6d55#2' id='95e97e5f'/>
    <type-decl name='long long int' size-in-bits='64' hash='5ae7f9eec1fc43d6#3' id='95e97e60'/>
    <type-decl name='short int' size-in-bits='16' hash='6c2352eccdcd3eea#4' id='95e97e61'/>
    <type-decl name='signed char' size-in-bits='8' hash='3c595c3350588f18' id='28577a57'/>
    <array-type-def dimensions='1' type-id='06725de7' size-in-bits='96' hash='e0ce9e8b4927bc3c' id='69cdedfe'>
      <subrange length='3' lower-bound='0' upper-bound='2' type-id='7ff19f0f' size-in-bits='64' is-anonymous='yes' hash='30d99d19f0f4b2ea' id='56f209d2'/>
    </array-type-def>
    <array-type-def dimensions='1' type-id='1a8dd50d' size-in-bits='80' hash='d76727158c5c92f0' id='dafbcf1a'>
      <subrange length='5' lower-bound='0' upper-bound='4' type-id='7ff19f0f' size-in-bits='64' is-anonymous='yes' hash='5aa5cef1e1be46c9' id='53010e10'/>
    </array-type-def>
    <class-decl name='AAsset' is-struct='yes' visibility='default' size-in-bits='32' filepath='frameworks/base/native/android/asset_manager.cpp' line='50' column='1' hash='17d279728d178c75' id='1fc4034c'>
      <data-member access='public' layout-offset-in-bits='0'>
        <var-decl name='mAsset' type-id='ac070eda' visibility='default' filepath='frameworks/base/native/android/asset_manager.cpp' line='51' column='1'/>
      </data-member>
    </class-decl>
    <class-decl name='AAssetDir' is-struct='yes' visibility='default' size-in-bits='96' filepath='frameworks/base/native/android/asset_manager.cpp' line='39' column='1' hash='4ed285fec3d73e56' id='ea9788c3'>
      <data-member access='public' layout-offset-in-bits='0'>
        <var-decl name='mAssetDir' type-id='6a6c3f8a' visibility='default' filepath='frameworks/base/native/android/asset_manager.cpp' line='40' column='1'/>
      </data-member>
      <data-member access='public' layout-offset-in-bits='32'>
        <var-decl name='mCurFileIndex' type-id='b59d7dce' visibility='default' filepath='frameworks/base/native/android/asset_manager.cpp' line='41' column='1'/>
      </data-member>
      <data-member access='public' layout-offset-in-bits='64'>
        <var-decl name='mCachedFileName' type-id='bacf3393' visibility='default' filepath='frameworks/base/native/android/asset_manager.cpp' line='42' column='1'/>
      </data-member>
    </class-decl>
    <class-decl name='AAssetManager' is-struct='yes' visibility='default' size-in-bits='8' filepath='frameworks/base/libs/androidfw/include/androidfw/AssetManager.h' line='36' column='1' hash='3322bac3c2406039' id='7907d453'/>
    <class-decl name='JNINativeInterface' is-struct='yes' visibility='default' size-in-bits='7456' filepath='libnativehelper/include_jni/jni.h' line='149' column='1' hash='321558a9f2d2f961' id='ad414f12'>
      <data-member access='public' layout-offset-in-bits='0'>
        <var-decl name='reserved0' type-id='eaa32e2f' visibility='default' filepath='libnativehelper/include_jni/jni.h' line='150' column='1'/>
      </data-member>
      <data-member access='public' layout-offset-in-bits='32'>
        <var-decl name='reserved1' type-id='eaa32e2f' visibility='default' filepath='libnativehelper/include_jni/jni.h' line='151' column='1'/>
      </data-member>
      <data-member access='public' layout-offset-in-bits='64'>
        <var-decl name='reserved2' type-id='eaa32e2f' visibility='default' filepath='libnativehelper/include_jni/jni.h' line='152' column='1'/>
      </data-member>
      <data-member access='public' layout-offset-in-bits='96'>
        <var-decl name='reserved3' type-id='eaa32e2f' visibility='default' filepath='libnativehelper/include_jni/jni.h' line='153' column='1'/>
      </data-member>
      <data-member access='public' layout-offset-in-bits='128'>
        <var-decl name='GetVersion' type-id='7e62d932' visibility='default' filepath='libnativehelper/include_jni/jni.h' line='155' column='1'/>
      </data-member>
      <data-member access='public' layout-offset-in-bits='160'>
        <var-decl name='DefineClass' type-id='93fe72f9' visibility='default' filepath='libnativehelper/include_jni/jni.h' line='157' column='1'/>
      </data-member>
      <data-member access='public' layout-offset-in-bits='192'>
        <var-decl name='FindClass' type-id='0701e7a2' visibility='default' filepath='libnativehelper/include_jni/jni.h' line='159' column='1'/>
      </data-member>
      <data-member access='public' layout-offset-in-bits='224'>
        <var-decl name='FromReflectedMethod' type-id='302207a0' visibility='default' filepath='libnativehelper/include_jni/jni.h' line='161' column='1'/>
      </data-member>
      <data-member access='public' layout-offset-in-bits='256'>
        <var-decl name='FromReflectedField' type-id='b4201f3f' visibility='default' filepath='libnativehelper/include_jni/jni.h' line='162' column='1'/>
      </data-member>
      <data-member access='public' layout-offset-in-bits='288'>
        <var-decl name='ToReflectedMethod' type-id='e6deb706' visibility='default' filepath='libnativehelper/include_jni/jni.h' line='164' column='1'/>
      </data-member>
      <data-member access='public' layout-offset-in-bits='320'>
        <var-decl name='GetSuperclass' type-id='96a2b59f' visibility='default' filepath='libnativehelper/include_jni/jni.h' line='166' column='1'/>
      </data-member>
      <data-member access='public' layout-offset-in-bits='352'>
        <var-decl name='IsAssignableFrom' type-id='51a12745' visibility='default' filepath='libnativehelper/include_jni/jni.h' line='167' column='1'/>
      </data-member>
      <data-member access='public' layout-offset-in-bits='384'>
        <var-decl name='ToReflectedField' type-id='fcfbd023' visibility='default' filepath='libnativehelper/include_jni/jni.h' line='170' column='1'/>
      </data-member>
      <data-member access='public' layout-offset-in-bits='416'>
        <var-decl name='Throw' type-id='ed039044' visibility='default' filepath='libnativehelper/include_jni/jni.h' line='172' column='1'/>
      </data-member>
      <data-member access='public' layout-offset-in-bits='448'>
        <var-decl name='ThrowNew' type-id='66017941' visibility='default' filepath='libnativehelper/include_jni/jni.h' line='173' column='1'/>
      </data-member>
      <data-member access='public' layout-offset-in-bits='480'>
        <var-decl name='ExceptionOccurred' type-id='ebe3c60d' visibility='default' filepath='libnativehelper/include_jni/jni.h' line='174' column='1'/>
      </data-member>
      <data-member access='public' layout-offset-in-bits='512'>
        <var-decl name='ExceptionDescribe' type-id='e45dd401' visibility='default' filepath='libnativehelper/include_jni/jni.h' line='175' column='1'/>
      </data-member>
      <data-member access='public' layout-offset-in-bits='544'>
        <var-decl name='ExceptionClear' type-id='e45dd401' visibility='default' filepath='libnativehelper/include_jni/jni.h' line='176' column='1'/>
      </data-member>
      <data-member access='public' layout-offset-in-bits='576'>
        <var-decl name='FatalError' type-id='7a98879a' visibility='default' filepath='libnativehelper/include_jni/jni.h' line='177' column='1'/>
      </data-member>
      <data-member access='public' layout-offset-in-bits='608'>
        <var-decl name='PushLocalFrame' type-id='d48cb67f' visibility='default' filepath='libnativehelper/include_jni/jni.h' line='179' column='1'/>
      </data-member>
      <data-member access='public' layout-offset-in-bits='640'>
        <var-decl name='PopLocalFrame' type-id='9c119f0f' visibility='default' filepath='libnativehelper/include_jni/jni.h' line='180' column='1'/>
      </data-member>
      <data-member access='public' layout-offset-in-bits='672'>
        <var-decl name='NewGlobalRef' type-id='9c119f0f' visibility='default' filepath='libnativehelper/include_jni/jni.h' line='182' column='1'/>
      </data-member>
      <data-member access='public' layout-offset-in-bits='704'>
        <var-decl name='DeleteGlobalRef' type-id='dcb938f6' visibility='default' filepath='libnativehelper/include_jni/jni.h' line='183' column='1'/>
      </data-member>
      <data-member access='public' layout-offset-in-bits='736'>
        <var-decl name='DeleteLocalRef' type-id='dcb938f6' visibility='default' filepath='libnativehelper/include_jni/jni.h' line='184' column='1'/>
      </data-member>
      <data-member access='public' layout-offset-in-bits='768'>
        <var-decl name='IsSameObject' type-id='e089ff87' visibility='default' filepath='libnativehelper/include_jni/jni.h' line='185' column='1'/>
      </data-member>
      <data-member access='public' layout-offset-in-bits='800'>
        <var-decl name='NewLocalRef' type-id='9c119f0f' visibility='default' filepath='libnativehelper/include_jni/jni.h' line='187' column='1'/>
      </data-member>
      <data-member access='public' layout-offset-in-bits='832'>
        <var-decl name='EnsureLocalCapacity' type-id='d48cb67f' visibility='default' filepath='libnativehelper/include_jni/jni.h' line='188' column='1'/>
      </data-member>
      <data-member access='public' layout-offset-in-bits='864'>
        <var-decl name='AllocObject' type-id='73cc2298' visibility='default' filepath='libnativehelper/include_jni/jni.h' line='190' column='1'/>
      </data-member>
      <data-member access='public' layout-offset-in-bits='896'>
        <var-decl name='NewObject' type-id='d7458144' visibility='default' filepath='libnativehelper/include_jni/jni.h' line='191' column='1'/>
      </data-member>
      <data-member access='public' layout-offset-in-bits='928'>
        <var-decl name='NewObjectV' type-id='f58e29c4' visibility='default' filepath='libnativehelper/include_jni/jni.h' line='192' column='1'/>
      </data-member>
      <data-member access='public' layout-offset-in-bits='960'>
        <var-decl name='NewObjectA' type-id='e4ddaae2' visibility='default' filepath='libnativehelper/include_jni/jni.h' line='193' column='1'/>
      </data-member>
      <data-member access='public' layout-offset-in-bits='992'>
        <var-decl name='GetObjectClass' type-id='b769f8ce' visibility='default' filepath='libnativehelper/include_jni/jni.h' line='195' column='1'/>
      </data-member>
      <data-member access='public' layout-offset-in-bits='1024'>
        <var-decl name='IsInstanceOf' type-id='edf75eb0' visibility='default' filepath='libnativehelper/include_jni/jni.h' line='196' column='1'/>
      </data-member>
      <data-member access='public' layout-offset-in-bits='1056'>
        <var-decl name='GetMethodID' type-id='84ed917f' visibility='default' filepath='libnativehelper/include_jni/jni.h' line='197' column='1'/>
      </data-member>
      <data-member access='public' layout-offset-in-bits='1088'>
        <var-decl name='CallObjectMethod' type-id='e4dd1d6b' visibility='default' filepath='libnativehelper/include_jni/jni.h' line='199' column='1'/>
      </data-member>
      <data-member access='public' layout-offset-in-bits='1120'>
        <var-decl name='CallObjectMethodV' type-id='25d63ceb' visibility='default' filepath='libnativehelper/include_jni/jni.h' line='200' column='1'/>
      </data-member>
      <data-member access='public' layout-offset-in-bits='1152'>
        <var-decl name='CallObjectMethodA' type-id='2e9f47d5' visibility='default' filepath='libnativehelper/include_jni/jni.h' line='201' column='1'/>
      </data-member>
      <data-member access='public' layout-offset-in-bits='1184'>
        <var-decl name='CallBooleanMethod' type-id='d45ba39e' visibility='default' filepath='libnativehelper/include_jni/jni.h' line='202' column='1'/>
      </data-member>
      <data-member access='public' layout-offset-in-bits='1216'>
        <var-decl name='CallBooleanMethodV' type-id='e6dd1f9e' visibility='default' filepath='libnativehelper/include_jni/jni.h' line='203' column='1'/>
      </data-member>
      <data-member access='public' layout-offset-in-bits='1248'>
        <var-decl name='CallBooleanMethodA' type-id='214c5f44' visibility='default' filepath='libnativehelper/include_jni/jni.h' line='204' column='1'/>
      </data-member>
      <data-member access='public' layout-offset-in-bits='1280'>
        <var-decl name='CallByteMethod' type-id='d3e60ade' visibility='default' filepath='libnativehelper/include_jni/jni.h' line='205' column='1'/>
      </data-member>
      <data-member access='public' layout-offset-in-bits='1312'>
        <var-decl name='CallByteMethodV' type-id='ac58975e' visibility='default' filepath='libnativehelper/include_jni/jni.h' line='206' column='1'/>
      </data-member>
      <data-member access='public' layout-offset-in-bits='1344'>
        <var-decl name='CallByteMethodA' type-id='483faa04' visibility='default' filepath='libnativehelper/include_jni/jni.h' line='207' column='1'/>
      </data-member>
      <data-member access='public' layout-offset-in-bits='1376'>
        <var-decl name='CallCharMethod' type-id='4eccfcec' visibility='default' filepath='libnativehelper/include_jni/jni.h' line='208' column='1'/>
      </data-member>
      <data-member access='public' layout-offset-in-bits='1408'>
        <var-decl name='CallCharMethodV' type-id='ebd01c4c' visibility='default' filepath='libnativehelper/include_jni/jni.h' line='209' column='1'/>
      </data-member>
      <data-member access='public' layout-offset-in-bits='1440'>
        <var-decl name='CallCharMethodA' type-id='ae8575aa' visibility='default' filepath='libnativehelper/include_jni/jni.h' line='210' column='1'/>
      </data-member>
      <data-member access='public' layout-offset-in-bits='1472'>
        <var-decl name='CallShortMethod' type-id='3792de44' visibility='default' filepath='libnativehelper/include_jni/jni.h' line='211' column='1'/>
      </data-member>
      <data-member access='public' layout-offset-in-bits='1504'>
        <var-decl name='CallShortMethodV' type-id='609456c4' visibility='default' filepath='libnativehelper/include_jni/jni.h' line='212' column='1'/>
      </data-member>
      <data-member access='public' layout-offset-in-bits='1536'>
        <var-decl name='CallShortMethodA' type-id='e44a6fe2' visibility='default' filepath='libnativehelper/include_jni/jni.h' line='213' column='1'/>
      </data-member>
      <data-member access='public' layout-offset-in-bits='1568'>
        <var-decl name='CallIntMethod' type-id='10997527' visibility='default' filepath='libnativehelper/include_jni/jni.h' line='214' column='1'/>
      </data-member>
      <data-member access='public' layout-offset-in-bits='1600'>
        <var-decl name='CallIntMethodV' type-id='72203d5f' visibility='default' filepath='libnativehelper/include_jni/jni.h' line='215' column='1'/>
      </data-member>
      <data-member access='public' layout-offset-in-bits='1632'>
        <var-decl name='CallIntMethodA' type-id='6efc86e1' visibility='default' filepath='libnativehelper/include_jni/jni.h' line='216' column='1'/>
      </data-member>
      <data-member access='public' layout-offset-in-bits='1664'>
        <var-decl name='CallLongMethod' type-id='b9c24b8a' visibility='default' filepath='libnativehelper/include_jni/jni.h' line='217' column='1'/>
      </data-member>
      <data-member access='public' layout-offset-in-bits='1696'>
        <var-decl name='CallLongMethodV' type-id='52583992' visibility='default' filepath='libnativehelper/include_jni/jni.h' line='218' column='1'/>
      </data-member>
      <data-member access='public' layout-offset-in-bits='1728'>
        <var-decl name='CallLongMethodA' type-id='571d8fb0' visibility='default' filepath='libnativehelper/include_jni/jni.h' line='219' column='1'/>
      </data-member>
      <data-member access='public' layout-offset-in-bits='1760'>
        <var-decl name='CallFloatMethod' type-id='09928654' visibility='default' filepath='libnativehelper/include_jni/jni.h' line='220' column='1'/>
      </data-member>
      <data-member access='public' layout-offset-in-bits='1792'>
        <var-decl name='CallFloatMethodV' type-id='5ee3c214' visibility='default' filepath='libnativehelper/include_jni/jni.h' line='221' column='1'/>
      </data-member>
      <data-member access='public' layout-offset-in-bits='1824'>
        <var-decl name='CallFloatMethodA' type-id='9f32ba72' visibility='default' filepath='libnativehelper/include_jni/jni.h' line='222' column='1'/>
      </data-member>
      <data-member access='public' layout-offset-in-bits='1856'>
        <var-decl name='CallDoubleMethod' type-id='b76bba71' visibility='default' filepath='libnativehelper/include_jni/jni.h' line='223' column='1'/>
      </data-member>
      <data-member access='public' layout-offset-in-bits='1888'>
        <var-decl name='CallDoubleMethodV' type-id='cb41d9c1' visibility='default' filepath='libnativehelper/include_jni/jni.h' line='224' column='1'/>
      </data-member>
      <data-member access='public' layout-offset-in-bits='1920'>
        <var-decl name='CallDoubleMethodA' type-id='99520b7b' visibility='default' filepath='libnativehelper/include_jni/jni.h' line='225' column='1'/>
      </data-member>
      <data-member access='public' layout-offset-in-bits='1952'>
        <var-decl name='CallVoidMethod' type-id='9dfb2c96' visibility='default' filepath='libnativehelper/include_jni/jni.h' line='226' column='1'/>
      </data-member>
      <data-member access='public' layout-offset-in-bits='1984'>
        <var-decl name='CallVoidMethodV' type-id='d88d0f96' visibility='default' filepath='libnativehelper/include_jni/jni.h' line='227' column='1'/>
      </data-member>
      <data-member access='public' layout-offset-in-bits='2016'>
        <var-decl name='CallVoidMethodA' type-id='46effcdc' visibility='default' filepath='libnativehelper/include_jni/jni.h' line='228' column='1'/>
      </data-member>
      <data-member access='public' layout-offset-in-bits='2048'>
        <var-decl name='CallNonvirtualObjectMethod' type-id='2d40e32d' visibility='default' filepath='libnativehelper/include_jni/jni.h' line='230' column='1'/>
      </data-member>
      <data-member access='public' layout-offset-in-bits='2080'>
        <var-decl name='CallNonvirtualObjectMethodV' type-id='3155ce35' visibility='default' filepath='libnativehelper/include_jni/jni.h' line='232' column='1'/>
      </data-member>
      <data-member access='public' layout-offset-in-bits='2112'>
        <var-decl name='CallNonvirtualObjectMethodA' type-id='3aa77c87' visibility='default' filepath='libnativehelper/include_jni/jni.h' line='234' column='1'/>
      </data-member>
      <data-member access='public' layout-offset-in-bits='2144'>
        <var-decl name='CallNonvirtualBooleanMethod' type-id='365ad2dc' visibility='default' filepath='libnativehelper/include_jni/jni.h' line='236' column='1'/>
      </data-member>
      <data-member access='public' layout-offset-in-bits='2176'>
        <var-decl name='CallNonvirtualBooleanMethodV' type-id='14a5b6bc' visibility='default' filepath='libnativehelper/include_jni/jni.h' line='238' column='1'/>
      </data-member>
      <data-member access='public' layout-offset-in-bits='2208'>
        <var-decl name='CallNonvirtualBooleanMethodA' type-id='03b4d21a' visibility='default' filepath='libnativehelper/include_jni/jni.h' line='240' column='1'/>
      </data-member>
      <data-member access='public' layout-offset-in-bits='2240'>
        <var-decl name='CallNonvirtualByteMethod' type-id='19f8581c' visibility='default' filepath='libnativehelper/include_jni/jni.h' line='242' column='1'/>
      </data-member>
      <data-member access='public' layout-offset-in-bits='2272'>
        <var-decl name='CallNonvirtualByteMethodV' type-id='c45ae27c' visibility='default' filepath='libnativehelper/include_jni/jni.h' line='244' column='1'/>
      </data-member>
      <data-member access='public' layout-offset-in-bits='2304'>
        <var-decl name='CallNonvirtualByteMethodA' type-id='95eb11da' visibility='default' filepath='libnativehelper/include_jni/jni.h' line='246' column='1'/>
      </data-member>
      <data-member access='public' layout-offset-in-bits='2336'>
        <var-decl name='CallNonvirtualCharMethod' type-id='a0a864ea' visibility='default' filepath='libnativehelper/include_jni/jni.h' line='248' column='1'/>
      </data-member>
      <data-member access='public' layout-offset-in-bits='2368'>
        <var-decl name='CallNonvirtualCharMethodV' type-id='e08f90b2' visibility='default' filepath='libnativehelper/include_jni/jni.h' line='250' column='1'/>
      </data-member>
      <data-member access='public' layout-offset-in-bits='2400'>
        <var-decl name='CallNonvirtualCharMethodA' type-id='3d1c1990' visibility='default' filepath='libnativehelper/include_jni/jni.h' line='252' column='1'/>
      </data-member>
      <data-member access='public' layout-offset-in-bits='2432'>
        <var-decl name='CallNonvirtualShortMethod' type-id='8243b832' visibility='default' filepath='libnativehelper/include_jni/jni.h' line='254' column='1'/>
      </data-member>
      <data-member access='public' layout-offset-in-bits='2464'>
        <var-decl name='CallNonvirtualShortMethodV' type-id='2e6fa23a' visibility='default' filepath='libnativehelper/include_jni/jni.h' line='256' column='1'/>
      </data-member>
      <data-member access='public' layout-offset-in-bits='2496'>
        <var-decl name='CallNonvirtualShortMethodA' type-id='6835b638' visibility='default' filepath='libnativehelper/include_jni/jni.h' line='258' column='1'/>
      </data-member>
      <data-member access='public' layout-offset-in-bits='2528'>
        <var-decl name='CallNonvirtualIntMethod' type-id='4d7ba689' visibility='default' filepath='libnativehelper/include_jni/jni.h' line='260' column='1'/>
      </data-member>
      <data-member access='public' layout-offset-in-bits='2560'>
        <var-decl name='CallNonvirtualIntMethodV' type-id='0d9ebbb9' visibility='default' filepath='libnativehelper/include_jni/jni.h' line='262' column='1'/>
      </data-member>
      <data-member access='public' layout-offset-in-bits='2592'>
        <var-decl name='CallNonvirtualIntMethodA' type-id='a594cd33' visibility='default' filepath='libnativehelper/include_jni/jni.h' line='264' column='1'/>
      </data-member>
      <data-member access='public' layout-offset-in-bits='2624'>
        <var-decl name='CallNonvirtualLongMethod' type-id='a97276f8' visibility='default' filepath='libnativehelper/include_jni/jni.h' line='266' column='1'/>
      </data-member>
      <data-member access='public' layout-offset-in-bits='2656'>
        <var-decl name='CallNonvirtualLongMethodV' type-id='a5f29b60' visibility='default' filepath='libnativehelper/include_jni/jni.h' line='268' column='1'/>
      </data-member>
      <data-member access='public' layout-offset-in-bits='2688'>
        <var-decl name='CallNonvirtualLongMethodA' type-id='d8865276' visibility='default' filepath='libnativehelper/include_jni/jni.h' line='270' column='1'/>
      </data-member>
      <data-member access='public' layout-offset-in-bits='2720'>
        <var-decl name='CallNonvirtualFloatMethod' type-id='0a890a42' visibility='default' filepath='libnativehelper/include_jni/jni.h' line='272' column='1'/>
      </data-member>
      <data-member access='public' layout-offset-in-bits='2752'>
        <var-decl name='CallNonvirtualFloatMethodV' type-id='ff165b8a' visibility='default' filepath='libnativehelper/include_jni/jni.h' line='274' column='1'/>
      </data-member>
      <data-member access='public' layout-offset-in-bits='2784'>
        <var-decl name='CallNonvirtualFloatMethodA' type-id='47e937c8' visibility='default' filepath='libnativehelper/include_jni/jni.h' line='276' column='1'/>
      </data-member>
      <data-member access='public' layout-offset-in-bits='2816'>
        <var-decl name='CallNonvirtualDoubleMethod' type-id='47bd5aa3' visibility='default' filepath='libnativehelper/include_jni/jni.h' line='278' column='1'/>
      </data-member>
      <data-member access='public' layout-offset-in-bits='2848'>
        <var-decl name='CallNonvirtualDoubleMethodV' type-id='bcb23543' visibility='default' filepath='libnativehelper/include_jni/jni.h' line='280' column='1'/>
      </data-member>
      <data-member access='public' layout-offset-in-bits='2880'>
        <var-decl name='CallNonvirtualDoubleMethodA' type-id='974e7d0d' visibility='default' filepath='libnativehelper/include_jni/jni.h' line='282' column='1'/>
      </data-member>
      <data-member access='public' layout-offset-in-bits='2912'>
        <var-decl name='CallNonvirtualVoidMethod' type-id='52490c64' visibility='default' filepath='libnativehelper/include_jni/jni.h' line='284' column='1'/>
      </data-member>
      <data-member access='public' layout-offset-in-bits='2944'>
        <var-decl name='CallNonvirtualVoidMethodV' type-id='02597924' visibility='default' filepath='libnativehelper/include_jni/jni.h' line='286' column='1'/>
      </data-member>
      <data-member access='public' layout-offset-in-bits='2976'>
        <var-decl name='CallNonvirtualVoidMethodA' type-id='cb345202' visibility='default' filepath='libnativehelper/include_jni/jni.h' line='288' column='1'/>
      </data-member>
      <data-member access='public' layout-offset-in-bits='3008'>
        <var-decl name='GetFieldID' type-id='a316ff5e' visibility='default' filepath='libnativehelper/include_jni/jni.h' line='291' column='1'/>
      </data-member>
      <data-member access='public' layout-offset-in-bits='3040'>
        <var-decl name='GetObjectField' type-id='de6ab93a' visibility='default' filepath='libnativehelper/include_jni/jni.h' line='293' column='1'/>
      </data-member>
      <data-member access='public' layout-offset-in-bits='3072'>
        <var-decl name='GetBooleanField' type-id='4a3ee6bf' visibility='default' filepath='libnativehelper/include_jni/jni.h' line='294' column='1'/>
      </data-member>
      <data-member access='public' layout-offset-in-bits='3104'>
        <var-decl name='GetByteField' type-id='5750967f' visibility='default' filepath='libnativehelper/include_jni/jni.h' line='295' column='1'/>
      </data-member>
      <data-member access='public' layout-offset-in-bits='3136'>
        <var-decl name='GetCharField' type-id='002b51d9' visibility='default' filepath='libnativehelper/include_jni/jni.h' line='296' column='1'/>
      </data-member>
      <data-member access='public' layout-offset-in-bits='3168'>
        <var-decl name='GetShortField' type-id='502b46a1' visibility='default' filepath='libnativehelper/include_jni/jni.h' line='297' column='1'/>
      </data-member>
      <data-member access='public' layout-offset-in-bits='3200'>
        <var-decl name='GetIntField' type-id='5203f86e' visibility='default' filepath='libnativehelper/include_jni/jni.h' line='298' column='1'/>
      </data-member>
      <data-member access='public' layout-offset-in-bits='3232'>
        <var-decl name='GetLongField' type-id='8a93d1c3' visibility='default' filepath='libnativehelper/include_jni/jni.h' line='299' column='1'/>
      </data-member>
      <data-member access='public' layout-offset-in-bits='3264'>
        <var-decl name='GetFloatField' type-id='9202a511' visibility='default' filepath='libnativehelper/include_jni/jni.h' line='300' column='1'/>
      </data-member>
      <data-member access='public' layout-offset-in-bits='3296'>
        <var-decl name='GetDoubleField' type-id='cf64aecc' visibility='default' filepath='libnativehelper/include_jni/jni.h' line='301' column='1'/>
      </data-member>
      <data-member access='public' layout-offset-in-bits='3328'>
        <var-decl name='SetObjectField' type-id='93ed7c54' visibility='default' filepath='libnativehelper/include_jni/jni.h' line='303' column='1'/>
      </data-member>
      <data-member access='public' layout-offset-in-bits='3360'>
        <var-decl name='SetBooleanField' type-id='f9ae2915' visibility='default' filepath='libnativehelper/include_jni/jni.h' line='304' column='1'/>
      </data-member>
      <data-member access='public' layout-offset-in-bits='3392'>
        <var-decl name='SetByteField' type-id='2f2ff64f' visibility='default' filepath='libnativehelper/include_jni/jni.h' line='305' column='1'/>
      </data-member>
      <data-member access='public' layout-offset-in-bits='3424'>
        <var-decl name='SetCharField' type-id='963c2d49' visibility='default' filepath='libnativehelper/include_jni/jni.h' line='306' column='1'/>
      </data-member>
      <data-member access='public' layout-offset-in-bits='3456'>
        <var-decl name='SetShortField' type-id='8220f20b' visibility='default' filepath='libnativehelper/include_jni/jni.h' line='307' column='1'/>
      </data-member>
      <data-member access='public' layout-offset-in-bits='3488'>
        <var-decl name='SetIntField' type-id='d2bd2fda' visibility='default' filepath='libnativehelper/include_jni/jni.h' line='308' column='1'/>
      </data-member>
      <data-member access='public' layout-offset-in-bits='3520'>
        <var-decl name='SetLongField' type-id='fa4898ab' visibility='default' filepath='libnativehelper/include_jni/jni.h' line='309' column='1'/>
      </data-member>
      <data-member access='public' layout-offset-in-bits='3552'>
        <var-decl name='SetFloatField' type-id='03105c2f' visibility='default' filepath='libnativehelper/include_jni/jni.h' line='310' column='1'/>
      </data-member>
      <data-member access='public' layout-offset-in-bits='3584'>
        <var-decl name='SetDoubleField' type-id='87524436' visibility='default' filepath='libnativehelper/include_jni/jni.h' line='311' column='1'/>
      </data-member>
      <data-member access='public' layout-offset-in-bits='3616'>
        <var-decl name='GetStaticMethodID' type-id='84ed917f' visibility='default' filepath='libnativehelper/include_jni/jni.h' line='313' column='1'/>
      </data-member>
      <data-member access='public' layout-offset-in-bits='3648'>
        <var-decl name='CallStaticObjectMethod' type-id='d7458144' visibility='default' filepath='libnativehelper/include_jni/jni.h' line='315' column='1'/>
      </data-member>
      <data-member access='public' layout-offset-in-bits='3680'>
        <var-decl name='CallStaticObjectMethodV' type-id='f58e29c4' visibility='default' filepath='libnativehelper/include_jni/jni.h' line='316' column='1'/>
      </data-member>
      <data-member access='public' layout-offset-in-bits='3712'>
        <var-decl name='CallStaticObjectMethodA' type-id='e4ddaae2' visibility='default' filepath='libnativehelper/include_jni/jni.h' line='317' column='1'/>
      </data-member>
      <data-member access='public' layout-offset-in-bits='3744'>
        <var-decl name='CallStaticBooleanMethod' type-id='cf23ae6b' visibility='default' filepath='libnativehelper/include_jni/jni.h' line='318' column='1'/>
      </data-member>
      <data-member access='public' layout-offset-in-bits='3776'>
        <var-decl name='CallStaticBooleanMethodV' type-id='fe34ddeb' visibility='default' filepath='libnativehelper/include_jni/jni.h' line='319' column='1'/>
      </data-member>
      <data-member access='public' layout-offset-in-bits='3808'>
        <var-decl name='CallStaticBooleanMethodA' type-id='6500e0d5' visibility='default' filepath='libnativehelper/include_jni/jni.h' line='321' column='1'/>
      </data-member>
      <data-member access='public' layout-offset-in-bits='3840'>
        <var-decl name='CallStaticByteMethod' type-id='9672ceab' visibility='default' filepath='libnativehelper/include_jni/jni.h' line='322' column='1'/>
      </data-member>
      <data-member access='public' layout-offset-in-bits='3872'>
        <var-decl name='CallStaticByteMethodV' type-id='68dff1ab' visibility='default' filepath='libnativehelper/include_jni/jni.h' line='323' column='1'/>
      </data-member>
      <data-member access='public' layout-offset-in-bits='3904'>
        <var-decl name='CallStaticByteMethodA' type-id='e1233a95' visibility='default' filepath='libnativehelper/include_jni/jni.h' line='324' column='1'/>
      </data-member>
      <data-member access='public' layout-offset-in-bits='3936'>
        <var-decl name='CallStaticCharMethod' type-id='74c6bbc1' visibility='default' filepath='libnativehelper/include_jni/jni.h' line='325' column='1'/>
      </data-member>
      <data-member access='public' layout-offset-in-bits='3968'>
        <var-decl name='CallStaticCharMethodV' type-id='c99edb51' visibility='default' filepath='libnativehelper/include_jni/jni.h' line='326' column='1'/>
      </data-member>
      <data-member access='public' layout-offset-in-bits='4000'>
        <var-decl name='CallStaticCharMethodA' type-id='9aa3a30b' visibility='default' filepath='libnativehelper/include_jni/jni.h' line='327' column='1'/>
      </data-member>
      <data-member access='public' layout-offset-in-bits='4032'>
        <var-decl name='CallStaticShortMethod' type-id='7613d7f9' visibility='default' filepath='libnativehelper/include_jni/jni.h' line='328' column='1'/>
      </data-member>
      <data-member access='public' layout-offset-in-bits='4064'>
        <var-decl name='CallStaticShortMethodV' type-id='cb27a9e9' visibility='default' filepath='libnativehelper/include_jni/jni.h' line='329' column='1'/>
      </data-member>
      <data-member access='public' layout-offset-in-bits='4096'>
        <var-decl name='CallStaticShortMethodA' type-id='6fa6efa3' visibility='default' filepath='libnativehelper/include_jni/jni.h' line='330' column='1'/>
      </data-member>
      <data-member access='public' layout-offset-in-bits='4128'>
        <var-decl name='CallStaticIntMethod' type-id='03edf0e8' visibility='default' filepath='libnativehelper/include_jni/jni.h' line='331' column='1'/>
      </data-member>
      <data-member access='public' layout-offset-in-bits='4160'>
        <var-decl name='CallStaticIntMethodV' type-id='4186fd90' visibility='default' filepath='libnativehelper/include_jni/jni.h' line='332' column='1'/>
      </data-member>
      <data-member access='public' layout-offset-in-bits='4192'>
        <var-decl name='CallStaticIntMethodA' type-id='b733d2a6' visibility='default' filepath='libnativehelper/include_jni/jni.h' line='333' column='1'/>
      </data-member>
      <data-member access='public' layout-offset-in-bits='4224'>
        <var-decl name='CallStaticLongMethod' type-id='ac0692ef' visibility='default' filepath='libnativehelper/include_jni/jni.h' line='334' column='1'/>
      </data-member>
      <data-member access='public' layout-offset-in-bits='4256'>
        <var-decl name='CallStaticLongMethodV' type-id='69e037a7' visibility='default' filepath='libnativehelper/include_jni/jni.h' line='335' column='1'/>
      </data-member>
      <data-member access='public' layout-offset-in-bits='4288'>
        <var-decl name='CallStaticLongMethodA' type-id='930f7049' visibility='default' filepath='libnativehelper/include_jni/jni.h' line='336' column='1'/>
      </data-member>
      <data-member access='public' layout-offset-in-bits='4320'>
        <var-decl name='CallStaticFloatMethod' type-id='22bf7509' visibility='default' filepath='libnativehelper/include_jni/jni.h' line='337' column='1'/>
      </data-member>
      <data-member access='public' layout-offset-in-bits='4352'>
        <var-decl name='CallStaticFloatMethodV' type-id='64f0f239' visibility='default' filepath='libnativehelper/include_jni/jni.h' line='338' column='1'/>
      </data-member>
      <data-member access='public' layout-offset-in-bits='4384'>
        <var-decl name='CallStaticFloatMethodA' type-id='ffa14fb3' visibility='default' filepath='libnativehelper/include_jni/jni.h' line='339' column='1'/>
      </data-member>
      <data-member access='public' layout-offset-in-bits='4416'>
        <var-decl name='CallStaticDoubleMethod' type-id='9a728e42' visibility='default' filepath='libnativehelper/include_jni/jni.h' line='340' column='1'/>
      </data-member>
      <data-member access='public' layout-offset-in-bits='4448'>
        <var-decl name='CallStaticDoubleMethodV' type-id='b5141f8a' visibility='default' filepath='libnativehelper/include_jni/jni.h' line='341' column='1'/>
      </data-member>
      <data-member access='public' layout-offset-in-bits='4480'>
        <var-decl name='CallStaticDoubleMethodA' type-id='37d8dbc8' visibility='default' filepath='libnativehelper/include_jni/jni.h' line='342' column='1'/>
      </data-member>
      <data-member access='public' layout-offset-in-bits='4512'>
        <var-decl name='CallStaticVoidMethod' type-id='23df0f63' visibility='default' filepath='libnativehelper/include_jni/jni.h' line='343' column='1'/>
      </data-member>
      <data-member access='public' layout-offset-in-bits='4544'>
        <var-decl name='CallStaticVoidMethodV' type-id='54ed3183' visibility='default' filepath='libnativehelper/include_jni/jni.h' line='344' column='1'/>
      </data-member>
      <data-member access='public' layout-offset-in-bits='4576'>
        <var-decl name='CallStaticVoidMethodA' type-id='4ddca04d' visibility='default' filepath='libnativehelper/include_jni/jni.h' line='345' column='1'/>
      </data-member>
      <data-member access='public' layout-offset-in-bits='4608'>
        <var-decl name='GetStaticFieldID' type-id='a316ff5e' visibility='default' filepath='libnativehelper/include_jni/jni.h' line='347' column='1'/>
      </data-member>
      <data-member access='public' layout-offset-in-bits='4640'>
        <var-decl name='GetStaticObjectField' type-id='fda9c1a1' visibility='default' filepath='libnativehelper/include_jni/jni.h' line='350' column='1'/>
      </data-member>
      <data-member access='public' layout-offset-in-bits='4672'>
        <var-decl name='GetStaticBooleanField' type-id='9c44123a' visibility='default' filepath='libnativehelper/include_jni/jni.h' line='351' column='1'/>
      </data-member>
      <data-member access='public' layout-offset-in-bits='4704'>
        <var-decl name='GetStaticByteField' type-id='95e124fa' visibility='default' filepath='libnativehelper/include_jni/jni.h' line='352' column='1'/>
      </data-member>
      <data-member access='public' layout-offset-in-bits='4736'>
        <var-decl name='GetStaticCharField' type-id='2c2f7dfc' visibility='default' filepath='libnativehelper/include_jni/jni.h' line='353' column='1'/>
      </data-member>
      <data-member access='public' layout-offset-in-bits='4768'>
        <var-decl name='GetStaticShortField' type-id='92632084' visibility='default' filepath='libnativehelper/include_jni/jni.h' line='354' column='1'/>
      </data-member>
      <data-member access='public' layout-offset-in-bits='4800'>
        <var-decl name='GetStaticIntField' type-id='cdbc23ed' visibility='default' filepath='libnativehelper/include_jni/jni.h' line='355' column='1'/>
      </data-member>
      <data-member access='public' layout-offset-in-bits='4832'>
        <var-decl name='GetStaticLongField' type-id='3e4a17a6' visibility='default' filepath='libnativehelper/include_jni/jni.h' line='356' column='1'/>
      </data-member>
      <data-member access='public' layout-offset-in-bits='4864'>
        <var-decl name='GetStaticFloatField' type-id='cd849574' visibility='default' filepath='libnativehelper/include_jni/jni.h' line='357' column='1'/>
      </data-member>
      <data-member access='public' layout-offset-in-bits='4896'>
        <var-decl name='GetStaticDoubleField' type-id='e2ca7deb' visibility='default' filepath='libnativehelper/include_jni/jni.h' line='358' column='1'/>
      </data-member>
      <data-member access='public' layout-offset-in-bits='4928'>
        <var-decl name='SetStaticObjectField' type-id='4e3962d3' visibility='default' filepath='libnativehelper/include_jni/jni.h' line='360' column='1'/>
      </data-member>
      <data-member access='public' layout-offset-in-bits='4960'>
        <var-decl name='SetStaticBooleanField' type-id='276cdb48' visibility='default' filepath='libnativehelper/include_jni/jni.h' line='361' column='1'/>
      </data-member>
      <data-member access='public' layout-offset-in-bits='4992'>
        <var-decl name='SetStaticByteField' type-id='cc949b48' visibility='default' filepath='libnativehelper/include_jni/jni.h' line='362' column='1'/>
      </data-member>
      <data-member access='public' layout-offset-in-bits='5024'>
        <var-decl name='SetStaticCharField' type-id='13ff5ed6' visibility='default' filepath='libnativehelper/include_jni/jni.h' line='363' column='1'/>
      </data-member>
      <data-member access='public' layout-offset-in-bits='5056'>
        <var-decl name='SetStaticShortField' type-id='f595227e' visibility='default' filepath='libnativehelper/include_jni/jni.h' line='364' column='1'/>
      </data-member>
      <data-member access='public' layout-offset-in-bits='5088'>
        <var-decl name='SetStaticIntField' type-id='4cf405ef' visibility='default' filepath='libnativehelper/include_jni/jni.h' line='365' column='1'/>
      </data-member>
      <data-member access='public' layout-offset-in-bits='5120'>
        <var-decl name='SetStaticLongField' type-id='2ee87a2c' visibility='default' filepath='libnativehelper/include_jni/jni.h' line='366' column='1'/>
      </data-member>
      <data-member access='public' layout-offset-in-bits='5152'>
        <var-decl name='SetStaticFloatField' type-id='033b4c5a' visibility='default' filepath='libnativehelper/include_jni/jni.h' line='367' column='1'/>
      </data-member>
      <data-member access='public' layout-offset-in-bits='5184'>
        <var-decl name='SetStaticDoubleField' type-id='4effcdf5' visibility='default' filepath='libnativehelper/include_jni/jni.h' line='368' column='1'/>
      </data-member>
      <data-member access='public' layout-offset-in-bits='5216'>
        <var-decl name='NewString' type-id='242c266a' visibility='default' filepath='libnativehelper/include_jni/jni.h' line='370' column='1'/>
      </data-member>
      <data-member access='public' layout-offset-in-bits='5248'>
        <var-decl name='GetStringLength' type-id='79969dbf' visibility='default' filepath='libnativehelper/include_jni/jni.h' line='371' column='1'/>
      </data-member>
      <data-member access='public' layout-offset-in-bits='5280'>
        <var-decl name='GetStringChars' type-id='6ff55ba7' visibility='default' filepath='libnativehelper/include_jni/jni.h' line='372' column='1'/>
      </data-member>
      <data-member access='public' layout-offset-in-bits='5312'>
        <var-decl name='ReleaseStringChars' type-id='7f5a3d5b' visibility='default' filepath='libnativehelper/include_jni/jni.h' line='373' column='1'/>
      </data-member>
      <data-member access='public' layout-offset-in-bits='5344'>
        <var-decl name='NewStringUTF' type-id='64bd18fd' visibility='default' filepath='libnativehelper/include_jni/jni.h' line='374' column='1'/>
      </data-member>
      <data-member access='public' layout-offset-in-bits='5376'>
        <var-decl name='GetStringUTFLength' type-id='79969dbf' visibility='default' filepath='libnativehelper/include_jni/jni.h' line='375' column='1'/>
      </data-member>
      <data-member access='public' layout-offset-in-bits='5408'>
        <var-decl name='GetStringUTFChars' type-id='c53ff811' visibility='default' filepath='libnativehelper/include_jni/jni.h' line='377' column='1'/>
      </data-member>
      <data-member access='public' layout-offset-in-bits='5440'>
        <var-decl name='ReleaseStringUTFChars' type-id='e00b6cf9' visibility='default' filepath='libnativehelper/include_jni/jni.h' line='378' column='1'/>
      </data-member>
      <data-member access='public' layout-offset-in-bits='5472'>
        <var-decl name='GetArrayLength' type-id='7dba8e29' visibility='default' filepath='libnativehelper/include_jni/jni.h' line='379' column='1'/>
      </data-member>
      <data-member access='public' layout-offset-in-bits='5504'>
        <var-decl name='NewObjectArray' type-id='5b4efdbb' visibility='default' filepath='libnativehelper/include_jni/jni.h' line='380' column='1'/>
      </data-member>
      <data-member access='public' layout-offset-in-bits='5536'>
        <var-decl name='GetObjectArrayElement' type-id='e14e5747' visibility='default' filepath='libnativehelper/include_jni/jni.h' line='381' column='1'/>
      </data-member>
      <data-member access='public' layout-offset-in-bits='5568'>
        <var-decl name='SetObjectArrayElement' type-id='57fbc9df' visibility='default' filepath='libnativehelper/include_jni/jni.h' line='382' column='1'/>
      </data-member>
      <data-member access='public' layout-offset-in-bits='5600'>
        <var-decl name='NewBooleanArray' type-id='0b42cefb' visibility='default' filepath='libnativehelper/include_jni/jni.h' line='384' column='1'/>
      </data-member>
      <data-member access='public' layout-offset-in-bits='5632'>
        <var-decl name='NewByteArray' type-id='39b8aabb' visibility='default' filepath='libnativehelper/include_jni/jni.h' line='385' column='1'/>
      </data-member>
      <data-member access='public' layout-offset-in-bits='5664'>
        <var-decl name='NewCharArray' type-id='99291eb1' visibility='default' filepath='libnativehelper/include_jni/jni.h' line='386' column='1'/>
      </data-member>
      <data-member access='public' layout-offset-in-bits='5696'>
        <var-decl name='NewShortArray' type-id='887705e9' visibility='default' filepath='libnativehelper/include_jni/jni.h' line='387' column='1'/>
      </data-member>
      <data-member access='public' layout-offset-in-bits='5728'>
        <var-decl name='NewIntArray' type-id='e1012f14' visibility='default' filepath='libnativehelper/include_jni/jni.h' line='388' column='1'/>
      </data-member>
      <data-member access='public' layout-offset-in-bits='5760'>
        <var-decl name='NewLongArray' type-id='2175e977' visibility='default' filepath='libnativehelper/include_jni/jni.h' line='389' column='1'/>
      </data-member>
      <data-member access='public' layout-offset-in-bits='5792'>
        <var-decl name='NewFloatArray' type-id='0ec38739' visibility='default' filepath='libnativehelper/include_jni/jni.h' line='390' column='1'/>
      </data-member>
      <data-member access='public' layout-offset-in-bits='5824'>
        <var-decl name='NewDoubleArray' type-id='7ba19e0e' visibility='default' filepath='libnativehelper/include_jni/jni.h' line='391' column='1'/>
      </data-member>
      <data-member access='public' layout-offset-in-bits='5856'>
        <var-decl name='GetBooleanArrayElements' type-id='595531d6' visibility='default' filepath='libnativehelper/include_jni/jni.h' line='393' column='1'/>
      </data-member>
      <data-member access='public' layout-offset-in-bits='5888'>
        <var-decl name='GetByteArrayElements' type-id='3c0f7990' visibility='default' filepath='libnativehelper/include_jni/jni.h' line='394' column='1'/>
      </data-member>
      <data-member access='public' layout-offset-in-bits='5920'>
        <var-decl name='GetCharArrayElements' type-id='181adbb0' visibility='default' filepath='libnativehelper/include_jni/jni.h' line='395' column='1'/>
      </data-member>
      <data-member access='public' layout-offset-in-bits='5952'>
        <var-decl name='GetShortArrayElements' type-id='54b2e682' visibility='default' filepath='libnativehelper/include_jni/jni.h' line='396' column='1'/>
      </data-member>
      <data-member access='public' layout-offset-in-bits='5984'>
        <var-decl name='GetIntArrayElements' type-id='049544dc' visibility='default' filepath='libnativehelper/include_jni/jni.h' line='397' column='1'/>
      </data-member>
      <data-member access='public' layout-offset-in-bits='6016'>
        <var-decl name='GetLongArrayElements' type-id='a04487d0' visibility='default' filepath='libnativehelper/include_jni/jni.h' line='398' column='1'/>
      </data-member>
      <data-member access='public' layout-offset-in-bits='6048'>
        <var-decl name='GetFloatArrayElements' type-id='f59e8a46' visibility='default' filepath='libnativehelper/include_jni/jni.h' line='399' column='1'/>
      </data-member>
      <data-member access='public' layout-offset-in-bits='6080'>
        <var-decl name='GetDoubleArrayElements' type-id='9d6db3c8' visibility='default' filepath='libnativehelper/include_jni/jni.h' line='400' column='1'/>
      </data-member>
      <data-member access='public' layout-offset-in-bits='6112'>
        <var-decl name='ReleaseBooleanArrayElements' type-id='4ba42953' visibility='default' filepath='libnativehelper/include_jni/jni.h' line='402' column='1'/>
      </data-member>
      <data-member access='public' layout-offset-in-bits='6144'>
        <var-decl name='ReleaseByteArrayElements' type-id='c92c39bd' visibility='default' filepath='libnativehelper/include_jni/jni.h' line='404' column='1'/>
      </data-member>
      <data-member access='public' layout-offset-in-bits='6176'>
        <var-decl name='ReleaseCharArrayElements' type-id='5721b4d5' visibility='default' filepath='libnativehelper/include_jni/jni.h' line='406' column='1'/>
      </data-member>
      <data-member access='public' layout-offset-in-bits='6208'>
        <var-decl name='ReleaseShortArrayElements' type-id='dd48378b' visibility='default' filepath='libnativehelper/include_jni/jni.h' line='408' column='1'/>
      </data-member>
      <data-member access='public' layout-offset-in-bits='6240'>
        <var-decl name='ReleaseIntArrayElements' type-id='f0699eed' visibility='default' filepath='libnativehelper/include_jni/jni.h' line='410' column='1'/>
      </data-member>
      <data-member access='public' layout-offset-in-bits='6272'>
        <var-decl name='ReleaseLongArrayElements' type-id='27cc1a95' visibility='default' filepath='libnativehelper/include_jni/jni.h' line='412' column='1'/>
      </data-member>
      <data-member access='public' layout-offset-in-bits='6304'>
        <var-decl name='ReleaseFloatArrayElements' type-id='6a6a41af' visibility='default' filepath='libnativehelper/include_jni/jni.h' line='414' column='1'/>
      </data-member>
      <data-member access='public' layout-offset-in-bits='6336'>
        <var-decl name='ReleaseDoubleArrayElements' type-id='349137e5' visibility='default' filepath='libnativehelper/include_jni/jni.h' line='416' column='1'/>
      </data-member>
      <data-member access='public' layout-offset-in-bits='6368'>
        <var-decl name='GetBooleanArrayRegion' type-id='fcef0014' visibility='default' filepath='libnativehelper/include_jni/jni.h' line='419' column='1'/>
      </data-member>
      <data-member access='public' layout-offset-in-bits='6400'>
        <var-decl name='GetByteArrayRegion' type-id='6c42c76e' visibility='default' filepath='libnativehelper/include_jni/jni.h' line='421' column='1'/>
      </data-member>
      <data-member access='public' layout-offset-in-bits='6432'>
        <var-decl name='GetCharArrayRegion' type-id='4c985d6a' visibility='default' filepath='libnativehelper/include_jni/jni.h' line='423' column='1'/>
      </data-member>
      <data-member access='public' layout-offset-in-bits='6464'>
        <var-decl name='GetShortArrayRegion' type-id='57269ef0' visibility='default' filepath='libnativehelper/include_jni/jni.h' line='425' column='1'/>
      </data-member>
      <data-member access='public' layout-offset-in-bits='6496'>
        <var-decl name='GetIntArrayRegion' type-id='b903acea' visibility='default' filepath='libnativehelper/include_jni/jni.h' line='427' column='1'/>
      </data-member>
      <data-member access='public' layout-offset-in-bits='6528'>
        <var-decl name='GetLongArrayRegion' type-id='46cfa96e' visibility='default' filepath='libnativehelper/include_jni/jni.h' line='429' column='1'/>
      </data-member>
      <data-member access='public' layout-offset-in-bits='6560'>
        <var-decl name='GetFloatArrayRegion' type-id='d238e9f8' visibility='default' filepath='libnativehelper/include_jni/jni.h' line='431' column='1'/>
      </data-member>
      <data-member access='public' layout-offset-in-bits='6592'>
        <var-decl name='GetDoubleArrayRegion' type-id='f0756a0a' visibility='default' filepath='libnativehelper/include_jni/jni.h' line='433' column='1'/>
      </data-member>
      <data-member access='public' layout-offset-in-bits='6624'>
        <var-decl name='SetBooleanArrayRegion' type-id='9578bd3d' visibility='default' filepath='libnativehelper/include_jni/jni.h' line='437' column='1'/>
      </data-member>
      <data-member access='public' layout-offset-in-bits='6656'>
        <var-decl name='SetByteArrayRegion' type-id='963f4759' visibility='default' filepath='libnativehelper/include_jni/jni.h' line='439' column='1'/>
      </data-member>
      <data-member access='public' layout-offset-in-bits='6688'>
        <var-decl name='SetCharArrayRegion' type-id='1b5bab1d' visibility='default' filepath='libnativehelper/include_jni/jni.h' line='441' column='1'/>
      </data-member>
      <data-member access='public' layout-offset-in-bits='6720'>
        <var-decl name='SetShortArrayRegion' type-id='1167e98d' visibility='default' filepath='libnativehelper/include_jni/jni.h' line='443' column='1'/>
      </data-member>
      <data-member access='public' layout-offset-in-bits='6752'>
        <var-decl name='SetIntArrayRegion' type-id='67616213' visibility='default' filepath='libnativehelper/include_jni/jni.h' line='445' column='1'/>
      </data-member>
      <data-member access='public' layout-offset-in-bits='6784'>
        <var-decl name='SetLongArrayRegion' type-id='fa7b64f1' visibility='default' filepath='libnativehelper/include_jni/jni.h' line='447' column='1'/>
      </data-member>
      <data-member access='public' layout-offset-in-bits='6816'>
        <var-decl name='SetFloatArrayRegion' type-id='47cf6701' visibility='default' filepath='libnativehelper/include_jni/jni.h' line='449' column='1'/>
      </data-member>
      <data-member access='public' layout-offset-in-bits='6848'>
        <var-decl name='SetDoubleArrayRegion' type-id='bc788285' visibility='default' filepath='libnativehelper/include_jni/jni.h' line='451' column='1'/>
      </data-member>
      <data-member access='public' layout-offset-in-bits='6880'>
        <var-decl name='RegisterNatives' type-id='384bcd95' visibility='default' filepath='libnativehelper/include_jni/jni.h' line='454' column='1'/>
      </data-member>
      <data-member access='public' layout-offset-in-bits='6912'>
        <var-decl name='UnregisterNatives' type-id='c4a66594' visibility='default' filepath='libnativehelper/include_jni/jni.h' line='456' column='1'/>
      </data-member>
      <data-member access='public' layout-offset-in-bits='6944'>
        <var-decl name='MonitorEnter' type-id='99b71f83' visibility='default' filepath='libnativehelper/include_jni/jni.h' line='457' column='1'/>
      </data-member>
      <data-member access='public' layout-offset-in-bits='6976'>
        <var-decl name='MonitorExit' type-id='99b71f83' visibility='default' filepath='libnativehelper/include_jni/jni.h' line='458' column='1'/>
      </data-member>
      <data-member access='public' layout-offset-in-bits='7008'>
        <var-decl name='GetJavaVM' type-id='5a6d41b9' visibility='default' filepath='libnativehelper/include_jni/jni.h' line='459' column='1'/>
      </data-member>
      <data-member access='public' layout-offset-in-bits='7040'>
        <var-decl name='GetStringRegion' type-id='954e4e32' visibility='default' filepath='libnativehelper/include_jni/jni.h' line='461' column='1'/>
      </data-member>
      <data-member access='public' layout-offset-in-bits='7072'>
        <var-decl name='GetStringUTFRegion' type-id='d30f44a2' visibility='default' filepath='libnativehelper/include_jni/jni.h' line='462' column='1'/>
      </data-member>
      <data-member access='public' layout-offset-in-bits='7104'>
        <var-decl name='GetPrimitiveArrayCritical' type-id='a9defe9a' visibility='default' filepath='libnativehelper/include_jni/jni.h' line='464' column='1'/>
      </data-member>
      <data-member access='public' layout-offset-in-bits='7136'>
        <var-decl name='ReleasePrimitiveArrayCritical' type-id='0caa0dcf' visibility='default' filepath='libnativehelper/include_jni/jni.h' line='465' column='1'/>
      </data-member>
      <data-member access='public' layout-offset-in-bits='7168'>
        <var-decl name='GetStringCritical' type-id='6ff55ba7' visibility='default' filepath='libnativehelper/include_jni/jni.h' line='467' column='1'/>
      </data-member>
      <data-member access='public' layout-offset-in-bits='7200'>
        <var-decl name='ReleaseStringCritical' type-id='7f5a3d5b' visibility='default' filepath='libnativehelper/include_jni/jni.h' line='468' column='1'/>
      </data-member>
      <data-member access='public' layout-offset-in-bits='7232'>
        <var-decl name='NewWeakGlobalRef' type-id='1d2b5c3c' visibility='default' filepath='libnativehelper/include_jni/jni.h' line='470' column='1'/>
      </data-member>
      <data-member access='public' layout-offset-in-bits='7264'>
        <var-decl name='DeleteWeakGlobalRef' type-id='c2029967' visibility='default' filepath='libnativehelper/include_jni/jni.h' line='471' column='1'/>
      </data-member>
      <data-member access='public' layout-offset-in-bits='7296'>
        <var-decl name='ExceptionCheck' type-id='cf6ba1d9' visibility='default' filepath='libnativehelper/include_jni/jni.h' line='473' column='1'/>
      </data-member>
      <data-member access='public' layout-offset-in-bits='7328'>
        <var-decl name='NewDirectByteBuffer' type-id='394cbbe6' visibility='default' filepath='libnativehelper/include_jni/jni.h' line='475' column='1'/>
      </data-member>
      <data-member access='public' layout-offset-in-bits='7360'>
        <var-decl name='GetDirectBufferAddress' type-id='d4993206' visibility='default' filepath='libnativehelper/include_jni/jni.h' line='476' column='1'/>
      </data-member>
      <data-member access='public' layout-offset-in-bits='7392'>
        <var-decl name='GetDirectBufferCapacity' type-id='0350b462' visibility='default' filepath='libnativehelper/include_jni/jni.h' line='477' column='1'/>
      </data-member>
      <data-member access='public' layout-offset-in-bits='7424'>
        <var-decl name='GetObjectRefType' type-id='25acc26a' visibility='default' filepath='libnativehelper/include_jni/jni.h' line='480' column='1'/>
      </data-member>
    </class-decl>
    <class-decl name='_JNIEnv' is-struct='yes' visibility='default' size-in-bits='32' filepath='libnativehelper/include_jni/jni.h' line='489' column='1' hash='d34c154a989b6a06' id='c9459134'>
      <data-member access='public' layout-offset-in-bits='0'>
        <var-decl name='functions' type-id='e48f1427' visibility='default' filepath='libnativehelper/include_jni/jni.h' line='491' column='1'/>
      </data-member>
    </class-decl>
    <class-decl name='ldiv_t' is-struct='yes' naming-typedef-id='30397bf8' visibility='default' size-in-bits='64' filepath='bionic/libc/include/stdlib.h' line='136' column='1' hash='e280ca1fccd52fa3' id='9b5926fd'>
      <data-member access='public' layout-offset-in-bits='0'>
        <var-decl name='quot' type-id='95e97e5f' visibility='default' filepath='bionic/libc/include/stdlib.h' line='137' column='1'/>
      </data-member>
      <data-member access='public' layout-offset-in-bits='32'>
        <var-decl name='rem' type-id='95e97e5f' visibility='default' filepath='bionic/libc/include/stdlib.h' line='138' column='1'/>
      </data-member>
    </class-decl>
    <class-decl name='lldiv_t' is-struct='yes' naming-typedef-id='f5fa3b34' visibility='default' size-in-bits='128' filepath='bionic/libc/include/stdlib.h' line='143' column='1' hash='564e04be97ca0408' id='649cba4b'>
      <data-member access='public' layout-offset-in-bits='0'>
        <var-decl name='quot' type-id='95e97e60' visibility='default' filepath='bionic/libc/include/stdlib.h' line='144' column='1'/>
      </data-member>
      <data-member access='public' layout-offset-in-bits='64'>
        <var-decl name='rem' type-id='95e97e60' visibility='default' filepath='bionic/libc/include/stdlib.h' line='145' column='1'/>
      </data-member>
    </class-decl>
    <class-decl name='pthread_mutex_t' is-struct='yes' naming-typedef-id='7a6844eb' visibility='default' size-in-bits='32' filepath='bionic/libc/include/bits/pthread_types.h' line='72' column='1' hash='d37b84b20adc4bcd' id='92fa54c8'>
      <data-member access='public' layout-offset-in-bits='0'>
        <var-decl name='__private' type-id='e4652d73' visibility='default' filepath='bionic/libc/include/bits/pthread_types.h' line='76' column='1'/>
      </data-member>
    </class-decl>
    <class-decl name='tm' is-struct='yes' visibility='default' size-in-bits='352' filepath='bionic/libc/include/time.h' line='46' column='1' hash='9bc9726f4e23dcfd' id='dddf6ca2'>
      <data-member access='public' layout-offset-in-bits='0'>
        <var-decl name='tm_sec' type-id='95e97e5e' visibility='default' filepath='bionic/libc/include/time.h' line='47' column='1'/>
      </data-member>
      <data-member access='public' layout-offset-in-bits='32'>
        <var-decl name='tm_min' type-id='95e97e5e' visibility='default' filepath='bionic/libc/include/time.h' line='48' column='1'/>
      </data-member>
      <data-member access='public' layout-offset-in-bits='64'>
        <var-decl name='tm_hour' type-id='95e97e5e' visibility='default' filepath='bionic/libc/include/time.h' line='49' column='1'/>
      </data-member>
      <data-member access='public' layout-offset-in-bits='96'>
        <var-decl name='tm_mday' type-id='95e97e5e' visibility='default' filepath='bionic/libc/include/time.h' line='50' column='1'/>
      </data-member>
      <data-member access='public' layout-offset-in-bits='128'>
        <var-decl name='tm_mon' type-id='95e97e5e' visibility='default' filepath='bionic/libc/include/time.h' line='51' column='1'/>
      </data-member>
      <data-member access='public' layout-offset-in-bits='160'>
        <var-decl name='tm_year' type-id='95e97e5e' visibility='default' filepath='bionic/libc/include/time.h' line='52' column='1'/>
      </data-member>
      <data-member access='public' layout-offset-in-bits='192'>
        <var-decl name='tm_wday' type-id='95e97e5e' visibility='default' filepath='bionic/libc/include/time.h' line='53' column='1'/>
      </data-member>
      <data-member access='public' layout-offset-in-bits='224'>
        <var-decl name='tm_yday' type-id='95e97e5e' visibility='default' filepath='bionic/libc/include/time.h' line='54' column='1'/>
      </data-member>
      <data-member access='public' layout-offset-in-bits='256'>
        <var-decl name='tm_isdst' type-id='95e97e5e' visibility='default' filepath='bionic/libc/include/time.h' line='55' column='1'/>
      </data-member>
      <data-member access='public' layout-offset-in-bits='288'>
        <var-decl name='tm_gmtoff' type-id='95e97e5f' visibility='default' filepath='bionic/libc/include/time.h' line='56' column='1'/>
      </data-member>
      <data-member access='public' layout-offset-in-bits='320'>
        <var-decl name='tm_zone' type-id='80f4b756' visibility='default' filepath='bionic/libc/include/time.h' line='57' column='1'/>
      </data-member>
    </class-decl>
    <typedef-decl name='AAsset' type-id='1fc4034c' size-in-bits='32' filepath='frameworks/native/include/android/asset_manager.h' line='73' column='1' id='d27ea7e1'/>
    <typedef-decl name='AAssetDir' type-id='ea9788c3' size-in-bits='96' filepath='frameworks/native/include/android/asset_manager.h' line='64' column='1' id='e6c9fab0'/>
    <typedef-decl name='AAssetManager' type-id='7907d453' size-in-bits='8' filepath='frameworks/native/include/android/asset_manager.h' line='54' column='1' id='f41387f0'/>
    <typedef-decl name='JNIEnv' type-id='c9459134' size-in-bits='32' filepath='libnativehelper/include_jni/jni.h' line='139' column='1' id='d357872a'/>
    <typedef-decl name='JNINativeMethod' type-id='92fa54c8' size-in-bits='32' filepath='libnativehelper/include_jni/jni.h' line='132' column='1' id='b7b5d51d'/>
    <typedef-decl name='__builtin_va_list' type-id='30357e0a' size-in-bits='32' id='7f896fb4'/>
    <typedef-decl name='__int16_t' type-id='95e97e61' size-in-bits='16' filepath='bionic/libc/include/stdint.h' line='38' column='1' hash='6c2352eccdcd3eea' id='03896e23'/>
    <typedef-decl name='__int32_t' type-id='95e97e5e' size-in-bits='32' filepath='bionic/libc/include/stdint.h' line='40' column='1' hash='09d17c08f594edc7' id='33f57a65'/>
    <typedef-decl name='__int64_t' type-id='95e97e60' size-in-bits='64' filepath='bionic/libc/include/stdint.h' line='46' column='1' hash='5ae7f9eec1fc43d6' id='0c9942d2'/>
    <typedef-decl name='__int8_t' type-id='28577a57' size-in-bits='8' filepath='bionic/libc/include/stdint.h' line='36' column='1' hash='3c595c3350588f18' id='2171a512'/>
    <typedef-decl name='__kernel_clock_t' type-id='6a11bd61' size-in-bits='32' filepath='bionic/libc/kernel/uapi/asm-generic/posix_types.h' line='80' column='1' hash='bfe66886a48d6d55' id='880ebc01'/>
    <typedef-decl name='__kernel_loff_t' type-id='95e97e60' size-in-bits='64' filepath='bionic/libc/kernel/uapi/asm-generic/posix_types.h' line='76' column='1' hash='5ae7f9eec1fc43d6' id='537a730e'/>
    <typedef-decl name='__kernel_long_t' type-id='95e97e5f' size-in-bits='32' filepath='bionic/libc/kernel/uapi/asm-generic/posix_types.h' line='23' column='1' hash='bfe66886a48d6d55' id='6a11bd61'/>
    <typedef-decl name='__kernel_off_t' type-id='6a11bd61' size-in-bits='32' filepath='bionic/libc/kernel/uapi/asm-generic/posix_types.h' line='75' column='1' hash='bfe66886a48d6d55' id='8dda407a'/>
    <typedef-decl name='__kernel_ssize_t' type-id='95e97e5e' size-in-bits='32' filepath='bionic/libc/kernel/uapi/asm-generic/posix_types.h' line='62' column='1' hash='09d17c08f594edc7' id='b6b3ebaf'/>
    <typedef-decl name='__kernel_time_t' type-id='6a11bd61' size-in-bits='32' filepath='bionic/libc/kernel/uapi/asm-generic/posix_types.h' line='78' column='1' hash='bfe66886a48d6d55' id='f7d92306'/>
    <typedef-decl name='__time_t' type-id='f7d92306' size-in-bits='32' filepath='bionic/libc/include/sys/types.h' line='95' column='1' hash='bfe66886a48d6d55' id='65eda9c0'/>
    <typedef-decl name='__uint16_t' type-id='f0981eec' size-in-bits='16' filepath='bionic/libc/include/stdint.h' line='39' column='1' hash='d7723bb93a30b11d' id='253c2d2a'/>
    <typedef-decl name='__uint32_t' type-id='f0981eed' size-in-bits='32' filepath='bionic/libc/include/stdint.h' line='41' column='1' hash='e66b43f97c38e87a' id='62f1140c'/>
    <typedef-decl name='__uint8_t' type-id='002ac4a6' size-in-bits='8' filepath='bionic/libc/include/stdint.h' line='37' column='1' hash='6ebac62b3366db68' id='c51d6389'/>
    <typedef-decl name='clock_t' type-id='880ebc01' size-in-bits='32' filepath='bionic/libc/include/sys/types.h' line='54' column='1' hash='bfe66886a48d6d55' id='4c3a2c61'/>
    <typedef-decl name='fpos_t' type-id='ad707ada' size-in-bits='32' filepath='bionic/libc/include/stdio.h' line='55' column='1' hash='bfe66886a48d6d55' id='e322b6ef'/>
    <typedef-decl name='int16_t' type-id='03896e23' size-in-bits='16' filepath='bionic/libc/include/stdint.h' line='61' column='1' hash='6c2352eccdcd3eea' id='23bd8cb5'/>
    <typedef-decl name='int32_t' type-id='33f57a65' size-in-bits='32' filepath='bionic/libc/include/stdint.h' line='64' column='1' hash='09d17c08f594edc7' id='3ff5601b'/>
    <typedef-decl name='int64_t' type-id='0c9942d2' size-in-bits='64' filepath='bionic/libc/include/stdint.h' line='67' column='1' hash='5ae7f9eec1fc43d6' id='9da381c4'/>
    <typedef-decl name='int8_t' type-id='2171a512' size-in-bits='8' filepath='bionic/libc/include/stdint.h' line='58' column='1' hash='3c595c3350588f18' id='ee31ee44'/>
    <typedef-decl name='jarray' type-id='85c463b1' size-in-bits='32' filepath='libnativehelper/include_jni/jni.h' line='64' column='1' hash='579e5322e07609b1' id='65b69bb3'/>
    <typedef-decl name='jboolean' type-id='b96825af' size-in-bits='8' filepath='libnativehelper/include_jni/jni.h' line='30' column='1' hash='6ebac62b3366db68' id='cc6e09ca'/>
    <typedef-decl name='jbyte' type-id='ee31ee44' size-in-bits='8' filepath='libnativehelper/include_jni/jni.h' line='31' column='1' hash='3c595c3350588f18' id='adf18958'/>
    <typedef-decl name='jchar' type-id='149c6638' size-in-bits='16' filepath='libnativehelper/include_jni/jni.h' line='32' column='1' hash='d7723bb93a30b11d' id='8dfe2e06'/>
    <typedef-decl name='jdouble' type-id='a0eb0f08' size-in-bits='64' filepath='libnativehelper/include_jni/jni.h' line='37' column='1' hash='e9e9b320886d9aa6' id='973e3c3f'/>
    <typedef-decl name='jfloat' type-id='a6c45d85' size-in-bits='32' filepath='libnativehelper/include_jni/jni.h' line='36' column='1' hash='d7ec3bf03d3c5690' id='1a7fe6b0'/>
    <typedef-decl name='jint' type-id='3ff5601b' size-in-bits='32' filepath='libnativehelper/include_jni/jni.h' line='34' column='1' hash='09d17c08f594edc7' id='0b9c02cb'/>
    <typedef-decl name='jlong' type-id='9da381c4' size-in-bits='64' filepath='libnativehelper/include_jni/jni.h' line='35' column='1' hash='5ae7f9eec1fc43d6' id='c8745fdc'/>
    <typedef-decl name='jobject' type-id='478e3663' size-in-bits='32' filepath='libnativehelper/include_jni/jni.h' line='61' column='1' hash='fae782d08847e688' id='96f3d089'/>
    <typedef-decl name='jobjectRefType' type-id='4f771c8a' size-in-bits='32' alignment-in-bits='32' filepath='libnativehelper/include_jni/jni.h' line='126' column='1' hash='de66c02dea2456b4' id='c36bf49e'/>
    <typedef-decl name='jshort' type-id='23bd8cb5' size-in-bits='16' filepath='libnativehelper/include_jni/jni.h' line='33' column='1' hash='6c2352eccdcd3eea' id='9a10f134'/>
    <typedef-decl name='jsize' type-id='0b9c02cb' size-in-bits='32' filepath='libnativehelper/include_jni/jni.h' line='40' column='1' hash='09d17c08f594edc7' id='2c2f1adb'/>
    <typedef-decl name='jweak' type-id='478e3663' size-in-bits='32' filepath='libnativehelper/include_jni/jni.h' line='75' column='1' hash='fae782d08847e688' id='6c9a8402'/>
    <typedef-decl name='ldiv_t' type-id='9b5926fd' size-in-bits='64' filepath='bionic/libc/include/stdlib.h' line='139' column='1' id='30397bf8'/>
    <typedef-decl name='lldiv_t' type-id='649cba4b' size-in-bits='128' filepath='bionic/libc/include/stdlib.h' line='146' column='1' id='f5fa3b34'/>
    <typedef-decl name='loff_t' type-id='537a730e' size-in-bits='64' filepath='bionic/libc/include/sys/types.h' line='106' column='1' hash='5ae7f9eec1fc43d6' id='69bf7bee'/>
    <typedef-decl name='mbstate_t' type-id='a76d8e48' size-in-bits='32' filepath='bionic/libc/include/bits/mbstate_t.h' line='47' column='1' id='3d7d8cbf'/>
    <typedef-decl name='nsecs_t' type-id='9da381c4' size-in-bits='64' filepath='system/core/libutils/include/utils/Timers.h' line='32' column='1' hash='5ae7f9eec1fc43d6' id='00f5ef57'/>
    <typedef-decl name='off64_t' type-id='69bf7bee' size-in-bits='64' filepath='bionic/libc/include/sys/types.h' line='107' column='1' hash='5ae7f9eec1fc43d6' id='05d4c620'/>
    <typedef-decl name='off_t' type-id='8dda407a' size-in-bits='32' filepath='bionic/libc/include/sys/types.h' line='105' column='1' hash='bfe66886a48d6d55' id='ad707ada'/>
    <typedef-decl name='pthread_mutex_t' type-id='92fa54c8' size-in-bits='32' filepath='bionic/libc/include/bits/pthread_types.h' line='78' column='1' id='7a6844eb'/>
    <typedef-decl name='ptrdiff_t' type-id='95e97e5e' size-in-bits='32' filepath='prebuilts/clang/host/linux-x86/clang-r383902b/lib64/clang/11.0.2/include/stddef.h' line='35' column='1' hash='09d17c08f594edc7' id='fc84bffe'/>
    <typedef-decl name='size_t' type-id='f0981eed' size-in-bits='32' filepath='prebuilts/clang/host/linux-x86/clang-r383902b/lib64/clang/11.0.2/include/stddef.h' line='46' column='1' hash='e66b43f97c38e87a' id='b59d7dce'/>
    <typedef-decl name='size_type' type-id='b59d7dce' size-in-bits='32' filepath='external/libcxx/include/array' line='139' column='1' hash='e66b43f97c38e87a' id='143a6b6e'/>
    <typedef-decl name='ssize_t' type-id='b6b3ebaf' size-in-bits='32' filepath='bionic/libc/include/sys/types.h' line='128' column='1' hash='09d17c08f594edc7' id='79a0948f'/>
    <typedef-decl name='time_t' type-id='65eda9c0' size-in-bits='32' filepath='bionic/libc/include/sys/types.h' line='96' column='1' hash='bfe66886a48d6d55' id='c9d12d66'/>
    <typedef-decl name='uint16_t' type-id='253c2d2a' size-in-bits='16' filepath='bionic/libc/include/stdint.h' line='62' column='1' hash='d7723bb93a30b11d' id='149c6638'/>
    <typedef-decl name='uint32_t' type-id='62f1140c' size-in-bits='32' filepath='bionic/libc/include/stdint.h' line='65' column='1' hash='e66b43f97c38e87a' id='8f92235e'/>
    <typedef-decl name='uint8_t' type-id='c51d6389' size-in-bits='8' filepath='bionic/libc/include/stdint.h' line='59' column='1' hash='6ebac62b3366db68' id='b96825af'/>
    <typedef-decl name='va_list' type-id='7f896fb4' size-in-bits='32' filepath='prebuilts/clang/host/linux-x86/clang-r383902b/lib64/clang/11.0.2/include/stdarg.h' line='14' column='1' id='2aee9912'/>
    <typedef-decl name='wctype_t' type-id='95e97e5f' size-in-bits='32' filepath='bionic/libc/include/bits/wctype.h' line='56' column='1' hash='bfe66886a48d6d55' id='ba50424d'/>
    <typedef-decl name='wint_t' type-id='f0981eed' size-in-bits='32' filepath='bionic/libc/include/bits/wctype.h' line='36' column='1' hash='e66b43f97c38e87a' id='6dd37369'/>
    <array-type-def dimensions='1' type-id='8f92235e' size-in-bits='unknown' hash='d71ea9da2a27c259' id='1e7b9b2b'>
      <subrange length='unknown' lower-bound='0' upper-bound='0' type-id='7ff19f0f' size-in-bits='64' is-anonymous='yes' hash='eba0a2b392137dcb' id='031f2035'/>
    </array-type-def>
    <array-type-def dimensions='1' type-id='b96825af' size-in-bits='2048' hash='e6dda4fc6d697382' id='62946659'>
      <subrange length='256' lower-bound='0' upper-bound='255' type-id='7ff19f0f' size-in-bits='64' is-anonymous='yes' hash='5cb16198282e86c6' id='36e5b9fa'/>
    </array-type-def>
    <type-decl name='unnamed-enum-underlying-type-32' size-in-bits='32' alignment-in-bits='32' is-anonymous='yes' hash='5181a58e665b3619' id='9cac1fee'/>
    <type-decl name='unsigned char' size-in-bits='8' hash='6ebac62b3366db68' id='002ac4a6'/>
    <array-type-def dimensions='1' type-id='002ac4a6' size-in-bits='128' hash='db96c40792853cfe' id='92a46553'>
      <subrange length='16' lower-bound='0' upper-bound='15' type-id='7ff19f0f' size-in-bits='64' is-anonymous='yes' hash='6c35b1e999eba398' id='848d0938'/>
    </array-type-def>
    <array-type-def dimensions='1' type-id='002ac4a6' size-in-bits='2048' hash='11dd84713e685d57' id='f411cbcf'>
      <subrange length='256' lower-bound='0' upper-bound='255' type-id='7ff19f0f' size-in-bits='64' is-anonymous='yes' hash='5cb16198282e86c6' id='36e5b9fa'/>
    </array-type-def>
    <array-type-def dimensions='1' type-id='002ac4a6' size-in-bits='32' hash='c4e0e9d960d68e21' id='09001d3c'>
      <subrange length='4' lower-bound='0' upper-bound='3' type-id='7ff19f0f' size-in-bits='64' is-anonymous='yes' hash='cee611f4a73e486c' id='16fe7105'/>
    </array-type-def>
    <type-decl name='unsigned int' size-in-bits='32' hash='e66b43f97c38e87a' id='f0981eed'/>
    <array-type-def dimensions='1' type-id='807869d3' size-in-bits='512' hash='a925a9393b43fec7' id='ba25cd2e'>
      <subrange length='16' lower-bound='0' upper-bound='15' type-id='7ff19f0f' size-in-bits='64' is-anonymous='yes' hash='6c35b1e999eba398' id='848d0938'/>
    </array-type-def>
    <type-decl name='unsigned long int' size-in-bits='32' hash='55dfcdcafc0c15e8#2' id='f0981eee'/>
    <type-decl name='unsigned long long int' size-in-bits='64' hash='ebdfc4685a1e82df#3' id='f0981eeb'/>
    <type-decl name='unsigned short int' size-in-bits='16' hash='d7723bb93a30b11d#4' id='f0981eec'/>
    <type-decl name='wchar_t' size-in-bits='32' hash='4b224bc24abb5f1b' id='c523b9f1'/>
    <pointer-type-def type-id='1fc4034c' size-in-bits='32' hash='c755b9b0a6747381' id='57d98aaa'/>
    <pointer-type-def type-id='d27ea7e1' size-in-bits='32' hash='c755b9b0a6747381#2' id='57d98aab'/>
    <pointer-type-def type-id='ea9788c3' size-in-bits='32' hash='704fe637f1bd3466' id='1cdc10c3'/>
    <pointer-type-def type-id='e6c9fab0' size-in-bits='32' hash='704fe637f1bd3466#2' id='1cdc10c4'/>
    <pointer-type-def type-id='f41387f0' size-in-bits='32' hash='33456b0c433ec2e6' id='081c2b23'/>
    <pointer-type-def type-id='d357872a' size-in-bits='32' hash='5e65067842422c70' id='fae49a1f'/>
    <pointer-type-def type-id='c9459134' size-in-bits='32' hash='a19f4fac881e2fa5' id='71bed232'/>
    <pointer-type-def type-id='440aaf49' size-in-bits='32' hash='579e5322e07609b1' id='85c463b1'/>
    <pointer-type-def type-id='baffb083' size-in-bits='32' hash='fae782d08847e688' id='478e3663'/>
    <pointer-type-def type-id='27450c90' size-in-bits='32' hash='644e79ecb5b723f8' id='ad326464'/>
    <pointer-type-def type-id='32d026f1' size-in-bits='32' hash='b8d36adfbc064ac7' id='2ef969b9'/>
    <reference-type-def kind='lvalue' type-id='7c0ac937' size-in-bits='32' hash='0ad27d6f62e412ea' id='439855fb'/>
    <pointer-type-def type-id='7c0ac937' size-in-bits='32' hash='205fcab0df245aa3' id='3f984faf'/>
    <reference-type-def kind='lvalue' type-id='01b8bd0d' size-in-bits='32' hash='0a69f9a8b186ce53' id='b8660f99'/>
    <pointer-type-def type-id='01b8bd0d' size-in-bits='32' hash='eb05e7d1b38fcb15' id='c466227d'/>
    <qualified-type-def type-id='c466227d' const='yes' hash='9d61e1f0a0df814d' id='4fda6452'/>
    <reference-type-def kind='lvalue' type-id='4fda6452' size-in-bits='32' hash='374169887b0fadf4' id='28cc229c'/>
    <reference-type-def kind='lvalue' type-id='c466227d' size-in-bits='32' hash='14a37f2407043ee2' id='87c81541'/>
    <reference-type-def kind='lvalue' type-id='238d5c19' size-in-bits='32' hash='168db7f22ae9dcd6' id='173b8195'/>
    <pointer-type-def type-id='238d5c19' size-in-bits='32' hash='af077af8f86cd8ba' id='1b3b87e1'/>
    <reference-type-def kind='lvalue' type-id='1bec9f14' size-in-bits='32' hash='8f37e9ee0b3a8abb' id='45e7ebae'/>
    <pointer-type-def type-id='1bec9f14' size-in-bits='32' hash='3f0bb235cf2d735f' id='41e7e562'/>
    <qualified-type-def type-id='41e7e562' const='yes' hash='36b32db5e6ccef51' id='a6d138ed'/>
    <reference-type-def kind='lvalue' type-id='a6d138ed' size-in-bits='32' hash='3a16c5872ba89967' id='665c6791'/>
    <reference-type-def kind='lvalue' type-id='41e7e562' size-in-bits='32' hash='6fe7eb8dfd6ba639' id='040dea0c'/>
    <pointer-type-def type-id='9337857f' size-in-bits='32' hash='138095b6f5574099' id='7ba678e7'/>
    <pointer-type-def type-id='0eedf0a9' size-in-bits='32' hash='14e7cfc9568363d9' id='be739c71'/>
    <pointer-type-def type-id='0c7d43ed' size-in-bits='32' hash='3b079f53a81ef798' id='737dcd4d'/>
    <pointer-type-def type-id='aaa6ccca' size-in-bits='32' hash='7723584938a4cb86' id='399793f8'/>
    <reference-type-def kind='lvalue' type-id='1ae556e8' size-in-bits='32' hash='d15eaecbf1da8a15' id='80661af2'/>
    <pointer-type-def type-id='1ae556e8' size-in-bits='32' hash='d28afb08f6feea1d' id='8466213e'/>
    <pointer-type-def type-id='a1e4e0c1' size-in-bits='32' hash='f2c977b1edcea076' id='f617f949'/>
    <pointer-type-def type-id='e5242f33' size-in-bits='32' hash='1699c9dee2efa68d' id='cc64c693'/>
    <reference-type-def kind='lvalue' type-id='83ab4f39' size-in-bits='32' hash='8e15d9edc3cbaf37' id='4ce6d775'/>
    <pointer-type-def type-id='83ab4f39' size-in-bits='32' hash='0926c44073800128' id='50e6ddc1'/>
    <reference-type-def kind='lvalue' type-id='406f4753' size-in-bits='32' hash='ddd074eb46dd44e6' id='665e3247'/>
    <pointer-type-def type-id='406f4753' size-in-bits='32' hash='29309e0a51b8e760' id='5a5e1f63'/>
    <pointer-type-def type-id='081066a5' size-in-bits='32' hash='aa692e5a9e018b6e' id='fb5b9575'/>
    <reference-type-def kind='lvalue' type-id='f8926d95' size-in-bits='32' hash='78f35789e2026957' id='03ec3711'/>
    <pointer-type-def type-id='f8926d95' size-in-bits='32' hash='af7fc7befa67c7b8' id='ffec30c5'/>
    <qualified-type-def type-id='ffec30c5' const='yes' hash='75f1cf77f3fc05c7' id='6e0d67ba'/>
    <reference-type-def kind='lvalue' type-id='6e0d67ba' size-in-bits='32' hash='4d1d00c08f6fd4cc' id='db1a1a94'/>
    <reference-type-def kind='lvalue' type-id='ffec30c5' size-in-bits='32' hash='45dde93dceb32e78' id='c3d0f559'/>
    <pointer-type-def type-id='28543e70' size-in-bits='32' hash='807322eedaa3ca01' id='a4a0d016'/>
    <pointer-type-def type-id='0bab9a0f' size-in-bits='32' hash='6802bd5a31ec2e2f' id='1ecbd0c7'/>
    <reference-type-def kind='lvalue' type-id='c73fabea' size-in-bits='32' hash='15ab0d7a06f9cca1' id='22923b4c'/>
    <pointer-type-def type-id='c73fabea' size-in-bits='32' hash='7cc8ffed58ef1f29' id='26924198'/>
    <reference-type-def kind='lvalue' type-id='bacf3393' size-in-bits='32' hash='a8c37ecfb885b08e' id='26b0aa17'/>
    <pointer-type-def type-id='bacf3393' size-in-bits='32' hash='5d7654023c9fd2c6' id='1ab09733'/>
    <pointer-type-def type-id='90bf4c40' size-in-bits='32' hash='28003e521eb8aa31' id='23d76c96'/>
    <reference-type-def kind='lvalue' type-id='36a9bc13' size-in-bits='32' hash='5775b16e71d303c8' id='8cf76667'/>
    <reference-type-def kind='lvalue' type-id='3beaa405' size-in-bits='32' hash='a2cd11bd59703f23' id='315c6611'/>
    <reference-type-def kind='rvalue' type-id='3beaa405' size-in-bits='32' hash='4a43ef17e2744786' id='eb74e895'/>
    <pointer-type-def type-id='3beaa405' size-in-bits='32' hash='00fe60d58756d383' id='2d5c5fc5'/>
    <reference-type-def kind='lvalue' type-id='a84c031d' size-in-bits='32' hash='29887572d1402c6e' id='2aa915e1'/>
    <pointer-type-def type-id='a84c031d' size-in-bits='32' hash='6812f8e849bfc813' id='26a90f95'/>
    <pointer-type-def type-id='26a90f95' size-in-bits='32' hash='272e68812b5eb507' id='9b23c9ad'/>
    <reference-type-def kind='lvalue' type-id='801a266d' size-in-bits='32' hash='c46ccfb70aedca07' id='f42a4811'/>
    <pointer-type-def type-id='801a266d' size-in-bits='32' hash='405532b81db01358' id='f02a41c5'/>
    <pointer-type-def type-id='f02a41c5' size-in-bits='32' hash='639f91199f1bdd81' id='0185cb3d'/>
    <qualified-type-def type-id='ad414f12' const='yes' hash='82b136cdd964579f' id='bebf8fb7'/>
    <pointer-type-def type-id='bebf8fb7' size-in-bits='32' hash='52b1e2f678f4aa2b' id='e48f1427'/>
    <qualified-type-def type-id='b7b5d51d' const='yes' hash='fe58ff22548f6bc9' id='f62c522d'/>
    <pointer-type-def type-id='f62c522d' size-in-bits='32' hash='684b87d3dec42857' id='8ec52105'/>
    <qualified-type-def type-id='32d026f1' const='yes' hash='7b0c01d8b77a65c1' id='3478aa1e'/>
    <reference-type-def kind='lvalue' type-id='3478aa1e' size-in-bits='32' hash='ea5a26d67aea326e' id='d1f3f628'/>
    <pointer-type-def type-id='3478aa1e' size-in-bits='32' hash='be950933e2113f95' id='cdf3efdc'/>
    <qualified-type-def type-id='7c0ac937' const='yes' hash='a987fe35acd78a2c' id='8e56f572'/>
    <reference-type-def kind='lvalue' type-id='8e56f572' size-in-bits='32' hash='65f3a55e81b37b13' id='66e4333c'/>
    <pointer-type-def type-id='8e56f572' size-in-bits='32' hash='0f314ccadb85768d' id='6ae43988'/>
    <qualified-type-def type-id='01b8bd0d' const='yes' hash='35c62554e25af2fe' id='da1ad926'/>
    <reference-type-def kind='lvalue' type-id='da1ad926' size-in-bits='32' hash='374dfdd2e8471278' id='58439b00'/>
    <pointer-type-def type-id='da1ad926' size-in-bits='32' hash='ae4c6efc669ecd61' id='6443ade4'/>
    <qualified-type-def type-id='238d5c19' const='yes' hash='fe6cf649e8bd9cd6' id='124b0ffa'/>
    <reference-type-def kind='lvalue' type-id='124b0ffa' size-in-bits='32' hash='0e70b697b402206c' id='a829f754'/>
    <qualified-type-def type-id='1bec9f14' const='yes' hash='9051cd60df35b8af' id='f541dc79'/>
    <reference-type-def kind='lvalue' type-id='f541dc79' size-in-bits='32' hash='670c188162c06aef' id='75ade98d'/>
    <pointer-type-def type-id='f541dc79' size-in-bits='32' hash='0abec579f6640b1e' id='69add6a9'/>
    <qualified-type-def type-id='9337857f' const='yes' hash='e2d786e6ecb21d9f' id='e900403c'/>
    <pointer-type-def type-id='e900403c' size-in-bits='32' hash='6c8d00ef680cc8b2' id='e164e2a2'/>
    <qualified-type-def type-id='0eedf0a9' const='yes' hash='5d2460f268b4e36a' id='8875171c'/>
    <pointer-type-def type-id='8875171c' size-in-bits='32' hash='ae3ac37687b1195a' id='06538a02'/>
    <qualified-type-def type-id='0c7d43ed' const='yes' hash='9447084f9d7ada83' id='ded9b194'/>
    <pointer-type-def type-id='ded9b194' size-in-bits='32' hash='b17c190448d1a9ab' id='8eb2ce1a'/>
    <qualified-type-def type-id='aaa6ccca' const='yes' hash='32347ec45be08219' id='3f8580c7'/>
    <reference-type-def kind='lvalue' type-id='3f8580c7' size-in-bits='32' hash='9b49605dd81badfc' id='e029e233'/>
    <pointer-type-def type-id='3f8580c7' size-in-bits='32' hash='694c1cb3e0a7c39a' id='ec29f517'/>
    <qualified-type-def type-id='1ae556e8' const='yes' hash='a4bf554e2e4e7fec' id='cd945871'/>
    <reference-type-def kind='lvalue' type-id='cd945871' size-in-bits='32' hash='d50a8bcb865f2e68' id='f78710f5'/>
    <qualified-type-def type-id='4a84961d' const='yes' hash='3de3c2ab8eadaf5e' id='e6f5b684'/>
    <pointer-type-def type-id='e6f5b684' size-in-bits='32' hash='a6e993088bd383d2' id='42ce93ea'/>
    <qualified-type-def type-id='a1e4e0c1' const='yes' hash='1e3198e2ad561ac5' id='cfec3230'/>
    <reference-type-def kind='lvalue' type-id='cfec3230' size-in-bits='32' hash='03687d88b44015bf' id='66d2d8a2'/>
    <pointer-type-def type-id='cfec3230' size-in-bits='32' hash='0a888130dff15870' id='6ad2deee'/>
    <qualified-type-def type-id='e5242f33' const='yes' hash='960798bd8332f844' id='3ee779f2'/>
    <reference-type-def kind='lvalue' type-id='3ee779f2' size-in-bits='32' hash='71dee0eda84d0cc9' id='da64c8bc'/>
    <pointer-type-def type-id='3ee779f2' size-in-bits='32' hash='6e3347e37977f089' id='de64cf08'/>
    <qualified-type-def type-id='83ab4f39' const='yes' hash='a8b1dd400541555e' id='ddef579c'/>
    <reference-type-def kind='lvalue' type-id='ddef579c' size-in-bits='32' hash='bf3dd4b51c7be729' id='19c719ce'/>
    <pointer-type-def type-id='ddef579c' size-in-bits='32' hash='eb0f0c8f84c36bf7' id='15c71382'/>
    <qualified-type-def type-id='406f4753' const='yes' hash='0dc52836fd6f7fbf' id='a3f5ae0e'/>
    <reference-type-def kind='lvalue' type-id='a3f5ae0e' size-in-bits='32' hash='33fb711aff87ed1e' id='43c128f8'/>
    <qualified-type-def type-id='5da8e894' const='yes' hash='371f16e1ee037327' id='d7426f71'/>
    <pointer-type-def type-id='d7426f71' size-in-bits='32' hash='4df5eebc26cd2035' id='38954c41'/>
    <qualified-type-def type-id='081066a5' const='yes' hash='5d1de3313aa8d7bf' id='364e3bf4'/>
    <pointer-type-def type-id='364e3bf4' size-in-bits='32' hash='6aace5a5ea787d65' id='5b283e7a'/>
    <qualified-type-def type-id='1ccfdeff' const='yes' hash='0bdabe85b41456b9' id='8897c276'/>
    <reference-type-def kind='lvalue' type-id='8897c276' size-in-bits='32' hash='e8873db6a15e9309' id='56e6e3f0'/>
    <qualified-type-def type-id='f8926d95' const='yes' hash='e2f87bb90c378d1e' id='d1018ac0'/>
    <reference-type-def kind='lvalue' type-id='d1018ac0' size-in-bits='32' hash='bb48da174ad405b8' id='eb6da812'/>
    <pointer-type-def type-id='d1018ac0' size-in-bits='32' hash='09d06fae0a4a02e7' id='ef6dae5e'/>
    <qualified-type-def type-id='24d11571' const='yes' hash='4bd0c864cc61a627' id='c12c73fe'/>
    <pointer-type-def type-id='c12c73fe' size-in-bits='32' hash='1c869d1c998482ba' id='ecfa56bc'/>
    <qualified-type-def type-id='4504256f' const='yes' hash='75922314e4cf06dc' id='acf3e156'/>
    <pointer-type-def type-id='acf3e156' size-in-bits='32' hash='d8b19e5deab1d105' id='bfebf634'/>
    <qualified-type-def type-id='bfebf634' const='yes' hash='fa268c6b46787a8e' id='d3e0387f'/>
    <reference-type-def kind='lvalue' type-id='d3e0387f' size-in-bits='32' hash='fbeab364a23f1b66' id='e2f8b41b'/>
    <pointer-type-def type-id='d3e0387f' size-in-bits='32' hash='bd010753fb48a762' id='def8adcf'/>
    <reference-type-def kind='lvalue' type-id='bfebf634' size-in-bits='32' hash='7c016d30317dbaaf' id='32745e56'/>
    <pointer-type-def type-id='bfebf634' size-in-bits='32' hash='7d78947a186ad3fd' id='3e74713a'/>
    <qualified-type-def type-id='3e74713a' const='yes' hash='33b15c1a132171fb' id='ab189805'/>
    <reference-type-def kind='lvalue' type-id='ab189805' size-in-bits='32' hash='c84160ab4d32f644' id='7ab77f19'/>
    <reference-type-def kind='lvalue' type-id='3e74713a' size-in-bits='32' hash='8df31480fd000acc' id='6d4e0f14'/>
    <qualified-type-def type-id='667ba238' const='yes' hash='9e0e590154b26b09' id='d6321531'/>
    <pointer-type-def type-id='d6321531' size-in-bits='32' hash='6969508be823d140' id='4bd73981'/>
    <qualified-type-def type-id='28543e70' const='yes' hash='13db3043168cd35d' id='c4bcb085'/>
    <reference-type-def kind='lvalue' type-id='c4bcb085' size-in-bits='32' hash='715f8cabd008fb0a' id='580a1099'/>
    <qualified-type-def type-id='66278e1e' const='yes' hash='a09acc2dcba125de' id='7eb311c3'/>
    <pointer-type-def type-id='7eb311c3' size-in-bits='32' hash='6cce1e46efe2e1c2' id='5ce531cb'/>
    <qualified-type-def type-id='0bab9a0f' const='yes' hash='0b6258f7ff9eeca4' id='03c8f004'/>
    <reference-type-def kind='lvalue' type-id='03c8f004' size-in-bits='32' hash='10e191c2ecb4920c' id='17520586'/>
    <qualified-type-def type-id='c73fabea' const='yes' hash='b4b28e2a8033405d' id='a3cec311'/>
    <reference-type-def kind='lvalue' type-id='a3cec311' size-in-bits='32' hash='71c0f16a5ee78876' id='157d4f95'/>
    <pointer-type-def type-id='a3cec311' size-in-bits='32' hash='1bdec5163e4d82c5' id='197d55e1'/>
    <qualified-type-def type-id='bacf3393' const='yes' hash='275cc6018862b9e9' id='745c9152'/>
    <reference-type-def kind='lvalue' type-id='745c9152' size-in-bits='32' hash='dafd126432356dba' id='a1b8f99c'/>
    <pointer-type-def type-id='745c9152' size-in-bits='32' hash='f81563a2b4d93b43' id='a5b8ffe8'/>
    <qualified-type-def type-id='90bf4c40' const='yes' hash='628f519d11193ae0' id='f36454e9'/>
    <pointer-type-def type-id='f36454e9' size-in-bits='32' hash='0c538c4c8c7643e4' id='e9f16ef9'/>
    <qualified-type-def type-id='36a9bc13' const='yes' hash='eda2421c3d53d6c4' id='a231f7f4'/>
    <pointer-type-def type-id='a231f7f4' size-in-bits='32' hash='dd06fc32666d7985' id='32a9327a'/>
    <qualified-type-def type-id='3beaa405' const='yes' hash='9a88c3070a4d3d1d' id='36819e5e'/>
    <reference-type-def kind='lvalue' type-id='36819e5e' size-in-bits='32' hash='ef51575b86cc6756' id='460c76e8'/>
    <pointer-type-def type-id='36819e5e' size-in-bits='32' hash='bf7be0d87c274fbf' id='420c709c'/>
    <qualified-type-def type-id='a84c031d' const='yes' hash='3e50fd33f9bb78d9' id='9b45d938'/>
    <reference-type-def kind='lvalue' type-id='9b45d938' size-in-bits='32' hash='67f9246fe318fa47' id='8cf4ca3a'/>
    <pointer-type-def type-id='9b45d938' size-in-bits='32' hash='1b788021282f0875' id='80f4b756'/>
    <pointer-type-def type-id='9a362d2a' size-in-bits='32' hash='7f3fe83f3743e59d' id='c53ff811'/>
    <pointer-type-def type-id='80f4b756' size-in-bits='32' hash='525e320272e9b7e6' id='7d3cd834'/>
    <qualified-type-def type-id='801a266d' const='yes' hash='825416199df8114c' id='e7c31614'/>
    <reference-type-def kind='lvalue' type-id='e7c31614' size-in-bits='32' hash='8c0535c5e0231200' id='0a1bf0b6'/>
    <pointer-type-def type-id='e7c31614' size-in-bits='32' hash='02f547f00895a570' id='161c039a'/>
    <qualified-type-def type-id='a846fc93' const='yes' hash='7d0a5530e3bfc18a' id='eb5b5ff2'/>
    <pointer-type-def type-id='eb5b5ff2' size-in-bits='32' hash='51cffec5164ff206' id='58d7e108'/>
    <qualified-type-def type-id='a6c45d85' const='yes' hash='03855f78902f9a2e' id='73f3791e'/>
    <reference-type-def kind='lvalue' type-id='73f3791e' size-in-bits='32' hash='91addc5dbafb61bf' id='c047d328'/>
    <qualified-type-def type-id='e322b6ef' const='yes' hash='1a5c3fea40c28461' id='59d28eff'/>
    <pointer-type-def type-id='59d28eff' size-in-bits='32' hash='9e275115f087b322' id='3b76d94f'/>
    <qualified-type-def type-id='95e97e5e' const='yes' hash='8cef8df4b6728924' id='2448a865'/>
    <reference-type-def kind='lvalue' type-id='2448a865' size-in-bits='32' hash='c66c09c71e902291' id='6160e179'/>
    <pointer-type-def type-id='2448a865' size-in-bits='32' hash='ef757f31dcad8445' id='6d60f45d'/>
    <qualified-type-def type-id='cc6e09ca' const='yes' hash='8eec8d875479b7d9' id='5fa8a65a'/>
    <pointer-type-def type-id='5fa8a65a' size-in-bits='32' hash='7b5b1a1f86bdb534' id='067e0250'/>
    <qualified-type-def type-id='adf18958' const='yes' hash='24bdd0e11c990841' id='3ebf19c8'/>
    <pointer-type-def type-id='3ebf19c8' size-in-bits='32' hash='3e67606c94fce6a6' id='a8d5bec6'/>
    <qualified-type-def type-id='8dfe2e06' const='yes' hash='e177a710df61ef36' id='9bf2d596'/>
    <pointer-type-def type-id='9bf2d596' size-in-bits='32' hash='23cc7af66ebd5538' id='3b4676f4'/>
    <pointer-type-def type-id='138afd90' size-in-bits='32' hash='7f3fe83f3743e59d' id='6ff55ba7'/>
    <qualified-type-def type-id='973e3c3f' const='yes' hash='503452879ed99aa7' id='8bac99cf'/>
    <pointer-type-def type-id='8bac99cf' size-in-bits='32' hash='864c0c8107bcddc3' id='c5b6437f'/>
    <qualified-type-def type-id='1a7fe6b0' const='yes' hash='115d23bb58615bcb' id='af8c6a20'/>
    <pointer-type-def type-id='af8c6a20' size-in-bits='32' hash='3872d3897812e7df' id='640aedbe'/>
    <qualified-type-def type-id='0b9c02cb' const='yes' hash='d9266377fc2f7a1c' id='897a51fb'/>
    <pointer-type-def type-id='897a51fb' size-in-bits='32' hash='ba296276fe0bc2a0' id='3c8ecc03'/>
    <qualified-type-def type-id='c8745fdc' const='yes' hash='e02c57f28b6044a9' id='7c1d680c'/>
    <pointer-type-def type-id='7c1d680c' size-in-bits='32' hash='526138134d4886d2' id='884af3d2'/>
    <qualified-type-def type-id='9a10f134' const='yes' hash='3a01781baedcd0cd' id='c17f92e4'/>
    <pointer-type-def type-id='c17f92e4' size-in-bits='32' hash='ff2d05f0ddcc7d9b' id='69d41a4a'/>
    <qualified-type-def type-id='3d7d8cbf' const='yes' hash='7a7d79fc3b615322' id='7411c98f'/>
    <pointer-type-def type-id='7411c98f' size-in-bits='32' hash='2a1e21f19fc00424' id='5d006ebf'/>
    <qualified-type-def type-id='b59d7dce' const='yes' hash='22247acf8c14fff3' id='d0fa5dde'/>
    <qualified-type-def type-id='c3e90ce7' const='yes' hash='7c2449e12e779217' id='f49e9570'/>
    <pointer-type-def type-id='f49e9570' size-in-bits='32' hash='2461c07466210823' id='6fa51cae'/>
    <qualified-type-def type-id='60f5da7d' const='yes' hash='a725183971ddafe3' id='69dda76c'/>
    <reference-type-def kind='lvalue' type-id='69dda76c' size-in-bits='32' hash='dd207c39862dc53f' id='f1ee597e'/>
    <pointer-type-def type-id='69dda76c' size-in-bits='32' hash='b080e5e53cdfb2b1' id='edee5332'/>
    <qualified-type-def type-id='36028ca6' const='yes' hash='57ec43ee63203035#6' id='127172da'/>
    <reference-type-def kind='lvalue' type-id='127172da' size-in-bits='32' hash='cf7393dc5ded56e4#6' id='049802b4'/>
    <qualified-type-def type-id='97941460' const='yes' hash='7a01998debb6194c' id='ef733b59'/>
    <reference-type-def kind='lvalue' type-id='ef733b59' size-in-bits='32' hash='ad3f70def2fbe3df' id='7166a8ed'/>
    <pointer-type-def type-id='ef733b59' size-in-bits='32' hash='769f27193b9ad449' id='65669609'/>
    <qualified-type-def type-id='2b91c1c3' const='yes' hash='57ec43ee63203035#7' id='127172db'/>
    <reference-type-def kind='lvalue' type-id='127172db' size-in-bits='32' hash='cf7393dc5ded56e4#7' id='049802b5'/>
    <qualified-type-def type-id='64fb4db3' const='yes' hash='1d7b2cfd9ad846a0' id='ac63f41a'/>
    <reference-type-def kind='lvalue' type-id='ac63f41a' size-in-bits='32' hash='15e5f17eb60cc7fb' id='9d597a74'/>
    <pointer-type-def type-id='ac63f41a' size-in-bits='32' hash='1a4f6ea5898aca35' id='91596790'/>
    <qualified-type-def type-id='88715d90' const='yes' hash='57ec43ee63203035#9' id='127172dc'/>
    <reference-type-def kind='lvalue' type-id='127172dc' size-in-bits='32' hash='cf7393dc5ded56e4#9' id='049802b6'/>
    <qualified-type-def type-id='c8491dd8' const='yes' hash='1f51cc86e620e7c8' id='cce517cd'/>
    <reference-type-def kind='lvalue' type-id='cce517cd' size-in-bits='32' hash='dc3a50eccae5753d' id='77a4a6f1'/>
    <pointer-type-def type-id='cce517cd' size-in-bits='32' hash='aff73a42453576b6' id='73a4a0a5'/>
    <qualified-type-def type-id='cb386317' const='yes' hash='57ec43ee63203035#10' id='127172dd'/>
    <reference-type-def kind='lvalue' type-id='127172dd' size-in-bits='32' hash='cf7393dc5ded56e4#10' id='049802b7'/>
    <qualified-type-def type-id='ba4fbcc4' const='yes' hash='145d63d7d3eb4454' id='e5685f15'/>
    <pointer-type-def type-id='e5685f15' size-in-bits='32' hash='603a85991aa09be1' id='624df02d'/>
    <qualified-type-def type-id='2ef4b79c' const='yes' hash='175b277bc3744451' id='015c2579'/>
    <pointer-type-def type-id='015c2579' size-in-bits='32' hash='d7de0683130be8cf' id='770ec1a9'/>
    <qualified-type-def type-id='37dd8aae' const='yes' hash='c0da5b563b26803b' id='67f2d1ad'/>
    <pointer-type-def type-id='67f2d1ad' size-in-bits='32' hash='7c7f098da8c8a604' id='2a3fd785'/>
    <qualified-type-def type-id='e015e2ec' const='yes' hash='a3871e5a079fa1e7' id='c6f082e7'/>
    <pointer-type-def type-id='c6f082e7' size-in-bits='32' hash='1142775283f5bcc2' id='f99de8b7'/>
    <qualified-type-def type-id='f045688c' const='yes' hash='2ac42cf92263cbfc' id='d14d7547'/>
    <pointer-type-def type-id='d14d7547' size-in-bits='32' hash='1c8ab2655462661b' id='e9efda97'/>
    <qualified-type-def type-id='94df1ca8' const='yes' hash='fd691a503d814cd6' id='1afeb553'/>
    <pointer-type-def type-id='1afeb553' size-in-bits='32' hash='081a0310ef6efc0c' id='f7f7ad7b'/>
    <qualified-type-def type-id='43b7c228' const='yes' hash='81f042ee3591644d' id='8b04234b'/>
    <pointer-type-def type-id='8b04234b' size-in-bits='32' hash='eb9ec0fe4b6454dd' id='3883b1b3'/>
    <qualified-type-def type-id='1988293c' const='yes' hash='f7a398a32f1b9f88' id='f6040e8d'/>
    <pointer-type-def type-id='f6040e8d' size-in-bits='32' hash='8bc74b0df8a6bd30' id='ef6310e5'/>
    <qualified-type-def type-id='c01a67f4' const='yes' hash='35fce90b58584b1d' id='09a4ff6d'/>
    <pointer-type-def type-id='09a4ff6d' size-in-bits='32' hash='b55d2afde77a4ddc' id='75bddcc5'/>
    <qualified-type-def type-id='ec22f6fc' const='yes' hash='e87521197b4c736a' id='24105c05'/>
    <pointer-type-def type-id='24105c05' size-in-bits='32' hash='4b18dcb32715ad4f' id='f4c11dfd'/>
    <qualified-type-def type-id='58870df2' const='yes' hash='73c1780e7cd40b15' id='75d6bfad'/>
    <pointer-type-def type-id='75d6bfad' size-in-bits='32' hash='3f8265631ea9ab2d' id='080f8185'/>
    <qualified-type-def type-id='d22df4cd' const='yes' hash='5a4cc8b72531f6ba' id='22034760'/>
    <pointer-type-def type-id='22034760' size-in-bits='32' hash='8a6f8fe4742a00ac' id='d529397e'/>
    <qualified-type-def type-id='2622dfea' const='yes' hash='d5305c068558a750' id='c65b3cdf'/>
    <pointer-type-def type-id='c65b3cdf' size-in-bits='32' hash='eebef8f96c2b5ffc' id='36a0f5af'/>
    <qualified-type-def type-id='39b8e88f' const='yes' hash='8bec773dea1e2c44' id='cf5e3b94'/>
    <pointer-type-def type-id='cf5e3b94' size-in-bits='32' hash='eef545e8deb47dbd' id='2f580c1a'/>
    <qualified-type-def type-id='97d0af14' const='yes' hash='2e48a3d3243fc81b' id='b1012a03'/>
    <pointer-type-def type-id='b1012a03' size-in-bits='32' hash='14a6028c1df0b581' id='cdd55e8b'/>
    <qualified-type-def type-id='7d3bb31a' const='yes' hash='f23dc8d149b54a3b' id='a006bbcf'/>
    <pointer-type-def type-id='a006bbcf' size-in-bits='32' hash='b2bc434944620941' id='cf99c97f'/>
    <qualified-type-def type-id='5fea02b3' const='yes' hash='b57c0f59e9c1accf' id='c60b39d6'/>
    <pointer-type-def type-id='c60b39d6' size-in-bits='32' hash='8edc4d498f8b16ae' id='bfac47b4'/>
    <qualified-type-def type-id='063dbdb6' const='yes' hash='dcfdc53904485fad' id='b6f04613'/>
    <pointer-type-def type-id='b6f04613' size-in-bits='32' hash='0d5e1d38cb52c586' id='353e8bbb'/>
    <qualified-type-def type-id='45b74b57' const='yes' hash='74fee25a865fd182' id='71926ae2'/>
    <pointer-type-def type-id='71926ae2' size-in-bits='32' hash='9a6a78787505d537' id='917e18d8'/>
    <qualified-type-def type-id='ffcdd1b2' const='yes' hash='c0226ee467a2ae2c' id='6ac16f07'/>
    <pointer-type-def type-id='6ac16f07' size-in-bits='32' hash='359c720b94ccc5bd' id='3b8203d7'/>
    <qualified-type-def type-id='cd354cef' const='yes' hash='eeff0789962810a2' id='7496d49a'/>
    <pointer-type-def type-id='7496d49a' size-in-bits='32' hash='dc212d801494eb37' id='3970d110'/>
    <qualified-type-def type-id='7dee695e' const='yes' hash='e19e4f66a17f6283' id='3c3515cb'/>
    <pointer-type-def type-id='3c3515cb' size-in-bits='32' hash='6fcfa3c712d7f0fe' id='a8917133'/>
    <qualified-type-def type-id='f03ebc7b' const='yes' hash='8a9596eba82af800' id='276c3586'/>
    <pointer-type-def type-id='276c3586' size-in-bits='32' hash='dff69f87c3e9216c' id='bb587dc4'/>
    <qualified-type-def type-id='678452de' const='yes' hash='24c553ac3c9a63b3' id='977f3b95'/>
    <pointer-type-def type-id='977f3b95' size-in-bits='32' hash='9e32c5ae1cb178b5' id='3c4b0dad'/>
    <qualified-type-def type-id='8d3c18f6' const='yes' hash='dd874edec66a77f1' id='87af503d'/>
    <pointer-type-def type-id='87af503d' size-in-bits='32' hash='387c103523e1773f' id='affb1435'/>
    <qualified-type-def type-id='c24f72a3' const='yes' hash='8ed345b503f42ee6' id='8469f184'/>
    <pointer-type-def type-id='8469f184' size-in-bits='32' hash='fb53d273db2d2f8b' id='20c774ea'/>
    <qualified-type-def type-id='e8967c46' const='yes' hash='e8104e29b87b11be' id='2d9d9a2b'/>
    <pointer-type-def type-id='2d9d9a2b' size-in-bits='32' hash='25163a1865352b40' id='d0196f93'/>
    <qualified-type-def type-id='e83f8f8d' const='yes' hash='cda74f0282018f69' id='da7f0da8'/>
    <pointer-type-def type-id='da7f0da8' size-in-bits='32' hash='10543ab26dab82ec' id='780243a6'/>
    <qualified-type-def type-id='057d9591' const='yes' hash='bf6e23aa2565f5fe' id='fe8749ec'/>
    <pointer-type-def type-id='fe8749ec' size-in-bits='32' hash='d15911642286085f' id='74f922b2'/>
    <qualified-type-def type-id='7312e504' const='yes' hash='17c6a978f134dd28' id='125981d9'/>
    <pointer-type-def type-id='125981d9' size-in-bits='32' hash='86ed9d35c6945a40' id='d5e79189'/>
    <qualified-type-def type-id='49a21e67' const='yes' hash='92d536847a9d7302' id='72ff7e9a'/>
    <pointer-type-def type-id='72ff7e9a' size-in-bits='32' hash='1dc8ab655410e0d6' id='b8346f10'/>
    <qualified-type-def type-id='8b54feb4' const='yes' hash='e301094336a89ce0' id='1f0a3e4d'/>
    <pointer-type-def type-id='1f0a3e4d' size-in-bits='32' hash='4ad907cdf982ca86' id='44203c25'/>
    <qualified-type-def type-id='227041e1' const='yes' hash='d92d9e2f05677e85' id='6cd37428'/>
    <pointer-type-def type-id='6cd37428' size-in-bits='32' hash='27fe6ab70dec44c2' id='52df9f26'/>
    <qualified-type-def type-id='9c4a3aff' const='yes' hash='ff9eb0dc1db5178a' id='12249962'/>
    <pointer-type-def type-id='12249962' size-in-bits='32' hash='04de586717193a5b' id='d79d4c58'/>
    <qualified-type-def type-id='22e56ec2' const='yes' hash='7c1c833b0fedaa69' id='f2757f09'/>
    <pointer-type-def type-id='f2757f09' size-in-bits='32' hash='07eda465b0d29c2f' id='d1f72419'/>
    <qualified-type-def type-id='b5df5bdc' const='yes' hash='f6e8330ecebaa9e0' id='345edb2f'/>
    <pointer-type-def type-id='345edb2f' size-in-bits='32' hash='cad677d143929e23' id='7652c8df'/>
    <qualified-type-def type-id='3b4d4373' const='yes' hash='8dba124de118e5e9' id='df0e4d26'/>
    <pointer-type-def type-id='df0e4d26' size-in-bits='32' hash='3a500d26f901cded' id='2f8349e4'/>
    <qualified-type-def type-id='277bc372' const='yes' hash='6208de6df0a89480' id='11f3caa3'/>
    <pointer-type-def type-id='11f3caa3' size-in-bits='32' hash='55c2960d51c36d88' id='cbc7d5ab'/>
    <qualified-type-def type-id='aa3451ec' const='yes' hash='c26c2d8cb856dac0' id='f3e176c1'/>
    <pointer-type-def type-id='f3e176c1' size-in-bits='32' hash='d251d29086846081' id='d6ee33f1'/>
    <qualified-type-def type-id='e4d4d078' const='yes' hash='da1f69276cbd6df2' id='8e013285'/>
    <pointer-type-def type-id='8e013285' size-in-bits='32' hash='ef433d7642d71de3' id='3ae2c97d'/>
    <qualified-type-def type-id='63c7c233' const='yes' hash='2b7318c3091fd5a6' id='76ba5c4c'/>
    <pointer-type-def type-id='76ba5c4c' size-in-bits='32' hash='b515ce6316c389d1' id='4d5f7492'/>
    <qualified-type-def type-id='7c4db7cf' const='yes' hash='73d9145e4ac91186' id='d319d718'/>
    <pointer-type-def type-id='d319d718' size-in-bits='32' hash='58f6ac09c1c1508b' id='83adc3b6'/>
    <qualified-type-def type-id='6932bb90' const='yes' hash='81530f5c5090f9ee' id='087cb129'/>
    <pointer-type-def type-id='087cb129' size-in-bits='32' hash='e1429479baf6103e' id='5f4aa7b9'/>
    <qualified-type-def type-id='9884ef0e' const='yes' hash='bc4e52a5357924c4' id='2f73bc05'/>
    <pointer-type-def type-id='2f73bc05' size-in-bits='32' hash='2b876fc814046c26' id='e2313dfd'/>
    <qualified-type-def type-id='cd94fd85' const='yes' hash='963f62678f049f2d' id='58db0cca'/>
    <pointer-type-def type-id='58db0cca' size-in-bits='32' hash='c39d069a99cf8d90' id='c0d544a0'/>
    <qualified-type-def type-id='77d669a5' const='yes' hash='22d7f5fe53f306b9' id='0ee51430'/>
    <pointer-type-def type-id='0ee51430' size-in-bits='32' hash='7ffdd3b53e1e8968' id='8c9ea4ee'/>
    <qualified-type-def type-id='a885088e' const='yes' hash='fe6927c880f050fe' id='5be8d6e7'/>
    <pointer-type-def type-id='5be8d6e7' size-in-bits='32' hash='304352d1bde76952' id='7c8a24b7'/>
    <qualified-type-def type-id='7b346a3f' const='yes' hash='45b60404ce9861e4' id='0c18ac26'/>
    <pointer-type-def type-id='0c18ac26' size-in-bits='32' hash='e4d41819248f8e65' id='16d6d6e4'/>
    <qualified-type-def type-id='ff06e1a2' const='yes' hash='7b6b63793703543d' id='0cdc9f13'/>
    <pointer-type-def type-id='0cdc9f13' size-in-bits='32' hash='f0a84a44edf13cab' id='784ea6bb'/>
    <qualified-type-def type-id='c230c56f' const='yes' hash='2b8b3a17fe171401' id='65c590da'/>
    <pointer-type-def type-id='65c590da' size-in-bits='32' hash='3f0219208ff6ec00' id='260329d0'/>
    <qualified-type-def type-id='a3175723' const='yes' hash='caaf45a3af1e674c' id='f98533c0'/>
    <pointer-type-def type-id='f98533c0' size-in-bits='32' hash='23d3bac430f656a4' id='b6b0b95e'/>
    <qualified-type-def type-id='c6d12234' const='yes' hash='810cfa26f7ab5da5' id='6ec1638d'/>
    <pointer-type-def type-id='6ec1638d' size-in-bits='32' hash='0d7c4b1122ef7b29' id='016fdfe5'/>
    <qualified-type-def type-id='6fb577ee' const='yes' hash='dbbb061f3f604749' id='7ea2111d'/>
    <pointer-type-def type-id='7ea2111d' size-in-bits='32' hash='e1d797eae6ef8ec0' id='90211995'/>
    <qualified-type-def type-id='7873fb6d' const='yes' hash='325c96f9b7e8e805' id='7ea4faa4'/>
    <pointer-type-def type-id='7ea4faa4' size-in-bits='32' hash='11d61639e7e4f72e' id='ebb66d8a'/>
    <qualified-type-def type-id='34bedffd' const='yes' hash='48a1f73ea1a98812' id='1f86947e'/>
    <pointer-type-def type-id='1f86947e' size-in-bits='32' hash='0ab3d5f9c50a488f' id='f4db803c'/>
    <qualified-type-def type-id='37ff4804' const='yes' hash='3a625f52a769f40e' id='35bcf4e5'/>
    <pointer-type-def type-id='35bcf4e5' size-in-bits='32' hash='3c9011b90b92d6e0' id='677561dd'/>
    <qualified-type-def type-id='225e915e' const='yes' hash='f5d34eb8be37ddb7' id='b1eb09e5'/>
    <pointer-type-def type-id='b1eb09e5' size-in-bits='32' hash='2a379d275a044571' id='e40070dd'/>
    <qualified-type-def type-id='1d6097d7' const='yes' hash='1f64cadebf79aa43' id='96975fe0'/>
    <pointer-type-def type-id='96975fe0' size-in-bits='32' hash='6348417f53bcb346' id='da4bcafe'/>
    <qualified-type-def type-id='9e7f15b0' const='yes' hash='7714785f60afd24b' id='6c45eba1'/>
    <pointer-type-def type-id='6c45eba1' size-in-bits='32' hash='fad17bb92fdbdf6b' id='fd11cbd1'/>
    <qualified-type-def type-id='70ed5ac7' const='yes' hash='7d4dfdb45ce9eb4f' id='30307126'/>
    <pointer-type-def type-id='30307126' size-in-bits='32' hash='b1410a7e775ee991' id='e841f5e4'/>
    <qualified-type-def type-id='7068a110' const='yes' hash='a9250ecb36e05ac6' id='ef66f589'/>
    <pointer-type-def type-id='ef66f589' size-in-bits='32' hash='3f8fefb9dedb3f4a' id='8214af99'/>
    <qualified-type-def type-id='e771cfad' const='yes' hash='6369343711e2cd40' id='648520a6'/>
    <pointer-type-def type-id='648520a6' size-in-bits='32' hash='e41bef7d09561656' id='c9923c64'/>
    <qualified-type-def type-id='3efb2c0e' const='yes' hash='e06c91714bf978e6' id='9b0b4955'/>
    <pointer-type-def type-id='9b0b4955' size-in-bits='32' hash='1c1a6310ca5b92cb' id='91c4b2ed'/>
    <qualified-type-def type-id='8288923d' const='yes' hash='125fbe10aea4738a' id='059b4a0a'/>
    <pointer-type-def type-id='059b4a0a' size-in-bits='32' hash='82ee4b663468f2d1' id='f375b060'/>
    <qualified-type-def type-id='5a2afa10' const='yes' hash='62f6ae238a79a3f4' id='ea081829'/>
    <pointer-type-def type-id='ea081829' size-in-bits='32' hash='2cd1f7c8e4aecaf2' id='6dbdccb9'/>
    <qualified-type-def type-id='f9da37d1' const='yes' hash='f6741f2b6b1f429e' id='c4e41a24'/>
    <pointer-type-def type-id='c4e41a24' size-in-bits='32' hash='9e0855c735898d06' id='0115040a'/>
    <qualified-type-def type-id='5e03174f' const='yes' hash='3df846451e524f36' id='54209a76'/>
    <pointer-type-def type-id='54209a76' size-in-bits='32' hash='99998ed8f01a90ce' id='cb52fed4'/>
    <qualified-type-def type-id='56dccc53' const='yes' hash='6f8dd03352a902ea' id='19234ae2'/>
    <pointer-type-def type-id='19234ae2' size-in-bits='32' hash='a5076641ae64a481' id='5a8eb8d8'/>
    <qualified-type-def type-id='02c104af' const='yes' hash='551dcbd6e78bc042' id='e025c302'/>
    <pointer-type-def type-id='e025c302' size-in-bits='32' hash='0b71b4aee7f5f29a' id='037237f8'/>
    <qualified-type-def type-id='bae33ff3' const='yes' hash='c40394e5a0d81b7f' id='d3fde2a2'/>
    <pointer-type-def type-id='d3fde2a2' size-in-bits='32' hash='20f5b755fd4c38cc' id='40ab9c18'/>
    <qualified-type-def type-id='d9fbed1c' const='yes' hash='35701b275d170ac2' id='21ccd5f1'/>
    <pointer-type-def type-id='21ccd5f1' size-in-bits='32' hash='d53c12b79dbeb9da' id='1074a7c1'/>
    <qualified-type-def type-id='ed8c4278' const='yes' hash='7ccdb2f7499ecf37' id='ac6cb785'/>
    <pointer-type-def type-id='ac6cb785' size-in-bits='32' hash='2a601af2ef4cf741' id='1e25287d'/>
    <qualified-type-def type-id='f2c63883' const='yes' hash='1ab91f70cf390c76' id='6afdde7c'/>
    <pointer-type-def type-id='6afdde7c' size-in-bits='32' hash='287fa3690cdbb599' id='c3a50162'/>
    <qualified-type-def type-id='51ebade8' const='yes' hash='05f78123c561494e' id='1689900b'/>
    <pointer-type-def type-id='1689900b' size-in-bits='32' hash='31b320af4e05a0f9' id='9b8de3f3'/>
    <qualified-type-def type-id='62ec4a33' const='yes' hash='8464f08391dd2b81' id='6d3d4e7e'/>
    <pointer-type-def type-id='6d3d4e7e' size-in-bits='32' hash='8f1cdfc304d66ef7' id='4b824e3c'/>
    <qualified-type-def type-id='1adfd3e6' const='yes' hash='8ffead91144c9846' id='eb12177b'/>
    <pointer-type-def type-id='eb12177b' size-in-bits='32' hash='a065a0f01a527efb' id='5e7ab483'/>
    <qualified-type-def type-id='95757501' const='yes' hash='ebeed7ffe14721d7' id='50003bd4'/>
    <pointer-type-def type-id='50003bd4' size-in-bits='32' hash='cf8d4d2fb65f9b8d' id='ee5e70da'/>
    <qualified-type-def type-id='b284e6e2' const='yes' hash='450f9a154bc8f251' id='3ee218a3'/>
    <pointer-type-def type-id='3ee218a3' size-in-bits='32' hash='072d3244ff3a2e54' id='86ec9fab'/>
    <qualified-type-def type-id='2a699f96' const='yes' hash='712851e853e5f958' id='c014b171'/>
    <pointer-type-def type-id='c014b171' size-in-bits='32' hash='72d13920ae151d15' id='bb933241'/>
    <qualified-type-def type-id='579722ef' const='yes' hash='6fb0443ac0c2725a' id='0adb7b58'/>
    <pointer-type-def type-id='0adb7b58' size-in-bits='32' hash='ef02bb07837a8e7a' id='89835476'/>
    <qualified-type-def type-id='adb0d72c' const='yes' hash='96dff99860a5993d' id='1b4f6e3b'/>
    <pointer-type-def type-id='1b4f6e3b' size-in-bits='32' hash='f90accb3e25d71b6' id='0f0a44c3'/>
    <qualified-type-def type-id='6e3f46eb' const='yes' hash='3990dc8242654f91' id='3e21fc54'/>
    <pointer-type-def type-id='3e21fc54' size-in-bits='32' hash='1f5dfca272150945' id='4d807a5a'/>
    <qualified-type-def type-id='fcbd9376' const='yes' hash='2a7c634575af5670' id='c9adb00b'/>
    <pointer-type-def type-id='c9adb00b' size-in-bits='32' hash='447434d2e198e216' id='9d6c43f3'/>
    <qualified-type-def type-id='dd0abe4a' const='yes' hash='a2b6e67ed73acdf1' id='080132d3'/>
    <pointer-type-def type-id='080132d3' size-in-bits='32' hash='d797db8704720475' id='92e33dfb'/>
    <qualified-type-def type-id='0713c6a2' const='yes' hash='efa9282f87869626' id='456e0be5'/>
    <pointer-type-def type-id='456e0be5' size-in-bits='32' hash='5b78f1186d2239b5' id='1b3c96dd'/>
    <qualified-type-def type-id='8d9552b9' const='yes' hash='b56fe9cee9434d86' id='b7cd56ac'/>
    <pointer-type-def type-id='b7cd56ac' size-in-bits='32' hash='15de7926e5794ade' id='de3f34f2'/>
    <qualified-type-def type-id='20704346' const='yes' hash='4636eac1507113c7' id='24afc245'/>
    <pointer-type-def type-id='24afc245' size-in-bits='32' hash='000d69fecb7daa8c' id='2faf14bd'/>
    <qualified-type-def type-id='abfeb1fe' const='yes' hash='b943be1e97766dd2' id='6bf2fba5'/>
    <pointer-type-def type-id='6bf2fba5' size-in-bits='32' hash='fdb4b424b5d3b92e' id='7e82021d'/>
    <qualified-type-def type-id='8051cbec' const='yes' hash='1604887dad4be5da' id='9fae01b1'/>
    <pointer-type-def type-id='9fae01b1' size-in-bits='32' hash='b987d1faf4e9b436' id='f9ec8701'/>
    <qualified-type-def type-id='488eea75' const='yes' hash='b8a1be2f6df986da' id='bf476b8e'/>
    <reference-type-def kind='lvalue' type-id='bf476b8e' size-in-bits='32' hash='0ac0b6f6c0f0890d' id='c56e7978'/>
    <pointer-type-def type-id='bf476b8e' size-in-bits='32' hash='5baa1d3ac2f14900' id='c16e732c'/>
    <qualified-type-def type-id='1c507e8b' const='yes' hash='1c7ced63afa63e9e' id='e0629c3e'/>
    <pointer-type-def type-id='e0629c3e' size-in-bits='32' hash='04cd13fb94524d50' id='4f3bb37c'/>
    <qualified-type-def type-id='6e0a00e4' const='yes' hash='8d5e4a71fcdc0fd1#2' id='3656e13e'/>
    <reference-type-def kind='lvalue' type-id='3656e13e' size-in-bits='32' hash='29e23999aedd96cb#2' id='a2c458c8'/>
    <qualified-type-def type-id='4ee99380' const='yes' hash='fe5b43aae755f7f1#5' id='47f81694'/>
    <reference-type-def kind='lvalue' type-id='47f81694' size-in-bits='32' hash='25b0e5eaef922a7b#5' id='fd8bba36'/>
    <qualified-type-def type-id='61dc8fcd' const='yes' hash='fe5b43aae755f7f1#7' id='47f81695'/>
    <reference-type-def kind='lvalue' type-id='47f81695' size-in-bits='32' hash='25b0e5eaef922a7b#7' id='fd8bba37'/>
    <qualified-type-def type-id='a8372230' const='yes' hash='2c64359ccf1b3b17#7' id='d386a90c'/>
    <reference-type-def kind='lvalue' type-id='d386a90c' size-in-bits='32' hash='3d7a8ca7e00d4e99#7' id='26fc4d1e'/>
    <qualified-type-def type-id='cd3d9869' const='yes' hash='51111b43de38136e#3' id='af954a65'/>
    <reference-type-def kind='lvalue' type-id='af954a65' size-in-bits='32' hash='27edeffceaa76ad4#3' id='ab03e779'/>
    <qualified-type-def type-id='beafe2f0' const='yes' hash='fe5b43aae755f7f1#8' id='47f81696'/>
    <reference-type-def kind='lvalue' type-id='47f81696' size-in-bits='32' hash='25b0e5eaef922a7b#8' id='fd8bba38'/>
    <qualified-type-def type-id='7194074a' const='yes' hash='f3a08c23c8f5e3e0' id='078f62bd'/>
    <reference-type-def kind='lvalue' type-id='078f62bd' size-in-bits='32' hash='62effcdf34d311ff' id='81b83a01'/>
    <pointer-type-def type-id='078f62bd' size-in-bits='32' hash='bd952fcf88a54537' id='7db833b5'/>
    <qualified-type-def type-id='568a771a' const='yes' hash='3f8a6c46e282230d' id='a96f9975'/>
    <reference-type-def kind='lvalue' type-id='a96f9975' size-in-bits='32' hash='ef471394f8691a1b' id='0dae5da9'/>
    <pointer-type-def type-id='a96f9975' size-in-bits='32' hash='67dfa784146bac65' id='19ae708d'/>
    <qualified-type-def type-id='602ad079' const='yes' hash='3079b8084758d884' id='ade0f876'/>
    <reference-type-def kind='lvalue' type-id='ade0f876' size-in-bits='32' hash='189fd80c120e884a' id='0926e5f0'/>
    <pointer-type-def type-id='ade0f876' size-in-bits='32' hash='14aaaf8dbd567d7f' id='1526f8d4'/>
    <qualified-type-def type-id='581cf3d8' const='yes' hash='8ad2c84167c54c66' id='cec93afb'/>
    <reference-type-def kind='lvalue' type-id='cec93afb' size-in-bits='32' hash='830b2fdcde9b77ec' id='63c7a9e7'/>
    <pointer-type-def type-id='cec93afb' size-in-bits='32' hash='aa56433b9fea5169' id='57c79703'/>
    <qualified-type-def type-id='f76a9935' const='yes' hash='095de7d1f2230fb0' id='93f1ab6e'/>
    <reference-type-def kind='lvalue' type-id='93f1ab6e' size-in-bits='32' hash='c951f08a4694d786' id='2d70a258'/>
    <pointer-type-def type-id='93f1ab6e' size-in-bits='32' hash='45904522814c5851' id='29709c0c'/>
    <qualified-type-def type-id='0b8a9bd4' const='yes' hash='87e53ca94afb97ee' id='88613de9'/>
    <reference-type-def kind='lvalue' type-id='88613de9' size-in-bits='32' hash='b74686426793ee29' id='80144cdd'/>
    <pointer-type-def type-id='88613de9' size-in-bits='32' hash='4d1e4f72ccd098ac' id='741439f9'/>
    <qualified-type-def type-id='000c67ad' const='yes' hash='5e76480908d1c761#6' id='5cde35bc'/>
    <reference-type-def kind='lvalue' type-id='5cde35bc' size-in-bits='32' hash='78410c554881fcc9#6' id='cbce616e'/>
    <qualified-type-def type-id='313519b3' const='yes' hash='57ec43ee63203035#16' id='127172de'/>
    <reference-type-def kind='lvalue' type-id='127172de' size-in-bits='32' hash='cf7393dc5ded56e4#16' id='049802b8'/>
    <qualified-type-def type-id='2bc53136' const='yes' hash='66dd8b1fef1514e5#6' id='dcfea06b'/>
    <reference-type-def kind='lvalue' type-id='dcfea06b' size-in-bits='32' hash='16c0b81dde088128#6' id='31d65937'/>
    <qualified-type-def type-id='b6dd31e7' const='yes' hash='4740258e5b97dbf3#6' id='ec805554'/>
    <reference-type-def kind='lvalue' type-id='ec805554' size-in-bits='32' hash='9748ee8197743f3a#6' id='c0068276'/>
    <qualified-type-def type-id='b069d066' const='yes' hash='641475e474d81598' id='f4e4a967'/>
    <reference-type-def kind='lvalue' type-id='f4e4a967' size-in-bits='32' hash='d5eca144b5f6d176' id='c4f67153'/>
    <pointer-type-def type-id='f4e4a967' size-in-bits='32' hash='0a490990c4c5c64d' id='d0f68437'/>
    <qualified-type-def type-id='ddf0159f' const='yes' hash='5e76480908d1c761#7' id='5cde35bd'/>
    <reference-type-def kind='lvalue' type-id='5cde35bd' size-in-bits='32' hash='78410c554881fcc9#7' id='cbce616f'/>
    <qualified-type-def type-id='60bf8975' const='yes' hash='57ec43ee63203035#17' id='127172df'/>
    <reference-type-def kind='lvalue' type-id='127172df' size-in-bits='32' hash='cf7393dc5ded56e4#17' id='049802b9'/>
    <qualified-type-def type-id='a36ba8bc' const='yes' hash='66dd8b1fef1514e5#7' id='dcfea06c'/>
    <reference-type-def kind='lvalue' type-id='dcfea06c' size-in-bits='32' hash='16c0b81dde088128#7' id='31d65938'/>
    <qualified-type-def type-id='1ccf4229' const='yes' hash='4740258e5b97dbf3#7' id='ec805555'/>
    <reference-type-def kind='lvalue' type-id='ec805555' size-in-bits='32' hash='9748ee8197743f3a#7' id='c0068277'/>
    <qualified-type-def type-id='16cfbc82' const='yes' hash='bd0edfbc0ecb7ceb' id='83b16c13'/>
    <reference-type-def kind='lvalue' type-id='83b16c13' size-in-bits='32' hash='3ae2dcf7834329e1' id='854d576f'/>
    <pointer-type-def type-id='83b16c13' size-in-bits='32' hash='6d640cf3171e6851' id='894d5dbb'/>
    <qualified-type-def type-id='bbda45fb' const='yes' hash='5e76480908d1c761#9' id='5cde35be'/>
    <reference-type-def kind='lvalue' type-id='5cde35be' size-in-bits='32' hash='78410c554881fcc9#9' id='cbce6170'/>
    <qualified-type-def type-id='59a35081' const='yes' hash='57ec43ee63203035#19' id='127172e0'/>
    <reference-type-def kind='lvalue' type-id='127172e0' size-in-bits='32' hash='cf7393dc5ded56e4#19' id='049802ba'/>
    <qualified-type-def type-id='4d712c30' const='yes' hash='66dd8b1fef1514e5#9' id='dcfea06d'/>
    <reference-type-def kind='lvalue' type-id='dcfea06d' size-in-bits='32' hash='16c0b81dde088128#9' id='31d65939'/>
    <qualified-type-def type-id='86683135' const='yes' hash='4740258e5b97dbf3#9' id='ec805556'/>
    <reference-type-def kind='lvalue' type-id='ec805556' size-in-bits='32' hash='9748ee8197743f3a#9' id='c0068278'/>
    <qualified-type-def type-id='d6a92829' const='yes' hash='9cb37b6a13dd22dd' id='c956a398'/>
    <reference-type-def kind='lvalue' type-id='c956a398' size-in-bits='32' hash='148dcbea3b5606c1' id='b163c41a'/>
    <pointer-type-def type-id='c956a398' size-in-bits='32' hash='4ec547a48ec28286' id='a563b136'/>
    <qualified-type-def type-id='2e0a8ef4' const='yes' hash='2c64359ccf1b3b17#14' id='d386a90d'/>
    <reference-type-def kind='lvalue' type-id='d386a90d' size-in-bits='32' hash='3d7a8ca7e00d4e99#14' id='26fc4d1f'/>
    <qualified-type-def type-id='47800e14' const='yes' hash='5e76480908d1c761#10' id='5cde35bf'/>
    <reference-type-def kind='lvalue' type-id='5cde35bf' size-in-bits='32' hash='78410c554881fcc9#10' id='cbce6171'/>
    <qualified-type-def type-id='07ec7282' const='yes' hash='57ec43ee63203035#20' id='127172e1'/>
    <reference-type-def kind='lvalue' type-id='127172e1' size-in-bits='32' hash='cf7393dc5ded56e4#20' id='049802bb'/>
    <qualified-type-def type-id='52fb1fd3' const='yes' hash='66dd8b1fef1514e5#10' id='dcfea06e'/>
    <reference-type-def kind='lvalue' type-id='dcfea06e' size-in-bits='32' hash='16c0b81dde088128#10' id='31d6593a'/>
    <qualified-type-def type-id='71b7128c' const='yes' hash='4740258e5b97dbf3#10' id='ec805557'/>
    <reference-type-def kind='lvalue' type-id='ec805557' size-in-bits='32' hash='9748ee8197743f3a#10' id='c0068279'/>
    <qualified-type-def type-id='2c8660ce' const='yes' hash='cc1a6ead0e15e693' id='66c45ba7'/>
    <reference-type-def kind='lvalue' type-id='66c45ba7' size-in-bits='32' hash='71960b4c532b9186' id='481c0c13'/>
    <pointer-type-def type-id='66c45ba7' size-in-bits='32' hash='5758e8f9ae9be68a' id='541c1ef7'/>
    <qualified-type-def type-id='92024495' const='yes' hash='7202a7387e23353e' id='20ab0c9e'/>
    <reference-type-def kind='lvalue' type-id='20ab0c9e' size-in-bits='32' hash='58e4af864e4f91db' id='254505a8'/>
    <pointer-type-def type-id='20ab0c9e' size-in-bits='32' hash='2fe1fcd3aa4cdb96' id='2144ff5c'/>
    <qualified-type-def type-id='16537306' const='yes' hash='d70ee02c95754a34' id='5cdd9e9d'/>
    <reference-type-def kind='lvalue' type-id='5cdd9e9d' size-in-bits='32' hash='36b25376f630b877' id='ebe0e061'/>
    <pointer-type-def type-id='5cdd9e9d' size-in-bits='32' hash='4f43ce0667ad914d' id='e7e0da15'/>
    <qualified-type-def type-id='60e02119' const='yes' hash='ec2c575b2c09fa4b' id='ac679f16'/>
    <reference-type-def kind='lvalue' type-id='ac679f16' size-in-bits='32' hash='c8ea3d6b05704f14' id='971f9890'/>
    <pointer-type-def type-id='ac679f16' size-in-bits='32' hash='d2d77c70513d3c8b' id='a31fab74'/>
    <qualified-type-def type-id='9a771f60' const='yes' hash='fe241d5bebfe36ef' id='c1918efd'/>
    <reference-type-def kind='lvalue' type-id='c1918efd' size-in-bits='32' hash='fa33f319f1c980a5' id='9323e2c1'/>
    <pointer-type-def type-id='c1918efd' size-in-bits='32' hash='e4922f8dda963a50' id='8f23dc75'/>
    <qualified-type-def type-id='966331d7' const='yes' hash='3c81753affe4e2ba' id='29a768f2'/>
    <reference-type-def kind='lvalue' type-id='29a768f2' size-in-bits='32' hash='e59d94076ef44529' id='668a05bc'/>
    <pointer-type-def type-id='29a768f2' size-in-bits='32' hash='79edbe12b2e00c02' id='6a8a0c08'/>
    <qualified-type-def type-id='6a81bf9f' const='yes' hash='1859c2215ef2b5a1' id='adeba43c'/>
    <reference-type-def kind='lvalue' type-id='adeba43c' size-in-bits='32' hash='a0e20406f98276e9' id='e3f354ee'/>
    <pointer-type-def type-id='adeba43c' size-in-bits='32' hash='9fb54e704d2f1691' id='dff34ea2'/>
    <qualified-type-def type-id='9db4a8b6' const='yes' hash='57ec43ee63203035#21' id='127172e2'/>
    <reference-type-def kind='lvalue' type-id='127172e2' size-in-bits='32' hash='cf7393dc5ded56e4#21' id='049802bc'/>
    <qualified-type-def type-id='10e7e929' const='yes' hash='d186bac7bd04b5d2#3' id='2bf9e425'/>
    <reference-type-def kind='lvalue' type-id='2bf9e425' size-in-bits='32' hash='b0bae0eb804b9cb6#3' id='3d61f0b9'/>
    <qualified-type-def type-id='b38d4802' const='yes' hash='bb121a8bfcc8692b#9' id='3656e13f'/>
    <reference-type-def kind='lvalue' type-id='3656e13f' size-in-bits='32' hash='4be839be89a60d7e#9' id='a2c458c9'/>
    <qualified-type-def type-id='a104f5a1' const='yes' hash='addccc5ebf7e121a' id='b482634e'/>
    <reference-type-def kind='lvalue' type-id='b482634e' size-in-bits='32' hash='b0d06f2f6b82b2dd' id='91427cb8'/>
    <pointer-type-def type-id='b482634e' size-in-bits='32' hash='f243c8363a122db1' id='8d42766c'/>
    <qualified-type-def type-id='3b178084' const='yes' hash='57ec43ee63203035#22' id='127172e3'/>
    <reference-type-def kind='lvalue' type-id='127172e3' size-in-bits='32' hash='cf7393dc5ded56e4#22' id='049802bd'/>
    <qualified-type-def type-id='1cdac963' const='yes' hash='acab78ccd64216a9#4' id='2bf9e426'/>
    <reference-type-def kind='lvalue' type-id='2bf9e426' size-in-bits='32' hash='b0df660767854bf6#4' id='3d61f0ba'/>
    <qualified-type-def type-id='bb1f0094' const='yes' hash='9025f9e61356ecd8#10' id='3656e140'/>
    <reference-type-def kind='lvalue' type-id='3656e140' size-in-bits='32' hash='56e3663e96c6e340#10' id='a2c458ca'/>
    <qualified-type-def type-id='97ba1631' const='yes' hash='e19b33d9fcdf4a75' id='bada66f6'/>
    <reference-type-def kind='lvalue' type-id='bada66f6' size-in-bits='32' hash='dcc757cd5145c6f3' id='f5cfd970'/>
    <pointer-type-def type-id='bada66f6' size-in-bits='32' hash='f7a96a992c893017' id='01cfec54'/>
    <qualified-type-def type-id='2d95a82c' const='yes' hash='57ec43ee63203035#23' id='127172e4'/>
    <reference-type-def kind='lvalue' type-id='127172e4' size-in-bits='32' hash='cf7393dc5ded56e4#23' id='049802be'/>
    <qualified-type-def type-id='951e44e5' const='yes' hash='c484da14dc7589d8' id='3b165ce2'/>
    <reference-type-def kind='lvalue' type-id='3b165ce2' size-in-bits='32' hash='53d81d693acb1b86' id='c834088c'/>
    <pointer-type-def type-id='3b165ce2' size-in-bits='32' hash='4233152fa9b0ecd7' id='cc340ed8'/>
    <qualified-type-def type-id='36d323f8' const='yes' hash='57ec43ee63203035#24' id='127172e5'/>
    <reference-type-def kind='lvalue' type-id='127172e5' size-in-bits='32' hash='cf7393dc5ded56e4#24' id='049802bf'/>
    <qualified-type-def type-id='86513975' const='yes' hash='25bc3b652fc8df82' id='fe79fb3a'/>
    <reference-type-def kind='lvalue' type-id='fe79fb3a' size-in-bits='32' hash='8b6795b8f3ebbffa' id='b6064d14'/>
    <pointer-type-def type-id='fe79fb3a' size-in-bits='32' hash='9c6824159771fc3c' id='aa063a30'/>
    <qualified-type-def type-id='324852f0' const='yes' hash='57ec43ee63203035#27' id='127172e6'/>
    <reference-type-def kind='lvalue' type-id='127172e6' size-in-bits='32' hash='cf7393dc5ded56e4#27' id='049802c0'/>
    <qualified-type-def type-id='1a4295c7' const='yes' hash='441ebeb826d8a0ab#7' id='2bf9e427'/>
    <reference-type-def kind='lvalue' type-id='2bf9e427' size-in-bits='32' hash='a5eb9d4aa01b9166#7' id='3d61f0bb'/>
    <qualified-type-def type-id='79281988' const='yes' hash='fe64642f7b9f10b2#13' id='3656e141'/>
    <reference-type-def kind='lvalue' type-id='3656e141' size-in-bits='32' hash='92a3a6ec17d8083e#13' id='a2c458cb'/>
    <qualified-type-def type-id='cc5cd419' const='yes' hash='7a70efb8e6fff8f0' id='9c8ba446'/>
    <reference-type-def kind='lvalue' type-id='9c8ba446' size-in-bits='32' hash='d6cce7c19fb9488e' id='cfd3c320'/>
    <pointer-type-def type-id='9c8ba446' size-in-bits='32' hash='fc90d93700636095' id='dbd3d604'/>
    <qualified-type-def type-id='c879823c' const='yes' hash='57ec43ee63203035#30' id='127172e7'/>
    <reference-type-def kind='lvalue' type-id='127172e7' size-in-bits='32' hash='cf7393dc5ded56e4#30' id='049802c1'/>
    <qualified-type-def type-id='dfecc261' const='yes' hash='786ee48164214e64' id='39f98ad6'/>
    <reference-type-def kind='lvalue' type-id='39f98ad6' size-in-bits='32' hash='59a7f7a309446dee' id='33d5b7d0'/>
    <pointer-type-def type-id='39f98ad6' size-in-bits='32' hash='5a6c9be0166d26c7' id='3fd5cab4'/>
    <qualified-type-def type-id='352fcd0c' const='yes' hash='57ec43ee63203035#31' id='127172e8'/>
    <reference-type-def kind='lvalue' type-id='127172e8' size-in-bits='32' hash='cf7393dc5ded56e4#31' id='049802c2'/>
    <qualified-type-def type-id='be2111ab' const='yes' hash='bc797522b9ea42d4#10' id='2bf9e428'/>
    <reference-type-def kind='lvalue' type-id='2bf9e428' size-in-bits='32' hash='c127013b545c33ee#10' id='3d61f0bc'/>
    <qualified-type-def type-id='296c784c' const='yes' hash='02dcf5e6feeed328#16' id='3656e142'/>
    <reference-type-def kind='lvalue' type-id='3656e142' size-in-bits='32' hash='a6859441533fa59e#16' id='a2c458cc'/>
    <qualified-type-def type-id='4bafa653' const='yes' hash='51237f1856959954' id='204d3172'/>
    <reference-type-def kind='lvalue' type-id='204d3172' size-in-bits='32' hash='93b5a530b5777746' id='2d84a73c'/>
    <pointer-type-def type-id='204d3172' size-in-bits='32' hash='d9d79fbc4dd6059a' id='3184ad88'/>
    <qualified-type-def type-id='19917da8' const='yes' hash='57ec43ee63203035#32' id='127172e9'/>
    <reference-type-def kind='lvalue' type-id='127172e9' size-in-bits='32' hash='cf7393dc5ded56e4#32' id='049802c3'/>
    <qualified-type-def type-id='5a1a385f' const='yes' hash='33b284518799f3da#11' id='2bf9e429'/>
    <reference-type-def kind='lvalue' type-id='2bf9e429' size-in-bits='32' hash='7ef96bfe06c28633#11' id='3d61f0bd'/>
    <qualified-type-def type-id='c8be4550' const='yes' hash='38476c2abed6f0e2#17' id='3656e143'/>
    <reference-type-def kind='lvalue' type-id='3656e143' size-in-bits='32' hash='eb0f06372272961d#17' id='a2c458cd'/>
    <qualified-type-def type-id='ccc1a701' const='yes' hash='6eba6a67cb20f904' id='6ba820fe'/>
    <reference-type-def kind='lvalue' type-id='6ba820fe' size-in-bits='32' hash='f7dfa8c9659a9054' id='51abb408'/>
    <pointer-type-def type-id='6ba820fe' size-in-bits='32' hash='0ed6d3eb095a7a4a' id='4dabadbc'/>
    <qualified-type-def type-id='d5ff43f4' const='yes' hash='57ec43ee63203035#33' id='127172ea'/>
    <reference-type-def kind='lvalue' type-id='127172ea' size-in-bits='32' hash='cf7393dc5ded56e4#33' id='049802c4'/>
    <qualified-type-def type-id='73ca7213' const='yes' hash='71c672fd0e6155ea#12' id='2bf9e42a'/>
    <reference-type-def kind='lvalue' type-id='2bf9e42a' size-in-bits='32' hash='f6f3a239ba09b913#12' id='3d61f0be'/>
    <qualified-type-def type-id='098dee04' const='yes' hash='c3daca1b62f72164#18' id='3656e144'/>
    <reference-type-def kind='lvalue' type-id='3656e144' size-in-bits='32' hash='c7887eaeb279961f#18' id='a2c458ce'/>
    <qualified-type-def type-id='c99d6d34' const='yes' hash='20853120a9f50574' id='86a0d7d7'/>
    <pointer-type-def type-id='86a0d7d7' size-in-bits='32' hash='58d5ed58576127d5' id='ec340347'/>
    <qualified-type-def type-id='a122f21c' const='yes' hash='52013c6344ac73e7' id='bd903223'/>
    <pointer-type-def type-id='bd903223' size-in-bits='32' hash='1e360620fe31f42a' id='72fec42b'/>
    <qualified-type-def type-id='4f878678' const='yes' hash='058a7e8651511413' id='dc7f3811'/>
    <reference-type-def kind='lvalue' type-id='dc7f3811' size-in-bits='32' hash='ace6fca7a0a7cc4f' id='53457e95'/>
    <pointer-type-def type-id='dc7f3811' size-in-bits='32' hash='589bc8d421f2c235' id='574584e1'/>
    <qualified-type-def type-id='fb2b2135' const='yes' hash='49a99f02da4be126' id='3ecc6a56'/>
    <reference-type-def kind='lvalue' type-id='3ecc6a56' size-in-bits='32' hash='111bd25f1e78a39a' id='4bcb8e50'/>
    <pointer-type-def type-id='3ecc6a56' size-in-bits='32' hash='19ee2a0d65fa98c6' id='57cba134'/>
    <qualified-type-def type-id='f96f37f4' const='yes' hash='ee9e30bebf8756c7' id='3c42718b'/>
    <reference-type-def kind='lvalue' type-id='3c42718b' size-in-bits='32' hash='229bd808cc1d6d37' id='8998f357'/>
    <pointer-type-def type-id='3c42718b' size-in-bits='32' hash='736525a26e532f11' id='7d98e073'/>
    <qualified-type-def type-id='dbb0c32e' const='yes' hash='365958342fc55df7' id='0145e9ad'/>
    <reference-type-def kind='lvalue' type-id='0145e9ad' size-in-bits='32' hash='8a640dc802e48f09' id='8c0ea5d1'/>
    <pointer-type-def type-id='0145e9ad' size-in-bits='32' hash='4293acfb95861cc7' id='880e9f85'/>
    <qualified-type-def type-id='bc83a16a' const='yes' hash='a8c5179b7591339a' id='e1d417f9'/>
    <reference-type-def kind='lvalue' type-id='e1d417f9' size-in-bits='32' hash='e48e9aa9ce8e0612' id='5fe1940d'/>
    <pointer-type-def type-id='e1d417f9' size-in-bits='32' hash='7cfc4d62f92bca4d' id='53e18129'/>
    <qualified-type-def type-id='443bd0ae' const='yes' hash='f63362316cde50a7' id='94a71cf9'/>
    <reference-type-def kind='lvalue' type-id='94a71cf9' size-in-bits='32' hash='197c56ffd5cb7f51' id='e212730d'/>
    <pointer-type-def type-id='94a71cf9' size-in-bits='32' hash='48c5daeea38317df' id='d6126029'/>
    <qualified-type-def type-id='c7b95082' const='yes' hash='902ffeb42efa2254' id='1377b429'/>
    <reference-type-def kind='lvalue' type-id='1377b429' size-in-bits='32' hash='a1a3eab50cb2d749' id='b470739d'/>
    <pointer-type-def type-id='1377b429' size-in-bits='32' hash='5906930b6b9adb8a' id='a87060b9'/>
    <qualified-type-def type-id='c566fa15' const='yes' hash='09901734fc5e66cd' id='8b38c90e'/>
    <reference-type-def kind='lvalue' type-id='8b38c90e' size-in-bits='32' hash='b90582e58281dd05' id='5264a9f8'/>
    <pointer-type-def type-id='8b38c90e' size-in-bits='32' hash='ff95122fd5d3536a' id='4e64a3ac'/>
    <qualified-type-def type-id='35484ac1' const='yes' hash='6345cebe0749c0c0' id='e0298922'/>
    <reference-type-def kind='lvalue' type-id='e0298922' size-in-bits='32' hash='6043c538f7fd39a9' id='e562b14c'/>
    <pointer-type-def type-id='e0298922' size-in-bits='32' hash='14255450d60f2f6f' id='e962b798'/>
    <qualified-type-def type-id='9d7cc6de' const='yes' hash='a727fe81152149be' id='ea3375d3'/>
    <reference-type-def kind='lvalue' type-id='ea3375d3' size-in-bits='32' hash='26b2f416c1edb759' id='a402b0af'/>
    <pointer-type-def type-id='ea3375d3' size-in-bits='32' hash='eee0f574baf604a7' id='a802b6fb'/>
    <qualified-type-def type-id='fe392671' const='yes' hash='8664d0b0f7414ec9' id='c9b609d0'/>
    <reference-type-def kind='lvalue' type-id='c9b609d0' size-in-bits='32' hash='3cf4189fe2bc6da3' id='7f91ae42'/>
    <pointer-type-def type-id='c9b609d0' size-in-bits='32' hash='33b2d92ae1f255bf' id='8391b48e'/>
    <qualified-type-def type-id='48b06606' const='yes' hash='2ce4cee5cd2b8ead' id='5fef81e5'/>
    <reference-type-def kind='lvalue' type-id='5fef81e5' size-in-bits='32' hash='1c930c0de80e00cd' id='c90945f9'/>
    <pointer-type-def type-id='5fef81e5' size-in-bits='32' hash='9b0ae5a2b5c7d08a' id='d50958dd'/>
    <qualified-type-def type-id='251e995b' const='yes' hash='d143f2576cc10f75' id='5245b2d0'/>
    <reference-type-def kind='lvalue' type-id='5245b2d0' size-in-bits='32' hash='ad7862a40a41a9e5' id='79b8b942'/>
    <pointer-type-def type-id='5245b2d0' size-in-bits='32' hash='1aa84c195b179c17' id='7db8bf8e'/>
    <qualified-type-def type-id='619f09b0' const='yes' hash='d00dddd4f198d12f' id='db7a342b'/>
    <reference-type-def kind='lvalue' type-id='db7a342b' size-in-bits='32' hash='1da86ebdff6dccbe' id='8e5ff077'/>
    <pointer-type-def type-id='db7a342b' size-in-bits='32' hash='069865e6dc739111' id='825fdd93'/>
    <qualified-type-def type-id='500299ab' const='yes' hash='d729099e14bd36ad' id='062c8fe8'/>
    <reference-type-def kind='lvalue' type-id='062c8fe8' size-in-bits='32' hash='afc7f1484a67fad2' id='8626614a'/>
    <pointer-type-def type-id='062c8fe8' size-in-bits='32' hash='8db180fcfb3701f2' id='7a264e66'/>
    <qualified-type-def type-id='089fe5a3' const='yes' hash='4712320cfd067502' id='7588d14e'/>
    <reference-type-def kind='lvalue' type-id='7588d14e' size-in-bits='32' hash='e408acb31b00eead' id='6e61a6b8'/>
    <pointer-type-def type-id='7588d14e' size-in-bits='32' hash='6273c44eaa28175b' id='6a61a06c'/>
    <qualified-type-def type-id='f6626d42' const='yes' hash='7f302637cca9872b' id='17bb75ff'/>
    <reference-type-def kind='lvalue' type-id='17bb75ff' size-in-bits='32' hash='a27c3d5c60b9d5f7' id='351a849b'/>
    <pointer-type-def type-id='17bb75ff' size-in-bits='32' hash='7d6e50773e3b802e' id='311a7e4f'/>
    <qualified-type-def type-id='bf1e7ced' const='yes' hash='14e7e00e233dea0c' id='001b74d0'/>
    <reference-type-def kind='lvalue' type-id='001b74d0' size-in-bits='32' hash='b771b213f9133e21' id='21391f42'/>
    <pointer-type-def type-id='001b74d0' size-in-bits='32' hash='cf7a13762bcf701e' id='2539258e'/>
    <qualified-type-def type-id='1b40f38a' const='yes' hash='d1a7c2a1b688b637' id='2538414b'/>
    <reference-type-def kind='lvalue' type-id='2538414b' size-in-bits='32' hash='2881b839abf5736b' id='048efe97'/>
    <pointer-type-def type-id='2538414b' size-in-bits='32' hash='6dffc726e72e0fcd' id='f88eebb3'/>
    <qualified-type-def type-id='30745bfb' const='yes' hash='e8314d9c7073626a' id='db87b3f2'/>
    <pointer-type-def type-id='db87b3f2' size-in-bits='32' hash='99ab7a8756cc21e1' id='6ea01d08'/>
    <qualified-type-def type-id='82ce69b4' const='yes' hash='6af3c614cb48a957' id='49a750c1'/>
    <pointer-type-def type-id='49a750c1' size-in-bits='32' hash='1bf513b211d80d60' id='dd6461f1'/>
    <qualified-type-def type-id='7a1975f9' const='yes' hash='be8c3deba546635a' id='3f098f6c'/>
    <pointer-type-def type-id='3f098f6c' size-in-bits='32' hash='a1bb3556b5300b2a' id='820c8b32'/>
    <qualified-type-def type-id='d05727fd' const='yes' hash='aba06f8f776075d7' id='412f8662'/>
    <pointer-type-def type-id='412f8662' size-in-bits='32' hash='77e5c97dfec99894' id='e5d06358'/>
    <qualified-type-def type-id='9d7dd6fe' const='yes' hash='5c180ba383d6d8a6' id='26f80b51'/>
    <pointer-type-def type-id='26f80b51' size-in-bits='32' hash='62821c1add44bb01' id='d37a12a1'/>
    <qualified-type-def type-id='84f52bff' const='yes' hash='0be64e3bbd0a379f' id='5fc9545c'/>
    <pointer-type-def type-id='5fc9545c' size-in-bits='32' hash='77a19b58fae18605' id='3feff5c2'/>
    <qualified-type-def type-id='d784bbd4' const='yes' hash='cf60a85996bf5323' id='370afc1f'/>
    <pointer-type-def type-id='370afc1f' size-in-bits='32' hash='68c223746094f851' id='db4b076f'/>
    <qualified-type-def type-id='f5a6c2c2' const='yes' hash='57ec43ee63203035#43' id='127172eb'/>
    <reference-type-def kind='lvalue' type-id='127172eb' size-in-bits='32' hash='cf7393dc5ded56e4#43' id='049802c5'/>
    <qualified-type-def type-id='d3f9cf63' const='yes' hash='57ec43ee63203035#44' id='127172ec'/>
    <reference-type-def kind='lvalue' type-id='127172ec' size-in-bits='32' hash='cf7393dc5ded56e4#44' id='049802c6'/>
    <qualified-type-def type-id='e283594e' const='yes' hash='57ec43ee63203035#45' id='127172ed'/>
    <reference-type-def kind='lvalue' type-id='127172ed' size-in-bits='32' hash='cf7393dc5ded56e4#45' id='049802c7'/>
    <qualified-type-def type-id='e53cc294' const='yes' hash='57ec43ee63203035#46' id='127172ee'/>
    <reference-type-def kind='lvalue' type-id='127172ee' size-in-bits='32' hash='cf7393dc5ded56e4#46' id='049802c8'/>
    <qualified-type-def type-id='2a25b660' const='yes' hash='57ec43ee63203035#49' id='127172ef'/>
    <reference-type-def kind='lvalue' type-id='127172ef' size-in-bits='32' hash='cf7393dc5ded56e4#49' id='049802c9'/>
    <qualified-type-def type-id='e8b5bb94' const='yes' hash='57ec43ee63203035#53' id='127172f0'/>
    <reference-type-def kind='lvalue' type-id='127172f0' size-in-bits='32' hash='cf7393dc5ded56e4#53' id='049802ca'/>
    <qualified-type-def type-id='32e47c40' const='yes' hash='57ec43ee63203035#54' id='127172f1'/>
    <reference-type-def kind='lvalue' type-id='127172f1' size-in-bits='32' hash='cf7393dc5ded56e4#54' id='049802cb'/>
    <qualified-type-def type-id='f4c79cc7' const='yes' hash='57ec43ee63203035#55' id='127172f2'/>
    <reference-type-def kind='lvalue' type-id='127172f2' size-in-bits='32' hash='cf7393dc5ded56e4#55' id='049802cc'/>
    <qualified-type-def type-id='c446d2cb' const='yes' hash='57ec43ee63203035#56' id='127172f3'/>
    <reference-type-def kind='lvalue' type-id='127172f3' size-in-bits='32' hash='cf7393dc5ded56e4#56' id='049802cd'/>
    <qualified-type-def type-id='56b4dd50' const='yes' hash='57ec43ee63203035#57' id='127172f4'/>
    <reference-type-def kind='lvalue' type-id='127172f4' size-in-bits='32' hash='cf7393dc5ded56e4#57' id='049802ce'/>
    <qualified-type-def type-id='d48b26bb' const='yes' hash='57ec43ee63203035#58' id='127172f5'/>
    <reference-type-def kind='lvalue' type-id='127172f5' size-in-bits='32' hash='cf7393dc5ded56e4#58' id='049802cf'/>
    <qualified-type-def type-id='384a7181' const='yes' hash='57ec43ee63203035#74' id='127172f6'/>
    <reference-type-def kind='lvalue' type-id='127172f6' size-in-bits='32' hash='cf7393dc5ded56e4#74' id='049802d0'/>
    <qualified-type-def type-id='8b095b74' const='yes' hash='57ec43ee63203035#75' id='127172f7'/>
    <reference-type-def kind='lvalue' type-id='127172f7' size-in-bits='32' hash='cf7393dc5ded56e4#75' id='049802d1'/>
    <qualified-type-def type-id='c4c47537' const='yes' hash='57ec43ee63203035#77' id='127172f8'/>
    <reference-type-def kind='lvalue' type-id='127172f8' size-in-bits='32' hash='cf7393dc5ded56e4#77' id='049802d2'/>
    <qualified-type-def type-id='e5f05e18' const='yes' hash='57ec43ee63203035#78' id='127172f9'/>
    <reference-type-def kind='lvalue' type-id='127172f9' size-in-bits='32' hash='cf7393dc5ded56e4#78' id='049802d3'/>
    <qualified-type-def type-id='2848c8a1' const='yes' hash='57ec43ee63203035#82' id='127172fa'/>
    <reference-type-def kind='lvalue' type-id='127172fa' size-in-bits='32' hash='cf7393dc5ded56e4#82' id='049802d4'/>
    <qualified-type-def type-id='9e02975e' const='yes' hash='57ec43ee63203035#83' id='127172fb'/>
    <reference-type-def kind='lvalue' type-id='127172fb' size-in-bits='32' hash='cf7393dc5ded56e4#83' id='049802d5'/>
    <qualified-type-def type-id='a5d1359b' const='yes' hash='57ec43ee63203035#85' id='127172fc'/>
    <reference-type-def kind='lvalue' type-id='127172fc' size-in-bits='32' hash='cf7393dc5ded56e4#85' id='049802d6'/>
    <qualified-type-def type-id='6fe64836' const='yes' hash='57ec43ee63203035#89' id='127172fd'/>
    <reference-type-def kind='lvalue' type-id='127172fd' size-in-bits='32' hash='cf7393dc5ded56e4#89' id='049802d7'/>
    <qualified-type-def type-id='155e8fd8' const='yes' hash='6b827efbaf1317d7' id='caec6cbf'/>
    <pointer-type-def type-id='caec6cbf' size-in-bits='32' hash='063f67346a177a25' id='072eee8f'/>
    <qualified-type-def type-id='70799029' const='yes' hash='452a98dd388be9f7#26' id='3656e145'/>
    <reference-type-def kind='lvalue' type-id='3656e145' size-in-bits='32' hash='69d16db03af4d9b5#26' id='a2c458cf'/>
    <pointer-type-def type-id='3656e145' size-in-bits='32' hash='5856a4d127a7adf4' id='9ec4527c'/>
    <qualified-type-def type-id='4da3c689' const='yes' hash='21183bce86e954d3' id='e5a3737c'/>
    <reference-type-def kind='lvalue' type-id='e5a3737c' size-in-bits='32' hash='a92dd93ef0fe37bf' id='da4e96ae'/>
    <qualified-type-def type-id='97219ec5' const='yes' hash='704f5e5efff62eb9#27' id='3656e146'/>
    <pointer-type-def type-id='3656e146' size-in-bits='32' hash='b8589766f2c1b8c2#2' id='9ec4527d'/>
    <qualified-type-def type-id='cea92a70' const='yes' hash='5d889335cf778f29' id='0be3de7b'/>
    <reference-type-def kind='lvalue' type-id='0be3de7b' size-in-bits='32' hash='8b558d5422a1ef83' id='14b70c67'/>
    <pointer-type-def type-id='0be3de7b' size-in-bits='32' hash='17cec3642ede9fd5' id='08b6f983'/>
    <qualified-type-def type-id='ca9cbb0d' const='yes' hash='21183bce86e954d3' id='14ee82e4'/>
    <reference-type-def kind='lvalue' type-id='14ee82e4' size-in-bits='32' hash='a92dd93ef0fe37bf' id='b577d766'/>
    <qualified-type-def type-id='b9c5d5a9' const='yes' hash='57ec43ee63203035#92' id='127172fe'/>
    <reference-type-def kind='lvalue' type-id='127172fe' size-in-bits='32' hash='cf7393dc5ded56e4#92' id='049802d8'/>
    <qualified-type-def type-id='1a8dd50d' const='yes' hash='105a3f9065775d15#28' id='3656e147'/>
    <reference-type-def kind='lvalue' type-id='3656e147' size-in-bits='32' hash='cc94ef3749207f2d#27' id='a2c458d0'/>
    <pointer-type-def type-id='3656e147' size-in-bits='32' hash='ba25028ed02f26a5#3' id='9ec4527e'/>
    <qualified-type-def type-id='501d9695' const='yes' hash='0b2346aac903da5f' id='11376d86'/>
    <reference-type-def kind='lvalue' type-id='11376d86' size-in-bits='32' hash='c5d941fd995a7270' id='ba4192e0'/>
    <pointer-type-def type-id='11376d86' size-in-bits='32' hash='bb2a0f5e86633064' id='c641a5c4'/>
    <qualified-type-def type-id='5bec325c' const='yes' hash='105a3f9065775d15#29' id='3656e148'/>
    <pointer-type-def type-id='3656e148' size-in-bits='32' hash='ba25028ed02f26a5#4' id='9ec4527f'/>
    <qualified-type-def type-id='a82808e9' const='yes' hash='0d301f00e830e5eb' id='2c9ebcad'/>
    <reference-type-def kind='lvalue' type-id='2c9ebcad' size-in-bits='32' hash='9349270139bb794b' id='c8e2ced1'/>
    <pointer-type-def type-id='2c9ebcad' size-in-bits='32' hash='13c47f2cf302224c' id='c4e2c885'/>
    <qualified-type-def type-id='983adb98' const='yes' hash='9524484f733c288f' id='05fc47b4'/>
    <reference-type-def kind='lvalue' type-id='05fc47b4' size-in-bits='32' hash='f7cbe43b530b11ac' id='fe24aad6'/>
    <qualified-type-def type-id='d81eed6b' const='yes' hash='3d6e5f4227b229be' id='9e890de2'/>
    <reference-type-def kind='lvalue' type-id='9e890de2' size-in-bits='32' hash='bd4c7254aa8d3f07' id='55c0ab8c'/>
    <pointer-type-def type-id='9e890de2' size-in-bits='32' hash='728bb0d385529cee' id='59c0b1d8'/>
    <qualified-type-def type-id='afb20d38' const='yes' hash='049b90055bb27abe' id='036f5893'/>
    <reference-type-def kind='lvalue' type-id='036f5893' size-in-bits='32' hash='61eaf5240b294064' id='1d48a4ef'/>
    <pointer-type-def type-id='036f5893' size-in-bits='32' hash='7ae0113a1387d60b' id='2148ab3b'/>
    <qualified-type-def type-id='3c207afe' const='yes' hash='117c74fda2e9706a' id='42021ec3'/>
    <reference-type-def kind='lvalue' type-id='42021ec3' size-in-bits='32' hash='cd26d8e8ce3e6ccf' id='ce56a27f'/>
    <pointer-type-def type-id='42021ec3' size-in-bits='32' hash='dcfeadb59af12de7' id='d256a8cb'/>
    <qualified-type-def type-id='f9e4b3e7' const='yes' hash='525742f63fbcd039' id='78c34362'/>
    <reference-type-def kind='lvalue' type-id='78c34362' size-in-bits='32' hash='16dc2882525c196f' id='5f62e40c'/>
    <pointer-type-def type-id='78c34362' size-in-bits='32' hash='0a1aeea7ddeb0e57' id='6362ea58'/>
    <qualified-type-def type-id='60662a11' const='yes' hash='b1e60a9a7f1aba14' id='1458d402'/>
    <reference-type-def kind='lvalue' type-id='1458d402' size-in-bits='32' hash='ae9f9aea5f5b88fa' id='2bd5f4ac'/>
    <pointer-type-def type-id='1458d402' size-in-bits='32' hash='ee8e54eea052e48a' id='2fd5faf8'/>
    <qualified-type-def type-id='21d7352a' const='yes' hash='951e77d45f5b903a' id='05623813'/>
    <reference-type-def kind='lvalue' type-id='05623813' size-in-bits='32' hash='175500704c3e0271' id='ae9e7b6f'/>
    <pointer-type-def type-id='05623813' size-in-bits='32' hash='e0a9951edfab3fb6' id='b29e81bb'/>
    <qualified-type-def type-id='99463423' const='yes' hash='6c338751a97068ae' id='84e91272'/>
    <reference-type-def kind='lvalue' type-id='84e91272' size-in-bits='32' hash='1792294c1005d0af' id='8ee7da3c'/>
    <pointer-type-def type-id='84e91272' size-in-bits='32' hash='c54656ae81f4795e' id='92e7e088'/>
    <qualified-type-def type-id='f4edc297' const='yes' hash='a170d88ecb4db43a' id='0542114e'/>
    <pointer-type-def type-id='0542114e' size-in-bits='32' hash='602421de7e0602e5' id='ab01606c'/>
    <qualified-type-def type-id='249572b2' const='yes' hash='f4e2d682d4887045' id='236fe7b5'/>
    <pointer-type-def type-id='236fe7b5' size-in-bits='32' hash='8cec3a133bfbe249' id='68299f4d'/>
    <qualified-type-def type-id='33591497' const='yes' hash='7468727c2510d48c' id='ef041530'/>
    <reference-type-def kind='lvalue' type-id='ef041530' size-in-bits='32' hash='85883528550314b7' id='596d31a2'/>
    <qualified-type-def type-id='199fc21a' const='yes' hash='f436fd31ff8be8b5' id='07053001'/>
    <reference-type-def kind='lvalue' type-id='07053001' size-in-bits='32' hash='d6d0d72e458dcb3a' id='342acd65'/>
    <qualified-type-def type-id='6efd2fac' const='yes' hash='5935a4a73c78abd5' id='0b53cd55'/>
    <reference-type-def kind='lvalue' type-id='0b53cd55' size-in-bits='32' hash='997282d14814a1b7' id='47ec6c09'/>
    <pointer-type-def type-id='0b53cd55' size-in-bits='32' hash='c9797307ad2a4a30' id='53ec7eed'/>
    <qualified-type-def type-id='53ec7eed' const='yes' hash='36e4004f23aeea1c' id='83417942'/>
    <reference-type-def kind='lvalue' type-id='83417942' size-in-bits='32' hash='62ebe432bb289605' id='0412186c'/>
    <reference-type-def kind='lvalue' type-id='53ec7eed' size-in-bits='32' hash='6610a232489d4330' id='e84b9991'/>
    <qualified-type-def type-id='222ea3df' const='yes' hash='b356dabc2f3ace8d' id='aade6091'/>
    <reference-type-def kind='lvalue' type-id='aade6091' size-in-bits='32' hash='4768afadfb024748' id='b3124015'/>
    <qualified-type-def type-id='ac070eda' const='yes' hash='029537b957f606a6' id='a94d5121'/>
    <pointer-type-def type-id='a94d5121' size-in-bits='32' hash='08002059733492a3' id='8fb69451'/>
    <qualified-type-def type-id='5f48c471' const='yes' hash='e3dfcfb72e1ddcb2#3' id='fc5a3b8a'/>
    <reference-type-def kind='lvalue' type-id='fc5a3b8a' size-in-bits='32' hash='768b1e3ba2096387#3' id='f00bf2ec'/>
    <qualified-type-def type-id='6a6c3f8a' const='yes' hash='615a729a7b292ce0' id='181848a1'/>
    <pointer-type-def type-id='181848a1' size-in-bits='32' hash='a75e6a24c0ddc848' id='793a32d1'/>
    <qualified-type-def type-id='8997c6b1' const='yes' hash='e3dfcfb72e1ddcb2#4' id='fc5a3b8b'/>
    <reference-type-def kind='lvalue' type-id='fc5a3b8b' size-in-bits='32' hash='768b1e3ba2096387#4' id='f00bf2ed'/>
    <qualified-type-def type-id='e982e448' const='yes' hash='4b7ff10d5c509ad2' id='5bcaf7f1'/>
    <pointer-type-def type-id='5bcaf7f1' size-in-bits='32' hash='b9ec1cadc9174648' id='5b842dc1'/>
    <qualified-type-def type-id='f821a8c1' const='yes' hash='760c788735ec0ce8#17' id='fc5a3b8c'/>
    <reference-type-def kind='lvalue' type-id='fc5a3b8c' size-in-bits='32' hash='d9493894175faeb0#17' id='f00bf2ee'/>
    <qualified-type-def type-id='075a9db6' const='yes' hash='8602a9e9bfeb8df8' id='8c8e4db3'/>
    <pointer-type-def type-id='8c8e4db3' size-in-bits='32' hash='b7a49c640f6350e4' id='dd0427db'/>
    <qualified-type-def type-id='51ec91a3' const='yes' hash='760c788735ec0ce8#18' id='fc5a3b8d'/>
    <reference-type-def kind='lvalue' type-id='fc5a3b8d' size-in-bits='32' hash='d9493894175faeb0#18' id='f00bf2ef'/>
    <qualified-type-def type-id='65b889e8' const='yes' hash='56f8cf5a4d493c20' id='7352da6d'/>
    <pointer-type-def type-id='7352da6d' size-in-bits='32' hash='57188b1dcd498987' id='d26d9dc5'/>
    <qualified-type-def type-id='55d610b5' const='yes' hash='760c788735ec0ce8#20' id='fc5a3b8e'/>
    <reference-type-def kind='lvalue' type-id='fc5a3b8e' size-in-bits='32' hash='d9493894175faeb0#20' id='f00bf2f0'/>
    <qualified-type-def type-id='603f72de' const='yes' hash='cb26731784f95401' id='bb4d3f1f'/>
    <pointer-type-def type-id='bb4d3f1f' size-in-bits='32' hash='f504bfa456e6ace0' id='0f9a806f'/>
    <qualified-type-def type-id='b224bbe7' const='yes' hash='760c788735ec0ce8#21' id='fc5a3b8f'/>
    <reference-type-def kind='lvalue' type-id='fc5a3b8f' size-in-bits='32' hash='d9493894175faeb0#21' id='f00bf2f1'/>
    <qualified-type-def type-id='56b14eae' const='yes' hash='edb53418bb09ed5b' id='afb5051d'/>
    <reference-type-def kind='lvalue' type-id='afb5051d' size-in-bits='32' hash='a5d53bc0f3aed1a9' id='d4f73be1'/>
    <pointer-type-def type-id='afb5051d' size-in-bits='32' hash='3035b1f8285130a6' id='d0f73595'/>
    <qualified-type-def type-id='3815c827' const='yes' hash='57ec43ee63203035#96' id='127172ff'/>
    <reference-type-def kind='lvalue' type-id='127172ff' size-in-bits='32' hash='cf7393dc5ded56e4#96' id='049802d9'/>
    <qualified-type-def type-id='282aee02' const='yes' hash='66dd8b1fef1514e5#14' id='dcfea06f'/>
    <reference-type-def kind='lvalue' type-id='dcfea06f' size-in-bits='32' hash='16c0b81dde088128#14' id='31d6593b'/>
    <qualified-type-def type-id='9ae7d18b' const='yes' hash='4740258e5b97dbf3#14' id='ec805558'/>
    <reference-type-def kind='lvalue' type-id='ec805558' size-in-bits='32' hash='9748ee8197743f3a#14' id='c006827a'/>
    <qualified-type-def type-id='6a671eb0' const='yes' hash='fd395552103fe532' id='e35d6473'/>
    <reference-type-def kind='lvalue' type-id='e35d6473' size-in-bits='32' hash='21f3ba30896488cc' id='4104f1cf'/>
    <pointer-type-def type-id='e35d6473' size-in-bits='32' hash='23a292e6b938a80e' id='4504f81b'/>
    <qualified-type-def type-id='50658421' const='yes' hash='57ec43ee63203035#97' id='12717300'/>
    <reference-type-def kind='lvalue' type-id='12717300' size-in-bits='32' hash='cf7393dc5ded56e4#97' id='049802da'/>
    <qualified-type-def type-id='13f0fc10' const='yes' hash='66dd8b1fef1514e5#15' id='dcfea070'/>
    <reference-type-def kind='lvalue' type-id='dcfea070' size-in-bits='32' hash='16c0b81dde088128#15' id='31d6593c'/>
    <qualified-type-def type-id='d2ec4c55' const='yes' hash='4740258e5b97dbf3#15' id='ec805559'/>
    <reference-type-def kind='lvalue' type-id='ec805559' size-in-bits='32' hash='9748ee8197743f3a#15' id='c006827b'/>
    <qualified-type-def type-id='3abded17' const='yes' hash='fe5b43aae755f7f1#11' id='47f81697'/>
    <reference-type-def kind='lvalue' type-id='47f81697' size-in-bits='32' hash='25b0e5eaef922a7b#11' id='fd8bba39'/>
    <qualified-type-def type-id='6e9b5502' const='yes' hash='b62e8171789da3e1' id='109c5825'/>
    <reference-type-def kind='lvalue' type-id='109c5825' size-in-bits='32' hash='8e8f70cd8a1d339d' id='291e8cb9'/>
    <pointer-type-def type-id='109c5825' size-in-bits='32' hash='1306b1e63f5387fe' id='351e9f9d'/>
    <qualified-type-def type-id='572bb6ef' const='yes' hash='57ec43ee63203035#99' id='12717301'/>
    <reference-type-def kind='lvalue' type-id='12717301' size-in-bits='32' hash='cf7393dc5ded56e4#99' id='049802db'/>
    <qualified-type-def type-id='cffe07ea' const='yes' hash='66dd8b1fef1514e5#17' id='dcfea071'/>
    <reference-type-def kind='lvalue' type-id='dcfea071' size-in-bits='32' hash='16c0b81dde088128#17' id='31d6593d'/>
    <qualified-type-def type-id='bd53d563' const='yes' hash='4740258e5b97dbf3#17' id='ec80555a'/>
    <reference-type-def kind='lvalue' type-id='ec80555a' size-in-bits='32' hash='9748ee8197743f3a#17' id='c006827c'/>
    <qualified-type-def type-id='e7d36121' const='yes' hash='fe5b43aae755f7f1#13' id='47f81698'/>
    <reference-type-def kind='lvalue' type-id='47f81698' size-in-bits='32' hash='25b0e5eaef922a7b#13' id='fd8bba3a'/>
    <qualified-type-def type-id='760319b5' const='yes' hash='73aa1bda437e2917' id='0cebea86'/>
    <reference-type-def kind='lvalue' type-id='0cebea86' size-in-bits='32' hash='e62cafff5542c2f2' id='f76259e0'/>
    <pointer-type-def type-id='0cebea86' size-in-bits='32' hash='d6604fb14ece10c4' id='03626cc4'/>
    <qualified-type-def type-id='dcd9dabc' const='yes' hash='57ec43ee63203035#102' id='12717302'/>
    <reference-type-def kind='lvalue' type-id='12717302' size-in-bits='32' hash='cf7393dc5ded56e4#102' id='049802dc'/>
    <qualified-type-def type-id='908c82f9' const='yes' hash='66dd8b1fef1514e5#20' id='dcfea072'/>
    <reference-type-def kind='lvalue' type-id='dcfea072' size-in-bits='32' hash='16c0b81dde088128#20' id='31d6593e'/>
    <qualified-type-def type-id='c214b7fe' const='yes' hash='4740258e5b97dbf3#20' id='ec80555b'/>
    <reference-type-def kind='lvalue' type-id='ec80555b' size-in-bits='32' hash='9748ee8197743f3a#20' id='c006827d'/>
    <qualified-type-def type-id='eb92ad4a' const='yes' hash='fe5b43aae755f7f1#16' id='47f81699'/>
    <reference-type-def kind='lvalue' type-id='47f81699' size-in-bits='32' hash='25b0e5eaef922a7b#16' id='fd8bba3b'/>
    <qualified-type-def type-id='439e0f3c' const='yes' hash='8d5e4a71fcdc0fd1#37' id='3656e149'/>
    <reference-type-def kind='lvalue' type-id='3656e149' size-in-bits='32' hash='29e23999aedd96cb#35' id='a2c458d1'/>
    <qualified-type-def type-id='a5320295' const='yes' hash='7f4a04143a914d3a' id='6015fca8'/>
    <reference-type-def kind='lvalue' type-id='6015fca8' size-in-bits='32' hash='b76f6d0f0301f4d3' id='d09c938a'/>
    <pointer-type-def type-id='6015fca8' size-in-bits='32' hash='bb928c552e96c6de' id='c49c80a6'/>
    <qualified-type-def type-id='932cd4f2' const='yes' hash='57ec43ee63203035#103' id='12717303'/>
    <reference-type-def kind='lvalue' type-id='12717303' size-in-bits='32' hash='cf7393dc5ded56e4#103' id='049802dd'/>
    <qualified-type-def type-id='908075a6' const='yes' hash='bb121a8bfcc8692b#38' id='3656e14a'/>
    <reference-type-def kind='lvalue' type-id='3656e14a' size-in-bits='32' hash='4be839be89a60d7e#36' id='a2c458d2'/>
    <pointer-type-def type-id='3656e14a' size-in-bits='32' hash='43519c4f047f16c1#5' id='9ec45280'/>
    <qualified-type-def type-id='1e763177' const='yes' hash='037c1027ada11fb7' id='3364f30a'/>
    <reference-type-def kind='lvalue' type-id='3364f30a' size-in-bits='32' hash='03af5a26e09ba4cf' id='13eace44'/>
    <pointer-type-def type-id='3364f30a' size-in-bits='32' hash='c23957ea082dbc15' id='07eabb60'/>
    <qualified-type-def type-id='d4db64a0' const='yes' hash='57ec43ee63203035#104' id='12717304'/>
    <reference-type-def kind='lvalue' type-id='12717304' size-in-bits='32' hash='cf7393dc5ded56e4#104' id='049802de'/>
    <qualified-type-def type-id='e709d4f8' const='yes' hash='9025f9e61356ecd8#39' id='3656e14b'/>
    <reference-type-def kind='lvalue' type-id='3656e14b' size-in-bits='32' hash='56e3663e96c6e340#37' id='a2c458d3'/>
    <pointer-type-def type-id='3656e14b' size-in-bits='32' hash='137fd559d242e4dc#6' id='9ec45281'/>
    <qualified-type-def type-id='46ef0c57' const='yes' hash='a52268e621932aa7' id='b5643ad2'/>
    <reference-type-def kind='lvalue' type-id='b5643ad2' size-in-bits='32' hash='d32a9d760f29811b' id='80c8ce1c'/>
    <pointer-type-def type-id='b5643ad2' size-in-bits='32' hash='2a2a91bc85f9d25b' id='84c8d468'/>
    <qualified-type-def type-id='837c9848' const='yes' hash='57ec43ee63203035#105' id='12717305'/>
    <reference-type-def kind='lvalue' type-id='12717305' size-in-bits='32' hash='cf7393dc5ded56e4#105' id='049802df'/>
    <qualified-type-def type-id='ba2611f3' const='yes' hash='d7eeaf29d3b54f59' id='7ce3efbe'/>
    <reference-type-def kind='lvalue' type-id='7ce3efbe' size-in-bits='32' hash='5628ff6a94befc37' id='32d22c48'/>
    <pointer-type-def type-id='7ce3efbe' size-in-bits='32' hash='8bb07a5c2f11e84c' id='2ed225fc'/>
    <qualified-type-def type-id='85d9d214' const='yes' hash='57ec43ee63203035#106' id='12717306'/>
    <reference-type-def kind='lvalue' type-id='12717306' size-in-bits='32' hash='cf7393dc5ded56e4#106' id='049802e0'/>
    <qualified-type-def type-id='2b166553' const='yes' hash='b3f19656bd3c1251' id='2eeb4556'/>
    <reference-type-def kind='lvalue' type-id='2eeb4556' size-in-bits='32' hash='0b50f4f5f3561c2f' id='4c5e4f50'/>
    <pointer-type-def type-id='2eeb4556' size-in-bits='32' hash='d5f6cfb47b27d52b' id='585e6234'/>
    <qualified-type-def type-id='fb9780ac' const='yes' hash='57ec43ee63203035#109' id='12717307'/>
    <reference-type-def kind='lvalue' type-id='12717307' size-in-bits='32' hash='cf7393dc5ded56e4#109' id='049802e1'/>
    <qualified-type-def type-id='1f8483ec' const='yes' hash='fe64642f7b9f10b2#42' id='3656e14c'/>
    <reference-type-def kind='lvalue' type-id='3656e14c' size-in-bits='32' hash='92a3a6ec17d8083e#40' id='a2c458d4'/>
    <pointer-type-def type-id='3656e14c' size-in-bits='32' hash='68de40fd885aad1c#9' id='9ec45282'/>
    <qualified-type-def type-id='736f4e77' const='yes' hash='490998cf6b54cb7e' id='343f7a92'/>
    <reference-type-def kind='lvalue' type-id='343f7a92' size-in-bits='32' hash='6e985d428b97971b' id='f3ee295c'/>
    <pointer-type-def type-id='343f7a92' size-in-bits='32' hash='1f478744c46839f4' id='f7ee2fa8'/>
    <qualified-type-def type-id='f2f07e48' const='yes' hash='57ec43ee63203035#112' id='12717308'/>
    <reference-type-def kind='lvalue' type-id='12717308' size-in-bits='32' hash='cf7393dc5ded56e4#112' id='049802e2'/>
    <qualified-type-def type-id='94c4b137' const='yes' hash='d4c07028998faf51' id='5ff31802'/>
    <reference-type-def kind='lvalue' type-id='5ff31802' size-in-bits='32' hash='d03e9de823dd56b4' id='2faf00ac'/>
    <pointer-type-def type-id='5ff31802' size-in-bits='32' hash='964a2f3091748c85' id='33af06f8'/>
    <qualified-type-def type-id='2aca27b8' const='yes' hash='57ec43ee63203035#113' id='12717309'/>
    <reference-type-def kind='lvalue' type-id='12717309' size-in-bits='32' hash='cf7393dc5ded56e4#113' id='049802e3'/>
    <qualified-type-def type-id='7f513560' const='yes' hash='02dcf5e6feeed328#45' id='3656e14d'/>
    <reference-type-def kind='lvalue' type-id='3656e14d' size-in-bits='32' hash='a6859441533fa59e#43' id='a2c458d5'/>
    <pointer-type-def type-id='3656e14d' size-in-bits='32' hash='79dbacbdcb31e001#12' id='9ec45283'/>
    <qualified-type-def type-id='e3e687ed' const='yes' hash='e86755219507d499' id='ab517696'/>
    <reference-type-def kind='lvalue' type-id='ab517696' size-in-bits='32' hash='d07fa05fcb796408' id='613dd710'/>
    <pointer-type-def type-id='ab517696' size-in-bits='32' hash='c72c7b22dc8bed0a' id='6d3de9f4'/>
    <qualified-type-def type-id='ecd6c50c' const='yes' hash='57ec43ee63203035#114' id='1271730a'/>
    <reference-type-def kind='lvalue' type-id='1271730a' size-in-bits='32' hash='cf7393dc5ded56e4#114' id='049802e4'/>
    <qualified-type-def type-id='a013f04c' const='yes' hash='38476c2abed6f0e2#46' id='3656e14e'/>
    <reference-type-def kind='lvalue' type-id='3656e14e' size-in-bits='32' hash='eb0f06372272961d#44' id='a2c458d6'/>
    <pointer-type-def type-id='3656e14e' size-in-bits='32' hash='52415fb865eeb81e#13' id='9ec45284'/>
    <qualified-type-def type-id='21156a1f' const='yes' hash='f04f2e7069eae2fc' id='fd4d5a6a'/>
    <reference-type-def kind='lvalue' type-id='fd4d5a6a' size-in-bits='32' hash='5c269015ecafc52c' id='0cc525a4'/>
    <pointer-type-def type-id='fd4d5a6a' size-in-bits='32' hash='69c6d715201ed8db' id='00c512c0'/>
    <qualified-type-def type-id='56f28cc0' const='yes' hash='57ec43ee63203035#115' id='1271730b'/>
    <reference-type-def kind='lvalue' type-id='1271730b' size-in-bits='32' hash='cf7393dc5ded56e4#115' id='049802e5'/>
    <qualified-type-def type-id='21d18d18' const='yes' hash='c3daca1b62f72164#47' id='3656e14f'/>
    <reference-type-def kind='lvalue' type-id='3656e14f' size-in-bits='32' hash='c7887eaeb279961f#45' id='a2c458d7'/>
    <pointer-type-def type-id='3656e14f' size-in-bits='32' hash='7484ca4e8679ccdc#14' id='9ec45285'/>
    <qualified-type-def type-id='c9d12d66' const='yes' hash='d3c49df9e7156c8f' id='588b3216'/>
    <pointer-type-def type-id='588b3216' size-in-bits='32' hash='c4fc4778b0b468b7' id='9f201474'/>
    <qualified-type-def type-id='dddf6ca2' const='yes' hash='fcd5552544b2bf0b' id='e824a34f'/>
    <pointer-type-def type-id='e824a34f' size-in-bits='32' hash='460f3777e3655a37' id='d6ad37ff'/>
    <qualified-type-def type-id='8f92235e' const='yes' hash='c615287ae67f9bdd' id='b9930aae'/>
    <pointer-type-def type-id='b9930aae' size-in-bits='32' hash='838bbfa9253a0277' id='a6798dcc'/>
    <qualified-type-def type-id='b96825af' const='yes' hash='5a6582fbecdbfc78' id='2b61797f'/>
    <pointer-type-def type-id='2b61797f' size-in-bits='32' hash='d5956781e32739d7' id='9f7200cf'/>
    <qualified-type-def type-id='002ac4a6' const='yes' hash='645f4d0d44563fc6' id='ea86de29'/>
    <reference-type-def kind='lvalue' type-id='ea86de29' size-in-bits='32' hash='1dc58420c1c89ee9' id='414f919d'/>
    <qualified-type-def type-id='f0981eed' const='yes' hash='6e5b7fbd041269f4' id='20f5f452'/>
    <reference-type-def kind='lvalue' type-id='20f5f452' size-in-bits='32' hash='813bc0c5cda64b9e' id='572fd29c'/>
    <pointer-type-def type-id='20f5f452' size-in-bits='32' hash='697bb66158a0e828' id='5b2fd8e8'/>
    <qualified-type-def type-id='c523b9f1' const='yes' hash='f2fba7dbc42fc9d5' id='effb3702'/>
    <pointer-type-def type-id='effb3702' size-in-bits='32' hash='6ba496b264681407' id='f077d3f8'/>
    <pointer-type-def type-id='f077d3f8' size-in-bits='32' hash='847fdd5fad0c3d64' id='5ea27396'/>
    <reference-type-def kind='lvalue' type-id='a6c45d85' size-in-bits='32' hash='796d95d18fb67f42' id='2a1f6799'/>
    <pointer-type-def type-id='a6c45d85' size-in-bits='32' hash='a55a37dac4b5da20' id='361f7a7d'/>
    <pointer-type-def type-id='e322b6ef' size-in-bits='32' hash='6eefd34f0affe71a' id='c5f12884'/>
    <pointer-type-def type-id='96ee24a5' size-in-bits='32' hash='7f3fe83f3743e59d' id='67230494'/>
    <reference-type-def kind='lvalue' type-id='95e97e5e' size-in-bits='32' hash='5c34b6d49dbba849' id='769216e8'/>
    <pointer-type-def type-id='95e97e5e' size-in-bits='32' hash='e51b662ac2a28f93' id='7292109c'/>
    <qualified-type-def type-id='7292109c' const='yes' hash='b30aef4498b46157' id='5a5c0787'/>
    <reference-type-def kind='lvalue' type-id='5a5c0787' size-in-bits='32' hash='3dd4e4a0ecac3153' id='dfe00273'/>
    <reference-type-def kind='lvalue' type-id='7292109c' size-in-bits='32' hash='c0d97c19579d62f0' id='15f054ce'/>
    <pointer-type-def type-id='e5bd5c7c' size-in-bits='32' hash='7f3fe83f3743e59d' id='cf6ba1d9'/>
    <pointer-type-def type-id='bfece280' size-in-bits='32' hash='7f3fe83f3743e59d' id='51a12745'/>
    <pointer-type-def type-id='16c0590f' size-in-bits='32' hash='7f3fe83f3743e59d' id='9c44123a'/>
    <pointer-type-def type-id='64b352ce' size-in-bits='32' hash='7f3fe83f3743e59d' id='cf23ae6b'/>
    <pointer-type-def type-id='a6eaa9f4' size-in-bits='32' hash='7f3fe83f3743e59d' id='6500e0d5'/>
    <pointer-type-def type-id='0224b00e' size-in-bits='32' hash='7f3fe83f3743e59d' id='fe34ddeb'/>
    <pointer-type-def type-id='f0a16cf3' size-in-bits='32' hash='7f3fe83f3743e59d' id='edf75eb0'/>
    <pointer-type-def type-id='af1e5937' size-in-bits='32' hash='7f3fe83f3743e59d' id='365ad2dc'/>
    <pointer-type-def type-id='58fcbf31' size-in-bits='32' hash='7f3fe83f3743e59d' id='03b4d21a'/>
    <pointer-type-def type-id='05c1e46f' size-in-bits='32' hash='7f3fe83f3743e59d' id='14a5b6bc'/>
    <pointer-type-def type-id='79acd688' size-in-bits='32' hash='7f3fe83f3743e59d' id='4a3ee6bf'/>
    <pointer-type-def type-id='ad6651c5' size-in-bits='32' hash='7f3fe83f3743e59d' id='d45ba39e'/>
    <pointer-type-def type-id='906c7e7f' size-in-bits='32' hash='7f3fe83f3743e59d' id='214c5f44'/>
    <pointer-type-def type-id='6f046d6d' size-in-bits='32' hash='7f3fe83f3743e59d' id='e6dd1f9e'/>
    <pointer-type-def type-id='86c14eea' size-in-bits='32' hash='7f3fe83f3743e59d' id='e089ff87'/>
    <pointer-type-def type-id='cc6e09ca' size-in-bits='32' hash='3f67443107f0627e' id='d4a328b7'/>
    <pointer-type-def type-id='44c6cc4b' size-in-bits='32' hash='7f3fe83f3743e59d' id='595531d6'/>
    <pointer-type-def type-id='3fe1cc52' size-in-bits='32' hash='7f3fe83f3743e59d' id='0b42cefb'/>
    <pointer-type-def type-id='dbabdcaf' size-in-bits='32' hash='7f3fe83f3743e59d' id='95e124fa'/>
    <pointer-type-def type-id='fe53f0ee' size-in-bits='32' hash='7f3fe83f3743e59d' id='9672ceab'/>
    <pointer-type-def type-id='ddb48714' size-in-bits='32' hash='7f3fe83f3743e59d' id='e1233a95'/>
    <pointer-type-def type-id='520e32ee' size-in-bits='32' hash='7f3fe83f3743e59d' id='68dff1ab'/>
    <pointer-type-def type-id='5b6b8457' size-in-bits='32' hash='7f3fe83f3743e59d' id='19f8581c'/>
    <pointer-type-def type-id='7e2725d1' size-in-bits='32' hash='7f3fe83f3743e59d' id='95eb11da'/>
    <pointer-type-def type-id='cbae85cf' size-in-bits='32' hash='7f3fe83f3743e59d' id='c45ae27c'/>
    <pointer-type-def type-id='34294ba8' size-in-bits='32' hash='7f3fe83f3743e59d' id='5750967f'/>
    <pointer-type-def type-id='5131b3e5' size-in-bits='32' hash='7f3fe83f3743e59d' id='d3e60ade'/>
    <pointer-type-def type-id='baa6c01f' size-in-bits='32' hash='7f3fe83f3743e59d' id='483faa04'/>
    <pointer-type-def type-id='adbcd94d' size-in-bits='32' hash='7f3fe83f3743e59d' id='ac58975e'/>
    <pointer-type-def type-id='adf18958' size-in-bits='32' hash='4955228071b1bf24' id='a6979e77'/>
    <pointer-type-def type-id='51c807eb' size-in-bits='32' hash='7f3fe83f3743e59d' id='3c0f7990'/>
    <pointer-type-def type-id='10d8a2b2' size-in-bits='32' hash='7f3fe83f3743e59d' id='39b8aabb'/>
    <pointer-type-def type-id='a7f7fff9' size-in-bits='32' hash='7f3fe83f3743e59d' id='2c2f7dfc'/>
    <pointer-type-def type-id='ac63458c' size-in-bits='32' hash='7f3fe83f3743e59d' id='74c6bbc1'/>
    <pointer-type-def type-id='6c0ad14a' size-in-bits='32' hash='7f3fe83f3743e59d' id='9aa3a30b'/>
    <pointer-type-def type-id='c648ecac' size-in-bits='32' hash='7f3fe83f3743e59d' id='c99edb51'/>
    <pointer-type-def type-id='0d5e3ea5' size-in-bits='32' hash='7f3fe83f3743e59d' id='a0a864ea'/>
    <pointer-type-def type-id='2d81735f' size-in-bits='32' hash='7f3fe83f3743e59d' id='3d1c1990'/>
    <pointer-type-def type-id='1642288d' size-in-bits='32' hash='7f3fe83f3743e59d' id='e08f90b2'/>
    <pointer-type-def type-id='9a879f12' size-in-bits='32' hash='7f3fe83f3743e59d' id='002b51d9'/>
    <pointer-type-def type-id='1b9d7d93' size-in-bits='32' hash='7f3fe83f3743e59d' id='4eccfcec'/>
    <pointer-type-def type-id='229ae47d' size-in-bits='32' hash='7f3fe83f3743e59d' id='ae8575aa'/>
    <pointer-type-def type-id='0681baf3' size-in-bits='32' hash='7f3fe83f3743e59d' id='ebd01c4c'/>
    <pointer-type-def type-id='8dfe2e06' size-in-bits='32' hash='a8cb03ade8f0eb3b' id='071e4e5d'/>
    <pointer-type-def type-id='68768207' size-in-bits='32' hash='7f3fe83f3743e59d' id='181adbb0'/>
    <pointer-type-def type-id='fec334c0' size-in-bits='32' hash='7f3fe83f3743e59d' id='99291eb1'/>
    <pointer-type-def type-id='4962a6a9' size-in-bits='32' hash='7f3fe83f3743e59d' id='0701e7a2'/>
    <pointer-type-def type-id='9096ef22' size-in-bits='32' hash='7f3fe83f3743e59d' id='93fe72f9'/>
    <pointer-type-def type-id='0c0fb02e' size-in-bits='32' hash='7f3fe83f3743e59d' id='96a2b59f'/>
    <pointer-type-def type-id='ee9f7f1d' size-in-bits='32' hash='7f3fe83f3743e59d' id='b769f8ce'/>
    <pointer-type-def type-id='daa62f6c' size-in-bits='32' hash='7f3fe83f3743e59d' id='e2ca7deb'/>
    <pointer-type-def type-id='fbd11c11' size-in-bits='32' hash='7f3fe83f3743e59d' id='9a728e42'/>
    <pointer-type-def type-id='41d3ee1b' size-in-bits='32' hash='7f3fe83f3743e59d' id='37d8dbc8'/>
    <pointer-type-def type-id='da5f3921' size-in-bits='32' hash='7f3fe83f3743e59d' id='b5141f8a'/>
    <pointer-type-def type-id='c76018ba' size-in-bits='32' hash='7f3fe83f3743e59d' id='47bd5aa3'/>
    <pointer-type-def type-id='8e8d8560' size-in-bits='32' hash='7f3fe83f3743e59d' id='974e7d0d'/>
    <pointer-type-def type-id='462faf42' size-in-bits='32' hash='7f3fe83f3743e59d' id='bcb23543'/>
    <pointer-type-def type-id='50461049' size-in-bits='32' hash='7f3fe83f3743e59d' id='cf64aecc'/>
    <pointer-type-def type-id='7c6bd1bc' size-in-bits='32' hash='7f3fe83f3743e59d' id='b76bba71'/>
    <pointer-type-def type-id='beb693fa' size-in-bits='32' hash='7f3fe83f3743e59d' id='99520b7b'/>
    <pointer-type-def type-id='353c555c' size-in-bits='32' hash='7f3fe83f3743e59d' id='cb41d9c1'/>
    <pointer-type-def type-id='973e3c3f' size-in-bits='32' hash='2b8e1f949597b646' id='6292c81e'/>
    <pointer-type-def type-id='486b9cd1' size-in-bits='32' hash='7f3fe83f3743e59d' id='9d6db3c8'/>
    <pointer-type-def type-id='2c73abfd' size-in-bits='32' hash='7f3fe83f3743e59d' id='7ba19e0e'/>
    <pointer-type-def type-id='daecdf3d' size-in-bits='32' hash='7f3fe83f3743e59d' id='a316ff5e'/>
    <pointer-type-def type-id='7f3fc66e' size-in-bits='32' hash='7f3fe83f3743e59d' id='b4201f3f'/>
    <pointer-type-def type-id='08e81539' size-in-bits='32' hash='7f3fe83f3743e59d' id='cd849574'/>
    <pointer-type-def type-id='d0f1dd4c' size-in-bits='32' hash='7f3fe83f3743e59d' id='22bf7509'/>
    <pointer-type-def type-id='41c4608a' size-in-bits='32' hash='7f3fe83f3743e59d' id='ffa14fb3'/>
    <pointer-type-def type-id='c3775dec' size-in-bits='32' hash='7f3fe83f3743e59d' id='64f0f239'/>
    <pointer-type-def type-id='51d11665' size-in-bits='32' hash='7f3fe83f3743e59d' id='0a890a42'/>
    <pointer-type-def type-id='4c8d769f' size-in-bits='32' hash='7f3fe83f3743e59d' id='47e937c8'/>
    <pointer-type-def type-id='df8fe3cd' size-in-bits='32' hash='7f3fe83f3743e59d' id='ff165b8a'/>
    <pointer-type-def type-id='f9633a52' size-in-bits='32' hash='7f3fe83f3743e59d' id='9202a511'/>
    <pointer-type-def type-id='a5560353' size-in-bits='32' hash='7f3fe83f3743e59d' id='09928654'/>
    <pointer-type-def type-id='df291ebd' size-in-bits='32' hash='7f3fe83f3743e59d' id='9f32ba72'/>
    <pointer-type-def type-id='6732ad33' size-in-bits='32' hash='7f3fe83f3743e59d' id='5ee3c214'/>
    <pointer-type-def type-id='1a7fe6b0' size-in-bits='32' hash='143b182bd69bfc11' id='d8263a65'/>
    <pointer-type-def type-id='aab7be53' size-in-bits='32' hash='7f3fe83f3743e59d' id='f59e8a46'/>
    <pointer-type-def type-id='9decd400' size-in-bits='32' hash='7f3fe83f3743e59d' id='0ec38739'/>
    <pointer-type-def type-id='cb7ec8b5' size-in-bits='32' hash='7f3fe83f3743e59d' id='7e62d932'/>
    <pointer-type-def type-id='192148ae' size-in-bits='32' hash='7f3fe83f3743e59d' id='5a6d41b9'/>
    <pointer-type-def type-id='185cc89b' size-in-bits='32' hash='7f3fe83f3743e59d' id='c4a66594'/>
    <pointer-type-def type-id='b15a7c4e' size-in-bits='32' hash='7f3fe83f3743e59d' id='384bcd95'/>
    <pointer-type-def type-id='bc2d56ac' size-in-bits='32' hash='7f3fe83f3743e59d' id='66017941'/>
    <pointer-type-def type-id='252d62f6' size-in-bits='32' hash='7f3fe83f3743e59d' id='cdbc23ed'/>
    <pointer-type-def type-id='53da899f' size-in-bits='32' hash='7f3fe83f3743e59d' id='03edf0e8'/>
    <pointer-type-def type-id='db26a379' size-in-bits='32' hash='7f3fe83f3743e59d' id='b733d2a6'/>
    <pointer-type-def type-id='f0f9a897' size-in-bits='32' hash='7f3fe83f3743e59d' id='4186fd90'/>
    <pointer-type-def type-id='1f063e10' size-in-bits='32' hash='7f3fe83f3743e59d' id='d48cb67f'/>
    <pointer-type-def type-id='8d218ff2' size-in-bits='32' hash='7f3fe83f3743e59d' id='99b71f83'/>
    <pointer-type-def type-id='4b346528' size-in-bits='32' hash='7f3fe83f3743e59d' id='4d7ba689'/>
    <pointer-type-def type-id='9d003166' size-in-bits='32' hash='7f3fe83f3743e59d' id='a594cd33'/>
    <pointer-type-def type-id='a8a6d650' size-in-bits='32' hash='7f3fe83f3743e59d' id='0d9ebbb9'/>
    <pointer-type-def type-id='92f89d93' size-in-bits='32' hash='7f3fe83f3743e59d' id='5203f86e'/>
    <pointer-type-def type-id='aa58d93a' size-in-bits='32' hash='7f3fe83f3743e59d' id='10997527'/>
    <pointer-type-def type-id='280b89e0' size-in-bits='32' hash='7f3fe83f3743e59d' id='6efc86e1'/>
    <pointer-type-def type-id='a613f7c2' size-in-bits='32' hash='7f3fe83f3743e59d' id='72203d5f'/>
    <pointer-type-def type-id='a976ad33' size-in-bits='32' hash='7f3fe83f3743e59d' id='ed039044'/>
    <pointer-type-def type-id='0b9c02cb' size-in-bits='32' hash='b5ff6c890377c611' id='7f83e8c4'/>
    <pointer-type-def type-id='57a6462f' size-in-bits='32' hash='7f3fe83f3743e59d' id='049544dc'/>
    <pointer-type-def type-id='fb40bd2b' size-in-bits='32' hash='7f3fe83f3743e59d' id='e1012f14'/>
    <pointer-type-def type-id='6e8549d3' size-in-bits='32' hash='7f3fe83f3743e59d' id='3e4a17a6'/>
    <pointer-type-def type-id='383992fa' size-in-bits='32' hash='7f3fe83f3743e59d' id='ac0692ef'/>
    <pointer-type-def type-id='06e77920' size-in-bits='32' hash='7f3fe83f3743e59d' id='930f7049'/>
    <pointer-type-def type-id='e9587002' size-in-bits='32' hash='7f3fe83f3743e59d' id='69e037a7'/>
    <pointer-type-def type-id='4af7dbf9' size-in-bits='32' hash='7f3fe83f3743e59d' id='0350b462'/>
    <pointer-type-def type-id='d672c38b' size-in-bits='32' hash='7f3fe83f3743e59d' id='a97276f8'/>
    <pointer-type-def type-id='95f3d4f5' size-in-bits='32' hash='7f3fe83f3743e59d' id='d8865276'/>
    <pointer-type-def type-id='0a2a75cb' size-in-bits='32' hash='7f3fe83f3743e59d' id='a5f29b60'/>
    <pointer-type-def type-id='23550ab4' size-in-bits='32' hash='7f3fe83f3743e59d' id='8a93d1c3'/>
    <pointer-type-def type-id='cec64cc9' size-in-bits='32' hash='7f3fe83f3743e59d' id='b9c24b8a'/>
    <pointer-type-def type-id='ec1a15f3' size-in-bits='32' hash='7f3fe83f3743e59d' id='571d8fb0'/>
    <pointer-type-def type-id='7b12ad79' size-in-bits='32' hash='7f3fe83f3743e59d' id='52583992'/>
    <pointer-type-def type-id='c8745fdc' size-in-bits='32' hash='ae4068c058945187' id='c2fb5303'/>
    <pointer-type-def type-id='a7e6cb13' size-in-bits='32' hash='7f3fe83f3743e59d' id='a04487d0'/>
    <pointer-type-def type-id='b8e7d066' size-in-bits='32' hash='7f3fe83f3743e59d' id='2175e977'/>
    <pointer-type-def type-id='7dcd5c56' size-in-bits='32' hash='7f3fe83f3743e59d' id='84ed917f'/>
    <pointer-type-def type-id='5b9f2a17' size-in-bits='32' hash='7f3fe83f3743e59d' id='302207a0'/>
    <pointer-type-def type-id='fd795a77' size-in-bits='32' hash='7f3fe83f3743e59d' id='73cc2298'/>
    <pointer-type-def type-id='662d0eb2' size-in-bits='32' hash='7f3fe83f3743e59d' id='fda9c1a1'/>
    <pointer-type-def type-id='6b863c78' size-in-bits='32' hash='7f3fe83f3743e59d' id='fcfbd023'/>
    <pointer-type-def type-id='c3c21033' size-in-bits='32' hash='7f3fe83f3743e59d' id='d7458144'/>
    <pointer-type-def type-id='a7c1621d' size-in-bits='32' hash='7f3fe83f3743e59d' id='e4ddaae2'/>
    <pointer-type-def type-id='acf0725f' size-in-bits='32' hash='7f3fe83f3743e59d' id='e6deb706'/>
    <pointer-type-def type-id='a3ff9453' size-in-bits='32' hash='7f3fe83f3743e59d' id='f58e29c4'/>
    <pointer-type-def type-id='61e5ab26' size-in-bits='32' hash='7f3fe83f3743e59d' id='9c119f0f'/>
    <pointer-type-def type-id='094bf2f4' size-in-bits='32' hash='7f3fe83f3743e59d' id='2d40e32d'/>
    <pointer-type-def type-id='9c073f92' size-in-bits='32' hash='7f3fe83f3743e59d' id='3aa77c87'/>
    <pointer-type-def type-id='5b4822f4' size-in-bits='32' hash='7f3fe83f3743e59d' id='3155ce35'/>
    <pointer-type-def type-id='a20c4677' size-in-bits='32' hash='7f3fe83f3743e59d' id='de6ab93a'/>
    <pointer-type-def type-id='d6ea8326' size-in-bits='32' hash='7f3fe83f3743e59d' id='e4dd1d6b'/>
    <pointer-type-def type-id='a383d12c' size-in-bits='32' hash='7f3fe83f3743e59d' id='2e9f47d5'/>
    <pointer-type-def type-id='a6436666' size-in-bits='32' hash='7f3fe83f3743e59d' id='25d63ceb'/>
    <pointer-type-def type-id='4c9e9276' size-in-bits='32' hash='7f3fe83f3743e59d' id='e14e5747'/>
    <pointer-type-def type-id='5757176d' size-in-bits='32' hash='7f3fe83f3743e59d' id='394cbbe6'/>
    <pointer-type-def type-id='9cc9dd7a' size-in-bits='32' hash='7f3fe83f3743e59d' id='5b4efdbb'/>
    <pointer-type-def type-id='33ac1a71' size-in-bits='32' hash='7f3fe83f3743e59d' id='25acc26a'/>
    <pointer-type-def type-id='9d128009' size-in-bits='32' hash='7f3fe83f3743e59d' id='92632084'/>
    <pointer-type-def type-id='f43373fc' size-in-bits='32' hash='7f3fe83f3743e59d' id='7613d7f9'/>
    <pointer-type-def type-id='df6ca4ba' size-in-bits='32' hash='7f3fe83f3743e59d' id='6fa6efa3'/>
    <pointer-type-def type-id='22c5fb1c' size-in-bits='32' hash='7f3fe83f3743e59d' id='cb27a9e9'/>
    <pointer-type-def type-id='6c854895' size-in-bits='32' hash='7f3fe83f3743e59d' id='8243b832'/>
    <pointer-type-def type-id='67e48e8f' size-in-bits='32' hash='7f3fe83f3743e59d' id='6835b638'/>
    <pointer-type-def type-id='22d0d33d' size-in-bits='32' hash='7f3fe83f3743e59d' id='2e6fa23a'/>
    <pointer-type-def type-id='928325e2' size-in-bits='32' hash='7f3fe83f3743e59d' id='502b46a1'/>
    <pointer-type-def type-id='4c5c6cc3' size-in-bits='32' hash='7f3fe83f3743e59d' id='3792de44'/>
    <pointer-type-def type-id='b869bd2d' size-in-bits='32' hash='7f3fe83f3743e59d' id='e44a6fe2'/>
    <pointer-type-def type-id='fddd9123' size-in-bits='32' hash='7f3fe83f3743e59d' id='609456c4'/>
    <pointer-type-def type-id='9a10f134' size-in-bits='32' hash='7a320f6afd93b431' id='aa210e95'/>
    <pointer-type-def type-id='6799fda7' size-in-bits='32' hash='7f3fe83f3743e59d' id='54b2e682'/>
    <pointer-type-def type-id='79d43c30' size-in-bits='32' hash='7f3fe83f3743e59d' id='887705e9'/>
    <pointer-type-def type-id='87f237ea' size-in-bits='32' hash='7f3fe83f3743e59d' id='7dba8e29'/>
    <pointer-type-def type-id='f6d3d312' size-in-bits='32' hash='7f3fe83f3743e59d' id='79969dbf'/>
    <pointer-type-def type-id='248d1bcc' size-in-bits='32' hash='7f3fe83f3743e59d' id='64bd18fd'/>
    <pointer-type-def type-id='48b0722b' size-in-bits='32' hash='7f3fe83f3743e59d' id='242c266a'/>
    <pointer-type-def type-id='ed82d8a8' size-in-bits='32' hash='7f3fe83f3743e59d' id='ebe3c60d'/>
    <pointer-type-def type-id='43c2ddeb' size-in-bits='32' hash='7f3fe83f3743e59d' id='1d2b5c3c'/>
    <pointer-type-def type-id='a0eb0f09' size-in-bits='32' hash='6eeb4132d7cc7666' id='b9c88d6a'/>
    <pointer-type-def type-id='3d7d8cbf' size-in-bits='32' hash='34f0912f1ec26a47' id='a68021ce'/>
    <pointer-type-def type-id='05d4c620' size-in-bits='32' hash='07042827021ceb1f' id='b8263143'/>
    <pointer-type-def type-id='ad707ada' size-in-bits='32' hash='770953a2b7a66cfe' id='e90c4311'/>
    <pointer-type-def type-id='b59d7dce' size-in-bits='32' hash='76a5b1225a1f16e2' id='78c01427'/>
    <reference-type-def kind='lvalue' type-id='60f5da7d' size-in-bits='32' hash='8c402ca4eb6682f1' id='809cbcf9'/>
    <reference-type-def kind='rvalue' type-id='60f5da7d' size-in-bits='32' hash='51e56046c77bcc6b' id='55bd530d'/>
    <pointer-type-def type-id='60f5da7d' size-in-bits='32' hash='077ee7d7691627c1' id='8c9ccfdd'/>
    <reference-type-def kind='lvalue' type-id='36028ca6' size-in-bits='32' hash='c3cc4153e491b423#6' id='c9e2e7eb'/>
    <reference-type-def kind='lvalue' type-id='7317ef72' size-in-bits='32' hash='0689628511e7e823#6' id='591d24b5'/>
    <reference-type-def kind='lvalue' type-id='97941460' size-in-bits='32' hash='f29fd919b63bdb6c' id='0f3c59ea'/>
    <reference-type-def kind='rvalue' type-id='97941460' size-in-bits='32' hash='18a72e0801ad742c' id='c8015c24'/>
    <pointer-type-def type-id='97941460' size-in-bits='32' hash='9a460500829a7918' id='033c4706'/>
    <reference-type-def kind='lvalue' type-id='2b91c1c3' size-in-bits='32' hash='c3cc4153e491b423#7' id='c9e2e7ec'/>
    <reference-type-def kind='lvalue' type-id='f3aad58d' size-in-bits='32' hash='0689628511e7e823#7' id='591d24b6'/>
    <reference-type-def kind='lvalue' type-id='64fb4db3' size-in-bits='32' hash='8b907a60e8b98960' id='e848cad7'/>
    <reference-type-def kind='rvalue' type-id='64fb4db3' size-in-bits='32' hash='13dd601d6ac53fe6' id='9b977963'/>
    <pointer-type-def type-id='64fb4db3' size-in-bits='32' hash='561d758c1181e8b0' id='dc48b7f3'/>
    <reference-type-def kind='lvalue' type-id='88715d90' size-in-bits='32' hash='c3cc4153e491b423#9' id='c9e2e7ed'/>
    <reference-type-def kind='lvalue' type-id='579aa528' size-in-bits='32' hash='0689628511e7e823#9' id='591d24b7'/>
    <reference-type-def kind='lvalue' type-id='c8491dd8' size-in-bits='32' hash='257f72d7bc9b9d76' id='b8cb9312'/>
    <reference-type-def kind='rvalue' type-id='c8491dd8' size-in-bits='32' hash='803777ca628a9cb5' id='1c78badc'/>
    <pointer-type-def type-id='c8491dd8' size-in-bits='32' hash='286a323778ce047c' id='bccb995e'/>
    <reference-type-def kind='lvalue' type-id='cb386317' size-in-bits='32' hash='c3cc4153e491b423#10' id='c9e2e7ee'/>
    <reference-type-def kind='lvalue' type-id='ddffa0e9' size-in-bits='32' hash='0689628511e7e823#10' id='591d24b8'/>
    <reference-type-def kind='lvalue' type-id='ba4fbcc4' size-in-bits='32' hash='ce61bad0555ef876' id='4d8e4cde'/>
    <pointer-type-def type-id='ba4fbcc4' size-in-bits='32' hash='16f7d0466d0f1a4d' id='498e4692'/>
    <reference-type-def kind='lvalue' type-id='2ef4b79c' size-in-bits='32' hash='6dcf6810dfaf13c5' id='35f62c46'/>
    <pointer-type-def type-id='2ef4b79c' size-in-bits='32' hash='6d3357b2ece7861d' id='41f63f2a'/>
    <reference-type-def kind='lvalue' type-id='37dd8aae' size-in-bits='32' hash='201ea59f828e96b6' id='7c69c730'/>
    <pointer-type-def type-id='37dd8aae' size-in-bits='32' hash='35a7d4ee38326f3a' id='8869da14'/>
    <reference-type-def kind='lvalue' type-id='e015e2ec' size-in-bits='32' hash='9f19888ec3e8f810' id='a0048bb6'/>
    <pointer-type-def type-id='e015e2ec' size-in-bits='32' hash='55b04fb34e12ad69' id='ac049e9a'/>
    <reference-type-def kind='lvalue' type-id='f045688c' size-in-bits='32' hash='afd86130fc14187b' id='b7f1e036'/>
    <pointer-type-def type-id='f045688c' size-in-bits='32' hash='1d413d26ba3c9298' id='c3f1f31a'/>
    <reference-type-def kind='lvalue' type-id='94df1ca8' size-in-bits='32' hash='862d3d332f8048eb' id='1563fbe2'/>
    <pointer-type-def type-id='94df1ca8' size-in-bits='32' hash='cffb4d2d1a6e6bf4' id='1964022e'/>
    <reference-type-def kind='lvalue' type-id='43b7c228' size-in-bits='32' hash='92cb2a38303fe22f' id='9bc35562'/>
    <pointer-type-def type-id='43b7c228' size-in-bits='32' hash='d89c4cd7de48da72' id='9fc35bae'/>
    <reference-type-def kind='lvalue' type-id='1988293c' size-in-bits='32' hash='0f13c1b4713a7b49' id='597d9276'/>
    <pointer-type-def type-id='1988293c' size-in-bits='32' hash='f6cc49034edc0d31' id='657da55a'/>
    <reference-type-def kind='lvalue' type-id='c01a67f4' size-in-bits='32' hash='1e6287547b77167b' id='8a40fade'/>
    <pointer-type-def type-id='c01a67f4' size-in-bits='32' hash='ea5fc0b86e49bc64' id='8640f492'/>
    <reference-type-def kind='lvalue' type-id='ec22f6fc' size-in-bits='32' hash='a56e86328e540581' id='924ba976'/>
    <pointer-type-def type-id='ec22f6fc' size-in-bits='32' hash='139b9e4197f96c00' id='9e4bbc5a'/>
    <reference-type-def kind='lvalue' type-id='58870df2' size-in-bits='32' hash='3fdb8a807a37439f' id='ad688bd4'/>
    <pointer-type-def type-id='58870df2' size-in-bits='32' hash='f012fe433232fa55' id='a16878f0'/>
    <reference-type-def kind='lvalue' type-id='d22df4cd' size-in-bits='32' hash='f87f04da979483c3' id='3af667b9'/>
    <pointer-type-def type-id='d22df4cd' size-in-bits='32' hash='96a9cff75e6c0f3e' id='46f67a9d'/>
    <reference-type-def kind='lvalue' type-id='2622dfea' size-in-bits='32' hash='524be7d6563ad46d' id='f0d20a3c'/>
    <pointer-type-def type-id='2622dfea' size-in-bits='32' hash='a35447dfc6b8f5df' id='f4d21088'/>
    <reference-type-def kind='lvalue' type-id='39b8e88f' size-in-bits='32' hash='4b04ea32d6214b9a' id='de277393'/>
    <pointer-type-def type-id='39b8e88f' size-in-bits='32' hash='e5776ccfa839e307' id='ea278677'/>
    <reference-type-def kind='lvalue' type-id='97d0af14' size-in-bits='32' hash='ee2392ed5357f30f' id='55394a2e'/>
    <pointer-type-def type-id='97d0af14' size-in-bits='32' hash='28d1c14f70c122c0' id='513943e2'/>
    <reference-type-def kind='lvalue' type-id='7d3bb31a' size-in-bits='32' hash='f6318decbca7cd64' id='4f5ef92c'/>
    <pointer-type-def type-id='7d3bb31a' size-in-bits='32' hash='8ddf1f9f38b1b8fb' id='535eff78'/>
    <reference-type-def kind='lvalue' type-id='5fea02b3' size-in-bits='32' hash='7386b55857df42d3' id='65f90817'/>
    <pointer-type-def type-id='5fea02b3' size-in-bits='32' hash='9da74614517824c5' id='59f8f533'/>
    <reference-type-def kind='lvalue' type-id='063dbdb6' size-in-bits='32' hash='72240f362446a0eb' id='7c829be8'/>
    <pointer-type-def type-id='063dbdb6' size-in-bits='32' hash='f930067f969b1443' id='7882959c'/>
    <reference-type-def kind='lvalue' type-id='45b74b57' size-in-bits='32' hash='6edb1b0a5aa38b2d' id='c0b8028b'/>
    <pointer-type-def type-id='45b74b57' size-in-bits='32' hash='a7b8460e074fbbf8' id='bcb7fc3f'/>
    <reference-type-def kind='lvalue' type-id='ffcdd1b2' size-in-bits='32' hash='6a279658ade9816b' id='c69cf914'/>
    <pointer-type-def type-id='ffcdd1b2' size-in-bits='32' hash='1781ce2eb7d164fc' id='ba9ce630'/>
    <reference-type-def kind='lvalue' type-id='cd354cef' size-in-bits='32' hash='ba84384d49585e99' id='7080b073'/>
    <pointer-type-def type-id='cd354cef' size-in-bits='32' hash='50e9c26bd0118b5e' id='7c80c357'/>
    <reference-type-def kind='lvalue' type-id='7dee695e' size-in-bits='32' hash='067be40a761a7160' id='bc3ebe00'/>
    <pointer-type-def type-id='7dee695e' size-in-bits='32' hash='7b8bf0427714a7a9' id='c83ed0e4'/>
    <reference-type-def kind='lvalue' type-id='f03ebc7b' size-in-bits='32' hash='55da234bfa5e6870' id='f771cb0f'/>
    <pointer-type-def type-id='f03ebc7b' size-in-bits='32' hash='1020178fb8a25e09' id='fb71d15b'/>
    <reference-type-def kind='lvalue' type-id='678452de' size-in-bits='32' hash='c97e8de5baf8254a' id='ad62c780'/>
    <pointer-type-def type-id='678452de' size-in-bits='32' hash='f4400764a2a83178' id='b962da64'/>
    <reference-type-def kind='lvalue' type-id='8d3c18f6' size-in-bits='32' hash='c8be4b2815ad2f41' id='e7edb488'/>
    <pointer-type-def type-id='8d3c18f6' size-in-bits='32' hash='e92b42505c6886d5' id='e3edae3c'/>
    <reference-type-def kind='lvalue' type-id='c24f72a3' size-in-bits='32' hash='f693e2e0f8bebbc5' id='846b33c7'/>
    <pointer-type-def type-id='c24f72a3' size-in-bits='32' hash='32f75ff63ebc4095' id='786b20e3'/>
    <reference-type-def kind='lvalue' type-id='e8967c46' size-in-bits='32' hash='fc12c99bb7104cdc' id='07ca8f98'/>
    <pointer-type-def type-id='e8967c46' size-in-bits='32' hash='51d042ae7e13d78c' id='03ca894c'/>
    <reference-type-def kind='lvalue' type-id='e83f8f8d' size-in-bits='32' hash='d335d45b488fc4ac' id='859efd59'/>
    <pointer-type-def type-id='e83f8f8d' size-in-bits='32' hash='d7781f0e84a482d9' id='919f103d'/>
    <reference-type-def kind='lvalue' type-id='057d9591' size-in-bits='32' hash='07151fbf9cc3f0c4' id='580c235d'/>
    <pointer-type-def type-id='057d9591' size-in-bits='32' hash='3db8068138bada4a' id='4c0c1079'/>
    <reference-type-def kind='lvalue' type-id='7312e504' size-in-bits='32' hash='bbe02d90d7e0fd94' id='4666712e'/>
    <pointer-type-def type-id='7312e504' size-in-bits='32' hash='332cdd561b44c744' id='42666ae2'/>
    <reference-type-def kind='lvalue' type-id='49a21e67' size-in-bits='32' hash='2cbfc9adb0a77763' id='89073f2b'/>
    <pointer-type-def type-id='49a21e67' size-in-bits='32' hash='a887ba1768a86902' id='850738df'/>
    <reference-type-def kind='lvalue' type-id='8b54feb4' size-in-bits='32' hash='01163ff3276f1c63' id='0b34c5be'/>
    <pointer-type-def type-id='8b54feb4' size-in-bits='32' hash='4168538d5c6db8da' id='0734bf72'/>
    <reference-type-def kind='lvalue' type-id='227041e1' size-in-bits='32' hash='3ba5fcff485631a1' id='cd1a163d'/>
    <pointer-type-def type-id='227041e1' size-in-bits='32' hash='34e80aa1eb383344' id='c11a0359'/>
    <pointer-type-def type-id='9c4a3aff' size-in-bits='32' hash='eeefcffce41cb015' id='36c07807'/>
    <pointer-type-def type-id='22e56ec2' size-in-bits='32' hash='c0f45a2ac2f440b9' id='2e0abaf0'/>
    <pointer-type-def type-id='b5df5bdc' size-in-bits='32' hash='f5afd1e991976b72' id='260dd06a'/>
    <pointer-type-def type-id='3b4d4373' size-in-bits='32' hash='6586acdd56c13aff' id='9592fed3'/>
    <pointer-type-def type-id='277bc372' size-in-bits='32' hash='69bd2c57bb0f29fa' id='de02ba70'/>
    <pointer-type-def type-id='aa3451ec' size-in-bits='32' hash='c5fec5224371a374' id='1166b2fa'/>
    <pointer-type-def type-id='e4d4d078' size-in-bits='32' hash='902a2f2472b4d7ee' id='02ec61be'/>
    <pointer-type-def type-id='63c7c233' size-in-bits='32' hash='d2109d745ab22428' id='b68d6183'/>
    <pointer-type-def type-id='7c4db7cf' size-in-bits='32' hash='cbc1d121ff8627f6' id='c9bc71a7'/>
    <pointer-type-def type-id='6932bb90' size-in-bits='32' hash='be3a86db3ba1971d' id='49ce5ba6'/>
    <pointer-type-def type-id='9884ef0e' size-in-bits='32' hash='53564f29eb29a167' id='24a161d4'/>
    <pointer-type-def type-id='cd94fd85' size-in-bits='32' hash='104395ea8c037f9f' id='3e80e3d5'/>
    <pointer-type-def type-id='77d669a5' size-in-bits='32' hash='099187fc48384231' id='f24621a5'/>
    <pointer-type-def type-id='a885088e' size-in-bits='32' hash='48000c4fa6fa2d7c' id='9da29e54'/>
    <pointer-type-def type-id='7b346a3f' size-in-bits='32' hash='5bae03bc219bc93f' id='3d25ebe7'/>
    <pointer-type-def type-id='ff06e1a2' size-in-bits='32' hash='b80f081afd69dbd7' id='10856d80'/>
    <pointer-type-def type-id='c230c56f' size-in-bits='32' hash='c04ae5524717e2c5' id='c2f5efe7'/>
    <pointer-type-def type-id='a3175723' size-in-bits='32' hash='8f7cbbac8cfc2944' id='c4948923'/>
    <pointer-type-def type-id='c6d12234' size-in-bits='32' hash='f45dad8338a743d3' id='d1682362'/>
    <pointer-type-def type-id='6fb577ee' size-in-bits='32' hash='7d366e3c446a12ec' id='f2c555e4'/>
    <pointer-type-def type-id='7873fb6d' size-in-bits='32' hash='5f62d90889ec9259' id='4f55591d'/>
    <pointer-type-def type-id='34bedffd' size-in-bits='32' hash='35955d7d92d3a34d' id='a464139d'/>
    <pointer-type-def type-id='37ff4804' size-in-bits='32' hash='e1c42282c93725e1' id='78d1d352'/>
    <pointer-type-def type-id='225e915e' size-in-bits='32' hash='378498dc573dedff' id='ad5df6b4'/>
    <pointer-type-def type-id='1d6097d7' size-in-bits='32' hash='e29510784f56b686' id='12925a2f'/>
    <pointer-type-def type-id='9e7f15b0' size-in-bits='32' hash='d00c79eb687b2f7c' id='3c4129e6'/>
    <pointer-type-def type-id='70ed5ac7' size-in-bits='32' hash='d25fe9e6a36aec1f' id='48b5a59f'/>
    <pointer-type-def type-id='7068a110' size-in-bits='32' hash='f2949be5253caa56' id='10ecf146'/>
    <pointer-type-def type-id='e771cfad' size-in-bits='32' hash='5515e14f0cd0a4ca' id='96c7730d'/>
    <pointer-type-def type-id='3efb2c0e' size-in-bits='32' hash='37167f7c216529dc' id='acd46504'/>
    <pointer-type-def type-id='8288923d' size-in-bits='32' hash='9a0e090600e9c334' id='07c0801d'/>
    <pointer-type-def type-id='5a2afa10' size-in-bits='32' hash='55a07baab7fb2b7c' id='85e0e7c6'/>
    <pointer-type-def type-id='f9da37d1' size-in-bits='32' hash='2891f91c870e07a9' id='a1203c49'/>
    <pointer-type-def type-id='5e03174f' size-in-bits='32' hash='8dbae3ff05f7cfb5' id='1f3e8087'/>
    <pointer-type-def type-id='56dccc53' size-in-bits='32' hash='1039e6d1952761b6' id='600282c3'/>
    <pointer-type-def type-id='02c104af' size-in-bits='32' hash='a5db89950c614073' id='1dec42a7'/>
    <pointer-type-def type-id='bae33ff3' size-in-bits='32' hash='d0b3b89bda65f654' id='735645b3'/>
    <pointer-type-def type-id='d9fbed1c' size-in-bits='32' hash='7ba89183332a451f' id='d0a2215a'/>
    <pointer-type-def type-id='ed8c4278' size-in-bits='32' hash='64e656c4cbc0f34c' id='ed8afb2e'/>
    <pointer-type-def type-id='f2c63883' size-in-bits='32' hash='95e287b803e8aaf2' id='8ce169d3'/>
    <pointer-type-def type-id='51ebade8' size-in-bits='32' hash='f2c9a6301358eccf' id='b782537e'/>
    <pointer-type-def type-id='62ec4a33' size-in-bits='32' hash='70a131a43428ab9b' id='9c0dd783'/>
    <pointer-type-def type-id='1adfd3e6' size-in-bits='32' hash='3e9e4e47c345874b' id='a86db4cc'/>
    <pointer-type-def type-id='95757501' size-in-bits='32' hash='e4d2dd82ad1f4f66' id='419b8fc9'/>
    <pointer-type-def type-id='b284e6e2' size-in-bits='32' hash='2eab03bab317c580' id='52901a60'/>
    <pointer-type-def type-id='2a699f96' size-in-bits='32' hash='1fa822dea2150948' id='6502f14c'/>
    <pointer-type-def type-id='579722ef' size-in-bits='32' hash='660b2481c00c4342' id='0606baf7'/>
    <pointer-type-def type-id='adb0d72c' size-in-bits='32' hash='7778fe996bf44b4b' id='814ebb9a'/>
    <pointer-type-def type-id='6e3f46eb' size-in-bits='32' hash='d0e24e7bd222252a' id='f8651eeb'/>
    <pointer-type-def type-id='fcbd9376' size-in-bits='32' hash='08f2dcc5d182fa19' id='1145dfec'/>
    <pointer-type-def type-id='dd0abe4a' size-in-bits='32' hash='f0533a84cf13cb03' id='b7ff7a48'/>
    <pointer-type-def type-id='0713c6a2' size-in-bits='32' hash='edb913ffb02bacfa' id='6327cc10'/>
    <pointer-type-def type-id='8d9552b9' size-in-bits='32' hash='cf9f2cfcfc45c25e' id='f0e04c01'/>
    <pointer-type-def type-id='20704346' size-in-bits='32' hash='2e5d2d929bf35dda' id='85bea75c'/>
    <pointer-type-def type-id='abfeb1fe' size-in-bits='32' hash='394f79a1740ebcb6' id='f2188c84'/>
    <pointer-type-def type-id='8051cbec' size-in-bits='32' hash='40120f2f8a5e295e' id='990b291a'/>
    <reference-type-def kind='lvalue' type-id='488eea75' size-in-bits='32' hash='1e6411dde6de237d' id='0a31d471'/>
    <reference-type-def kind='rvalue' type-id='488eea75' size-in-bits='32' hash='f7e5d02cfe1f0941' id='637144f5'/>
    <pointer-type-def type-id='488eea75' size-in-bits='32' hash='a910fcc11cc9b24a' id='0631ce25'/>
    <reference-type-def kind='lvalue' type-id='1c507e8b' size-in-bits='32' hash='ba94ee580ea1c896' id='5417a92f'/>
    <pointer-type-def type-id='1c507e8b' size-in-bits='32' hash='0eb9bb0bae41c725' id='5817af7b'/>
    <reference-type-def kind='rvalue' type-id='a8372230' size-in-bits='32' hash='b978a37f1029f952#3' id='9a5d496d'/>
    <pointer-type-def type-id='a8372230' size-in-bits='32' hash='e74b10afdebde13a#7' id='99687bbd'/>
    <reference-type-def kind='lvalue' type-id='cd3d9869' size-in-bits='32' hash='5372e1c6ebd93365#7' id='d2ece510'/>
    <reference-type-def kind='lvalue' type-id='7194074a' size-in-bits='32' hash='9fe5c10a4485e75e' id='0d58425c'/>
    <pointer-type-def type-id='7194074a' size-in-bits='32' hash='310de5313d75c115' id='115848a8'/>
    <reference-type-def kind='lvalue' type-id='568a771a' size-in-bits='32' hash='ef143a3cf9de99ab' id='a5bc25fc'/>
    <pointer-type-def type-id='568a771a' size-in-bits='32' hash='c0791f9fbcca759b' id='a9bc2c48'/>
    <qualified-type-def type-id='a9bc2c48' const='yes' hash='18b3d7a18db2791e' id='a8f2489b'/>
    <reference-type-def kind='lvalue' type-id='a8f2489b' size-in-bits='32' hash='19b4a6dd24cf07c2' id='b2688187'/>
    <pointer-type-def type-id='a8f2489b' size-in-bits='32' hash='9626652c394bdde9' id='a6686ea3'/>
    <reference-type-def kind='lvalue' type-id='a9bc2c48' size-in-bits='32' hash='7d91df9c8280269a' id='a139f12a'/>
    <pointer-type-def type-id='a9bc2c48' size-in-bits='32' hash='df7a23f4e98a5c50' id='9539de46'/>
    <qualified-type-def type-id='9539de46' const='yes' hash='a6073912e44dc563' id='5cd02479'/>
    <reference-type-def kind='lvalue' type-id='5cd02479' size-in-bits='32' hash='c86dd2d9be8fa366' id='7aa9418d'/>
    <reference-type-def kind='lvalue' type-id='9539de46' size-in-bits='32' hash='30614a81d9105362' id='4a191120'/>
    <reference-type-def kind='lvalue' type-id='602ad079' size-in-bits='32' hash='c16bd74b0db04d7c' id='5d627b15'/>
    <pointer-type-def type-id='602ad079' size-in-bits='32' hash='540d1351f4dc2d20' id='61628161'/>
    <qualified-type-def type-id='61628161' const='yes' hash='bbab836df18ca01e' id='cb0e253e'/>
    <reference-type-def kind='lvalue' type-id='cb0e253e' size-in-bits='32' hash='146abbfb9c98ff8b' id='bf4464c8'/>
    <pointer-type-def type-id='cb0e253e' size-in-bits='32' hash='82f0200befb34f3b' id='bb445e7c'/>
    <reference-type-def kind='lvalue' type-id='61628161' size-in-bits='32' hash='5527acd61bfa4df8' id='951182c5'/>
    <pointer-type-def type-id='61628161' size-in-bits='32' hash='d364fe186b2dbcf9' id='99118911'/>
    <qualified-type-def type-id='99118911' const='yes' hash='43d8b3457ab992a0' id='2a6a20ee'/>
    <reference-type-def kind='lvalue' type-id='2a6a20ee' size-in-bits='32' hash='a7a149b5c7644634' id='8d119ad8'/>
    <reference-type-def kind='lvalue' type-id='99118911' size-in-bits='32' hash='cb38dc7a9fd8b985' id='2d9b0195'/>
    <reference-type-def kind='lvalue' type-id='581cf3d8' size-in-bits='32' hash='4309da4c1a7118f0' id='03df9612'/>
    <pointer-type-def type-id='581cf3d8' size-in-bits='32' hash='8418e14481460c13' id='07df9c5e'/>
    <qualified-type-def type-id='07df9c5e' const='yes' hash='6664720c50a4c6c8' id='cdab2951'/>
    <reference-type-def kind='lvalue' type-id='cdab2951' size-in-bits='32' hash='e6c405da319d91ff' id='3b724655'/>
    <pointer-type-def type-id='cdab2951' size-in-bits='32' hash='098b5d122ef91751' id='3f724ca1'/>
    <reference-type-def kind='lvalue' type-id='07df9c5e' size-in-bits='32' hash='119c2b15572dfa7e' id='dd0350e8'/>
    <pointer-type-def type-id='07df9c5e' size-in-bits='32' hash='2c34f7fb50468efd' id='d9034a9c'/>
    <qualified-type-def type-id='d9034a9c' const='yes' hash='538bc5e6cffeacd7' id='7f737187'/>
    <reference-type-def kind='lvalue' type-id='7f737187' size-in-bits='32' hash='2d5eed700bfd4edb' id='43bbe073'/>
    <reference-type-def kind='lvalue' type-id='d9034a9c' size-in-bits='32' hash='54d38a68b9eeeb4b' id='5a2ea2ce'/>
    <reference-type-def kind='lvalue' type-id='f76a9935' size-in-bits='32' hash='9a4410b347325fee' id='ec9f5471'/>
    <pointer-type-def type-id='f76a9935' size-in-bits='32' hash='f90dbdb1994518c9' id='e89f4e25'/>
    <qualified-type-def type-id='e89f4e25' const='yes' hash='c74ba321ac1eaadf' id='c3ed119a'/>
    <reference-type-def kind='lvalue' type-id='c3ed119a' size-in-bits='32' hash='a39a6b64c15b8517' id='2a32eaf4'/>
    <pointer-type-def type-id='c3ed119a' size-in-bits='32' hash='e7bd51f42fb58fa3' id='1e32d810'/>
    <reference-type-def kind='lvalue' type-id='e89f4e25' size-in-bits='32' hash='9cb9dcee84032eec' id='35c7ceb9'/>
    <pointer-type-def type-id='e89f4e25' size-in-bits='32' hash='abb878b81b48b397' id='41c7e19d'/>
    <qualified-type-def type-id='41c7e19d' const='yes' hash='390a29e84ef629fb' id='168d64f2'/>
    <reference-type-def kind='lvalue' type-id='168d64f2' size-in-bits='32' hash='3748fc861242a7aa' id='5495b9bc'/>
    <reference-type-def kind='lvalue' type-id='41c7e19d' size-in-bits='32' hash='aad84c7ea4f05dac' id='48a85961'/>
    <reference-type-def kind='lvalue' type-id='0b8a9bd4' size-in-bits='32' hash='4d4664aeb0c7a2b2' id='5cacf4ee'/>
    <reference-type-def kind='rvalue' type-id='0b8a9bd4' size-in-bits='32' hash='1047b0d9987b8193' id='ac4556d8'/>
    <pointer-type-def type-id='0b8a9bd4' size-in-bits='32' hash='95be64f1219d77b9' id='58aceea2'/>
    <reference-type-def kind='lvalue' type-id='000c67ad' size-in-bits='32' hash='3254eeb74b3021cf#6' id='a6279a6d'/>
    <reference-type-def kind='lvalue' type-id='2bc53136' size-in-bits='32' hash='4b2ea2d1e0ce821e#6' id='d7d2bfa4'/>
    <reference-type-def kind='lvalue' type-id='b6dd31e7' size-in-bits='32' hash='7cea5ff87ded2de3#6' id='6134d41f'/>
    <reference-type-def kind='lvalue' type-id='da4bdcdd' size-in-bits='32' hash='0689628511e7e823#16' id='591d24b9'/>
    <reference-type-def kind='lvalue' type-id='b069d066' size-in-bits='32' hash='f1cad1c72982519d' id='4ff59118'/>
    <reference-type-def kind='rvalue' type-id='b069d066' size-in-bits='32' hash='02db66d68284779a' id='1d93a49a'/>
    <pointer-type-def type-id='b069d066' size-in-bits='32' hash='8e34eb1d499fc7a4' id='4bf58acc'/>
    <reference-type-def kind='lvalue' type-id='ddf0159f' size-in-bits='32' hash='3254eeb74b3021cf#7' id='a6279a6e'/>
    <reference-type-def kind='lvalue' type-id='a36ba8bc' size-in-bits='32' hash='4b2ea2d1e0ce821e#7' id='d7d2bfa5'/>
    <reference-type-def kind='lvalue' type-id='1ccf4229' size-in-bits='32' hash='7cea5ff87ded2de3#7' id='6134d420'/>
    <reference-type-def kind='lvalue' type-id='b453e49b' size-in-bits='32' hash='0689628511e7e823#17' id='591d24ba'/>
    <reference-type-def kind='lvalue' type-id='16cfbc82' size-in-bits='32' hash='4b30b3a388b648ef' id='097b72c4'/>
    <reference-type-def kind='rvalue' type-id='16cfbc82' size-in-bits='32' hash='be48dd042951e56d' id='cf55d9c6'/>
    <pointer-type-def type-id='16cfbc82' size-in-bits='32' hash='aae0c3e2e4081980' id='fd7b5fe0'/>
    <reference-type-def kind='lvalue' type-id='bbda45fb' size-in-bits='32' hash='3254eeb74b3021cf#9' id='a6279a6f'/>
    <reference-type-def kind='lvalue' type-id='4d712c30' size-in-bits='32' hash='4b2ea2d1e0ce821e#9' id='d7d2bfa6'/>
    <reference-type-def kind='lvalue' type-id='86683135' size-in-bits='32' hash='7cea5ff87ded2de3#9' id='6134d421'/>
    <reference-type-def kind='lvalue' type-id='3d4c176f' size-in-bits='32' hash='0689628511e7e823#19' id='591d24bb'/>
    <reference-type-def kind='lvalue' type-id='d6a92829' size-in-bits='32' hash='d58cee2fa7b2c613' id='d3305665'/>
    <reference-type-def kind='rvalue' type-id='d6a92829' size-in-bits='32' hash='7961d5bd9d5b9bb6' id='b817cb79'/>
    <pointer-type-def type-id='d6a92829' size-in-bits='32' hash='d5faefe62cca0cd8' id='d7305cb1'/>
    <reference-type-def kind='rvalue' type-id='2e0a8ef4' size-in-bits='32' hash='b978a37f1029f952#10' id='9a5d496e'/>
    <reference-type-def kind='lvalue' type-id='47800e14' size-in-bits='32' hash='3254eeb74b3021cf#10' id='a6279a70'/>
    <reference-type-def kind='lvalue' type-id='52fb1fd3' size-in-bits='32' hash='4b2ea2d1e0ce821e#10' id='d7d2bfa7'/>
    <reference-type-def kind='lvalue' type-id='71b7128c' size-in-bits='32' hash='7cea5ff87ded2de3#10' id='6134d422'/>
    <reference-type-def kind='lvalue' type-id='1a439916' size-in-bits='32' hash='0689628511e7e823#20' id='591d24bc'/>
    <reference-type-def kind='lvalue' type-id='ec937676' size-in-bits='32' hash='9e46e2621bd5ed06#9' id='dcfa1383'/>
    <pointer-type-def type-id='03f240eb' size-in-bits='32' hash='a2cb99b2d51be74d' id='e0676d62'/>
    <reference-type-def kind='lvalue' type-id='2c8660ce' size-in-bits='32' hash='6dd8120cffc3282d' id='494c85f0'/>
    <pointer-type-def type-id='2c8660ce' size-in-bits='32' hash='95a469a77f894148' id='554c98d4'/>
    <reference-type-def kind='lvalue' type-id='92024495' size-in-bits='32' hash='859bef08e9436fa6' id='98ae32f1'/>
    <pointer-type-def type-id='92024495' size-in-bits='32' hash='028d0227c7b32a91' id='94ae2ca5'/>
    <reference-type-def kind='lvalue' type-id='16537306' size-in-bits='32' hash='02ddabde7c057fec' id='721fa698'/>
    <pointer-type-def type-id='16537306' size-in-bits='32' hash='b04bc8026cf1374c' id='6e1fa04c'/>
    <reference-type-def kind='lvalue' type-id='60e02119' size-in-bits='32' hash='adec598466e19e1f' id='1673d4d5'/>
    <pointer-type-def type-id='60e02119' size-in-bits='32' hash='042297790e32600a' id='1a73db21'/>
    <reference-type-def kind='lvalue' type-id='9a771f60' size-in-bits='32' hash='196b4835747a51c2' id='e9d176ca'/>
    <pointer-type-def type-id='9a771f60' size-in-bits='32' hash='ce518169faf39128' id='ddd163e6'/>
    <reference-type-def kind='lvalue' type-id='966331d7' size-in-bits='32' hash='535209eacbd5d9cd' id='b0a637eb'/>
    <pointer-type-def type-id='966331d7' size-in-bits='32' hash='6aafe4cafcfd7bd4' id='aca6319f'/>
    <reference-type-def kind='lvalue' type-id='6a81bf9f' size-in-bits='32' hash='5027be46848d599c' id='cea5dfc3'/>
    <pointer-type-def type-id='6a81bf9f' size-in-bits='32' hash='b45b18a55ee8caf1' id='daa5f2a7'/>
    <reference-type-def kind='lvalue' type-id='9db4a8b6' size-in-bits='32' hash='c3cc4153e491b423#12' id='c9e2e7ef'/>
    <reference-type-def kind='rvalue' type-id='9db4a8b6' size-in-bits='32' hash='b7322923daa95bc7' id='9d32e7b7'/>
    <reference-type-def kind='lvalue' type-id='10e7e929' size-in-bits='32' hash='e69d25d3a646539a#3' id='3b4b8de4'/>
    <reference-type-def kind='lvalue' type-id='b38d4802' size-in-bits='32' hash='03dc004cce27c3e3#16' id='dcfa1384'/>
    <reference-type-def kind='lvalue' type-id='a104f5a1' size-in-bits='32' hash='9cc570aba61c3525' id='7f537f6d'/>
    <pointer-type-def type-id='a104f5a1' size-in-bits='32' hash='07406347d54c5df0' id='73536c89'/>
    <reference-type-def kind='lvalue' type-id='3b178084' size-in-bits='32' hash='c3cc4153e491b423#13' id='c9e2e7f0'/>
    <reference-type-def kind='rvalue' type-id='3b178084' size-in-bits='32' hash='b7322923daa95bc7#2' id='9d32e7b8'/>
    <reference-type-def kind='lvalue' type-id='1cdac963' size-in-bits='32' hash='460bb65a5f42e988#4' id='3b4b8de5'/>
    <reference-type-def kind='lvalue' type-id='bb1f0094' size-in-bits='32' hash='03dc004cce27c3e3#17' id='dcfa1385'/>
    <reference-type-def kind='lvalue' type-id='97ba1631' size-in-bits='32' hash='8e5d5f0cf62912f9' id='724e3f1d'/>
    <pointer-type-def type-id='97ba1631' size-in-bits='32' hash='8f04bccd76a07795' id='664e2c39'/>
    <reference-type-def kind='lvalue' type-id='2d95a82c' size-in-bits='32' hash='c3cc4153e491b423#14' id='c9e2e7f1'/>
    <reference-type-def kind='rvalue' type-id='2d95a82c' size-in-bits='32' hash='b7322923daa95bc7#3' id='9d32e7b9'/>
    <reference-type-def kind='lvalue' type-id='951e44e5' size-in-bits='32' hash='e4728bc8c61e2ef6' id='1175ea41'/>
    <pointer-type-def type-id='951e44e5' size-in-bits='32' hash='5635b95e487cc2e7' id='0d75e3f5'/>
    <reference-type-def kind='lvalue' type-id='36d323f8' size-in-bits='32' hash='c3cc4153e491b423#15' id='c9e2e7f2'/>
    <reference-type-def kind='rvalue' type-id='36d323f8' size-in-bits='32' hash='b7322923daa95bc7#4' id='9d32e7ba'/>
    <reference-type-def kind='lvalue' type-id='86513975' size-in-bits='32' hash='2963a4f562863ce3' id='628bf231'/>
    <pointer-type-def type-id='86513975' size-in-bits='32' hash='62dda6420bcc8020' id='5e8bebe5'/>
    <reference-type-def kind='lvalue' type-id='324852f0' size-in-bits='32' hash='c3cc4153e491b423#18' id='c9e2e7f3'/>
    <reference-type-def kind='rvalue' type-id='324852f0' size-in-bits='32' hash='b7322923daa95bc7#7' id='9d32e7bb'/>
    <reference-type-def kind='lvalue' type-id='1a4295c7' size-in-bits='32' hash='4e9478393a43ba11#7' id='3b4b8de6'/>
    <reference-type-def kind='lvalue' type-id='79281988' size-in-bits='32' hash='03dc004cce27c3e3#20' id='dcfa1386'/>
    <reference-type-def kind='lvalue' type-id='cc5cd419' size-in-bits='32' hash='6b17ce40699a8244' id='00a02db5'/>
    <pointer-type-def type-id='cc5cd419' size-in-bits='32' hash='1de6d003674fa363' id='04a03401'/>
    <reference-type-def kind='lvalue' type-id='c879823c' size-in-bits='32' hash='c3cc4153e491b423#21' id='c9e2e7f4'/>
    <reference-type-def kind='rvalue' type-id='c879823c' size-in-bits='32' hash='b7322923daa95bc7#10' id='9d32e7bc'/>
    <reference-type-def kind='lvalue' type-id='dfecc261' size-in-bits='32' hash='16720a0e70247d7e' id='8909690d'/>
    <pointer-type-def type-id='dfecc261' size-in-bits='32' hash='3a2cf71113eac372' id='7d095629'/>
    <reference-type-def kind='lvalue' type-id='352fcd0c' size-in-bits='32' hash='c3cc4153e491b423#22' id='c9e2e7f5'/>
    <reference-type-def kind='rvalue' type-id='352fcd0c' size-in-bits='32' hash='b7322923daa95bc7#11' id='9d32e7bd'/>
    <reference-type-def kind='lvalue' type-id='be2111ab' size-in-bits='32' hash='0d5e2de06b929421#10' id='3b4b8de7'/>
    <reference-type-def kind='lvalue' type-id='296c784c' size-in-bits='32' hash='2c6531f57373787a#23' id='dcfa1387'/>
    <reference-type-def kind='lvalue' type-id='4bafa653' size-in-bits='32' hash='70f6ad7111506d43' id='06365a47'/>
    <pointer-type-def type-id='4bafa653' size-in-bits='32' hash='1b69adaa102c21f2' id='fa364763'/>
    <reference-type-def kind='lvalue' type-id='19917da8' size-in-bits='32' hash='c3cc4153e491b423#23' id='c9e2e7f6'/>
    <reference-type-def kind='rvalue' type-id='19917da8' size-in-bits='32' hash='b7322923daa95bc7#12' id='9d32e7be'/>
    <reference-type-def kind='lvalue' type-id='5a1a385f' size-in-bits='32' hash='6bee995b7cf57f02#11' id='3b4b8de8'/>
    <reference-type-def kind='lvalue' type-id='c8be4550' size-in-bits='32' hash='7950b49c459726ee#24' id='dcfa1388'/>
    <reference-type-def kind='lvalue' type-id='ccc1a701' size-in-bits='32' hash='d7140a12c75cd5c7' id='4ce1e3ed'/>
    <pointer-type-def type-id='ccc1a701' size-in-bits='32' hash='f367b5e2933decf4' id='40e1d109'/>
    <reference-type-def kind='lvalue' type-id='d5ff43f4' size-in-bits='32' hash='c3cc4153e491b423#24' id='c9e2e7f7'/>
    <reference-type-def kind='rvalue' type-id='d5ff43f4' size-in-bits='32' hash='b7322923daa95bc7#13' id='9d32e7bf'/>
    <reference-type-def kind='lvalue' type-id='73ca7213' size-in-bits='32' hash='7753be314997c312#12' id='3b4b8de9'/>
    <reference-type-def kind='lvalue' type-id='098dee04' size-in-bits='32' hash='cdff542d0f812be1#25' id='dcfa1389'/>
    <reference-type-def kind='lvalue' type-id='c99d6d34' size-in-bits='32' hash='3f1891d01df6c0ef' id='b18c044e'/>
    <pointer-type-def type-id='c99d6d34' size-in-bits='32' hash='f202ada528cea49a' id='ad8bfe02'/>
    <reference-type-def kind='lvalue' type-id='a122f21c' size-in-bits='32' hash='a3ba21f1dcba84e7' id='ca861806'/>
    <pointer-type-def type-id='a122f21c' size-in-bits='32' hash='95a51053632aaea4' id='d6862aea'/>
    <reference-type-def kind='lvalue' type-id='4f878678' size-in-bits='32' hash='514297817033a6bd' id='aa41aef2'/>
    <pointer-type-def type-id='4f878678' size-in-bits='32' hash='55fec04d7460843b' id='ae41b53e'/>
    <reference-type-def kind='lvalue' type-id='fb2b2135' size-in-bits='32' hash='4a74db5093070508' id='02fa9691'/>
    <pointer-type-def type-id='fb2b2135' size-in-bits='32' hash='33407d1a92dd1c9e' id='fefa9045'/>
    <reference-type-def kind='lvalue' type-id='f96f37f4' size-in-bits='32' hash='081d60b805031460' id='804fe02e'/>
    <pointer-type-def type-id='f96f37f4' size-in-bits='32' hash='44b93c053e47a7d9' id='7c4fd9e2'/>
    <reference-type-def kind='lvalue' type-id='dbb0c32e' size-in-bits='32' hash='57bd5c8fb74fa3fc' id='b280ec50'/>
    <pointer-type-def type-id='dbb0c32e' size-in-bits='32' hash='a41908657d6b8e1b' id='be80ff34'/>
    <reference-type-def kind='lvalue' type-id='bc83a16a' size-in-bits='32' hash='becb03c7828fa0d1' id='fbbf8bdc'/>
    <pointer-type-def type-id='bc83a16a' size-in-bits='32' hash='6b2dfa4365d5f1b9' id='ffbf9228'/>
    <reference-type-def kind='lvalue' type-id='443bd0ae' size-in-bits='32' hash='09a776611ab1b87f' id='feddd5f0'/>
    <pointer-type-def type-id='443bd0ae' size-in-bits='32' hash='650cb5fdc2ccafd5' id='0adde8d4'/>
    <reference-type-def kind='lvalue' type-id='c7b95082' size-in-bits='32' hash='e8193760ae46d454' id='11540f74'/>
    <pointer-type-def type-id='c7b95082' size-in-bits='32' hash='18977cf8f96aa614' id='0553fc90'/>
    <reference-type-def kind='lvalue' type-id='c566fa15' size-in-bits='32' hash='c821a39a4c4db11e' id='f548e091'/>
    <pointer-type-def type-id='c566fa15' size-in-bits='32' hash='e2b8a17d38cf71c4' id='f148da45'/>
    <reference-type-def kind='lvalue' type-id='35484ac1' size-in-bits='32' hash='25b8396006802375' id='f3573b8d'/>
    <pointer-type-def type-id='35484ac1' size-in-bits='32' hash='f2de2e56c623e853' id='e75728a9'/>
    <reference-type-def kind='lvalue' type-id='9d7cc6de' size-in-bits='32' hash='81b3c6bced544e52' id='6d8aa860'/>
    <pointer-type-def type-id='9d7cc6de' size-in-bits='32' hash='8d8d112354773bc5' id='798abb44'/>
    <reference-type-def kind='lvalue' type-id='fe392671' size-in-bits='32' hash='e86eeb577ce85fe5' id='a9f79cfd'/>
    <pointer-type-def type-id='fe392671' size-in-bits='32' hash='3b5520f4bc5acc9d' id='9df78a19'/>
    <reference-type-def kind='lvalue' type-id='48b06606' size-in-bits='32' hash='8e8899827f4344c8' id='f035ee58'/>
    <pointer-type-def type-id='48b06606' size-in-bits='32' hash='b86a9a0233ef3116' id='ec35e80c'/>
    <reference-type-def kind='lvalue' type-id='251e995b' size-in-bits='32' hash='1d8ff0ed5d756bd4' id='c9a1305f'/>
    <pointer-type-def type-id='251e995b' size-in-bits='32' hash='06b7f603b322b243' id='cda136ab'/>
    <reference-type-def kind='lvalue' type-id='619f09b0' size-in-bits='32' hash='576253ad0e117f26' id='7e0ac88a'/>
    <pointer-type-def type-id='619f09b0' size-in-bits='32' hash='6073a1511df8e53a' id='720ab5a6'/>
    <reference-type-def kind='lvalue' type-id='500299ab' size-in-bits='32' hash='3690b78f192f4dea' id='f0f3daef'/>
    <pointer-type-def type-id='500299ab' size-in-bits='32' hash='0ad29ed30d2fc2d6' id='f4f3e13b'/>
    <reference-type-def kind='lvalue' type-id='089fe5a3' size-in-bits='32' hash='d02b965a44b4e825' id='3f8e6e67'/>
    <pointer-type-def type-id='089fe5a3' size-in-bits='32' hash='6f55a113aee09f39' id='338e5b83'/>
    <reference-type-def kind='lvalue' type-id='f6626d42' size-in-bits='32' hash='61cce40f559a88ed' id='68fec754'/>
    <pointer-type-def type-id='f6626d42' size-in-bits='32' hash='e30e212e613086bb' id='5cfeb470'/>
    <reference-type-def kind='lvalue' type-id='bf1e7ced' size-in-bits='32' hash='9a24cfc24d056943' id='60381229'/>
    <pointer-type-def type-id='bf1e7ced' size-in-bits='32' hash='7e381a709c70a9be' id='6c38250d'/>
    <reference-type-def kind='lvalue' type-id='1b40f38a' size-in-bits='32' hash='60b178f5030a0dc4' id='a8a7390c'/>
    <pointer-type-def type-id='1b40f38a' size-in-bits='32' hash='82b11d1e805aa1e0' id='aca73f58'/>
    <pointer-type-def type-id='30745bfb' size-in-bits='32' hash='ab476715472f6579' id='261c418b'/>
    <pointer-type-def type-id='82ce69b4' size-in-bits='32' hash='6ae8ae033532bc87' id='3d639e42'/>
    <pointer-type-def type-id='7a1975f9' size-in-bits='32' hash='684591b4ddda3064' id='2f15c3e1'/>
    <pointer-type-def type-id='d05727fd' size-in-bits='32' hash='64b5d0a64d547a53' id='9207f1dd'/>
    <pointer-type-def type-id='9d7dd6fe' size-in-bits='32' hash='f1b8bc443e03dc32' id='5b2fee24'/>
    <pointer-type-def type-id='84f52bff' size-in-bits='32' hash='d6a56277ba26de60' id='539a4b27'/>
    <pointer-type-def type-id='d784bbd4' size-in-bits='32' hash='c7d36540ba0815da' id='e5e99ab2'/>
    <reference-type-def kind='lvalue' type-id='f5a6c2c2' size-in-bits='32' hash='c3cc4153e491b423#34' id='c9e2e7f8'/>
    <reference-type-def kind='lvalue' type-id='d3f9cf63' size-in-bits='32' hash='c3cc4153e491b423#35' id='c9e2e7f9'/>
    <reference-type-def kind='lvalue' type-id='e283594e' size-in-bits='32' hash='c3cc4153e491b423#36' id='c9e2e7fa'/>
    <reference-type-def kind='lvalue' type-id='e53cc294' size-in-bits='32' hash='c3cc4153e491b423#37' id='c9e2e7fb'/>
    <reference-type-def kind='lvalue' type-id='2a25b660' size-in-bits='32' hash='c3cc4153e491b423#40' id='c9e2e7fc'/>
    <reference-type-def kind='lvalue' type-id='e8b5bb94' size-in-bits='32' hash='c3cc4153e491b423#44' id='c9e2e7fd'/>
    <reference-type-def kind='lvalue' type-id='32e47c40' size-in-bits='32' hash='c3cc4153e491b423#45' id='c9e2e7fe'/>
    <reference-type-def kind='lvalue' type-id='f4c79cc7' size-in-bits='32' hash='c3cc4153e491b423#46' id='c9e2e7ff'/>
    <reference-type-def kind='lvalue' type-id='c446d2cb' size-in-bits='32' hash='c3cc4153e491b423#47' id='c9e2e800'/>
    <reference-type-def kind='lvalue' type-id='56b4dd50' size-in-bits='32' hash='c3cc4153e491b423#48' id='c9e2e801'/>
    <reference-type-def kind='lvalue' type-id='d48b26bb' size-in-bits='32' hash='c3cc4153e491b423#49' id='c9e2e802'/>
    <reference-type-def kind='lvalue' type-id='384a7181' size-in-bits='32' hash='c3cc4153e491b423#65' id='c9e2e803'/>
    <reference-type-def kind='lvalue' type-id='8b095b74' size-in-bits='32' hash='c3cc4153e491b423#66' id='c9e2e804'/>
    <reference-type-def kind='lvalue' type-id='c4c47537' size-in-bits='32' hash='c3cc4153e491b423#68' id='c9e2e805'/>
    <reference-type-def kind='lvalue' type-id='e5f05e18' size-in-bits='32' hash='c3cc4153e491b423#69' id='c9e2e806'/>
    <reference-type-def kind='lvalue' type-id='2848c8a1' size-in-bits='32' hash='c3cc4153e491b423#73' id='c9e2e807'/>
    <reference-type-def kind='lvalue' type-id='9e02975e' size-in-bits='32' hash='c3cc4153e491b423#74' id='c9e2e808'/>
    <reference-type-def kind='lvalue' type-id='a5d1359b' size-in-bits='32' hash='c3cc4153e491b423#76' id='c9e2e809'/>
    <reference-type-def kind='lvalue' type-id='6fe64836' size-in-bits='32' hash='c3cc4153e491b423#80' id='c9e2e80a'/>
    <reference-type-def kind='lvalue' type-id='155e8fd8' size-in-bits='32' hash='1572c08399b2a1fa' id='707c1c12'/>
    <pointer-type-def type-id='155e8fd8' size-in-bits='32' hash='62fe6754175ea07d' id='747c225e'/>
    <reference-type-def kind='lvalue' type-id='70799029' size-in-bits='32' hash='6ce9e571b8c35900#33' id='dcfa138a'/>
    <pointer-type-def type-id='70799029' size-in-bits='32' hash='10f1b0fa19f52df0' id='e8fa2667'/>
    <reference-type-def kind='lvalue' type-id='4da3c689' size-in-bits='32' hash='f7023494f7b95b39' id='7da10fe5'/>
    <reference-type-def kind='lvalue' type-id='cea92a70' size-in-bits='32' hash='1fba7827e16122c2' id='b35fb9ea'/>
    <reference-type-def kind='rvalue' type-id='cea92a70' size-in-bits='32' hash='6f722b84b19b1df7' id='2bb17c24'/>
    <pointer-type-def type-id='cea92a70' size-in-bits='32' hash='2c77cca14d288db0' id='a75fa706'/>
    <reference-type-def kind='lvalue' type-id='ca9cbb0d' size-in-bits='32' hash='f7023494f7b95b39' id='d74abfe9'/>
    <reference-type-def kind='lvalue' type-id='b9c5d5a9' size-in-bits='32' hash='c3cc4153e491b423#83' id='c9e2e80b'/>
    <reference-type-def kind='lvalue' type-id='1a8dd50d' size-in-bits='32' hash='93915c3d942e5343#34' id='dcfa138b'/>
    <pointer-type-def type-id='1a8dd50d' size-in-bits='32' hash='dde10126ea3afef0#2' id='e8fa2668'/>
    <reference-type-def kind='lvalue' type-id='501d9695' size-in-bits='32' hash='6ea0a5419dddc4f3' id='9787af61'/>
    <pointer-type-def type-id='501d9695' size-in-bits='32' hash='1157a0cba4d761b7' id='9387a915'/>
    <reference-type-def kind='lvalue' type-id='a82808e9' size-in-bits='32' hash='22448ec2c2097447' id='46741e50'/>
    <pointer-type-def type-id='a82808e9' size-in-bits='32' hash='13ffe750313cfc40' id='52743134'/>
    <reference-type-def kind='lvalue' type-id='58c1cabb' size-in-bits='32' hash='2eff6c554e900c12' id='2ce10b71'/>
    <reference-type-def kind='lvalue' type-id='7acbf84d' size-in-bits='32' hash='2eff6c554e900c12#2' id='2ce10b72'/>
    <reference-type-def kind='lvalue' type-id='e9e5c2d5' size-in-bits='32' hash='2eff6c554e900c12#5' id='2ce10b73'/>
    <reference-type-def kind='lvalue' type-id='c788d4ad' size-in-bits='32' hash='f654f7df930ee304#9' id='2ce10b74'/>
    <reference-type-def kind='lvalue' type-id='c50fa1f1' size-in-bits='32' hash='cc75c58e17dafbe1#10' id='2ce10b75'/>
    <reference-type-def kind='lvalue' type-id='1e82dca3' size-in-bits='32' hash='75ba9ca7450c89f5#11' id='2ce10b76'/>
    <reference-type-def kind='lvalue' type-id='c10c2243' size-in-bits='32' hash='5a6630c7cc0243c2#12' id='2ce10b77'/>
    <reference-type-def kind='lvalue' type-id='b7eb7dbd' size-in-bits='32' hash='d7b8bb87fba5c12a#13' id='2ce10b78'/>
    <reference-type-def kind='lvalue' type-id='98ea3b57' size-in-bits='32' hash='e5793196cbb0826d#28' id='2ce10b79'/>
    <reference-type-def kind='lvalue' type-id='9933771b' size-in-bits='32' hash='cff43682f201a018#29' id='2ce10b7a'/>
    <reference-type-def kind='lvalue' type-id='fd4700ab' size-in-bits='32' hash='c5060fddb325ed27#31' id='2ce10b7b'/>
    <reference-type-def kind='lvalue' type-id='c63332ef' size-in-bits='32' hash='2a578da833f634cc#32' id='2ce10b7c'/>
    <reference-type-def kind='lvalue' type-id='6371f685' size-in-bits='32' hash='c402c63a2edf181d#39' id='2ce10b7d'/>
    <reference-type-def kind='rvalue' type-id='983adb98' size-in-bits='32' hash='e1d7644a08035caf' id='fd44d9f5'/>
    <reference-type-def kind='lvalue' type-id='d81eed6b' size-in-bits='32' hash='b8536efd2a20f083' id='923ca45f'/>
    <reference-type-def kind='rvalue' type-id='d81eed6b' size-in-bits='32' hash='34590d8c3970ad43' id='ae76ea7b'/>
    <pointer-type-def type-id='d81eed6b' size-in-bits='32' hash='4970042f0f8aeaf1' id='963caaab'/>
    <reference-type-def kind='lvalue' type-id='afb20d38' size-in-bits='32' hash='03f9b4c0a8e070d5' id='09718062'/>
    <reference-type-def kind='rvalue' type-id='afb20d38' size-in-bits='32' hash='7eefea6d0927df4a' id='21aceb0c'/>
    <pointer-type-def type-id='afb20d38' size-in-bits='32' hash='82594bce7a8983a3' id='0d7186ae'/>
    <reference-type-def kind='lvalue' type-id='f9e4b3e7' size-in-bits='32' hash='e2bf4fea97b4f463' id='9b5e46db'/>
    <reference-type-def kind='lvalue' type-id='60662a11' size-in-bits='32' hash='783942227a5e5591' id='fa0cba0d'/>
    <reference-type-def kind='rvalue' type-id='60662a11' size-in-bits='32' hash='ca7eb515b4449244' id='cd0911b1'/>
    <pointer-type-def type-id='60662a11' size-in-bits='32' hash='c4a99d51cd6e2e4f' id='ee0ca729'/>
    <reference-type-def kind='lvalue' type-id='99463423' size-in-bits='32' hash='ab750a03b76a5eb5' id='2e1e1cf7'/>
    <reference-type-def kind='lvalue' type-id='33591497' size-in-bits='32' hash='044106951ca5dc6e' id='07e7053b'/>
    <pointer-type-def type-id='33591497' size-in-bits='32' hash='5a45c5f2c6583b60' id='03e6feef'/>
    <reference-type-def kind='lvalue' type-id='9adfcde0' size-in-bits='32' hash='4aa88354e54892a6' id='1fa4c13d'/>
    <reference-type-def kind='lvalue' type-id='199fc21a' size-in-bits='32' hash='f2cc516f7abc722d' id='8755c08c'/>
    <pointer-type-def type-id='199fc21a' size-in-bits='32' hash='fa97bf32dea12442' id='8b55c6d8'/>
    <reference-type-def kind='lvalue' type-id='6efd2fac' size-in-bits='32' hash='4c0e7a0219111e6d' id='27c48ad6'/>
    <reference-type-def kind='rvalue' type-id='6efd2fac' size-in-bits='32' hash='b9813aadc6134ecd' id='8a66b7d0'/>
    <pointer-type-def type-id='6efd2fac' size-in-bits='32' hash='887385b70e58cedf' id='33c49dba'/>
    <pointer-type-def type-id='9126402a' size-in-bits='32' hash='125a61c5db0f5ed3' id='28e10525'/>
    <reference-type-def kind='lvalue' type-id='ac070eda' size-in-bits='32' hash='ad75ce3e186551cc' id='b20bdefc'/>
    <reference-type-def kind='rvalue' type-id='ac070eda' size-in-bits='32' hash='96529dca5e7e1662' id='22afd12e'/>
    <pointer-type-def type-id='ac070eda' size-in-bits='32' hash='0ed7b76119e7694a' id='b60be548'/>
    <reference-type-def kind='lvalue' type-id='5f48c471' size-in-bits='32' hash='9cc027997a70e9c1#3' id='ff242d43'/>
    <reference-type-def kind='lvalue' type-id='6a6c3f8a' size-in-bits='32' hash='ce5bd81efc0af523' id='33b2cf2c'/>
    <reference-type-def kind='rvalue' type-id='6a6c3f8a' size-in-bits='32' hash='bdabdf22eddc1cb3' id='6c7becbe'/>
    <pointer-type-def type-id='6a6c3f8a' size-in-bits='32' hash='32ee1677e1fdb201' id='37b2d578'/>
    <reference-type-def kind='lvalue' type-id='8997c6b1' size-in-bits='32' hash='9cc027997a70e9c1#4' id='ff242d44'/>
    <reference-type-def kind='lvalue' type-id='e982e448' size-in-bits='32' hash='488dcea1aaa4e98c' id='c32d4562'/>
    <reference-type-def kind='rvalue' type-id='e982e448' size-in-bits='32' hash='db7fd07b2b546579' id='84440a0c'/>
    <pointer-type-def type-id='e982e448' size-in-bits='32' hash='b1e6e1badf42e8b4' id='c72d4bae'/>
    <reference-type-def kind='lvalue' type-id='f821a8c1' size-in-bits='32' hash='9cc027997a70e9c1#17' id='ff242d45'/>
    <reference-type-def kind='lvalue' type-id='075a9db6' size-in-bits='32' hash='3d7f96a26006db7b' id='4994ec28'/>
    <reference-type-def kind='rvalue' type-id='075a9db6' size-in-bits='32' hash='7a7d1bb9d679aaed' id='e36f9a0a'/>
    <pointer-type-def type-id='075a9db6' size-in-bits='32' hash='aaa7a4054fca2161' id='4594e5dc'/>
    <reference-type-def kind='lvalue' type-id='51ec91a3' size-in-bits='32' hash='9cc027997a70e9c1#18' id='ff242d46'/>
    <reference-type-def kind='lvalue' type-id='65b889e8' size-in-bits='32' hash='19790e497ebecd5f' id='d9d6e702'/>
    <reference-type-def kind='rvalue' type-id='65b889e8' size-in-bits='32' hash='1be48760155853cb' id='114dddac'/>
    <pointer-type-def type-id='65b889e8' size-in-bits='32' hash='eea69a132da09ff1' id='ddd6ed4e'/>
    <reference-type-def kind='lvalue' type-id='55d610b5' size-in-bits='32' hash='9cc027997a70e9c1#20' id='ff242d47'/>
    <reference-type-def kind='lvalue' type-id='603f72de' size-in-bits='32' hash='9798526984d19128' id='b0ecf9c0'/>
    <reference-type-def kind='rvalue' type-id='603f72de' size-in-bits='32' hash='be59a37457ce7f65' id='6b0d6512'/>
    <pointer-type-def type-id='603f72de' size-in-bits='32' hash='ea3d524add21a7f0' id='bced0ca4'/>
    <reference-type-def kind='lvalue' type-id='b224bbe7' size-in-bits='32' hash='9cc027997a70e9c1#21' id='ff242d48'/>
    <reference-type-def kind='lvalue' type-id='56b14eae' size-in-bits='32' hash='180779c23c67d29c' id='e7b7ef60'/>
    <reference-type-def kind='rvalue' type-id='56b14eae' size-in-bits='32' hash='f62b1058447a944c' id='0c8dab32'/>
    <pointer-type-def type-id='56b14eae' size-in-bits='32' hash='d51d7ecafec084fc' id='f3b80244'/>
    <reference-type-def kind='lvalue' type-id='6a671eb0' size-in-bits='32' hash='93f4b56f96652b5b' id='18fd35aa'/>
    <reference-type-def kind='rvalue' type-id='6a671eb0' size-in-bits='32' hash='e9d8ab49e545be54' id='e29b4b64'/>
    <pointer-type-def type-id='6a671eb0' size-in-bits='32' hash='3e4ba142343d74e6' id='0cfd22c6'/>
    <reference-type-def kind='rvalue' type-id='3abded17' size-in-bits='32' hash='288c26e1a44f08ea#3' id='cd3a6999'/>
    <reference-type-def kind='lvalue' type-id='6e9b5502' size-in-bits='32' hash='8e1c67a82dd86605' id='6497cf54'/>
    <reference-type-def kind='rvalue' type-id='6e9b5502' size-in-bits='32' hash='255b77d7e92d160d' id='ccfb9076'/>
    <pointer-type-def type-id='6e9b5502' size-in-bits='32' hash='aa87ff7f0563b371' id='5897bc70'/>
    <reference-type-def kind='rvalue' type-id='e7d36121' size-in-bits='32' hash='288c26e1a44f08ea#5' id='cd3a699a'/>
    <reference-type-def kind='lvalue' type-id='760319b5' size-in-bits='32' hash='2386747aabb83a85' id='2fca2671'/>
    <reference-type-def kind='rvalue' type-id='760319b5' size-in-bits='32' hash='0152aee97671290a' id='923a5af5'/>
    <pointer-type-def type-id='760319b5' size-in-bits='32' hash='819e2f5a1d04f42a' id='2bca2025'/>
    <reference-type-def kind='rvalue' type-id='439e0f3c' size-in-bits='32' hash='341885f30e281b9f#10' id='82acecbf'/>
    <reference-type-def kind='lvalue' type-id='a5320295' size-in-bits='32' hash='d938d4460417c610' id='404b8c71'/>
    <reference-type-def kind='rvalue' type-id='a5320295' size-in-bits='32' hash='d076b07bb30f1cf1' id='8dedecf5'/>
    <pointer-type-def type-id='a5320295' size-in-bits='32' hash='3f4d12df0518fb63' id='3c4b8625'/>
    <reference-type-def kind='rvalue' type-id='908075a6' size-in-bits='32' hash='48b2da827058f66c#11' id='82acecc0'/>
    <pointer-type-def type-id='908075a6' size-in-bits='32' hash='1dbda650abb8336b#3' id='e8fa2669'/>
    <reference-type-def kind='lvalue' type-id='1e763177' size-in-bits='32' hash='b2983b2d27ff6d2e' id='4705fceb'/>
    <reference-type-def kind='rvalue' type-id='1e763177' size-in-bits='32' hash='d149ad661ac6b6e2' id='9b6cf6b7'/>
    <pointer-type-def type-id='1e763177' size-in-bits='32' hash='a81e2abd6a502b0b' id='4305f69f'/>
    <reference-type-def kind='rvalue' type-id='e709d4f8' size-in-bits='32' hash='48b2da827058f66c#12' id='82acecc1'/>
    <pointer-type-def type-id='e709d4f8' size-in-bits='32' hash='1dbda650abb8336b#4' id='e8fa266a'/>
    <reference-type-def kind='lvalue' type-id='46ef0c57' size-in-bits='32' hash='3d208efbd8ee605c' id='a41e8ccb'/>
    <reference-type-def kind='rvalue' type-id='46ef0c57' size-in-bits='32' hash='3c306a57edeac6fe' id='4917d917'/>
    <pointer-type-def type-id='46ef0c57' size-in-bits='32' hash='367f253aba4e8267' id='a01e867f'/>
    <reference-type-def kind='lvalue' type-id='ba2611f3' size-in-bits='32' hash='35c356cb7891268a' id='ac55be37'/>
    <reference-type-def kind='rvalue' type-id='ba2611f3' size-in-bits='32' hash='cbb32237a92e0b86' id='5bfa34c3'/>
    <pointer-type-def type-id='ba2611f3' size-in-bits='32' hash='5ca5c113a864d6ef' id='a055ab53'/>
    <reference-type-def kind='lvalue' type-id='2b166553' size-in-bits='32' hash='c94d063a3e229278' id='e54ff0b7'/>
    <reference-type-def kind='rvalue' type-id='2b166553' size-in-bits='32' hash='7cb593baf8a5c2c0' id='8dd7b443'/>
    <pointer-type-def type-id='2b166553' size-in-bits='32' hash='45fcee77b98a8f7a' id='d94fddd3'/>
    <reference-type-def kind='rvalue' type-id='1f8483ec' size-in-bits='32' hash='48b2da827058f66c#15' id='82acecc2'/>
    <pointer-type-def type-id='1f8483ec' size-in-bits='32' hash='1dbda650abb8336b#7' id='e8fa266b'/>
    <reference-type-def kind='lvalue' type-id='736f4e77' size-in-bits='32' hash='962a5360f7fa595f' id='3a255d2b'/>
    <reference-type-def kind='rvalue' type-id='736f4e77' size-in-bits='32' hash='7f23f980bac79f4c' id='95d17b77'/>
    <pointer-type-def type-id='736f4e77' size-in-bits='32' hash='35796370cad4c671' id='362556df'/>
    <reference-type-def kind='lvalue' type-id='94c4b137' size-in-bits='32' hash='6f115da53a9e7bea' id='eb1215cb'/>
    <reference-type-def kind='rvalue' type-id='94c4b137' size-in-bits='32' hash='92eda26836500d3c' id='fa788417'/>
    <pointer-type-def type-id='94c4b137' size-in-bits='32' hash='9c18237e5e6e8d40' id='e7120f7f'/>
    <reference-type-def kind='rvalue' type-id='7f513560' size-in-bits='32' hash='5991fe154b4fc3c4#18' id='82acecc3'/>
    <pointer-type-def type-id='7f513560' size-in-bits='32' hash='bb9a361cef3f37ae#10' id='e8fa266c'/>
    <reference-type-def kind='lvalue' type-id='e3e687ed' size-in-bits='32' hash='d4abaa1667b4f6f8' id='b5a2dba9'/>
    <reference-type-def kind='rvalue' type-id='e3e687ed' size-in-bits='32' hash='5c22a50d4462f883' id='7e5fa21d'/>
    <pointer-type-def type-id='e3e687ed' size-in-bits='32' hash='2d8d15ee43f63d1f' id='c1a2ee8d'/>
    <reference-type-def kind='rvalue' type-id='a013f04c' size-in-bits='32' hash='a67218879c4ccee1#19' id='82acecc4'/>
    <pointer-type-def type-id='a013f04c' size-in-bits='32' hash='c448e868aceacb99#11' id='e8fa266d'/>
    <reference-type-def kind='lvalue' type-id='21156a1f' size-in-bits='32' hash='48064c8c1ae9be9c' id='fe8c9783'/>
    <reference-type-def kind='rvalue' type-id='21156a1f' size-in-bits='32' hash='a7e0ead9c7b78eeb' id='5c52b8bf'/>
    <pointer-type-def type-id='21156a1f' size-in-bits='32' hash='f908123c5ae0a22d' id='0a8caa67'/>
    <reference-type-def kind='rvalue' type-id='21d18d18' size-in-bits='32' hash='5ff4eee030be09fe#20' id='82acecc5'/>
    <pointer-type-def type-id='21d18d18' size-in-bits='32' hash='e1199dd38c06b0e5#12' id='e8fa266e'/>
    <pointer-type-def type-id='c9d12d66' size-in-bits='32' hash='7d7c7d53f0731658' id='b2eb2c3f'/>
    <pointer-type-def type-id='dddf6ca2' size-in-bits='32' hash='354ad190e869893b' id='d915a820'/>
    <pointer-type-def type-id='8f92235e' size-in-bits='32' hash='16946e7097b32856' id='90421557'/>
    <reference-type-def kind='lvalue' type-id='002ac4a6' size-in-bits='32' hash='5431e549cd9f7d58' id='c3535580'/>
    <reference-type-def kind='rvalue' type-id='002ac4a6' size-in-bits='32' hash='9c0fa959656378f5' id='222fd452'/>
    <reference-type-def kind='lvalue' type-id='f0981eed' size-in-bits='32' hash='d9d0ace717d2f877' id='8c787cb7'/>
    <pointer-type-def type-id='f0981eed' size-in-bits='32' hash='43346a3a63b817f0' id='807869d3'/>
    <pointer-type-def type-id='03e3ce24' size-in-bits='32' hash='7f3fe83f3743e59d' id='e45dd401'/>
    <pointer-type-def type-id='a1159711' size-in-bits='32' hash='7f3fe83f3743e59d' id='7a98879a'/>
    <pointer-type-def type-id='0cd472f8' size-in-bits='32' hash='7f3fe83f3743e59d' id='0caa0dcf'/>
    <pointer-type-def type-id='4e1f6b96' size-in-bits='32' hash='7f3fe83f3743e59d' id='4ba42953'/>
    <pointer-type-def type-id='8573d780' size-in-bits='32' hash='7f3fe83f3743e59d' id='9578bd3d'/>
    <pointer-type-def type-id='f2cc4021' size-in-bits='32' hash='7f3fe83f3743e59d' id='fcef0014'/>
    <pointer-type-def type-id='e26e3bd8' size-in-bits='32' hash='7f3fe83f3743e59d' id='c92c39bd'/>
    <pointer-type-def type-id='86dd1fe0' size-in-bits='32' hash='7f3fe83f3743e59d' id='963f4759'/>
    <pointer-type-def type-id='dc96f34b' size-in-bits='32' hash='7f3fe83f3743e59d' id='6c42c76e'/>
    <pointer-type-def type-id='ceac3768' size-in-bits='32' hash='7f3fe83f3743e59d' id='5721b4d5'/>
    <pointer-type-def type-id='a6e6baa4' size-in-bits='32' hash='7f3fe83f3743e59d' id='1b5bab1d'/>
    <pointer-type-def type-id='e66af457' size-in-bits='32' hash='7f3fe83f3743e59d' id='4c985d6a'/>
    <pointer-type-def type-id='e8fe83e5' size-in-bits='32' hash='7f3fe83f3743e59d' id='276cdb48'/>
    <pointer-type-def type-id='24f572ff' size-in-bits='32' hash='7f3fe83f3743e59d' id='cc949b48'/>
    <pointer-type-def type-id='a71e7c19' size-in-bits='32' hash='7f3fe83f3743e59d' id='13ff5ed6'/>
    <pointer-type-def type-id='51300906' size-in-bits='32' hash='7f3fe83f3743e59d' id='4effcdf5'/>
    <pointer-type-def type-id='7a151c1f' size-in-bits='32' hash='7f3fe83f3743e59d' id='033b4c5a'/>
    <pointer-type-def type-id='b86fc20a' size-in-bits='32' hash='7f3fe83f3743e59d' id='4cf405ef'/>
    <pointer-type-def type-id='10902d5b' size-in-bits='32' hash='7f3fe83f3743e59d' id='2ee87a2c'/>
    <pointer-type-def type-id='ea89afa4' size-in-bits='32' hash='7f3fe83f3743e59d' id='4e3962d3'/>
    <pointer-type-def type-id='da94823b' size-in-bits='32' hash='7f3fe83f3743e59d' id='f595227e'/>
    <pointer-type-def type-id='80c98786' size-in-bits='32' hash='7f3fe83f3743e59d' id='23df0f63'/>
    <pointer-type-def type-id='e7aba88c' size-in-bits='32' hash='7f3fe83f3743e59d' id='4ddca04d'/>
    <pointer-type-def type-id='7a20f806' size-in-bits='32' hash='7f3fe83f3743e59d' id='54ed3183'/>
    <pointer-type-def type-id='b7cd64f0' size-in-bits='32' hash='7f3fe83f3743e59d' id='349137e5'/>
    <pointer-type-def type-id='a80582f4' size-in-bits='32' hash='7f3fe83f3743e59d' id='bc788285'/>
    <pointer-type-def type-id='ba2e5237' size-in-bits='32' hash='7f3fe83f3743e59d' id='f0756a0a'/>
    <pointer-type-def type-id='edc7b8e2' size-in-bits='32' hash='7f3fe83f3743e59d' id='6a6a41af'/>
    <pointer-type-def type-id='f4e4744c' size-in-bits='32' hash='7f3fe83f3743e59d' id='47cf6701'/>
    <pointer-type-def type-id='f516e505' size-in-bits='32' hash='7f3fe83f3743e59d' id='d238e9f8'/>
    <pointer-type-def type-id='164463c8' size-in-bits='32' hash='7f3fe83f3743e59d' id='f0699eed'/>
    <pointer-type-def type-id='f6f9f0e6' size-in-bits='32' hash='7f3fe83f3743e59d' id='67616213'/>
    <pointer-type-def type-id='fac128df' size-in-bits='32' hash='7f3fe83f3743e59d' id='b903acea'/>
    <pointer-type-def type-id='d845de08' size-in-bits='32' hash='7f3fe83f3743e59d' id='27cc1a95'/>
    <pointer-type-def type-id='30cb3c60' size-in-bits='32' hash='7f3fe83f3743e59d' id='fa7b64f1'/>
    <pointer-type-def type-id='46b19e4b' size-in-bits='32' hash='7f3fe83f3743e59d' id='46cfa96e'/>
    <pointer-type-def type-id='f849b055' size-in-bits='32' hash='7f3fe83f3743e59d' id='dcb938f6'/>
    <pointer-type-def type-id='93c36fbf' size-in-bits='32' hash='7f3fe83f3743e59d' id='52490c64'/>
    <pointer-type-def type-id='f253d299' size-in-bits='32' hash='7f3fe83f3743e59d' id='cb345202'/>
    <pointer-type-def type-id='80d65977' size-in-bits='32' hash='7f3fe83f3743e59d' id='02597924'/>
    <pointer-type-def type-id='61c30632' size-in-bits='32' hash='7f3fe83f3743e59d' id='f9ae2915'/>
    <pointer-type-def type-id='3f8e4f72' size-in-bits='32' hash='7f3fe83f3743e59d' id='2f2ff64f'/>
    <pointer-type-def type-id='b78bf66c' size-in-bits='32' hash='7f3fe83f3743e59d' id='963c2d49'/>
    <pointer-type-def type-id='fc103603' size-in-bits='32' hash='7f3fe83f3743e59d' id='87524436'/>
    <pointer-type-def type-id='841abdb4' size-in-bits='32' hash='7f3fe83f3743e59d' id='03105c2f'/>
    <pointer-type-def type-id='3a68af85' size-in-bits='32' hash='7f3fe83f3743e59d' id='d2bd2fda'/>
    <pointer-type-def type-id='d34f7a3e' size-in-bits='32' hash='7f3fe83f3743e59d' id='fa4898ab'/>
    <pointer-type-def type-id='9e8d40b9' size-in-bits='32' hash='7f3fe83f3743e59d' id='93ed7c54'/>
    <pointer-type-def type-id='18701924' size-in-bits='32' hash='7f3fe83f3743e59d' id='8220f20b'/>
    <pointer-type-def type-id='d7559c5d' size-in-bits='32' hash='7f3fe83f3743e59d' id='9dfb2c96'/>
    <pointer-type-def type-id='2675e377' size-in-bits='32' hash='7f3fe83f3743e59d' id='46effcdc'/>
    <pointer-type-def type-id='7ea2fde5' size-in-bits='32' hash='7f3fe83f3743e59d' id='d88d0f96'/>
    <pointer-type-def type-id='6cafc61e' size-in-bits='32' hash='7f3fe83f3743e59d' id='57fbc9df'/>
    <pointer-type-def type-id='7190707a' size-in-bits='32' hash='7f3fe83f3743e59d' id='dd48378b'/>
    <pointer-type-def type-id='7a913a2c' size-in-bits='32' hash='7f3fe83f3743e59d' id='1167e98d'/>
    <pointer-type-def type-id='e37e0e79' size-in-bits='32' hash='7f3fe83f3743e59d' id='57269ef0'/>
    <pointer-type-def type-id='3885d108' size-in-bits='32' hash='7f3fe83f3743e59d' id='e00b6cf9'/>
    <pointer-type-def type-id='d18e1298' size-in-bits='32' hash='7f3fe83f3743e59d' id='7f5a3d5b'/>
    <pointer-type-def type-id='328e96b3' size-in-bits='32' hash='7f3fe83f3743e59d' id='d30f44a2'/>
    <pointer-type-def type-id='a0602a8d' size-in-bits='32' hash='7f3fe83f3743e59d' id='954e4e32'/>
    <pointer-type-def type-id='e9b6e8c4' size-in-bits='32' hash='7f3fe83f3743e59d' id='c2029967'/>
    <pointer-type-def type-id='30a82da4' size-in-bits='32' hash='7f3fe83f3743e59d' id='c640490b'/>
    <pointer-type-def type-id='6bc9dcad' size-in-bits='32' hash='7f3fe83f3743e59d' id='a9defe9a'/>
    <pointer-type-def type-id='e1e5221d' size-in-bits='32' hash='7f3fe83f3743e59d' id='d4993206'/>
    <pointer-type-def type-id='c523b9f1' size-in-bits='32' hash='a30408e153113572' id='323d93c1'/>
    <pointer-type-def type-id='323d93c1' size-in-bits='32' hash='fead7be45e8acd76' id='01efdaf1'/>
    <pointer-type-def type-id='aa12d1bd' size-in-bits='32' id='822cd80e'/>
    <pointer-type-def type-id='ebc81181' size-in-bits='32' id='c3a70532'/>
    <pointer-type-def type-id='c3a70532' size-in-bits='32' id='17ed04c8'/>
    <pointer-type-def type-id='2ca86b0d' size-in-bits='32' id='715a5bad'/>
    <pointer-type-def type-id='1e7918a7' size-in-bits='32' id='047d4fff'/>
    <pointer-type-def type-id='eeed1f5d' size-in-bits='32' id='349a45dd'/>
    <pointer-type-def type-id='e53ab91c' size-in-bits='32' id='a5a1fc5a'/>
    <pointer-type-def type-id='530c1a32' size-in-bits='32' id='76b5a6a0'/>
    <pointer-type-def type-id='2e67d715' size-in-bits='32' id='ee3187c5'/>
    <pointer-type-def type-id='a87003ef' size-in-bits='32' id='dda33667'/>
    <pointer-type-def type-id='b0749e8e' size-in-bits='32' id='0faa6e74'/>
    <pointer-type-def type-id='fb46a283' size-in-bits='32' id='15b6e673'/>
    <pointer-type-def type-id='d988e2e8' size-in-bits='32' id='b09bab5e'/>
    <pointer-type-def type-id='fdf9f098' size-in-bits='32' id='14c7458e'/>
    <pointer-type-def type-id='30a4d497' size-in-bits='32' id='3239e3af'/>
    <pointer-type-def type-id='ae6a1c55' size-in-bits='32' id='e65fd0e5'/>
    <pointer-type-def type-id='07f10124' size-in-bits='32' id='a5fd6882'/>
    <reference-type-def kind='lvalue' type-id='663ed4a0' size-in-bits='32' id='4b4fe04a'/>
    <pointer-type-def type-id='663ed4a0' size-in-bits='32' id='3f4fcd66'/>
    <qualified-type-def type-id='3f4fcd66' const='yes' id='a9c47199'/>
    <reference-type-def kind='lvalue' type-id='a9c47199' size-in-bits='32' id='ff3f0fad'/>
    <reference-type-def kind='lvalue' type-id='3f4fcd66' size-in-bits='32' id='eaa01bc0'/>
    <reference-type-def kind='rvalue' type-id='3f4fcd66' size-in-bits='32' id='400beb12'/>
    <reference-type-def kind='lvalue' type-id='e31c3bd7' size-in-bits='32' id='799fd35b'/>
    <pointer-type-def type-id='e31c3bd7' size-in-bits='32' id='759fcd0f'/>
    <qualified-type-def type-id='759fcd0f' const='yes' id='4c08731c'/>
    <reference-type-def kind='lvalue' type-id='4c08731c' size-in-bits='32' id='eb4d644e'/>
    <reference-type-def kind='lvalue' type-id='759fcd0f' size-in-bits='32' id='538ff78b'/>
    <reference-type-def kind='rvalue' type-id='759fcd0f' size-in-bits='32' id='38a2e557'/>
    <reference-type-def kind='lvalue' type-id='88bb28ef' size-in-bits='32' id='72c30cf3'/>
    <pointer-type-def type-id='88bb28ef' size-in-bits='32' id='7ec31fd7'/>
    <qualified-type-def type-id='7ec31fd7' const='yes' id='9a153d84'/>
    <reference-type-def kind='lvalue' type-id='9a153d84' size-in-bits='32' id='31700606'/>
    <reference-type-def kind='lvalue' type-id='7ec31fd7' size-in-bits='32' id='7e2b4863'/>
    <pointer-type-def type-id='eb3e39c8' size-in-bits='32' id='567e1fde'/>
    <reference-type-def kind='lvalue' type-id='61a43bb9' size-in-bits='32' id='114a8bd5'/>
    <pointer-type-def type-id='61a43bb9' size-in-bits='32' id='154a9221'/>
    <qualified-type-def type-id='154a9221' const='yes' id='6f51437e'/>
    <reference-type-def kind='lvalue' type-id='6f51437e' size-in-bits='32' id='94ed0388'/>
    <reference-type-def kind='lvalue' type-id='154a9221' size-in-bits='32' id='8b63e105'/>
    <pointer-type-def type-id='9c9f3114' size-in-bits='32' id='d8b900b2'/>
    <class-decl name='_jbooleanArray' visibility='default' is-declaration-only='yes' id='2ca86b0d'/>
    <class-decl name='_jbyteArray' visibility='default' is-declaration-only='yes' id='1e7918a7'/>
    <class-decl name='_jcharArray' visibility='default' is-declaration-only='yes' id='eeed1f5d'/>
    <class-decl name='_jclass' visibility='default' is-declaration-only='yes' id='e53ab91c'/>
    <class-decl name='_jdoubleArray' visibility='default' is-declaration-only='yes' id='530c1a32'/>
    <class-decl name='_jfloatArray' visibility='default' is-declaration-only='yes' id='a87003ef'/>
    <class-decl name='_jintArray' visibility='default' is-declaration-only='yes' id='b0749e8e'/>
    <class-decl name='_jlongArray' visibility='default' is-declaration-only='yes' id='fb46a283'/>
    <class-decl name='_jobjectArray' visibility='default' is-declaration-only='yes' id='fdf9f098'/>
    <class-decl name='_jshortArray' visibility='default' is-declaration-only='yes' id='30a4d497'/>
    <class-decl name='_jstring' visibility='default' is-declaration-only='yes' id='ae6a1c55'/>
    <class-decl name='_jthrowable' visibility='default' is-declaration-only='yes' id='07f10124'/>
    <qualified-type-def type-id='05502b73' const='yes' id='bc0ea392'/>
    <pointer-type-def type-id='bc0ea392' size-in-bits='32' id='c30bbaa8'/>
    <qualified-type-def type-id='c30bbaa8' const='yes' id='e941ec7b'/>
    <reference-type-def kind='lvalue' type-id='e941ec7b' size-in-bits='32' id='8fc71667'/>
    <pointer-type-def type-id='e941ec7b' size-in-bits='32' id='83c70383'/>
    <reference-type-def kind='lvalue' type-id='c30bbaa8' size-in-bits='32' id='9976ad8a'/>
    <pointer-type-def type-id='c30bbaa8' size-in-bits='32' id='8d769aa6'/>
    <qualified-type-def type-id='8d769aa6' const='yes' id='e7ebc359'/>
    <reference-type-def kind='lvalue' type-id='e7ebc359' size-in-bits='32' id='9724c0ed'/>
    <reference-type-def kind='lvalue' type-id='8d769aa6' size-in-bits='32' id='31b53780'/>
    <qualified-type-def type-id='88bb28ef' const='yes' id='708139f2'/>
    <reference-type-def kind='lvalue' type-id='708139f2' size-in-bits='32' id='ef6e08bc'/>
    <pointer-type-def type-id='708139f2' size-in-bits='32' id='f36e0f08'/>
    <qualified-type-def type-id='2b69792d' const='yes' id='f737af48'/>
    <reference-type-def kind='lvalue' type-id='f737af48' size-in-bits='32' id='9aa92a2a'/>
    <qualified-type-def type-id='61a43bb9' const='yes' id='99894634'/>
    <reference-type-def kind='lvalue' type-id='99894634' size-in-bits='32' id='c5194e56'/>
    <pointer-type-def type-id='99894634' size-in-bits='32' id='d119613a'/>
    <qualified-type-def type-id='d5288ede' const='yes' id='18c30a77'/>
    <pointer-type-def type-id='18c30a77' size-in-bits='32' id='58095067'/>
    <qualified-type-def type-id='c1dbcc1f' const='yes' id='c76c9474'/>
    <pointer-type-def type-id='c76c9474' size-in-bits='32' id='4ded8ffa'/>
    <qualified-type-def type-id='7fd3de76' const='yes' id='edda3635'/>
    <pointer-type-def type-id='edda3635' size-in-bits='32' id='8d8332cd'/>
    <qualified-type-def type-id='90ba7532' const='yes' id='8a82e18f'/>
    <pointer-type-def type-id='8a82e18f' size-in-bits='32' id='b10936bf'/>
    <qualified-type-def type-id='b10936bf' const='yes' id='81b89a4c'/>
    <qualified-type-def type-id='aa001fba' const='yes' id='1a672873'/>
    <pointer-type-def type-id='1a672873' size-in-bits='32' id='e964841b'/>
    <qualified-type-def type-id='86634f01' const='yes' id='5d1a6276'/>
    <pointer-type-def type-id='5d1a6276' size-in-bits='32' id='ec88d6d4'/>
    <qualified-type-def type-id='0994533b' const='yes' id='a981db8b'/>
    <pointer-type-def type-id='a981db8b' size-in-bits='32' id='786cbe73'/>
    <qualified-type-def type-id='783dcbfa' const='yes' id='c909ecac'/>
    <reference-type-def kind='lvalue' type-id='c909ecac' size-in-bits='32' id='049f5d3e'/>
    <qualified-type-def type-id='75cb783b' const='yes' id='d386a90e'/>
    <reference-type-def kind='lvalue' type-id='d386a90e' size-in-bits='32' id='26fc4d20'/>
    <qualified-type-def type-id='080ca977' const='yes' id='47f8169a'/>
    <reference-type-def kind='lvalue' type-id='47f8169a' size-in-bits='32' id='fd8bba3c'/>
    <qualified-type-def type-id='dd7f74c0' const='yes' id='d386a90f'/>
    <reference-type-def kind='lvalue' type-id='d386a90f' size-in-bits='32' id='26fc4d21'/>
    <qualified-type-def type-id='8bef0de9' const='yes' id='d386a910'/>
    <reference-type-def kind='lvalue' type-id='d386a910' size-in-bits='32' id='26fc4d22'/>
    <qualified-type-def type-id='bc902aeb' const='yes' id='64016f24'/>
    <reference-type-def kind='lvalue' type-id='64016f24' size-in-bits='32' id='7041c026'/>
    <pointer-type-def type-id='64016f24' size-in-bits='32' id='7c41d30a'/>
    <qualified-type-def type-id='20a793a2' const='yes' id='d986cfad'/>
    <reference-type-def kind='lvalue' type-id='d986cfad' size-in-bits='32' id='fa38b7d1'/>
    <pointer-type-def type-id='d986cfad' size-in-bits='32' id='f638b185'/>
    <qualified-type-def type-id='4b7d2285' const='yes' id='f2ba7f4a'/>
    <reference-type-def kind='lvalue' type-id='f2ba7f4a' size-in-bits='32' id='87969704'/>
    <pointer-type-def type-id='f2ba7f4a' size-in-bits='32' id='7b968420'/>
    <qualified-type-def type-id='62aa33b1' const='yes' id='d386a911'/>
    <reference-type-def kind='lvalue' type-id='d386a911' size-in-bits='32' id='26fc4d23'/>
    <qualified-type-def type-id='9a111c97' const='yes' id='d386a912'/>
    <reference-type-def kind='lvalue' type-id='d386a912' size-in-bits='32' id='26fc4d24'/>
    <qualified-type-def type-id='7c84f63b' const='yes' id='d386a913'/>
    <reference-type-def kind='lvalue' type-id='d386a913' size-in-bits='32' id='26fc4d25'/>
    <qualified-type-def type-id='874fd690' const='yes' id='97b7164d'/>
    <reference-type-def kind='lvalue' type-id='97b7164d' size-in-bits='32' id='40384a71'/>
    <pointer-type-def type-id='97b7164d' size-in-bits='32' id='3c384425'/>
    <qualified-type-def type-id='ee02cccf' const='yes' id='ada16e66'/>
    <reference-type-def kind='lvalue' type-id='ada16e66' size-in-bits='32' id='95208ec0'/>
    <pointer-type-def type-id='ada16e66' size-in-bits='32' id='a120a1a4'/>
    <qualified-type-def type-id='c5316456' const='yes' id='b2500fff'/>
    <reference-type-def kind='lvalue' type-id='b2500fff' size-in-bits='32' id='8d08f29b'/>
    <pointer-type-def type-id='b2500fff' size-in-bits='32' id='8908ec4f'/>
    <qualified-type-def type-id='a89b660b' const='yes' id='2bf9e42b'/>
    <reference-type-def kind='lvalue' type-id='2bf9e42b' size-in-bits='32' id='3d61f0bf'/>
    <qualified-type-def type-id='d427336c' const='yes' id='3656e150'/>
    <reference-type-def kind='lvalue' type-id='3656e150' size-in-bits='32' id='a2c458d8'/>
    <qualified-type-def type-id='736afeaf' const='yes' id='2bf9e42c'/>
    <reference-type-def kind='lvalue' type-id='2bf9e42c' size-in-bits='32' id='3d61f0c0'/>
    <qualified-type-def type-id='ce0517a0' const='yes' id='3656e151'/>
    <reference-type-def kind='lvalue' type-id='3656e151' size-in-bits='32' id='a2c458d9'/>
    <qualified-type-def type-id='8be1d5db' const='yes' id='2bf9e42d'/>
    <reference-type-def kind='lvalue' type-id='2bf9e42d' size-in-bits='32' id='3d61f0c1'/>
    <qualified-type-def type-id='32ca3ebc' const='yes' id='3656e152'/>
    <reference-type-def kind='lvalue' type-id='3656e152' size-in-bits='32' id='a2c458da'/>
    <qualified-type-def type-id='27619c1f' const='yes' id='c3332543'/>
    <reference-type-def kind='lvalue' type-id='c3332543' size-in-bits='32' id='ae83ddff'/>
    <pointer-type-def type-id='c3332543' size-in-bits='32' id='b283e44b'/>
    <qualified-type-def type-id='08084680' const='yes' id='e28bbd7b'/>
    <reference-type-def kind='lvalue' type-id='e28bbd7b' size-in-bits='32' id='fefb1967'/>
    <pointer-type-def type-id='e28bbd7b' size-in-bits='32' id='f2fb0683'/>
    <qualified-type-def type-id='feedc99f' const='yes' id='6d0b86cc'/>
    <reference-type-def kind='lvalue' type-id='6d0b86cc' size-in-bits='32' id='9325625e'/>
    <pointer-type-def type-id='6d0b86cc' size-in-bits='32' id='8f255c12'/>
    <qualified-type-def type-id='4616b4c6' const='yes' id='da3ad709'/>
    <reference-type-def kind='lvalue' type-id='da3ad709' size-in-bits='32' id='b9a0befd'/>
    <pointer-type-def type-id='da3ad709' size-in-bits='32' id='ada0ac19'/>
    <qualified-type-def type-id='2e84cb7e' const='yes' id='17a746bf'/>
    <reference-type-def kind='lvalue' type-id='17a746bf' size-in-bits='32' id='d7542601'/>
    <qualified-type-def type-id='e27647d9' const='yes' id='47f8169b'/>
    <reference-type-def kind='lvalue' type-id='47f8169b' size-in-bits='32' id='fd8bba3d'/>
    <qualified-type-def type-id='007369c7' const='yes' id='00cfccd0'/>
    <reference-type-def kind='lvalue' type-id='00cfccd0' size-in-bits='32' id='3d1fa742'/>
    <qualified-type-def type-id='d0a883ff' const='yes' id='3656e153'/>
    <reference-type-def kind='lvalue' type-id='3656e153' size-in-bits='32' id='a2c458db'/>
    <qualified-type-def type-id='6d8d3705' const='yes' id='00cfccd1'/>
    <reference-type-def kind='lvalue' type-id='00cfccd1' size-in-bits='32' id='3d1fa743'/>
    <qualified-type-def type-id='75c976b5' const='yes' id='3656e154'/>
    <reference-type-def kind='lvalue' type-id='3656e154' size-in-bits='32' id='a2c458dc'/>
    <qualified-type-def type-id='18146def' const='yes' id='00cfccd2'/>
    <reference-type-def kind='lvalue' type-id='00cfccd2' size-in-bits='32' id='3d1fa744'/>
    <qualified-type-def type-id='2a3083f7' const='yes' id='3656e155'/>
    <reference-type-def kind='lvalue' type-id='3656e155' size-in-bits='32' id='a2c458dd'/>
    <qualified-type-def type-id='3ed2f0f0' const='yes' id='3656e156'/>
    <reference-type-def kind='lvalue' type-id='3656e156' size-in-bits='32' id='a2c458de'/>
    <pointer-type-def type-id='3656e156' size-in-bits='32' id='9ec45286'/>
    <qualified-type-def type-id='22d29ea4' const='yes' id='3656e157'/>
    <reference-type-def kind='lvalue' type-id='3656e157' size-in-bits='32' id='a2c458df'/>
    <pointer-type-def type-id='3656e157' size-in-bits='32' id='9ec45287'/>
    <qualified-type-def type-id='903476f0' const='yes' id='3656e158'/>
    <reference-type-def kind='lvalue' type-id='3656e158' size-in-bits='32' id='a2c458e0'/>
    <pointer-type-def type-id='3656e158' size-in-bits='32' id='9ec45288'/>
    <qualified-type-def type-id='814fe063' const='yes' id='d585e4c6'/>
    <namespace-decl name='android'>
      <class-decl name='AssetManager2' visibility='default' size-in-bits='3392' filepath='frameworks/base/libs/androidfw/include/androidfw/AssetManager2.h' line='79' column='1' hash='bc4ec11cbc16a722' id='7c0ac937'>
        <member-type access='private'>
          <class-decl name='ConfiguredPackage' is-struct='yes' visibility='default' size-in-bits='736' filepath='frameworks/base/libs/androidfw/include/androidfw/AssetManager2.h' line='325' column='1' hash='4de123591618904a' id='01b8bd0d'>
            <data-member access='public' layout-offset-in-bits='0'>
              <var-decl name='loaded_package_' type-id='de64cf08' visibility='default' filepath='frameworks/base/libs/androidfw/include/androidfw/AssetManager2.h' line='327' column='1'/>
            </data-member>
            <data-member access='public' layout-offset-in-bits='32'>
              <var-decl name='filtered_configs_' type-id='9337857f' visibility='default' filepath='frameworks/base/libs/androidfw/include/androidfw/AssetManager2.h' line='332' column='1'/>
            </data-member>
          </class-decl>
        </member-type>
        <member-type access='private'>
          <class-decl name='FilteredConfigGroup' is-struct='yes' visibility='default' size-in-bits='192' filepath='frameworks/base/libs/androidfw/include/androidfw/AssetManager2.h' line='319' column='1' hash='81503f8b70237396' id='238d5c19'>
            <data-member access='public' layout-offset-in-bits='0'>
              <var-decl name='configurations' type-id='2b166553' visibility='default' filepath='frameworks/base/libs/androidfw/include/androidfw/AssetManager2.h' line='320' column='1'/>
            </data-member>
            <data-member access='public' layout-offset-in-bits='96'>
              <var-decl name='types' type-id='94c4b137' visibility='default' filepath='frameworks/base/libs/androidfw/include/androidfw/AssetManager2.h' line='321' column='1'/>
            </data-member>
          </class-decl>
        </member-type>
        <member-type access='private'>
          <class-decl name='PackageGroup' is-struct='yes' visibility='default' size-in-bits='2464' filepath='frameworks/base/libs/androidfw/include/androidfw/AssetManager2.h' line='337' column='1' hash='592fd3bea8cbfdd0' id='1bec9f14'>
            <data-member access='public' layout-offset-in-bits='0'>
              <var-decl name='packages_' type-id='a5320295' visibility='default' filepath='frameworks/base/libs/androidfw/include/androidfw/AssetManager2.h' line='339' column='1'/>
            </data-member>
            <data-member access='public' layout-offset-in-bits='96'>
              <var-decl name='cookies_' type-id='21156a1f' visibility='default' filepath='frameworks/base/libs/androidfw/include/androidfw/AssetManager2.h' line='343' column='1'/>
            </data-member>
            <data-member access='public' layout-offset-in-bits='192'>
              <var-decl name='dynamic_ref_table' type-id='aaa6ccca' visibility='default' filepath='frameworks/base/libs/androidfw/include/androidfw/AssetManager2.h' line='346' column='1'/>
            </data-member>
          </class-decl>
        </member-type>
        <member-type access='private'>
          <class-decl name='Resolution' is-struct='yes' visibility='default' size-in-bits='288' filepath='frameworks/base/libs/androidfw/include/androidfw/AssetManager2.h' line='374' column='1' hash='f819e5572076344f' id='809a5d55'>
            <member-type access='public'>
              <class-decl name='Step' is-struct='yes' visibility='default' is-declaration-only='yes' id='88bb28ef'/>
            </member-type>
            <data-member access='public' layout-offset-in-bits='0'>
              <var-decl name='resid' type-id='8f92235e' visibility='default' filepath='frameworks/base/libs/androidfw/include/androidfw/AssetManager2.h' line='395' column='1'/>
            </data-member>
            <data-member access='public' layout-offset-in-bits='32'>
              <var-decl name='cookie' type-id='27450c90' visibility='default' filepath='frameworks/base/libs/androidfw/include/androidfw/AssetManager2.h' line='398' column='1'/>
            </data-member>
            <data-member access='public' layout-offset-in-bits='64'>
              <var-decl name='type_string_ref' type-id='90bf4c40' visibility='default' filepath='frameworks/base/libs/androidfw/include/androidfw/AssetManager2.h' line='401' column='1'/>
            </data-member>
            <data-member access='public' layout-offset-in-bits='128'>
              <var-decl name='entry_string_ref' type-id='90bf4c40' visibility='default' filepath='frameworks/base/libs/androidfw/include/androidfw/AssetManager2.h' line='404' column='1'/>
            </data-member>
            <data-member access='public' layout-offset-in-bits='192'>
              <var-decl name='steps' type-id='46ef0c57' visibility='default' filepath='frameworks/base/libs/androidfw/include/androidfw/AssetManager2.h' line='407' column='1'/>
            </data-member>
          </class-decl>
        </member-type>
        <member-type access='private'>
          <class-decl name='ResourceName' is-struct='yes' visibility='default' is-declaration-only='yes' id='eb3e39c8'/>
        </member-type>
        <data-member access='private' layout-offset-in-bits='0'>
          <var-decl name='apk_assets_' type-id='736f4e77' visibility='default' filepath='frameworks/base/libs/androidfw/include/androidfw/AssetManager2.h' line='315' column='1'/>
        </data-member>
        <data-member access='private' layout-offset-in-bits='96'>
          <var-decl name='package_groups_' type-id='1e763177' visibility='default' filepath='frameworks/base/libs/androidfw/include/androidfw/AssetManager2.h' line='353' column='1'/>
        </data-member>
        <data-member access='private' layout-offset-in-bits='192'>
          <var-decl name='package_ids_' type-id='155e8fd8' visibility='default' filepath='frameworks/base/libs/androidfw/include/androidfw/AssetManager2.h' line='357' column='1'/>
        </data-member>
        <data-member access='private' layout-offset-in-bits='2240'>
          <var-decl name='configuration_' type-id='f8926d95' visibility='default' filepath='frameworks/base/libs/androidfw/include/androidfw/AssetManager2.h' line='361' column='1'/>
        </data-member>
        <data-member access='private' layout-offset-in-bits='2752'>
          <var-decl name='cached_bags_' type-id='6a671eb0' visibility='default' filepath='frameworks/base/libs/androidfw/include/androidfw/AssetManager2.h' line='365' column='1'/>
        </data-member>
        <data-member access='private' layout-offset-in-bits='2912'>
          <var-decl name='cached_bag_resid_stacks_' type-id='6e9b5502' visibility='default' filepath='frameworks/base/libs/androidfw/include/androidfw/AssetManager2.h' line='369' column='1'/>
        </data-member>
        <data-member access='private' layout-offset-in-bits='3072'>
          <var-decl name='resource_resolution_logging_enabled_' type-id='c894953d' visibility='default' filepath='frameworks/base/libs/androidfw/include/androidfw/AssetManager2.h' line='372' column='1'/>
        </data-member>
        <data-member access='private' layout-offset-in-bits='3104'>
          <var-decl name='last_resolution' type-id='809a5d55' visibility='default' filepath='frameworks/base/libs/androidfw/include/androidfw/AssetManager2.h' line='411' column='1'/>
        </data-member>
        <member-function access='public' const='yes'>
          <function-decl name='Open' mangled-name='_ZNK7android13AssetManager24OpenERKNSt3__112basic_stringIcNS1_11char_traitsIcEENS1_9allocatorIcEEEENS_5Asset10AccessModeE' filepath='frameworks/base/libs/androidfw/include/androidfw/AssetManager2.h' line='161' column='1' visibility='default' binding='global' size-in-bits='32' hash='a11703cff602a6c5'>
            <parameter type-id='6ae43988' is-artificial='yes'/>
            <parameter type-id='d7542601'/>
            <parameter type-id='9cebe2ec'/>
            <return type-id='ac070eda'/>
          </function-decl>
        </member-function>
        <member-function access='public' const='yes'>
          <function-decl name='OpenDir' mangled-name='_ZNK7android13AssetManager27OpenDirERKNSt3__112basic_stringIcNS1_11char_traitsIcEENS1_9allocatorIcEEEE' filepath='frameworks/base/libs/androidfw/include/androidfw/AssetManager2.h' line='171' column='1' visibility='default' binding='global' size-in-bits='32' hash='28f93d42079c2801'>
            <parameter type-id='6ae43988' is-artificial='yes'/>
            <parameter type-id='d7542601'/>
            <return type-id='6a6c3f8a'/>
          </function-decl>
        </member-function>
      </class-decl>
      <class-decl name='ByteBucketArray&lt;android::AssetManager2::FilteredConfigGroup&gt;' visibility='default' size-in-bits='704' filepath='frameworks/base/libs/androidfw/include/androidfw/ByteBucketArray.h' line='32' column='1' hash='3854b4f8c64172c6' id='9337857f'>
        <data-member access='private' layout-offset-in-bits='0'>
          <var-decl name='buckets_' type-id='224e4514' visibility='default' filepath='frameworks/base/libs/androidfw/include/androidfw/ByteBucketArray.h' line='86' column='1'/>
        </data-member>
        <data-member access='private' layout-offset-in-bits='512'>
          <var-decl name='default_' type-id='238d5c19' visibility='default' filepath='frameworks/base/libs/androidfw/include/androidfw/ByteBucketArray.h' line='87' column='1'/>
        </data-member>
      </class-decl>
      <class-decl name='ByteBucketArray&lt;android::util::unique_cptr&lt;android::TypeSpec&gt; &gt;' visibility='default' size-in-bits='544' filepath='frameworks/base/libs/androidfw/include/androidfw/ByteBucketArray.h' line='32' column='1' hash='df08c2900007aba7' id='0eedf0a9'>
        <data-member access='private' layout-offset-in-bits='0'>
          <var-decl name='buckets_' type-id='98ae5868' visibility='default' filepath='frameworks/base/libs/androidfw/include/androidfw/ByteBucketArray.h' line='86' column='1'/>
        </data-member>
        <data-member access='private' layout-offset-in-bits='512'>
          <var-decl name='default_' type-id='3beaa405' visibility='default' filepath='frameworks/base/libs/androidfw/include/androidfw/ByteBucketArray.h' line='87' column='1'/>
        </data-member>
      </class-decl>
      <class-decl name='ByteBucketArray&lt;unsigned int&gt;' visibility='default' size-in-bits='544' filepath='frameworks/base/libs/androidfw/include/androidfw/ByteBucketArray.h' line='32' column='1' hash='a0560f04fa196d40' id='0c7d43ed'>
        <data-member access='private' layout-offset-in-bits='0'>
          <var-decl name='buckets_' type-id='ba25cd2e' visibility='default' filepath='frameworks/base/libs/androidfw/include/androidfw/ByteBucketArray.h' line='86' column='1'/>
        </data-member>
        <data-member access='private' layout-offset-in-bits='512'>
          <var-decl name='default_' type-id='f0981eed' visibility='default' filepath='frameworks/base/libs/androidfw/include/androidfw/ByteBucketArray.h' line='87' column='1'/>
        </data-member>
      </class-decl>
      <class-decl name='DynamicRefTable' visibility='default' size-in-bits='2272' filepath='frameworks/base/libs/androidfw/include/androidfw/ResourceTypes.h' line='1703' column='1' hash='5aaf4c8964371475' id='aaa6ccca'>
        <data-member access='private' layout-offset-in-bits='0'>
          <var-decl name='mAssignedPackageId' type-id='b96825af' visibility='default' filepath='frameworks/base/libs/androidfw/include/androidfw/ResourceTypes.h' line='1735' column='1'/>
        </data-member>
        <data-member access='private' layout-offset-in-bits='8'>
          <var-decl name='mLookupTable' type-id='62946659' visibility='default' filepath='frameworks/base/libs/androidfw/include/androidfw/ResourceTypes.h' line='1736' column='1'/>
        </data-member>
        <data-member access='private' layout-offset-in-bits='2080'>
          <var-decl name='mEntries' type-id='a1e4e0c1' visibility='default' filepath='frameworks/base/libs/androidfw/include/androidfw/ResourceTypes.h' line='1737' column='1'/>
        </data-member>
        <data-member access='private' layout-offset-in-bits='2240'>
          <var-decl name='mAppAsLib' type-id='c894953d' visibility='default' filepath='frameworks/base/libs/androidfw/include/androidfw/ResourceTypes.h' line='1738' column='1'/>
        </data-member>
      </class-decl>
      <class-decl name='Guarded&lt;android::AssetManager2&gt;' visibility='default' size-in-bits='3424' filepath='frameworks/base/libs/androidfw/include/androidfw/MutexGuard.h' line='46' column='1' hash='ab0f97ce49230d39' id='1ae556e8'>
        <data-member access='private' layout-offset-in-bits='0'>
          <var-decl name='lock_' type-id='199fc21a' visibility='default' filepath='frameworks/base/libs/androidfw/include/androidfw/MutexGuard.h' line='70' column='1'/>
        </data-member>
        <data-member access='private' layout-offset-in-bits='32'>
          <var-decl name='guarded_' type-id='7c0ac937' visibility='default' filepath='frameworks/base/libs/androidfw/include/androidfw/MutexGuard.h' line='71' column='1'/>
        </data-member>
      </class-decl>
      <class-decl name='KeyedVector&lt;android::String16, unsigned char&gt;' visibility='default' size-in-bits='160' filepath='system/core/libutils/include/utils/KeyedVector.h' line='36' column='1' hash='5029c6c51ae8ae08' id='a1e4e0c1'>
        <data-member access='private' layout-offset-in-bits='0'>
          <var-decl name='mVector' type-id='f285b2fe' visibility='default' filepath='system/core/libutils/include/utils/KeyedVector.h' line='98' column='1'/>
        </data-member>
      </class-decl>
      <class-decl name='LoadedPackage' visibility='default' size-in-bits='2400' filepath='frameworks/base/libs/androidfw/include/androidfw/LoadedArsc.h' line='87' column='1' hash='ade8ab9c18ce4dd0' id='e5242f33'>
        <member-type access='private'>
          <class-decl name='iterator' visibility='default' size-in-bits='128' filepath='frameworks/base/libs/androidfw/include/androidfw/LoadedArsc.h' line='89' column='1' hash='6117b4e63868cf01' id='83ab4f39'>
            <data-member access='private' layout-offset-in-bits='0'>
              <var-decl name='loadedPackage_' type-id='de64cf08' visibility='default' filepath='frameworks/base/libs/androidfw/include/androidfw/LoadedArsc.h' line='124' column='1'/>
            </data-member>
            <data-member access='private' layout-offset-in-bits='32'>
              <var-decl name='typeIndex_' type-id='b59d7dce' visibility='default' filepath='frameworks/base/libs/androidfw/include/androidfw/LoadedArsc.h' line='125' column='1'/>
            </data-member>
            <data-member access='private' layout-offset-in-bits='64'>
              <var-decl name='entryIndex_' type-id='b59d7dce' visibility='default' filepath='frameworks/base/libs/androidfw/include/androidfw/LoadedArsc.h' line='126' column='1'/>
            </data-member>
            <data-member access='private' layout-offset-in-bits='96'>
              <var-decl name='typeIndexEnd_' type-id='d0fa5dde' visibility='default' filepath='frameworks/base/libs/androidfw/include/androidfw/LoadedArsc.h' line='127' column='1'/>
            </data-member>
          </class-decl>
        </member-type>
        <data-member access='private' layout-offset-in-bits='0'>
          <var-decl name='type_string_pool_' type-id='081066a5' visibility='default' filepath='frameworks/base/libs/androidfw/include/androidfw/LoadedArsc.h' line='255' column='1'/>
        </data-member>
        <data-member access='private' layout-offset-in-bits='384'>
          <var-decl name='key_string_pool_' type-id='081066a5' visibility='default' filepath='frameworks/base/libs/androidfw/include/androidfw/LoadedArsc.h' line='256' column='1'/>
        </data-member>
        <data-member access='private' layout-offset-in-bits='768'>
          <var-decl name='package_name_' type-id='2e84cb7e' visibility='default' filepath='frameworks/base/libs/androidfw/include/androidfw/LoadedArsc.h' line='257' column='1'/>
        </data-member>
        <data-member access='private' layout-offset-in-bits='864'>
          <var-decl name='package_id_' type-id='95e97e5e' visibility='default' filepath='frameworks/base/libs/androidfw/include/androidfw/LoadedArsc.h' line='258' column='1'/>
        </data-member>
        <data-member access='private' layout-offset-in-bits='896'>
          <var-decl name='type_id_offset_' type-id='95e97e5e' visibility='default' filepath='frameworks/base/libs/androidfw/include/androidfw/LoadedArsc.h' line='259' column='1'/>
        </data-member>
        <data-member access='private' layout-offset-in-bits='928'>
          <var-decl name='dynamic_' type-id='c894953d' visibility='default' filepath='frameworks/base/libs/androidfw/include/androidfw/LoadedArsc.h' line='260' column='1'/>
        </data-member>
        <data-member access='private' layout-offset-in-bits='936'>
          <var-decl name='system_' type-id='c894953d' visibility='default' filepath='frameworks/base/libs/androidfw/include/androidfw/LoadedArsc.h' line='261' column='1'/>
        </data-member>
        <data-member access='private' layout-offset-in-bits='944'>
          <var-decl name='overlay_' type-id='c894953d' visibility='default' filepath='frameworks/base/libs/androidfw/include/androidfw/LoadedArsc.h' line='262' column='1'/>
        </data-member>
        <data-member access='private' layout-offset-in-bits='952'>
          <var-decl name='defines_overlayable_' type-id='c894953d' visibility='default' filepath='frameworks/base/libs/androidfw/include/androidfw/LoadedArsc.h' line='263' column='1'/>
        </data-member>
        <data-member access='private' layout-offset-in-bits='960'>
          <var-decl name='type_specs_' type-id='0eedf0a9' visibility='default' filepath='frameworks/base/libs/androidfw/include/androidfw/LoadedArsc.h' line='265' column='1'/>
        </data-member>
        <data-member access='private' layout-offset-in-bits='1504'>
          <var-decl name='resource_ids_' type-id='0c7d43ed' visibility='default' filepath='frameworks/base/libs/androidfw/include/androidfw/LoadedArsc.h' line='266' column='1'/>
        </data-member>
        <data-member access='private' layout-offset-in-bits='2048'>
          <var-decl name='dynamic_package_map_' type-id='ba2611f3' visibility='default' filepath='frameworks/base/libs/androidfw/include/androidfw/LoadedArsc.h' line='267' column='1'/>
        </data-member>
        <data-member access='private' layout-offset-in-bits='2144'>
          <var-decl name='overlayable_infos_' type-id='e3e687ed' visibility='default' filepath='frameworks/base/libs/androidfw/include/androidfw/LoadedArsc.h' line='268' column='1'/>
        </data-member>
        <data-member access='private' layout-offset-in-bits='2240'>
          <var-decl name='overlayable_map_' type-id='56b14eae' visibility='default' filepath='frameworks/base/libs/androidfw/include/androidfw/LoadedArsc.h' line='269' column='1'/>
        </data-member>
      </class-decl>
      <class-decl name='Mutex' visibility='default' size-in-bits='32' filepath='system/core/libutils/include/utils/Mutex.h' line='94' column='1' hash='3eae38467ce34657' id='406f4753'>
        <member-type access='private'>
          <class-decl name='Autolock' visibility='default' size-in-bits='32' filepath='system/core/libutils/include/utils/Mutex.h' line='130' column='1' hash='4c750500999e6938' id='fd376fcf'>
            <data-member access='private' layout-offset-in-bits='0'>
              <var-decl name='mLock' type-id='665e3247' visibility='default' filepath='system/core/libutils/include/utils/Mutex.h' line='137' column='1'/>
            </data-member>
          </class-decl>
        </member-type>
        <data-member access='private' layout-offset-in-bits='0'>
          <var-decl name='mMutex' type-id='7a6844eb' visibility='default' filepath='system/core/libutils/include/utils/Mutex.h' line='151' column='1'/>
        </data-member>
      </class-decl>
      <class-decl name='ResStringPool' visibility='default' size-in-bits='384' filepath='frameworks/base/libs/androidfw/include/androidfw/ResourceTypes.h' line='490' column='1' hash='ccc7897b5c1653d9' id='081066a5'>
        <data-member access='private' layout-offset-in-bits='0'>
          <var-decl name='mError' type-id='6e9756f6' visibility='default' filepath='frameworks/base/libs/androidfw/include/androidfw/ResourceTypes.h' line='531' column='1'/>
        </data-member>
        <data-member access='private' layout-offset-in-bits='32'>
          <var-decl name='mOwnedData' type-id='eaa32e2f' visibility='default' filepath='frameworks/base/libs/androidfw/include/androidfw/ResourceTypes.h' line='532' column='1'/>
        </data-member>
        <data-member access='private' layout-offset-in-bits='64'>
          <var-decl name='mHeader' type-id='4ded8ffa' visibility='default' filepath='frameworks/base/libs/androidfw/include/androidfw/ResourceTypes.h' line='533' column='1'/>
        </data-member>
        <data-member access='private' layout-offset-in-bits='96'>
          <var-decl name='mSize' type-id='b59d7dce' visibility='default' filepath='frameworks/base/libs/androidfw/include/androidfw/ResourceTypes.h' line='534' column='1'/>
        </data-member>
        <data-member access='private' layout-offset-in-bits='128'>
          <var-decl name='mDecodeLock' type-id='406f4753' visibility='default' filepath='frameworks/base/libs/androidfw/include/androidfw/ResourceTypes.h' line='535' column='1'/>
        </data-member>
        <data-member access='private' layout-offset-in-bits='160'>
          <var-decl name='mEntries' type-id='a6798dcc' visibility='default' filepath='frameworks/base/libs/androidfw/include/androidfw/ResourceTypes.h' line='536' column='1'/>
        </data-member>
        <data-member access='private' layout-offset-in-bits='192'>
          <var-decl name='mEntryStyles' type-id='a6798dcc' visibility='default' filepath='frameworks/base/libs/androidfw/include/androidfw/ResourceTypes.h' line='537' column='1'/>
        </data-member>
        <data-member access='private' layout-offset-in-bits='224'>
          <var-decl name='mStrings' type-id='eaa32e2f' visibility='default' filepath='frameworks/base/libs/androidfw/include/androidfw/ResourceTypes.h' line='538' column='1'/>
        </data-member>
        <data-member access='private' layout-offset-in-bits='256'>
          <var-decl name='mCache' type-id='0185cb3d' visibility='default' filepath='frameworks/base/libs/androidfw/include/androidfw/ResourceTypes.h' line='539' column='1'/>
        </data-member>
        <data-member access='private' layout-offset-in-bits='288'>
          <var-decl name='mStringPoolSize' type-id='8f92235e' visibility='default' filepath='frameworks/base/libs/androidfw/include/androidfw/ResourceTypes.h' line='540' column='1'/>
        </data-member>
        <data-member access='private' layout-offset-in-bits='320'>
          <var-decl name='mStyles' type-id='a6798dcc' visibility='default' filepath='frameworks/base/libs/androidfw/include/androidfw/ResourceTypes.h' line='541' column='1'/>
        </data-member>
        <data-member access='private' layout-offset-in-bits='352'>
          <var-decl name='mStylePoolSize' type-id='8f92235e' visibility='default' filepath='frameworks/base/libs/androidfw/include/androidfw/ResourceTypes.h' line='542' column='1'/>
        </data-member>
      </class-decl>
      <class-decl name='ScopedLock&lt;android::AssetManager2&gt;' visibility='default' size-in-bits='64' filepath='frameworks/base/libs/androidfw/include/androidfw/MutexGuard.h' line='75' column='1' hash='d4bfb56f5f927234' id='0bab9a0f'>
        <data-member access='private' layout-offset-in-bits='0'>
          <var-decl name='lock_' type-id='33591497' visibility='default' filepath='frameworks/base/libs/androidfw/include/androidfw/MutexGuard.h' line='95' column='1'/>
        </data-member>
        <data-member access='private' layout-offset-in-bits='32'>
          <var-decl name='guarded_' type-id='439855fb' visibility='default' filepath='frameworks/base/libs/androidfw/include/androidfw/MutexGuard.h' line='96' column='1'/>
        </data-member>
      </class-decl>
      <class-decl name='String16' visibility='default' size-in-bits='32' filepath='system/core/libutils/include/utils/String16.h' line='39' column='1' hash='0ae223d61ce1a1e4' id='c73fabea'>
        <member-type access='private'>
          <class-decl name='StaticData&lt;35&gt;' is-struct='yes' visibility='default' size-in-bits='608' filepath='system/core/libutils/include/utils/String16.h' line='154' column='1' hash='ee13564bc5405b77' id='6807f016'>
            <data-member access='public' layout-offset-in-bits='0'>
              <var-decl name='size' type-id='b9930aae' visibility='default' filepath='system/core/libutils/include/utils/String16.h' line='158' column='1'/>
            </data-member>
            <data-member access='public' layout-offset-in-bits='32'>
              <var-decl name='data' type-id='5da7196d' visibility='default' filepath='system/core/libutils/include/utils/String16.h' line='159' column='1'/>
            </data-member>
          </class-decl>
        </member-type>
        <member-type access='private'>
          <class-decl name='StaticData&lt;38&gt;' is-struct='yes' visibility='default' size-in-bits='640' filepath='system/core/libutils/include/utils/String16.h' line='154' column='1' hash='a56cacb1f4c690f5' id='6a14bf2f'>
            <data-member access='public' layout-offset-in-bits='0'>
              <var-decl name='size' type-id='b9930aae' visibility='default' filepath='system/core/libutils/include/utils/String16.h' line='158' column='1'/>
            </data-member>
            <data-member access='public' layout-offset-in-bits='32'>
              <var-decl name='data' type-id='19b37a54' visibility='default' filepath='system/core/libutils/include/utils/String16.h' line='159' column='1'/>
            </data-member>
          </class-decl>
        </member-type>
        <data-member access='private' layout-offset-in-bits='0'>
          <var-decl name='mString' type-id='161c039a' visibility='default' filepath='system/core/libutils/include/utils/String16.h' line='142' column='1'/>
        </data-member>
        <member-function access='public' const='yes'>
          <function-decl name='size' mangled-name='_ZNK7android8String164sizeEv' filepath='system/core/libutils/include/utils/String16.h' line='60' column='1' visibility='default' binding='global' size-in-bits='32' hash='9d519c215ecaff9e'>
            <parameter type-id='197d55e1' is-artificial='yes'/>
            <return type-id='b59d7dce'/>
          </function-decl>
        </member-function>
        <member-function access='public'>
          <function-decl name='setTo' mangled-name='_ZN7android8String165setToERKS0_' filepath='system/core/libutils/include/utils/String16.h' line='61' column='1' visibility='default' binding='global' size-in-bits='32' hash='0f2942b388595d26'>
            <parameter type-id='26924198' is-artificial='yes'/>
            <parameter type-id='157d4f95'/>
            <return type-id='48b5725f'/>
          </function-decl>
        </member-function>
      </class-decl>
      <class-decl name='String8' visibility='default' size-in-bits='32' filepath='system/core/libutils/include/utils/String8.h' line='40' column='1' hash='5c01f8a0247a5290' id='bacf3393'>
        <data-member access='private' layout-offset-in-bits='0'>
          <var-decl name='mString' type-id='80f4b756' visibility='default' filepath='system/core/libutils/include/utils/String8.h' line='229' column='1'/>
        </data-member>
        <member-function access='public'>
          <function-decl name='setTo' mangled-name='_ZN7android7String85setToERKS0_' filepath='system/core/libutils/include/utils/String8.h' line='75' column='1' visibility='default' binding='global' size-in-bits='32' hash='b993caa5b979f532'>
            <parameter type-id='1ab09733' is-artificial='yes'/>
            <parameter type-id='a1b8f99c'/>
            <return type-id='48b5725f'/>
          </function-decl>
        </member-function>
      </class-decl>
      <class-decl name='StringPoolRef' visibility='default' size-in-bits='64' filepath='frameworks/base/libs/androidfw/include/androidfw/ResourceTypes.h' line='552' column='1' hash='14bf4f1b63ed0b3d' id='90bf4c40'>
        <data-member access='private' layout-offset-in-bits='0'>
          <var-decl name='mPool' type-id='5b283e7a' visibility='default' filepath='frameworks/base/libs/androidfw/include/androidfw/ResourceTypes.h' line='561' column='1'/>
        </data-member>
        <data-member access='private' layout-offset-in-bits='32'>
          <var-decl name='mIndex' type-id='8f92235e' visibility='default' filepath='frameworks/base/libs/androidfw/include/androidfw/ResourceTypes.h' line='562' column='1'/>
        </data-member>
      </class-decl>
      <enum-decl name='FileType' size-in-bits='32' alignment-in-bits='32' filepath='frameworks/base/libs/androidfw/include/androidfw/misc.h' line='31' column='1' hash='e30eff80461c0e1c' id='448c3001'>
        <underlying-type type-id='9cac1fee'/>
        <enumerator name='kFileTypeUnknown' value='0'/>
        <enumerator name='kFileTypeNonexistent' value='1'/>
        <enumerator name='kFileTypeRegular' value='2'/>
        <enumerator name='kFileTypeDirectory' value='3'/>
        <enumerator name='kFileTypeCharDev' value='4'/>
        <enumerator name='kFileTypeBlockDev' value='5'/>
        <enumerator name='kFileTypeFifo' value='6'/>
        <enumerator name='kFileTypeSymlink' value='7'/>
        <enumerator name='kFileTypeSocket' value='8'/>
      </enum-decl>
      <class-decl name='IdmapEntry_header' is-struct='yes' visibility='default' size-in-bits='64' filepath='frameworks/base/libs/androidfw/include/androidfw/ResourceTypes.h' line='1685' column='1' hash='61b25cf9291cb4c7' id='4a84961d'>
        <data-member access='public' layout-offset-in-bits='0'>
          <var-decl name='target_type_id' type-id='149c6638' visibility='default' filepath='frameworks/base/libs/androidfw/include/androidfw/ResourceTypes.h' line='1686' column='1'/>
        </data-member>
        <data-member access='public' layout-offset-in-bits='16'>
          <var-decl name='overlay_type_id' type-id='149c6638' visibility='default' filepath='frameworks/base/libs/androidfw/include/androidfw/ResourceTypes.h' line='1687' column='1'/>
        </data-member>
        <data-member access='public' layout-offset-in-bits='32'>
          <var-decl name='entry_count' type-id='149c6638' visibility='default' filepath='frameworks/base/libs/androidfw/include/androidfw/ResourceTypes.h' line='1688' column='1'/>
        </data-member>
        <data-member access='public' layout-offset-in-bits='48'>
          <var-decl name='entry_id_offset' type-id='149c6638' visibility='default' filepath='frameworks/base/libs/androidfw/include/androidfw/ResourceTypes.h' line='1689' column='1'/>
        </data-member>
        <data-member access='public' layout-offset-in-bits='64'>
          <var-decl name='entries' type-id='1e7b9b2b' visibility='default' filepath='frameworks/base/libs/androidfw/include/androidfw/ResourceTypes.h' line='1690' column='1'/>
        </data-member>
      </class-decl>
      <class-decl name='OverlayableInfo' is-struct='yes' visibility='default' size-in-bits='224' filepath='frameworks/base/libs/androidfw/include/androidfw/LoadedArsc.h' line='81' column='1' hash='0fd323febc739dc3' id='5da8e894'>
        <data-member access='public' layout-offset-in-bits='0'>
          <var-decl name='name' type-id='2e84cb7e' visibility='default' filepath='frameworks/base/libs/androidfw/include/androidfw/LoadedArsc.h' line='82' column='1'/>
        </data-member>
        <data-member access='public' layout-offset-in-bits='96'>
          <var-decl name='actor' type-id='2e84cb7e' visibility='default' filepath='frameworks/base/libs/androidfw/include/androidfw/LoadedArsc.h' line='83' column='1'/>
        </data-member>
        <data-member access='public' layout-offset-in-bits='192'>
          <var-decl name='policy_flags' type-id='8f92235e' visibility='default' filepath='frameworks/base/libs/androidfw/include/androidfw/LoadedArsc.h' line='84' column='1'/>
        </data-member>
      </class-decl>
      <class-decl name='ResChunk_header' is-struct='yes' visibility='default' size-in-bits='64' filepath='frameworks/base/libs/androidfw/include/androidfw/ResourceTypes.h' line='196' column='1' hash='157d384fe6b3a0fd' id='ae92d409'>
        <data-member access='public' layout-offset-in-bits='0'>
          <var-decl name='type' type-id='149c6638' visibility='default' filepath='frameworks/base/libs/androidfw/include/androidfw/ResourceTypes.h' line='200' column='1'/>
        </data-member>
        <data-member access='public' layout-offset-in-bits='16'>
          <var-decl name='headerSize' type-id='149c6638' visibility='default' filepath='frameworks/base/libs/androidfw/include/androidfw/ResourceTypes.h' line='205' column='1'/>
        </data-member>
        <data-member access='public' layout-offset-in-bits='32'>
          <var-decl name='size' type-id='8f92235e' visibility='default' filepath='frameworks/base/libs/androidfw/include/androidfw/ResourceTypes.h' line='212' column='1'/>
        </data-member>
      </class-decl>
      <class-decl name='ResStringPool_ref' is-struct='yes' visibility='default' size-in-bits='32' filepath='frameworks/base/libs/androidfw/include/androidfw/ResourceTypes.h' line='407' column='1' hash='96bbb11e10878a75' id='1ccfdeff'>
        <data-member access='public' layout-offset-in-bits='0'>
          <var-decl name='index' type-id='8f92235e' visibility='default' filepath='frameworks/base/libs/androidfw/include/androidfw/ResourceTypes.h' line='412' column='1'/>
        </data-member>
      </class-decl>
      <class-decl name='ResTable_config' is-struct='yes' visibility='default' size-in-bits='512' filepath='frameworks/base/libs/androidfw/include/androidfw/ResourceTypes.h' line='920' column='1' hash='3a058b6eaf6db82c' id='f8926d95'>
        <member-type access='public'>
          <enum-decl name='__anonymous_enum__' size-in-bits='32' alignment-in-bits='32' is-anonymous='yes' filepath='frameworks/base/libs/androidfw/include/androidfw/ResourceTypes.h' line='1029' column='1' hash='9f45527d36586ab3' id='08f5ca17'>
            <underlying-type type-id='9cac1fee'/>
            <enumerator name='MASK_KEYSHIDDEN' value='3'/>
            <enumerator name='KEYSHIDDEN_ANY' value='0'/>
            <enumerator name='KEYSHIDDEN_NO' value='1'/>
            <enumerator name='KEYSHIDDEN_YES' value='2'/>
            <enumerator name='KEYSHIDDEN_SOFT' value='3'/>
          </enum-decl>
        </member-type>
        <member-type access='public'>
          <enum-decl name='__anonymous_enum__2' size-in-bits='32' alignment-in-bits='32' is-anonymous='yes' filepath='frameworks/base/libs/androidfw/include/androidfw/ResourceTypes.h' line='1089' column='1' hash='0c21cbe0eaef9cc2#2' id='08f5ca18'>
            <underlying-type type-id='9cac1fee'/>
            <enumerator name='MASK_SCREENSIZE' value='15'/>
            <enumerator name='SCREENSIZE_ANY' value='0'/>
            <enumerator name='SCREENSIZE_SMALL' value='1'/>
            <enumerator name='SCREENSIZE_NORMAL' value='2'/>
            <enumerator name='SCREENSIZE_LARGE' value='3'/>
            <enumerator name='SCREENSIZE_XLARGE' value='4'/>
            <enumerator name='MASK_SCREENLONG' value='48'/>
            <enumerator name='SHIFT_SCREENLONG' value='4'/>
            <enumerator name='SCREENLONG_ANY' value='0'/>
            <enumerator name='SCREENLONG_NO' value='16'/>
            <enumerator name='SCREENLONG_YES' value='32'/>
            <enumerator name='MASK_LAYOUTDIR' value='192'/>
            <enumerator name='SHIFT_LAYOUTDIR' value='6'/>
            <enumerator name='LAYOUTDIR_ANY' value='0'/>
            <enumerator name='LAYOUTDIR_LTR' value='64'/>
            <enumerator name='LAYOUTDIR_RTL' value='128'/>
          </enum-decl>
        </member-type>
        <member-type access='public'>
          <enum-decl name='__anonymous_enum__1' size-in-bits='32' alignment-in-bits='32' is-anonymous='yes' filepath='frameworks/base/libs/androidfw/include/androidfw/ResourceTypes.h' line='1037' column='1' hash='fc3958e7b45a0ee2#3' id='08f5ca19'>
            <underlying-type type-id='9cac1fee'/>
            <enumerator name='MASK_NAVHIDDEN' value='12'/>
            <enumerator name='SHIFT_NAVHIDDEN' value='2'/>
            <enumerator name='NAVHIDDEN_ANY' value='0'/>
            <enumerator name='NAVHIDDEN_NO' value='4'/>
            <enumerator name='NAVHIDDEN_YES' value='8'/>
          </enum-decl>
        </member-type>
        <member-type access='public'>
          <enum-decl name='__anonymous_enum__3' size-in-bits='32' alignment-in-bits='32' is-anonymous='yes' filepath='frameworks/base/libs/androidfw/include/androidfw/ResourceTypes.h' line='1159' column='1' hash='0fbc4abcf4c6ca61#4' id='08f5ca1a'>
            <underlying-type type-id='9cac1fee'/>
            <enumerator name='MASK_SCREENROUND' value='3'/>
            <enumerator name='SCREENROUND_ANY' value='0'/>
            <enumerator name='SCREENROUND_NO' value='1'/>
            <enumerator name='SCREENROUND_YES' value='2'/>
          </enum-decl>
        </member-type>
        <member-type access='public'>
          <enum-decl name='__anonymous_enum__4' size-in-bits='32' alignment-in-bits='32' is-anonymous='yes' filepath='frameworks/base/libs/androidfw/include/androidfw/ResourceTypes.h' line='1113' column='1' hash='7ac948dc4b7fe82f#5' id='08f5ca1b'>
            <underlying-type type-id='9cac1fee'/>
            <enumerator name='MASK_UI_MODE_TYPE' value='15'/>
            <enumerator name='UI_MODE_TYPE_ANY' value='0'/>
            <enumerator name='UI_MODE_TYPE_NORMAL' value='1'/>
            <enumerator name='UI_MODE_TYPE_DESK' value='2'/>
            <enumerator name='UI_MODE_TYPE_CAR' value='3'/>
            <enumerator name='UI_MODE_TYPE_TELEVISION' value='4'/>
            <enumerator name='UI_MODE_TYPE_APPLIANCE' value='5'/>
            <enumerator name='UI_MODE_TYPE_WATCH' value='6'/>
            <enumerator name='UI_MODE_TYPE_VR_HEADSET' value='7'/>
            <enumerator name='MASK_UI_MODE_NIGHT' value='48'/>
            <enumerator name='SHIFT_UI_MODE_NIGHT' value='4'/>
            <enumerator name='UI_MODE_NIGHT_ANY' value='0'/>
            <enumerator name='UI_MODE_NIGHT_NO' value='16'/>
            <enumerator name='UI_MODE_NIGHT_YES' value='32'/>
          </enum-decl>
        </member-type>
        <member-type access='public'>
          <union-decl name='__anonymous_union__1' visibility='default' size-in-bits='32' is-anonymous='yes' filepath='frameworks/base/libs/androidfw/include/androidfw/ResourceTypes.h' line='935' column='1' hash='be28002b433895bc#9' id='ac5ab595'>
            <member-type access='public'>
              <class-decl name='__anonymous_struct__' is-struct='yes' visibility='default' size-in-bits='32' is-anonymous='yes' filepath='frameworks/base/libs/androidfw/include/androidfw/ResourceTypes.h' line='936' column='1' hash='a8709a6715f21234#9' id='e7f43f72'>
                <data-member access='public' layout-offset-in-bits='0'>
                  <var-decl name='language' type-id='49f79167' visibility='default' filepath='frameworks/base/libs/androidfw/include/androidfw/ResourceTypes.h' line='959' column='1'/>
                </data-member>
                <data-member access='public' layout-offset-in-bits='16'>
                  <var-decl name='country' type-id='49f79167' visibility='default' filepath='frameworks/base/libs/androidfw/include/androidfw/ResourceTypes.h' line='973' column='1'/>
                </data-member>
              </class-decl>
            </member-type>
            <data-member access='public'>
              <var-decl name='' type-id='e7f43f72' visibility='default' filepath='frameworks/base/libs/androidfw/include/androidfw/ResourceTypes.h' line='936' column='1'/>
            </data-member>
            <data-member access='public'>
              <var-decl name='locale' type-id='8f92235e' visibility='default' filepath='frameworks/base/libs/androidfw/include/androidfw/ResourceTypes.h' line='975' column='1'/>
            </data-member>
          </union-decl>
        </member-type>
        <member-type access='public'>
          <union-decl name='__anonymous_union__' visibility='default' size-in-bits='32' is-anonymous='yes' filepath='frameworks/base/libs/androidfw/include/androidfw/ResourceTypes.h' line='925' column='1' hash='4cffa47ba23ddb20#14' id='ac5ab596'>
            <member-type access='public'>
              <class-decl name='__anonymous_struct__' is-struct='yes' visibility='default' size-in-bits='32' is-anonymous='yes' filepath='frameworks/base/libs/androidfw/include/androidfw/ResourceTypes.h' line='926' column='1' hash='d32b8cdf8848f1e9#22' id='e7f43f73'>
                <data-member access='public' layout-offset-in-bits='0'>
                  <var-decl name='mcc' type-id='149c6638' visibility='default' filepath='frameworks/base/libs/androidfw/include/androidfw/ResourceTypes.h' line='928' column='1'/>
                </data-member>
                <data-member access='public' layout-offset-in-bits='16'>
                  <var-decl name='mnc' type-id='149c6638' visibility='default' filepath='frameworks/base/libs/androidfw/include/androidfw/ResourceTypes.h' line='930' column='1'/>
                </data-member>
              </class-decl>
            </member-type>
            <data-member access='public'>
              <var-decl name='' type-id='e7f43f73' visibility='default' filepath='frameworks/base/libs/androidfw/include/androidfw/ResourceTypes.h' line='926' column='1'/>
            </data-member>
            <data-member access='public'>
              <var-decl name='imsi' type-id='8f92235e' visibility='default' filepath='frameworks/base/libs/androidfw/include/androidfw/ResourceTypes.h' line='932' column='1'/>
            </data-member>
          </union-decl>
        </member-type>
        <member-type access='public'>
          <union-decl name='__anonymous_union__4' visibility='default' size-in-bits='32' is-anonymous='yes' filepath='frameworks/base/libs/androidfw/include/androidfw/ResourceTypes.h' line='1063' column='1' hash='5df08bc6bed9e87c#15' id='ac5ab597'>
            <member-type access='public'>
              <class-decl name='__anonymous_struct__' is-struct='yes' visibility='default' size-in-bits='32' is-anonymous='yes' filepath='frameworks/base/libs/androidfw/include/androidfw/ResourceTypes.h' line='1064' column='1' hash='b8216061a01fe6b0#23' id='e7f43f74'>
                <data-member access='public' layout-offset-in-bits='0'>
                  <var-decl name='screenWidth' type-id='149c6638' visibility='default' filepath='frameworks/base/libs/androidfw/include/androidfw/ResourceTypes.h' line='1065' column='1'/>
                </data-member>
                <data-member access='public' layout-offset-in-bits='16'>
                  <var-decl name='screenHeight' type-id='149c6638' visibility='default' filepath='frameworks/base/libs/androidfw/include/androidfw/ResourceTypes.h' line='1066' column='1'/>
                </data-member>
              </class-decl>
            </member-type>
            <data-member access='public'>
              <var-decl name='' type-id='e7f43f74' visibility='default' filepath='frameworks/base/libs/androidfw/include/androidfw/ResourceTypes.h' line='1064' column='1'/>
            </data-member>
            <data-member access='public'>
              <var-decl name='screenSize' type-id='8f92235e' visibility='default' filepath='frameworks/base/libs/androidfw/include/androidfw/ResourceTypes.h' line='1068' column='1'/>
            </data-member>
          </union-decl>
        </member-type>
        <member-type access='public'>
          <union-decl name='__anonymous_union__7' visibility='default' size-in-bits='32' is-anonymous='yes' filepath='frameworks/base/libs/androidfw/include/androidfw/ResourceTypes.h' line='1142' column='1' hash='7349cb6495e11b01#16' id='ac5ab598'>
            <member-type access='public'>
              <class-decl name='__anonymous_struct__' is-struct='yes' visibility='default' size-in-bits='32' is-anonymous='yes' filepath='frameworks/base/libs/androidfw/include/androidfw/ResourceTypes.h' line='1143' column='1' hash='825e9880d2288c34#24' id='e7f43f75'>
                <data-member access='public' layout-offset-in-bits='0'>
                  <var-decl name='screenWidthDp' type-id='149c6638' visibility='default' filepath='frameworks/base/libs/androidfw/include/androidfw/ResourceTypes.h' line='1144' column='1'/>
                </data-member>
                <data-member access='public' layout-offset-in-bits='16'>
                  <var-decl name='screenHeightDp' type-id='149c6638' visibility='default' filepath='frameworks/base/libs/androidfw/include/androidfw/ResourceTypes.h' line='1145' column='1'/>
                </data-member>
              </class-decl>
            </member-type>
            <data-member access='public'>
              <var-decl name='' type-id='e7f43f75' visibility='default' filepath='frameworks/base/libs/androidfw/include/androidfw/ResourceTypes.h' line='1143' column='1'/>
            </data-member>
            <data-member access='public'>
              <var-decl name='screenSizeDp' type-id='8f92235e' visibility='default' filepath='frameworks/base/libs/androidfw/include/androidfw/ResourceTypes.h' line='1147' column='1'/>
            </data-member>
          </union-decl>
        </member-type>
        <member-type access='public'>
          <union-decl name='__anonymous_union__5' visibility='default' size-in-bits='32' is-anonymous='yes' filepath='frameworks/base/libs/androidfw/include/androidfw/ResourceTypes.h' line='1079' column='1' hash='f2545470203b298f#17' id='ac5ab599'>
            <member-type access='public'>
