<abi-corpus version='2.4' soname='libvtkRenderingLIC-6.1.so.1'>
  <elf-needed>
    <dependency name='libvtkIOLegacy-6.1.so.1'/>
    <dependency name='libvtkIOXML-6.1.so.1'/>
    <dependency name='libvtkImagingSources-6.1.so.1'/>
    <dependency name='libvtkRenderingOpenGL-6.1.so.1'/>
    <dependency name='libvtkIOGeometry-6.1.so.1'/>
    <dependency name='libvtkIOXMLParser-6.1.so.1'/>
    <dependency name='libvtkRenderingCore-6.1.so.1'/>
    <dependency name='libvtkImagingCore-6.1.so.1'/>
    <dependency name='libvtkIOCore-6.1.so.1'/>
    <dependency name='libvtkCommonExecutionModel-6.1.so.1'/>
    <dependency name='libvtkCommonDataModel-6.1.so.1'/>
    <dependency name='libvtkCommonMisc-6.1.so.1'/>
    <dependency name='libvtkCommonSystem-6.1.so.1'/>
    <dependency name='libvtksys-6.1.so.1'/>
    <dependency name='libvtkCommonTransforms-6.1.so.1'/>
    <dependency name='libvtkCommonMath-6.1.so.1'/>
    <dependency name='libvtkCommonCore-6.1.so.1'/>
    <dependency name='libGLU.so.1'/>
    <dependency name='libGL.so.1'/>
    <dependency name='libSM.so.6'/>
    <dependency name='libICE.so.6'/>
    <dependency name='libX11.so.6'/>
    <dependency name='libXext.so.6'/>
    <dependency name='libXt.so.6'/>
    <dependency name='libdl.so.2'/>
    <dependency name='libstdc++.so.6'/>
    <dependency name='libm.so.6'/>
    <dependency name='libc.so.6'/>
    <dependency name='libgcc_s.so.1'/>
  </elf-needed>
  <elf-function-symbols>
    <elf-symbol name='_ZN12vtkTextureIO5WriteEPKcP16vtkTextureObjectPKjPKd' type='func-type' binding='global-binding' visibility='default-visibility' is-defined='yes'/>
    <elf-symbol name='_ZN12vtkTextureIO5WriteEPKcP16vtkTextureObjectRKSt5dequeI14vtkPixelExtentSaIS5_EEPKd' type='func-type' binding='global-binding' visibility='default-visibility' is-defined='yes'/>
    <elf-symbol name='_ZN16vtkPixelTransfer4BlitERK14vtkPixelExtentS2_S2_S2_iiPviiS3_' type='func-type' binding='global-binding' visibility='default-visibility' is-defined='yes'/>
    <elf-symbol name='_ZN16vtkPixelTransfer4BlitIaEEiRK14vtkPixelExtentS3_S3_S3_iPT_iiPv' type='func-type' binding='weak-binding' visibility='default-visibility' is-defined='yes'/>
    <elf-symbol name='_ZN16vtkPixelTransfer4BlitIaaEEiRK14vtkPixelExtentS3_S3_S3_iPT_iPT0_' type='func-type' binding='weak-binding' visibility='default-visibility' is-defined='yes'/>
    <elf-symbol name='_ZN16vtkPixelTransfer4BlitIacEEiRK14vtkPixelExtentS3_S3_S3_iPT_iPT0_' type='func-type' binding='weak-binding' visibility='default-visibility' is-defined='yes'/>
    <elf-symbol name='_ZN16vtkPixelTransfer4BlitIadEEiRK14vtkPixelExtentS3_S3_S3_iPT_iPT0_' type='func-type' binding='weak-binding' visibility='default-visibility' is-defined='yes'/>
    <elf-symbol name='_ZN16vtkPixelTransfer4BlitIafEEiRK14vtkPixelExtentS3_S3_S3_iPT_iPT0_' type='func-type' binding='weak-binding' visibility='default-visibility' is-defined='yes'/>
    <elf-symbol name='_ZN16vtkPixelTransfer4BlitIahEEiRK14vtkPixelExtentS3_S3_S3_iPT_iPT0_' type='func-type' binding='weak-binding' visibility='default-visibility' is-defined='yes'/>
    <elf-symbol name='_ZN16vtkPixelTransfer4BlitIaiEEiRK14vtkPixelExtentS3_S3_S3_iPT_iPT0_' type='func-type' binding='weak-binding' visibility='default-visibility' is-defined='yes'/>
    <elf-symbol name='_ZN16vtkPixelTransfer4BlitIajEEiRK14vtkPixelExtentS3_S3_S3_iPT_iPT0_' type='func-type' binding='weak-binding' visibility='default-visibility' is-defined='yes'/>
    <elf-symbol name='_ZN16vtkPixelTransfer4BlitIalEEiRK14vtkPixelExtentS3_S3_S3_iPT_iPT0_' type='func-type' binding='weak-binding' visibility='default-visibility' is-defined='yes'/>
    <elf-symbol name='_ZN16vtkPixelTransfer4BlitIamEEiRK14vtkPixelExtentS3_S3_S3_iPT_iPT0_' type='func-type' binding='weak-binding' visibility='default-visibility' is-defined='yes'/>
    <elf-symbol name='_ZN16vtkPixelTransfer4BlitIasEEiRK14vtkPixelExtentS3_S3_S3_iPT_iPT0_' type='func-type' binding='weak-binding' visibility='default-visibility' is-defined='yes'/>
    <elf-symbol name='_ZN16vtkPixelTransfer4BlitIatEEiRK14vtkPixelExtentS3_S3_S3_iPT_iPT0_' type='func-type' binding='weak-binding' visibility='default-visibility' is-defined='yes'/>
    <elf-symbol name='_ZN16vtkPixelTransfer4BlitIaxEEiRK14vtkPixelExtentS3_S3_S3_iPT_iPT0_' type='func-type' binding='weak-binding' visibility='default-visibility' is-defined='yes'/>
    <elf-symbol name='_ZN16vtkPixelTransfer4BlitIayEEiRK14vtkPixelExtentS3_S3_S3_iPT_iPT0_' type='func-type' binding='weak-binding' visibility='default-visibility' is-defined='yes'/>
    <elf-symbol name='_ZN16vtkPixelTransfer4BlitIcEEiRK14vtkPixelExtentS3_S3_S3_iPT_iiPv' type='func-type' binding='weak-binding' visibility='default-visibility' is-defined='yes'/>
    <elf-symbol name='_ZN16vtkPixelTransfer4BlitIcaEEiRK14vtkPixelExtentS3_S3_S3_iPT_iPT0_' type='func-type' binding='weak-binding' visibility='default-visibility' is-defined='yes'/>
    <elf-symbol name='_ZN16vtkPixelTransfer4BlitIccEEiRK14vtkPixelExtentS3_S3_S3_iPT_iPT0_' type='func-type' binding='weak-binding' visibility='default-visibility' is-defined='yes'/>
    <elf-symbol name='_ZN16vtkPixelTransfer4BlitIcdEEiRK14vtkPixelExtentS3_S3_S3_iPT_iPT0_' type='func-type' binding='weak-binding' visibility='default-visibility' is-defined='yes'/>
    <elf-symbol name='_ZN16vtkPixelTransfer4BlitIcfEEiRK14vtkPixelExtentS3_S3_S3_iPT_iPT0_' type='func-type' binding='weak-binding' visibility='default-visibility' is-defined='yes'/>
    <elf-symbol name='_ZN16vtkPixelTransfer4BlitIchEEiRK14vtkPixelExtentS3_S3_S3_iPT_iPT0_' type='func-type' binding='weak-binding' visibility='default-visibility' is-defined='yes'/>
    <elf-symbol name='_ZN16vtkPixelTransfer4BlitIciEEiRK14vtkPixelExtentS3_S3_S3_iPT_iPT0_' type='func-type' binding='weak-binding' visibility='default-visibility' is-defined='yes'/>
    <elf-symbol name='_ZN16vtkPixelTransfer4BlitIcjEEiRK14vtkPixelExtentS3_S3_S3_iPT_iPT0_' type='func-type' binding='weak-binding' visibility='default-visibility' is-defined='yes'/>
    <elf-symbol name='_ZN16vtkPixelTransfer4BlitIclEEiRK14vtkPixelExtentS3_S3_S3_iPT_iPT0_' type='func-type' binding='weak-binding' visibility='default-visibility' is-defined='yes'/>
    <elf-symbol name='_ZN16vtkPixelTransfer4BlitIcmEEiRK14vtkPixelExtentS3_S3_S3_iPT_iPT0_' type='func-type' binding='weak-binding' visibility='default-visibility' is-defined='yes'/>
    <elf-symbol name='_ZN16vtkPixelTransfer4BlitIcsEEiRK14vtkPixelExtentS3_S3_S3_iPT_iPT0_' type='func-type' binding='weak-binding' visibility='default-visibility' is-defined='yes'/>
    <elf-symbol name='_ZN16vtkPixelTransfer4BlitIctEEiRK14vtkPixelExtentS3_S3_S3_iPT_iPT0_' type='func-type' binding='weak-binding' visibility='default-visibility' is-defined='yes'/>
    <elf-symbol name='_ZN16vtkPixelTransfer4BlitIcxEEiRK14vtkPixelExtentS3_S3_S3_iPT_iPT0_' type='func-type' binding='weak-binding' visibility='default-visibility' is-defined='yes'/>
    <elf-symbol name='_ZN16vtkPixelTransfer4BlitIcyEEiRK14vtkPixelExtentS3_S3_S3_iPT_iPT0_' type='func-type' binding='weak-binding' visibility='default-visibility' is-defined='yes'/>
    <elf-symbol name='_ZN16vtkPixelTransfer4BlitIdEEiRK14vtkPixelExtentS3_S3_S3_iPT_iiPv' type='func-type' binding='weak-binding' visibility='default-visibility' is-defined='yes'/>
    <elf-symbol name='_ZN16vtkPixelTransfer4BlitIdaEEiRK14vtkPixelExtentS3_S3_S3_iPT_iPT0_' type='func-type' binding='weak-binding' visibility='default-visibility' is-defined='yes'/>
    <elf-symbol name='_ZN16vtkPixelTransfer4BlitIdcEEiRK14vtkPixelExtentS3_S3_S3_iPT_iPT0_' type='func-type' binding='weak-binding' visibility='default-visibility' is-defined='yes'/>
    <elf-symbol name='_ZN16vtkPixelTransfer4BlitIddEEiRK14vtkPixelExtentS3_S3_S3_iPT_iPT0_' type='func-type' binding='weak-binding' visibility='default-visibility' is-defined='yes'/>
    <elf-symbol name='_ZN16vtkPixelTransfer4BlitIdfEEiRK14vtkPixelExtentS3_S3_S3_iPT_iPT0_' type='func-type' binding='weak-binding' visibility='default-visibility' is-defined='yes'/>
    <elf-symbol name='_ZN16vtkPixelTransfer4BlitIdhEEiRK14vtkPixelExtentS3_S3_S3_iPT_iPT0_' type='func-type' binding='weak-binding' visibility='default-visibility' is-defined='yes'/>
    <elf-symbol name='_ZN16vtkPixelTransfer4BlitIdiEEiRK14vtkPixelExtentS3_S3_S3_iPT_iPT0_' type='func-type' binding='weak-binding' visibility='default-visibility' is-defined='yes'/>
    <elf-symbol name='_ZN16vtkPixelTransfer4BlitIdjEEiRK14vtkPixelExtentS3_S3_S3_iPT_iPT0_' type='func-type' binding='weak-binding' visibility='default-visibility' is-defined='yes'/>
    <elf-symbol name='_ZN16vtkPixelTransfer4BlitIdlEEiRK14vtkPixelExtentS3_S3_S3_iPT_iPT0_' type='func-type' binding='weak-binding' visibility='default-visibility' is-defined='yes'/>
    <elf-symbol name='_ZN16vtkPixelTransfer4BlitIdmEEiRK14vtkPixelExtentS3_S3_S3_iPT_iPT0_' type='func-type' binding='weak-binding' visibility='default-visibility' is-defined='yes'/>
    <elf-symbol name='_ZN16vtkPixelTransfer4BlitIdsEEiRK14vtkPixelExtentS3_S3_S3_iPT_iPT0_' type='func-type' binding='weak-binding' visibility='default-visibility' is-defined='yes'/>
    <elf-symbol name='_ZN16vtkPixelTransfer4BlitIdtEEiRK14vtkPixelExtentS3_S3_S3_iPT_iPT0_' type='func-type' binding='weak-binding' visibility='default-visibility' is-defined='yes'/>
    <elf-symbol name='_ZN16vtkPixelTransfer4BlitIdxEEiRK14vtkPixelExtentS3_S3_S3_iPT_iPT0_' type='func-type' binding='weak-binding' visibility='default-visibility' is-defined='yes'/>
    <elf-symbol name='_ZN16vtkPixelTransfer4BlitIdyEEiRK14vtkPixelExtentS3_S3_S3_iPT_iPT0_' type='func-type' binding='weak-binding' visibility='default-visibility' is-defined='yes'/>
    <elf-symbol name='_ZN16vtkPixelTransfer4BlitIfEEiRK14vtkPixelExtentS3_S3_S3_iPT_iiPv' type='func-type' binding='weak-binding' visibility='default-visibility' is-defined='yes'/>
    <elf-symbol name='_ZN16vtkPixelTransfer4BlitIfaEEiRK14vtkPixelExtentS3_S3_S3_iPT_iPT0_' type='func-type' binding='weak-binding' visibility='default-visibility' is-defined='yes'/>
    <elf-symbol name='_ZN16vtkPixelTransfer4BlitIfcEEiRK14vtkPixelExtentS3_S3_S3_iPT_iPT0_' type='func-type' binding='weak-binding' visibility='default-visibility' is-defined='yes'/>
    <elf-symbol name='_ZN16vtkPixelTransfer4BlitIfdEEiRK14vtkPixelExtentS3_S3_S3_iPT_iPT0_' type='func-type' binding='weak-binding' visibility='default-visibility' is-defined='yes'/>
    <elf-symbol name='_ZN16vtkPixelTransfer4BlitIffEEiRK14vtkPixelExtentS3_S3_S3_iPT_iPT0_' type='func-type' binding='weak-binding' visibility='default-visibility' is-defined='yes'/>
    <elf-symbol name='_ZN16vtkPixelTransfer4BlitIfhEEiRK14vtkPixelExtentS3_S3_S3_iPT_iPT0_' type='func-type' binding='weak-binding' visibility='default-visibility' is-defined='yes'/>
    <elf-symbol name='_ZN16vtkPixelTransfer4BlitIfiEEiRK14vtkPixelExtentS3_S3_S3_iPT_iPT0_' type='func-type' binding='weak-binding' visibility='default-visibility' is-defined='yes'/>
    <elf-symbol name='_ZN16vtkPixelTransfer4BlitIfjEEiRK14vtkPixelExtentS3_S3_S3_iPT_iPT0_' type='func-type' binding='weak-binding' visibility='default-visibility' is-defined='yes'/>
    <elf-symbol name='_ZN16vtkPixelTransfer4BlitIflEEiRK14vtkPixelExtentS3_S3_S3_iPT_iPT0_' type='func-type' binding='weak-binding' visibility='default-visibility' is-defined='yes'/>
    <elf-symbol name='_ZN16vtkPixelTransfer4BlitIfmEEiRK14vtkPixelExtentS3_S3_S3_iPT_iPT0_' type='func-type' binding='weak-binding' visibility='default-visibility' is-defined='yes'/>
    <elf-symbol name='_ZN16vtkPixelTransfer4BlitIfsEEiRK14vtkPixelExtentS3_S3_S3_iPT_iPT0_' type='func-type' binding='weak-binding' visibility='default-visibility' is-defined='yes'/>
    <elf-symbol name='_ZN16vtkPixelTransfer4BlitIftEEiRK14vtkPixelExtentS3_S3_S3_iPT_iPT0_' type='func-type' binding='weak-binding' visibility='default-visibility' is-defined='yes'/>
    <elf-symbol name='_ZN16vtkPixelTransfer4BlitIfxEEiRK14vtkPixelExtentS3_S3_S3_iPT_iPT0_' type='func-type' binding='weak-binding' visibility='default-visibility' is-defined='yes'/>
    <elf-symbol name='_ZN16vtkPixelTransfer4BlitIfyEEiRK14vtkPixelExtentS3_S3_S3_iPT_iPT0_' type='func-type' binding='weak-binding' visibility='default-visibility' is-defined='yes'/>
    <elf-symbol name='_ZN16vtkPixelTransfer4BlitIhEEiRK14vtkPixelExtentS3_S3_S3_iPT_iiPv' type='func-type' binding='weak-binding' visibility='default-visibility' is-defined='yes'/>
    <elf-symbol name='_ZN16vtkPixelTransfer4BlitIhaEEiRK14vtkPixelExtentS3_S3_S3_iPT_iPT0_' type='func-type' binding='weak-binding' visibility='default-visibility' is-defined='yes'/>
    <elf-symbol name='_ZN16vtkPixelTransfer4BlitIhcEEiRK14vtkPixelExtentS3_S3_S3_iPT_iPT0_' type='func-type' binding='weak-binding' visibility='default-visibility' is-defined='yes'/>
    <elf-symbol name='_ZN16vtkPixelTransfer4BlitIhdEEiRK14vtkPixelExtentS3_S3_S3_iPT_iPT0_' type='func-type' binding='weak-binding' visibility='default-visibility' is-defined='yes'/>
    <elf-symbol name='_ZN16vtkPixelTransfer4BlitIhfEEiRK14vtkPixelExtentS3_S3_S3_iPT_iPT0_' type='func-type' binding='weak-binding' visibility='default-visibility' is-defined='yes'/>
    <elf-symbol name='_ZN16vtkPixelTransfer4BlitIhhEEiRK14vtkPixelExtentS3_S3_S3_iPT_iPT0_' type='func-type' binding='weak-binding' visibility='default-visibility' is-defined='yes'/>
    <elf-symbol name='_ZN16vtkPixelTransfer4BlitIhiEEiRK14vtkPixelExtentS3_S3_S3_iPT_iPT0_' type='func-type' binding='weak-binding' visibility='default-visibility' is-defined='yes'/>
    <elf-symbol name='_ZN16vtkPixelTransfer4BlitIhjEEiRK14vtkPixelExtentS3_S3_S3_iPT_iPT0_' type='func-type' binding='weak-binding' visibility='default-visibility' is-defined='yes'/>
    <elf-symbol name='_ZN16vtkPixelTransfer4BlitIhlEEiRK14vtkPixelExtentS3_S3_S3_iPT_iPT0_' type='func-type' binding='weak-binding' visibility='default-visibility' is-defined='yes'/>
    <elf-symbol name='_ZN16vtkPixelTransfer4BlitIhmEEiRK14vtkPixelExtentS3_S3_S3_iPT_iPT0_' type='func-type' binding='weak-binding' visibility='default-visibility' is-defined='yes'/>
    <elf-symbol name='_ZN16vtkPixelTransfer4BlitIhsEEiRK14vtkPixelExtentS3_S3_S3_iPT_iPT0_' type='func-type' binding='weak-binding' visibility='default-visibility' is-defined='yes'/>
    <elf-symbol name='_ZN16vtkPixelTransfer4BlitIhtEEiRK14vtkPixelExtentS3_S3_S3_iPT_iPT0_' type='func-type' binding='weak-binding' visibility='default-visibility' is-defined='yes'/>
    <elf-symbol name='_ZN16vtkPixelTransfer4BlitIhxEEiRK14vtkPixelExtentS3_S3_S3_iPT_iPT0_' type='func-type' binding='weak-binding' visibility='default-visibility' is-defined='yes'/>
    <elf-symbol name='_ZN16vtkPixelTransfer4BlitIhyEEiRK14vtkPixelExtentS3_S3_S3_iPT_iPT0_' type='func-type' binding='weak-binding' visibility='default-visibility' is-defined='yes'/>
    <elf-symbol name='_ZN16vtkPixelTransfer4BlitIiEEiRK14vtkPixelExtentS3_S3_S3_iPT_iiPv' type='func-type' binding='weak-binding' visibility='default-visibility' is-defined='yes'/>
    <elf-symbol name='_ZN16vtkPixelTransfer4BlitIiaEEiRK14vtkPixelExtentS3_S3_S3_iPT_iPT0_' type='func-type' binding='weak-binding' visibility='default-visibility' is-defined='yes'/>
    <elf-symbol name='_ZN16vtkPixelTransfer4BlitIicEEiRK14vtkPixelExtentS3_S3_S3_iPT_iPT0_' type='func-type' binding='weak-binding' visibility='default-visibility' is-defined='yes'/>
    <elf-symbol name='_ZN16vtkPixelTransfer4BlitIidEEiRK14vtkPixelExtentS3_S3_S3_iPT_iPT0_' type='func-type' binding='weak-binding' visibility='default-visibility' is-defined='yes'/>
    <elf-symbol name='_ZN16vtkPixelTransfer4BlitIifEEiRK14vtkPixelExtentS3_S3_S3_iPT_iPT0_' type='func-type' binding='weak-binding' visibility='default-visibility' is-defined='yes'/>
    <elf-symbol name='_ZN16vtkPixelTransfer4BlitIihEEiRK14vtkPixelExtentS3_S3_S3_iPT_iPT0_' type='func-type' binding='weak-binding' visibility='default-visibility' is-defined='yes'/>
    <elf-symbol name='_ZN16vtkPixelTransfer4BlitIiiEEiRK14vtkPixelExtentS3_S3_S3_iPT_iPT0_' type='func-type' binding='weak-binding' visibility='default-visibility' is-defined='yes'/>
    <elf-symbol name='_ZN16vtkPixelTransfer4BlitIijEEiRK14vtkPixelExtentS3_S3_S3_iPT_iPT0_' type='func-type' binding='weak-binding' visibility='default-visibility' is-defined='yes'/>
    <elf-symbol name='_ZN16vtkPixelTransfer4BlitIilEEiRK14vtkPixelExtentS3_S3_S3_iPT_iPT0_' type='func-type' binding='weak-binding' visibility='default-visibility' is-defined='yes'/>
    <elf-symbol name='_ZN16vtkPixelTransfer4BlitIimEEiRK14vtkPixelExtentS3_S3_S3_iPT_iPT0_' type='func-type' binding='weak-binding' visibility='default-visibility' is-defined='yes'/>
    <elf-symbol name='_ZN16vtkPixelTransfer4BlitIisEEiRK14vtkPixelExtentS3_S3_S3_iPT_iPT0_' type='func-type' binding='weak-binding' visibility='default-visibility' is-defined='yes'/>
    <elf-symbol name='_ZN16vtkPixelTransfer4BlitIitEEiRK14vtkPixelExtentS3_S3_S3_iPT_iPT0_' type='func-type' binding='weak-binding' visibility='default-visibility' is-defined='yes'/>
    <elf-symbol name='_ZN16vtkPixelTransfer4BlitIixEEiRK14vtkPixelExtentS3_S3_S3_iPT_iPT0_' type='func-type' binding='weak-binding' visibility='default-visibility' is-defined='yes'/>
    <elf-symbol name='_ZN16vtkPixelTransfer4BlitIiyEEiRK14vtkPixelExtentS3_S3_S3_iPT_iPT0_' type='func-type' binding='weak-binding' visibility='default-visibility' is-defined='yes'/>
    <elf-symbol name='_ZN16vtkPixelTransfer4BlitIjEEiRK14vtkPixelExtentS3_S3_S3_iPT_iiPv' type='func-type' binding='weak-binding' visibility='default-visibility' is-defined='yes'/>
    <elf-symbol name='_ZN16vtkPixelTransfer4BlitIjaEEiRK14vtkPixelExtentS3_S3_S3_iPT_iPT0_' type='func-type' binding='weak-binding' visibility='default-visibility' is-defined='yes'/>
    <elf-symbol name='_ZN16vtkPixelTransfer4BlitIjcEEiRK14vtkPixelExtentS3_S3_S3_iPT_iPT0_' type='func-type' binding='weak-binding' visibility='default-visibility' is-defined='yes'/>
    <elf-symbol name='_ZN16vtkPixelTransfer4BlitIjdEEiRK14vtkPixelExtentS3_S3_S3_iPT_iPT0_' type='func-type' binding='weak-binding' visibility='default-visibility' is-defined='yes'/>
    <elf-symbol name='_ZN16vtkPixelTransfer4BlitIjfEEiRK14vtkPixelExtentS3_S3_S3_iPT_iPT0_' type='func-type' binding='weak-binding' visibility='default-visibility' is-defined='yes'/>
    <elf-symbol name='_ZN16vtkPixelTransfer4BlitIjhEEiRK14vtkPixelExtentS3_S3_S3_iPT_iPT0_' type='func-type' binding='weak-binding' visibility='default-visibility' is-defined='yes'/>
    <elf-symbol name='_ZN16vtkPixelTransfer4BlitIjiEEiRK14vtkPixelExtentS3_S3_S3_iPT_iPT0_' type='func-type' binding='weak-binding' visibility='default-visibility' is-defined='yes'/>
    <elf-symbol name='_ZN16vtkPixelTransfer4BlitIjjEEiRK14vtkPixelExtentS3_S3_S3_iPT_iPT0_' type='func-type' binding='weak-binding' visibility='default-visibility' is-defined='yes'/>
    <elf-symbol name='_ZN16vtkPixelTransfer4BlitIjlEEiRK14vtkPixelExtentS3_S3_S3_iPT_iPT0_' type='func-type' binding='weak-binding' visibility='default-visibility' is-defined='yes'/>
    <elf-symbol name='_ZN16vtkPixelTransfer4BlitIjmEEiRK14vtkPixelExtentS3_S3_S3_iPT_iPT0_' type='func-type' binding='weak-binding' visibility='default-visibility' is-defined='yes'/>
    <elf-symbol name='_ZN16vtkPixelTransfer4BlitIjsEEiRK14vtkPixelExtentS3_S3_S3_iPT_iPT0_' type='func-type' binding='weak-binding' visibility='default-visibility' is-defined='yes'/>
    <elf-symbol name='_ZN16vtkPixelTransfer4BlitIjtEEiRK14vtkPixelExtentS3_S3_S3_iPT_iPT0_' type='func-type' binding='weak-binding' visibility='default-visibility' is-defined='yes'/>
    <elf-symbol name='_ZN16vtkPixelTransfer4BlitIjxEEiRK14vtkPixelExtentS3_S3_S3_iPT_iPT0_' type='func-type' binding='weak-binding' visibility='default-visibility' is-defined='yes'/>
    <elf-symbol name='_ZN16vtkPixelTransfer4BlitIjyEEiRK14vtkPixelExtentS3_S3_S3_iPT_iPT0_' type='func-type' binding='weak-binding' visibility='default-visibility' is-defined='yes'/>
    <elf-symbol name='_ZN16vtkPixelTransfer4BlitIlEEiRK14vtkPixelExtentS3_S3_S3_iPT_iiPv' type='func-type' binding='weak-binding' visibility='default-visibility' is-defined='yes'/>
    <elf-symbol name='_ZN16vtkPixelTransfer4BlitIlaEEiRK14vtkPixelExtentS3_S3_S3_iPT_iPT0_' type='func-type' binding='weak-binding' visibility='default-visibility' is-defined='yes'/>
    <elf-symbol name='_ZN16vtkPixelTransfer4BlitIlcEEiRK14vtkPixelExtentS3_S3_S3_iPT_iPT0_' type='func-type' binding='weak-binding' visibility='default-visibility' is-defined='yes'/>
    <elf-symbol name='_ZN16vtkPixelTransfer4BlitIldEEiRK14vtkPixelExtentS3_S3_S3_iPT_iPT0_' type='func-type' binding='weak-binding' visibility='default-visibility' is-defined='yes'/>
    <elf-symbol name='_ZN16vtkPixelTransfer4BlitIlfEEiRK14vtkPixelExtentS3_S3_S3_iPT_iPT0_' type='func-type' binding='weak-binding' visibility='default-visibility' is-defined='yes'/>
    <elf-symbol name='_ZN16vtkPixelTransfer4BlitIlhEEiRK14vtkPixelExtentS3_S3_S3_iPT_iPT0_' type='func-type' binding='weak-binding' visibility='default-visibility' is-defined='yes'/>
    <elf-symbol name='_ZN16vtkPixelTransfer4BlitIliEEiRK14vtkPixelExtentS3_S3_S3_iPT_iPT0_' type='func-type' binding='weak-binding' visibility='default-visibility' is-defined='yes'/>
    <elf-symbol name='_ZN16vtkPixelTransfer4BlitIljEEiRK14vtkPixelExtentS3_S3_S3_iPT_iPT0_' type='func-type' binding='weak-binding' visibility='default-visibility' is-defined='yes'/>
    <elf-symbol name='_ZN16vtkPixelTransfer4BlitIllEEiRK14vtkPixelExtentS3_S3_S3_iPT_iPT0_' type='func-type' binding='weak-binding' visibility='default-visibility' is-defined='yes'/>
    <elf-symbol name='_ZN16vtkPixelTransfer4BlitIlmEEiRK14vtkPixelExtentS3_S3_S3_iPT_iPT0_' type='func-type' binding='weak-binding' visibility='default-visibility' is-defined='yes'/>
    <elf-symbol name='_ZN16vtkPixelTransfer4BlitIlsEEiRK14vtkPixelExtentS3_S3_S3_iPT_iPT0_' type='func-type' binding='weak-binding' visibility='default-visibility' is-defined='yes'/>
    <elf-symbol name='_ZN16vtkPixelTransfer4BlitIltEEiRK14vtkPixelExtentS3_S3_S3_iPT_iPT0_' type='func-type' binding='weak-binding' visibility='default-visibility' is-defined='yes'/>
    <elf-symbol name='_ZN16vtkPixelTransfer4BlitIlxEEiRK14vtkPixelExtentS3_S3_S3_iPT_iPT0_' type='func-type' binding='weak-binding' visibility='default-visibility' is-defined='yes'/>
    <elf-symbol name='_ZN16vtkPixelTransfer4BlitIlyEEiRK14vtkPixelExtentS3_S3_S3_iPT_iPT0_' type='func-type' binding='weak-binding' visibility='default-visibility' is-defined='yes'/>
    <elf-symbol name='_ZN16vtkPixelTransfer4BlitImEEiRK14vtkPixelExtentS3_S3_S3_iPT_iiPv' type='func-type' binding='weak-binding' visibility='default-visibility' is-defined='yes'/>
    <elf-symbol name='_ZN16vtkPixelTransfer4BlitImaEEiRK14vtkPixelExtentS3_S3_S3_iPT_iPT0_' type='func-type' binding='weak-binding' visibility='default-visibility' is-defined='yes'/>
    <elf-symbol name='_ZN16vtkPixelTransfer4BlitImcEEiRK14vtkPixelExtentS3_S3_S3_iPT_iPT0_' type='func-type' binding='weak-binding' visibility='default-visibility' is-defined='yes'/>
    <elf-symbol name='_ZN16vtkPixelTransfer4BlitImdEEiRK14vtkPixelExtentS3_S3_S3_iPT_iPT0_' type='func-type' binding='weak-binding' visibility='default-visibility' is-defined='yes'/>
    <elf-symbol name='_ZN16vtkPixelTransfer4BlitImfEEiRK14vtkPixelExtentS3_S3_S3_iPT_iPT0_' type='func-type' binding='weak-binding' visibility='default-visibility' is-defined='yes'/>
    <elf-symbol name='_ZN16vtkPixelTransfer4BlitImhEEiRK14vtkPixelExtentS3_S3_S3_iPT_iPT0_' type='func-type' binding='weak-binding' visibility='default-visibility' is-defined='yes'/>
    <elf-symbol name='_ZN16vtkPixelTransfer4BlitImiEEiRK14vtkPixelExtentS3_S3_S3_iPT_iPT0_' type='func-type' binding='weak-binding' visibility='default-visibility' is-defined='yes'/>
    <elf-symbol name='_ZN16vtkPixelTransfer4BlitImjEEiRK14vtkPixelExtentS3_S3_S3_iPT_iPT0_' type='func-type' binding='weak-binding' visibility='default-visibility' is-defined='yes'/>
    <elf-symbol name='_ZN16vtkPixelTransfer4BlitImlEEiRK14vtkPixelExtentS3_S3_S3_iPT_iPT0_' type='func-type' binding='weak-binding' visibility='default-visibility' is-defined='yes'/>
    <elf-symbol name='_ZN16vtkPixelTransfer4BlitImmEEiRK14vtkPixelExtentS3_S3_S3_iPT_iPT0_' type='func-type' binding='weak-binding' visibility='default-visibility' is-defined='yes'/>
    <elf-symbol name='_ZN16vtkPixelTransfer4BlitImsEEiRK14vtkPixelExtentS3_S3_S3_iPT_iPT0_' type='func-type' binding='weak-binding' visibility='default-visibility' is-defined='yes'/>
    <elf-symbol name='_ZN16vtkPixelTransfer4BlitImtEEiRK14vtkPixelExtentS3_S3_S3_iPT_iPT0_' type='func-type' binding='weak-binding' visibility='default-visibility' is-defined='yes'/>
    <elf-symbol name='_ZN16vtkPixelTransfer4BlitImxEEiRK14vtkPixelExtentS3_S3_S3_iPT_iPT0_' type='func-type' binding='weak-binding' visibility='default-visibility' is-defined='yes'/>
    <elf-symbol name='_ZN16vtkPixelTransfer4BlitImyEEiRK14vtkPixelExtentS3_S3_S3_iPT_iPT0_' type='func-type' binding='weak-binding' visibility='default-visibility' is-defined='yes'/>
    <elf-symbol name='_ZN16vtkPixelTransfer4BlitIsEEiRK14vtkPixelExtentS3_S3_S3_iPT_iiPv' type='func-type' binding='weak-binding' visibility='default-visibility' is-defined='yes'/>
    <elf-symbol name='_ZN16vtkPixelTransfer4BlitIsaEEiRK14vtkPixelExtentS3_S3_S3_iPT_iPT0_' type='func-type' binding='weak-binding' visibility='default-visibility' is-defined='yes'/>
    <elf-symbol name='_ZN16vtkPixelTransfer4BlitIscEEiRK14vtkPixelExtentS3_S3_S3_iPT_iPT0_' type='func-type' binding='weak-binding' visibility='default-visibility' is-defined='yes'/>
    <elf-symbol name='_ZN16vtkPixelTransfer4BlitIsdEEiRK14vtkPixelExtentS3_S3_S3_iPT_iPT0_' type='func-type' binding='weak-binding' visibility='default-visibility' is-defined='yes'/>
    <elf-symbol name='_ZN16vtkPixelTransfer4BlitIsfEEiRK14vtkPixelExtentS3_S3_S3_iPT_iPT0_' type='func-type' binding='weak-binding' visibility='default-visibility' is-defined='yes'/>
    <elf-symbol name='_ZN16vtkPixelTransfer4BlitIshEEiRK14vtkPixelExtentS3_S3_S3_iPT_iPT0_' type='func-type' binding='weak-binding' visibility='default-visibility' is-defined='yes'/>
    <elf-symbol name='_ZN16vtkPixelTransfer4BlitIsiEEiRK14vtkPixelExtentS3_S3_S3_iPT_iPT0_' type='func-type' binding='weak-binding' visibility='default-visibility' is-defined='yes'/>
    <elf-symbol name='_ZN16vtkPixelTransfer4BlitIsjEEiRK14vtkPixelExtentS3_S3_S3_iPT_iPT0_' type='func-type' binding='weak-binding' visibility='default-visibility' is-defined='yes'/>
    <elf-symbol name='_ZN16vtkPixelTransfer4BlitIslEEiRK14vtkPixelExtentS3_S3_S3_iPT_iPT0_' type='func-type' binding='weak-binding' visibility='default-visibility' is-defined='yes'/>
    <elf-symbol name='_ZN16vtkPixelTransfer4BlitIsmEEiRK14vtkPixelExtentS3_S3_S3_iPT_iPT0_' type='func-type' binding='weak-binding' visibility='default-visibility' is-defined='yes'/>
    <elf-symbol name='_ZN16vtkPixelTransfer4BlitIssEEiRK14vtkPixelExtentS3_S3_S3_iPT_iPT0_' type='func-type' binding='weak-binding' visibility='default-visibility' is-defined='yes'/>
    <elf-symbol name='_ZN16vtkPixelTransfer4BlitIstEEiRK14vtkPixelExtentS3_S3_S3_iPT_iPT0_' type='func-type' binding='weak-binding' visibility='default-visibility' is-defined='yes'/>
    <elf-symbol name='_ZN16vtkPixelTransfer4BlitIsxEEiRK14vtkPixelExtentS3_S3_S3_iPT_iPT0_' type='func-type' binding='weak-binding' visibility='default-visibility' is-defined='yes'/>
    <elf-symbol name='_ZN16vtkPixelTransfer4BlitIsyEEiRK14vtkPixelExtentS3_S3_S3_iPT_iPT0_' type='func-type' binding='weak-binding' visibility='default-visibility' is-defined='yes'/>
    <elf-symbol name='_ZN16vtkPixelTransfer4BlitItEEiRK14vtkPixelExtentS3_S3_S3_iPT_iiPv' type='func-type' binding='weak-binding' visibility='default-visibility' is-defined='yes'/>
    <elf-symbol name='_ZN16vtkPixelTransfer4BlitItaEEiRK14vtkPixelExtentS3_S3_S3_iPT_iPT0_' type='func-type' binding='weak-binding' visibility='default-visibility' is-defined='yes'/>
    <elf-symbol name='_ZN16vtkPixelTransfer4BlitItcEEiRK14vtkPixelExtentS3_S3_S3_iPT_iPT0_' type='func-type' binding='weak-binding' visibility='default-visibility' is-defined='yes'/>
    <elf-symbol name='_ZN16vtkPixelTransfer4BlitItdEEiRK14vtkPixelExtentS3_S3_S3_iPT_iPT0_' type='func-type' binding='weak-binding' visibility='default-visibility' is-defined='yes'/>
    <elf-symbol name='_ZN16vtkPixelTransfer4BlitItfEEiRK14vtkPixelExtentS3_S3_S3_iPT_iPT0_' type='func-type' binding='weak-binding' visibility='default-visibility' is-defined='yes'/>
    <elf-symbol name='_ZN16vtkPixelTransfer4BlitIthEEiRK14vtkPixelExtentS3_S3_S3_iPT_iPT0_' type='func-type' binding='weak-binding' visibility='default-visibility' is-defined='yes'/>
    <elf-symbol name='_ZN16vtkPixelTransfer4BlitItiEEiRK14vtkPixelExtentS3_S3_S3_iPT_iPT0_' type='func-type' binding='weak-binding' visibility='default-visibility' is-defined='yes'/>
    <elf-symbol name='_ZN16vtkPixelTransfer4BlitItjEEiRK14vtkPixelExtentS3_S3_S3_iPT_iPT0_' type='func-type' binding='weak-binding' visibility='default-visibility' is-defined='yes'/>
    <elf-symbol name='_ZN16vtkPixelTransfer4BlitItlEEiRK14vtkPixelExtentS3_S3_S3_iPT_iPT0_' type='func-type' binding='weak-binding' visibility='default-visibility' is-defined='yes'/>
    <elf-symbol name='_ZN16vtkPixelTransfer4BlitItmEEiRK14vtkPixelExtentS3_S3_S3_iPT_iPT0_' type='func-type' binding='weak-binding' visibility='default-visibility' is-defined='yes'/>
    <elf-symbol name='_ZN16vtkPixelTransfer4BlitItsEEiRK14vtkPixelExtentS3_S3_S3_iPT_iPT0_' type='func-type' binding='weak-binding' visibility='default-visibility' is-defined='yes'/>
    <elf-symbol name='_ZN16vtkPixelTransfer4BlitIttEEiRK14vtkPixelExtentS3_S3_S3_iPT_iPT0_' type='func-type' binding='weak-binding' visibility='default-visibility' is-defined='yes'/>
    <elf-symbol name='_ZN16vtkPixelTransfer4BlitItxEEiRK14vtkPixelExtentS3_S3_S3_iPT_iPT0_' type='func-type' binding='weak-binding' visibility='default-visibility' is-defined='yes'/>
    <elf-symbol name='_ZN16vtkPixelTransfer4BlitItyEEiRK14vtkPixelExtentS3_S3_S3_iPT_iPT0_' type='func-type' binding='weak-binding' visibility='default-visibility' is-defined='yes'/>
    <elf-symbol name='_ZN16vtkPixelTransfer4BlitIxEEiRK14vtkPixelExtentS3_S3_S3_iPT_iiPv' type='func-type' binding='weak-binding' visibility='default-visibility' is-defined='yes'/>
    <elf-symbol name='_ZN16vtkPixelTransfer4BlitIxaEEiRK14vtkPixelExtentS3_S3_S3_iPT_iPT0_' type='func-type' binding='weak-binding' visibility='default-visibility' is-defined='yes'/>
    <elf-symbol name='_ZN16vtkPixelTransfer4BlitIxcEEiRK14vtkPixelExtentS3_S3_S3_iPT_iPT0_' type='func-type' binding='weak-binding' visibility='default-visibility' is-defined='yes'/>
    <elf-symbol name='_ZN16vtkPixelTransfer4BlitIxdEEiRK14vtkPixelExtentS3_S3_S3_iPT_iPT0_' type='func-type' binding='weak-binding' visibility='default-visibility' is-defined='yes'/>
    <elf-symbol name='_ZN16vtkPixelTransfer4BlitIxfEEiRK14vtkPixelExtentS3_S3_S3_iPT_iPT0_' type='func-type' binding='weak-binding' visibility='default-visibility' is-defined='yes'/>
    <elf-symbol name='_ZN16vtkPixelTransfer4BlitIxhEEiRK14vtkPixelExtentS3_S3_S3_iPT_iPT0_' type='func-type' binding='weak-binding' visibility='default-visibility' is-defined='yes'/>
    <elf-symbol name='_ZN16vtkPixelTransfer4BlitIxiEEiRK14vtkPixelExtentS3_S3_S3_iPT_iPT0_' type='func-type' binding='weak-binding' visibility='default-visibility' is-defined='yes'/>
    <elf-symbol name='_ZN16vtkPixelTransfer4BlitIxjEEiRK14vtkPixelExtentS3_S3_S3_iPT_iPT0_' type='func-type' binding='weak-binding' visibility='default-visibility' is-defined='yes'/>
    <elf-symbol name='_ZN16vtkPixelTransfer4BlitIxlEEiRK14vtkPixelExtentS3_S3_S3_iPT_iPT0_' type='func-type' binding='weak-binding' visibility='default-visibility' is-defined='yes'/>
    <elf-symbol name='_ZN16vtkPixelTransfer4BlitIxmEEiRK14vtkPixelExtentS3_S3_S3_iPT_iPT0_' type='func-type' binding='weak-binding' visibility='default-visibility' is-defined='yes'/>
    <elf-symbol name='_ZN16vtkPixelTransfer4BlitIxsEEiRK14vtkPixelExtentS3_S3_S3_iPT_iPT0_' type='func-type' binding='weak-binding' visibility='default-visibility' is-defined='yes'/>
    <elf-symbol name='_ZN16vtkPixelTransfer4BlitIxtEEiRK14vtkPixelExtentS3_S3_S3_iPT_iPT0_' type='func-type' binding='weak-binding' visibility='default-visibility' is-defined='yes'/>
    <elf-symbol name='_ZN16vtkPixelTransfer4BlitIxxEEiRK14vtkPixelExtentS3_S3_S3_iPT_iPT0_' type='func-type' binding='weak-binding' visibility='default-visibility' is-defined='yes'/>
    <elf-symbol name='_ZN16vtkPixelTransfer4BlitIxyEEiRK14vtkPixelExtentS3_S3_S3_iPT_iPT0_' type='func-type' binding='weak-binding' visibility='default-visibility' is-defined='yes'/>
    <elf-symbol name='_ZN16vtkPixelTransfer4BlitIyEEiRK14vtkPixelExtentS3_S3_S3_iPT_iiPv' type='func-type' binding='weak-binding' visibility='default-visibility' is-defined='yes'/>
    <elf-symbol name='_ZN16vtkPixelTransfer4BlitIyaEEiRK14vtkPixelExtentS3_S3_S3_iPT_iPT0_' type='func-type' binding='weak-binding' visibility='default-visibility' is-defined='yes'/>
    <elf-symbol name='_ZN16vtkPixelTransfer4BlitIycEEiRK14vtkPixelExtentS3_S3_S3_iPT_iPT0_' type='func-type' binding='weak-binding' visibility='default-visibility' is-defined='yes'/>
    <elf-symbol name='_ZN16vtkPixelTransfer4BlitIydEEiRK14vtkPixelExtentS3_S3_S3_iPT_iPT0_' type='func-type' binding='weak-binding' visibility='default-visibility' is-defined='yes'/>
    <elf-symbol name='_ZN16vtkPixelTransfer4BlitIyfEEiRK14vtkPixelExtentS3_S3_S3_iPT_iPT0_' type='func-type' binding='weak-binding' visibility='default-visibility' is-defined='yes'/>
    <elf-symbol name='_ZN16vtkPixelTransfer4BlitIyhEEiRK14vtkPixelExtentS3_S3_S3_iPT_iPT0_' type='func-type' binding='weak-binding' visibility='default-visibility' is-defined='yes'/>
    <elf-symbol name='_ZN16vtkPixelTransfer4BlitIyiEEiRK14vtkPixelExtentS3_S3_S3_iPT_iPT0_' type='func-type' binding='weak-binding' visibility='default-visibility' is-defined='yes'/>
    <elf-symbol name='_ZN16vtkPixelTransfer4BlitIyjEEiRK14vtkPixelExtentS3_S3_S3_iPT_iPT0_' type='func-type' binding='weak-binding' visibility='default-visibility' is-defined='yes'/>
    <elf-symbol name='_ZN16vtkPixelTransfer4BlitIylEEiRK14vtkPixelExtentS3_S3_S3_iPT_iPT0_' type='func-type' binding='weak-binding' visibility='default-visibility' is-defined='yes'/>
    <elf-symbol name='_ZN16vtkPixelTransfer4BlitIymEEiRK14vtkPixelExtentS3_S3_S3_iPT_iPT0_' type='func-type' binding='weak-binding' visibility='default-visibility' is-defined='yes'/>
    <elf-symbol name='_ZN16vtkPixelTransfer4BlitIysEEiRK14vtkPixelExtentS3_S3_S3_iPT_iPT0_' type='func-type' binding='weak-binding' visibility='default-visibility' is-defined='yes'/>
    <elf-symbol name='_ZN16vtkPixelTransfer4BlitIytEEiRK14vtkPixelExtentS3_S3_S3_iPT_iPT0_' type='func-type' binding='weak-binding' visibility='default-visibility' is-defined='yes'/>
    <elf-symbol name='_ZN16vtkPixelTransfer4BlitIyxEEiRK14vtkPixelExtentS3_S3_S3_iPT_iPT0_' type='func-type' binding='weak-binding' visibility='default-visibility' is-defined='yes'/>
    <elf-symbol name='_ZN16vtkPixelTransfer4BlitIyyEEiRK14vtkPixelExtentS3_S3_S3_iPT_iPT0_' type='func-type' binding='weak-binding' visibility='default-visibility' is-defined='yes'/>
    <elf-symbol name='_ZN17vtkImageDataLIC2D10GetContextEv' type='func-type' binding='global-binding' visibility='default-visibility' is-defined='yes'/>
    <elf-symbol name='_ZN17vtkImageDataLIC2D10SetContextEP15vtkRenderWindow' type='func-type' binding='global-binding' visibility='default-visibility' is-defined='yes'/>
    <elf-symbol name='_ZN17vtkImageDataLIC2D11RequestDataEP14vtkInformationPP20vtkInformationVectorS3_' type='func-type' binding='global-binding' visibility='default-visibility' is-defined='yes'/>
    <elf-symbol name='_ZN17vtkImageDataLIC2D18RequestInformationEP14vtkInformationPP20vtkInformationVectorS3_' type='func-type' binding='global-binding' visibility='default-visibility' is-defined='yes'/>
    <elf-symbol name='_ZN17vtkImageDataLIC2D19RequestUpdateExtentEP14vtkInformationPP20vtkInformationVectorS3_' type='func-type' binding='global-binding' visibility='default-visibility' is-defined='yes'/>
    <elf-symbol name='_ZN17vtkImageDataLIC2D20TranslateInputExtentEPKiS1_Pi' type='func-type' binding='global-binding' visibility='default-visibility' is-defined='yes'/>
    <elf-symbol name='_ZN17vtkImageDataLIC2D24FillInputPortInformationEiP14vtkInformation' type='func-type' binding='global-binding' visibility='default-visibility' is-defined='yes'/>
    <elf-symbol name='_ZN17vtkImageDataLIC2D3NewEv' type='func-type' binding='global-binding' visibility='default-visibility' is-defined='yes'/>
    <elf-symbol name='_ZN17vtkImageDataLIC2D9PrintSelfERSo9vtkIndent' type='func-type' binding='global-binding' visibility='default-visibility' is-defined='yes'/>
    <elf-symbol name='_ZN17vtkImageDataLIC2DC1Ev' type='func-type' binding='global-binding' visibility='default-visibility' alias='_ZN17vtkImageDataLIC2DC2Ev' is-defined='yes'/>
    <elf-symbol name='_ZN17vtkImageDataLIC2DC2Ev' type='func-type' binding='global-binding' visibility='default-visibility' is-defined='yes'/>
    <elf-symbol name='_ZN17vtkImageDataLIC2DD0Ev' type='func-type' binding='global-binding' visibility='default-visibility' is-defined='yes'/>
    <elf-symbol name='_ZN17vtkImageDataLIC2DD1Ev' type='func-type' binding='global-binding' visibility='default-visibility' alias='_ZN17vtkImageDataLIC2DD2Ev' is-defined='yes'/>
    <elf-symbol name='_ZN17vtkImageDataLIC2DD2Ev' type='func-type' binding='global-binding' visibility='default-visibility' is-defined='yes'/>
    <elf-symbol name='_ZN20vtkSurfaceLICPainter11IsSupportedEP15vtkRenderWindow' type='func-type' binding='global-binding' visibility='default-visibility' is-defined='yes'/>
    <elf-symbol name='_ZN20vtkSurfaceLICPainter11SetStepSizeEd' type='func-type' binding='global-binding' visibility='default-visibility' is-defined='yes'/>
    <elf-symbol name='_ZN20vtkSurfaceLICPainter12ClearTCoordsEP10vtkDataSet' type='func-type' binding='global-binding' visibility='default-visibility' is-defined='yes'/>
    <elf-symbol name='_ZN20vtkSurfaceLICPainter12SetAntiAliasEi' type='func-type' binding='global-binding' visibility='default-visibility' is-defined='yes'/>
    <elf-symbol name='_ZN20vtkSurfaceLICPainter12SetColorModeEi' type='func-type' binding='global-binding' visibility='default-visibility' is-defined='yes'/>
    <elf-symbol name='_ZN20vtkSurfaceLICPainter12SetMaskColorEPd' type='func-type' binding='global-binding' visibility='default-visibility' is-defined='yes'/>
    <elf-symbol name='_ZN20vtkSurfaceLICPainter12SetNoiseTypeEi' type='func-type' binding='global-binding' visibility='default-visibility' is-defined='yes'/>
    <elf-symbol name='_ZN20vtkSurfaceLICPainter12SetUpdateAllEv' type='func-type' binding='global-binding' visibility='default-visibility' is-defined='yes'/>
    <elf-symbol name='_ZN20vtkSurfaceLICPainter13PrepareOutputEv' type='func-type' binding='global-binding' visibility='default-visibility' is-defined='yes'/>
    <elf-symbol name='_ZN20vtkSurfaceLICPainter14NeedToColorLICEv' type='func-type' binding='global-binding' visibility='default-visibility' is-defined='yes'/>
    <elf-symbol name='_ZN20vtkSurfaceLICPainter14RenderInternalEP11vtkRendererP8vtkActormb' type='func-type' binding='global-binding' visibility='default-visibility' is-defined='yes'/>
    <elf-symbol name='_ZN20vtkSurfaceLICPainter14SetEnhancedLICEi' type='func-type' binding='global-binding' visibility='default-visibility' is-defined='yes'/>
    <elf-symbol name='_ZN20vtkSurfaceLICPainter14SetMapModeBiasEd' type='func-type' binding='global-binding' visibility='default-visibility' is-defined='yes'/>
    <elf-symbol name='_ZN20vtkSurfaceLICPainter15GetNoiseDataSetEv' type='func-type' binding='global-binding' visibility='default-visibility' is-defined='yes'/>
    <elf-symbol name='_ZN20vtkSurfaceLICPainter15SetLICIntensityEd' type='func-type' binding='global-binding' visibility='default-visibility' is-defined='yes'/>
    <elf-symbol name='_ZN20vtkSurfaceLICPainter15SetNoiseDataSetEP12vtkImageData' type='func-type' binding='global-binding' visibility='default-visibility' is-defined='yes'/>
    <elf-symbol name='_ZN20vtkSurfaceLICPainter15ValidateContextEP11vtkRenderer' type='func-type' binding='global-binding' visibility='default-visibility' is-defined='yes'/>
    <elf-symbol name='_ZN20vtkSurfaceLICPainter16NeedToComputeLICEv' type='func-type' binding='global-binding' visibility='default-visibility' is-defined='yes'/>
    <elf-symbol name='_ZN20vtkSurfaceLICPainter16ReportReferencesEP19vtkGarbageCollector' type='func-type' binding='global-binding' visibility='default-visibility' is-defined='yes'/>
    <elf-symbol name='_ZN20vtkSurfaceLICPainter16SetMaskIntensityEd' type='func-type' binding='global-binding' visibility='default-visibility' is-defined='yes'/>
    <elf-symbol name='_ZN20vtkSurfaceLICPainter16SetMaskOnSurfaceEi' type='func-type' binding='global-binding' visibility='default-visibility' is-defined='yes'/>
    <elf-symbol name='_ZN20vtkSurfaceLICPainter16SetMaskThresholdEd' type='func-type' binding='global-binding' visibility='default-visibility' is-defined='yes'/>
    <elf-symbol name='_ZN20vtkSurfaceLICPainter16SetMaxNoiseValueEd' type='func-type' binding='global-binding' visibility='default-visibility' is-defined='yes'/>
    <elf-symbol name='_ZN20vtkSurfaceLICPainter16SetMinNoiseValueEd' type='func-type' binding='global-binding' visibility='default-visibility' is-defined='yes'/>
    <elf-symbol name='_ZN20vtkSurfaceLICPainter16SetNumberOfStepsEi' type='func-type' binding='global-binding' visibility='default-visibility' is-defined='yes'/>
    <elf-symbol name='_ZN20vtkSurfaceLICPainter16UpdateNoiseImageEP15vtkRenderWindow' type='func-type' binding='global-binding' visibility='default-visibility' is-defined='yes'/>
    <elf-symbol name='_ZN20vtkSurfaceLICPainter16VectorsToTCoordsEP10vtkDataSet' type='func-type' binding='global-binding' visibility='default-visibility' is-defined='yes'/>
    <elf-symbol name='_ZN20vtkSurfaceLICPainter16VectorsToTCoordsEP13vtkDataObject' type='func-type' binding='global-binding' visibility='default-visibility' is-defined='yes'/>
    <elf-symbol name='_ZN20vtkSurfaceLICPainter17SetNoiseGrainSizeEi' type='func-type' binding='global-binding' visibility='default-visibility' is-defined='yes'/>
    <elf-symbol name='_ZN20vtkSurfaceLICPainter18CreateCommunicatorEi' type='func-type' binding='global-binding' visibility='default-visibility' is-defined='yes'/>
    <elf-symbol name='_ZN20vtkSurfaceLICPainter18CreateCommunicatorEv' type='func-type' binding='global-binding' visibility='default-visibility' is-defined='yes'/>
    <elf-symbol name='_ZN20vtkSurfaceLICPainter18ProcessInformationEP14vtkInformation' type='func-type' binding='global-binding' visibility='default-visibility' is-defined='yes'/>
    <elf-symbol name='_ZN20vtkSurfaceLICPainter18SetEnhanceContrastEi' type='func-type' binding='global-binding' visibility='default-visibility' is-defined='yes'/>
    <elf-symbol name='_ZN20vtkSurfaceLICPainter19CanRenderSurfaceLICEP8vtkActori' type='func-type' binding='global-binding' visibility='default-visibility' is-defined='yes'/>
    <elf-symbol name='_ZN20vtkSurfaceLICPainter19InitializeResourcesEv' type='func-type' binding='global-binding' visibility='default-visibility' is-defined='yes'/>
    <elf-symbol name='_ZN20vtkSurfaceLICPainter19NeedToGatherVectorsEv' type='func-type' binding='global-binding' visibility='default-visibility' is-defined='yes'/>
    <elf-symbol name='_ZN20vtkSurfaceLICPainter19SetNoiseTextureSizeEi' type='func-type' binding='global-binding' visibility='default-visibility' is-defined='yes'/>
    <elf-symbol name='_ZN20vtkSurfaceLICPainter19SetNormalizeVectorsEi' type='func-type' binding='global-binding' visibility='default-visibility' is-defined='yes'/>
    <elf-symbol name='_ZN20vtkSurfaceLICPainter20NeedToRenderGeometryEP11vtkRendererP8vtkActor' type='func-type' binding='global-binding' visibility='default-visibility' is-defined='yes'/>
    <elf-symbol name='_ZN20vtkSurfaceLICPainter20SetCompositeStrategyEi' type='func-type' binding='global-binding' visibility='default-visibility' is-defined='yes'/>
    <elf-symbol name='_ZN20vtkSurfaceLICPainter21SetNoiseGeneratorSeedEi' type='func-type' binding='global-binding' visibility='default-visibility' is-defined='yes'/>
    <elf-symbol name='_ZN20vtkSurfaceLICPainter22NeedToUpdateOutputDataEv' type='func-type' binding='global-binding' visibility='default-visibility' is-defined='yes'/>
    <elf-symbol name='_ZN20vtkSurfaceLICPainter22SetInputArrayToProcessEiPKc' type='func-type' binding='global-binding' visibility='default-visibility' is-defined='yes'/>
    <elf-symbol name='_ZN20vtkSurfaceLICPainter22SetInputArrayToProcessEii' type='func-type' binding='global-binding' visibility='default-visibility' is-defined='yes'/>
    <elf-symbol name='_ZN20vtkSurfaceLICPainter22SetNumberOfNoiseLevelsEi' type='func-type' binding='global-binding' visibility='default-visibility' is-defined='yes'/>
    <elf-symbol name='_ZN20vtkSurfaceLICPainter23SetGenerateNoiseTextureEi' type='func-type' binding='global-binding' visibility='default-visibility' is-defined='yes'/>
    <elf-symbol name='_ZN20vtkSurfaceLICPainter24NeedToUpdateCommunicatorEv' type='func-type' binding='global-binding' visibility='default-visibility' is-defined='yes'/>
    <elf-symbol name='_ZN20vtkSurfaceLICPainter24ReleaseGraphicsResourcesEP9vtkWindow' type='func-type' binding='global-binding' visibility='default-visibility' is-defined='yes'/>
    <elf-symbol name='_ZN20vtkSurfaceLICPainter26SetImpulseNoiseProbabilityEd' type='func-type' binding='global-binding' visibility='default-visibility' is-defined='yes'/>
    <elf-symbol name='_ZN20vtkSurfaceLICPainter30SetImpulseNoiseBackgroundValueEd' type='func-type' binding='global-binding' visibility='default-visibility' is-defined='yes'/>
    <elf-symbol name='_ZN20vtkSurfaceLICPainter34SetLowLICContrastEnhancementFactorEd' type='func-type' binding='global-binding' visibility='default-visibility' is-defined='yes'/>
    <elf-symbol name='_ZN20vtkSurfaceLICPainter35SetHighLICContrastEnhancementFactorEd' type='func-type' binding='global-binding' visibility='default-visibility' is-defined='yes'/>
    <elf-symbol name='_ZN20vtkSurfaceLICPainter36SetLowColorContrastEnhancementFactorEd' type='func-type' binding='global-binding' visibility='default-visibility' is-defined='yes'/>
    <elf-symbol name='_ZN20vtkSurfaceLICPainter37SetHighColorContrastEnhancementFactorEd' type='func-type' binding='global-binding' visibility='default-visibility' is-defined='yes'/>
    <elf-symbol name='_ZN20vtkSurfaceLICPainter3NewEv' type='func-type' binding='global-binding' visibility='default-visibility' is-defined='yes'/>
    <elf-symbol name='_ZN20vtkSurfaceLICPainter9GetBoundsEP13vtkDataObjectPd' type='func-type' binding='global-binding' visibility='default-visibility' is-defined='yes'/>
    <elf-symbol name='_ZN20vtkSurfaceLICPainter9GetOutputEv' type='func-type' binding='global-binding' visibility='default-visibility' is-defined='yes'/>
    <elf-symbol name='_ZN20vtkSurfaceLICPainter9PrintSelfERSo9vtkIndent' type='func-type' binding='global-binding' visibility='default-visibility' is-defined='yes'/>
    <elf-symbol name='_ZN20vtkSurfaceLICPainter9SetEnableEi' type='func-type' binding='global-binding' visibility='default-visibility' is-defined='yes'/>
    <elf-symbol name='_ZN20vtkSurfaceLICPainterC1Ev' type='func-type' binding='global-binding' visibility='default-visibility' alias='_ZN20vtkSurfaceLICPainterC2Ev' is-defined='yes'/>
    <elf-symbol name='_ZN20vtkSurfaceLICPainterC2Ev' type='func-type' binding='global-binding' visibility='default-visibility' is-defined='yes'/>
    <elf-symbol name='_ZN20vtkSurfaceLICPainterD0Ev' type='func-type' binding='global-binding' visibility='default-visibility' is-defined='yes'/>
    <elf-symbol name='_ZN20vtkSurfaceLICPainterD1Ev' type='func-type' binding='global-binding' visibility='default-visibility' alias='_ZN20vtkSurfaceLICPainterD2Ev' is-defined='yes'/>
    <elf-symbol name='_ZN20vtkSurfaceLICPainterD2Ev' type='func-type' binding='global-binding' visibility='default-visibility' is-defined='yes'/>
    <elf-symbol name='_ZN22vtkStructuredGridLIC2D10GetContextEv' type='func-type' binding='global-binding' visibility='default-visibility' is-defined='yes'/>
    <elf-symbol name='_ZN22vtkStructuredGridLIC2D10SetContextEP15vtkRenderWindow' type='func-type' binding='global-binding' visibility='default-visibility' is-defined='yes'/>
    <elf-symbol name='_ZN22vtkStructuredGridLIC2D11RequestDataEP14vtkInformationPP20vtkInformationVectorS3_' type='func-type' binding='global-binding' visibility='default-visibility' is-defined='yes'/>
    <elf-symbol name='_ZN22vtkStructuredGridLIC2D15AllocateScalarsEP17vtkStructuredGridP14vtkInformation' type='func-type' binding='global-binding' visibility='default-visibility' is-defined='yes'/>
    <elf-symbol name='_ZN22vtkStructuredGridLIC2D18AllocateOutputDataEP13vtkDataObjectP14vtkInformation' type='func-type' binding='global-binding' visibility='default-visibility' is-defined='yes'/>
    <elf-symbol name='_ZN22vtkStructuredGridLIC2D18RequestInformationEP14vtkInformationPP20vtkInformationVectorS3_' type='func-type' binding='global-binding' visibility='default-visibility' is-defined='yes'/>
    <elf-symbol name='_ZN22vtkStructuredGridLIC2D19RequestUpdateExtentEP14vtkInformationPP20vtkInformationVectorS3_' type='func-type' binding='global-binding' visibility='default-visibility' is-defined='yes'/>
    <elf-symbol name='_ZN22vtkStructuredGridLIC2D24FillInputPortInformationEiP14vtkInformation' type='func-type' binding='global-binding' visibility='default-visibility' is-defined='yes'/>
    <elf-symbol name='_ZN22vtkStructuredGridLIC2D25FillOutputPortInformationEiP14vtkInformation' type='func-type' binding='global-binding' visibility='default-visibility' is-defined='yes'/>
    <elf-symbol name='_ZN22vtkStructuredGridLIC2D3NewEv' type='func-type' binding='global-binding' visibility='default-visibility' is-defined='yes'/>
    <elf-symbol name='_ZN22vtkStructuredGridLIC2D9PrintSelfERSo9vtkIndent' type='func-type' binding='global-binding' visibility='default-visibility' is-defined='yes'/>
    <elf-symbol name='_ZN22vtkStructuredGridLIC2DC1Ev' type='func-type' binding='global-binding' visibility='default-visibility' alias='_ZN22vtkStructuredGridLIC2DC2Ev' is-defined='yes'/>
    <elf-symbol name='_ZN22vtkStructuredGridLIC2DC2Ev' type='func-type' binding='global-binding' visibility='default-visibility' is-defined='yes'/>
    <elf-symbol name='_ZN22vtkStructuredGridLIC2DD0Ev' type='func-type' binding='global-binding' visibility='default-visibility' is-defined='yes'/>
    <elf-symbol name='_ZN22vtkStructuredGridLIC2DD1Ev' type='func-type' binding='global-binding' visibility='default-visibility' alias='_ZN22vtkStructuredGridLIC2DD2Ev' is-defined='yes'/>
    <elf-symbol name='_ZN22vtkStructuredGridLIC2DD2Ev' type='func-type' binding='global-binding' visibility='default-visibility' is-defined='yes'/>
    <elf-symbol name='_ZN22vtkSurfaceLICComposite10InitializeERK14vtkPixelExtentRKSt5dequeIS0_SaIS0_EEidiiii' type='func-type' binding='global-binding' visibility='default-visibility' is-defined='yes'/>
    <elf-symbol name='_ZN22vtkSurfaceLICComposite14AddGuardPixelsERKSt5dequeI14vtkPixelExtentSaIS1_EERS3_S6_Pf' type='func-type' binding='global-binding' visibility='default-visibility' is-defined='yes'/>
    <elf-symbol name='_ZN22vtkSurfaceLICComposite14GetFudgeFactorEPi' type='func-type' binding='global-binding' visibility='default-visibility' is-defined='yes'/>
    <elf-symbol name='_ZN22vtkSurfaceLICComposite14GetPixelBoundsEPfiR14vtkPixelExtent' type='func-type' binding='global-binding' visibility='default-visibility' is-defined='yes'/>
    <elf-symbol name='_ZN22vtkSurfaceLICComposite18MakeDecompDisjointERKSt5dequeI14vtkPixelExtentSaIS1_EERS3_Pf' type='func-type' binding='global-binding' visibility='default-visibility' is-defined='yes'/>
    <elf-symbol name='_ZN22vtkSurfaceLICComposite18MakeDecompDisjointERSt5dequeI14vtkPixelExtentSaIS1_EES4_' type='func-type' binding='global-binding' visibility='default-visibility' is-defined='yes'/>
    <elf-symbol name='_ZN22vtkSurfaceLICComposite26InitializeCompositeExtentsEPf' type='func-type' binding='global-binding' visibility='default-visibility' is-defined='yes'/>
    <elf-symbol name='_ZN22vtkSurfaceLICComposite3NewEv' type='func-type' binding='global-binding' visibility='default-visibility' is-defined='yes'/>
    <elf-symbol name='_ZN22vtkSurfaceLICComposite9PrintSelfERSo9vtkIndent' type='func-type' binding='global-binding' visibility='default-visibility' is-defined='yes'/>
    <elf-symbol name='_ZN22vtkSurfaceLICComposite9VectorMaxERK14vtkPixelExtentPf' type='func-type' binding='global-binding' visibility='default-visibility' is-defined='yes'/>
    <elf-symbol name='_ZN22vtkSurfaceLICComposite9VectorMaxERKSt5dequeI14vtkPixelExtentSaIS1_EEPfRSt6vectorIfSaIfEE' type='func-type' binding='global-binding' visibility='default-visibility' is-defined='yes'/>
    <elf-symbol name='_ZN22vtkSurfaceLICCompositeC1Ev' type='func-type' binding='global-binding' visibility='default-visibility' alias='_ZN22vtkSurfaceLICCompositeC2Ev' is-defined='yes'/>
    <elf-symbol name='_ZN22vtkSurfaceLICCompositeC2Ev' type='func-type' binding='global-binding' visibility='default-visibility' is-defined='yes'/>
    <elf-symbol name='_ZN22vtkSurfaceLICCompositeD0Ev' type='func-type' binding='global-binding' visibility='default-visibility' is-defined='yes'/>
    <elf-symbol name='_ZN22vtkSurfaceLICCompositeD1Ev' type='func-type' binding='global-binding' visibility='default-visibility' alias='_ZN22vtkSurfaceLICCompositeD2Ev' is-defined='yes'/>
    <elf-symbol name='_ZN22vtkSurfaceLICCompositeD2Ev' type='func-type' binding='global-binding' visibility='default-visibility' is-defined='yes'/>
    <elf-symbol name='_ZN27vtkSurfaceLICDefaultPainter12UpdateBoundsEPd' type='func-type' binding='global-binding' visibility='default-visibility' is-defined='yes'/>
    <elf-symbol name='_ZN27vtkSurfaceLICDefaultPainter16ReportReferencesEP19vtkGarbageCollector' type='func-type' binding='global-binding' visibility='default-visibility' is-defined='yes'/>
    <elf-symbol name='_ZN27vtkSurfaceLICDefaultPainter17BuildPainterChainEv' type='func-type' binding='global-binding' visibility='default-visibility' is-defined='yes'/>
    <elf-symbol name='_ZN27vtkSurfaceLICDefaultPainter20SetSurfaceLICPainterEP20vtkSurfaceLICPainter' type='func-type' binding='global-binding' visibility='default-visibility' is-defined='yes'/>
    <elf-symbol name='_ZN27vtkSurfaceLICDefaultPainter3NewEv' type='func-type' binding='global-binding' visibility='default-visibility' is-defined='yes'/>
    <elf-symbol name='_ZN27vtkSurfaceLICDefaultPainter9PrintSelfERSo9vtkIndent' type='func-type' binding='global-binding' visibility='default-visibility' is-defined='yes'/>
    <elf-symbol name='_ZN27vtkSurfaceLICDefaultPainterC1Ev' type='func-type' binding='global-binding' visibility='default-visibility' is-defined='yes'/>
    <elf-symbol name='_ZN27vtkSurfaceLICDefaultPainterC2Ev' type='func-type' binding='global-binding' visibility='default-visibility' alias='_ZN27vtkSurfaceLICDefaultPainterC1Ev' is-defined='yes'/>
    <elf-symbol name='_ZN27vtkSurfaceLICDefaultPainterD0Ev' type='func-type' binding='global-binding' visibility='default-visibility' is-defined='yes'/>
    <elf-symbol name='_ZN27vtkSurfaceLICDefaultPainterD1Ev' type='func-type' binding='global-binding' visibility='default-visibility' alias='_ZN27vtkSurfaceLICDefaultPainterD2Ev' is-defined='yes'/>
    <elf-symbol name='_ZN27vtkSurfaceLICDefaultPainterD2Ev' type='func-type' binding='global-binding' visibility='default-visibility' is-defined='yes'/>
    <elf-symbol name='_ZN28vtkLineIntegralConvolution2D10GetContextEv' type='func-type' binding='global-binding' visibility='default-visibility' is-defined='yes'/>
    <elf-symbol name='_ZN28vtkLineIntegralConvolution2D10SetContextEP15vtkRenderWindow' type='func-type' binding='global-binding' visibility='default-visibility' is-defined='yes'/>
    <elf-symbol name='_ZN28vtkLineIntegralConvolution2D11IsSupportedEP15vtkRenderWindow' type='func-type' binding='global-binding' visibility='default-visibility' is-defined='yes'/>
    <elf-symbol name='_ZN28vtkLineIntegralConvolution2D11SetCEShaderEP17vtkShaderProgram2' type='func-type' binding='global-binding' visibility='default-visibility' is-defined='yes'/>
    <elf-symbol name='_ZN28vtkLineIntegralConvolution2D11SetEEShaderEP17vtkShaderProgram2' type='func-type' binding='global-binding' visibility='default-visibility' is-defined='yes'/>
    <elf-symbol name='_ZN28vtkLineIntegralConvolution2D11SetVTShaderEP17vtkShaderProgram2' type='func-type' binding='global-binding' visibility='default-visibility' is-defined='yes'/>
    <elf-symbol name='_ZN28vtkLineIntegralConvolution2D12BuildShadersEv' type='func-type' binding='global-binding' visibility='default-visibility' is-defined='yes'/>
    <elf-symbol name='_ZN28vtkLineIntegralConvolution2D12SetAAHShaderEP17vtkShaderProgram2' type='func-type' binding='global-binding' visibility='default-visibility' is-defined='yes'/>
    <elf-symbol name='_ZN28vtkLineIntegralConvolution2D12SetAAVShaderEP17vtkShaderProgram2' type='func-type' binding='global-binding' visibility='default-visibility' is-defined='yes'/>
    <elf-symbol name='_ZN28vtkLineIntegralConvolution2D13SetLIC0ShaderEP17vtkShaderProgram2' type='func-type' binding='global-binding' visibility='default-visibility' is-defined='yes'/>
    <elf-symbol name='_ZN28vtkLineIntegralConvolution2D13SetLICIShaderEP17vtkShaderProgram2' type='func-type' binding='global-binding' visibility='default-visibility' is-defined='yes'/>
    <elf-symbol name='_ZN28vtkLineIntegralConvolution2D13SetLICNShaderEP17vtkShaderProgram2' type='func-type' binding='global-binding' visibility='default-visibility' is-defined='yes'/>
    <elf-symbol name='_ZN28vtkLineIntegralConvolution2D15GetCommunicatorEv' type='func-type' binding='global-binding' visibility='default-visibility' is-defined='yes'/>
    <elf-symbol name='_ZN28vtkLineIntegralConvolution2D15SetComponentIdsEii' type='func-type' binding='global-binding' visibility='default-visibility' is-defined='yes'/>
    <elf-symbol name='_ZN28vtkLineIntegralConvolution2D19SetNormalizeVectorsEi' type='func-type' binding='global-binding' visibility='default-visibility' is-defined='yes'/>
    <elf-symbol name='_ZN28vtkLineIntegralConvolution2D19SetTransformVectorsEi' type='func-type' binding='global-binding' visibility='default-visibility' is-defined='yes'/>
    <elf-symbol name='_ZN28vtkLineIntegralConvolution2D21SetNoiseTexParametersEP16vtkTextureObject' type='func-type' binding='global-binding' visibility='default-visibility' is-defined='yes'/>
    <elf-symbol name='_ZN28vtkLineIntegralConvolution2D22SetVectorTexParametersEP16vtkTextureObject' type='func-type' binding='global-binding' visibility='default-visibility' is-defined='yes'/>
    <elf-symbol name='_ZN28vtkLineIntegralConvolution2D3NewEv' type='func-type' binding='global-binding' visibility='default-visibility' is-defined='yes'/>
    <elf-symbol name='_ZN28vtkLineIntegralConvolution2D7ExecuteEP16vtkTextureObjectS1_' type='func-type' binding='global-binding' visibility='default-visibility' is-defined='yes'/>
    <elf-symbol name='_ZN28vtkLineIntegralConvolution2D7ExecuteEPKiP16vtkTextureObjectS3_' type='func-type' binding='global-binding' visibility='default-visibility' is-defined='yes'/>
    <elf-symbol name='_ZN28vtkLineIntegralConvolution2D7ExecuteERK14vtkPixelExtentRKSt5dequeIS0_SaIS0_EES7_P16vtkTextureObjectS9_S9_' type='func-type' binding='global-binding' visibility='default-visibility' is-defined='yes'/>
    <elf-symbol name='_ZN28vtkLineIntegralConvolution2D9PrintSelfERSo9vtkIndent' type='func-type' binding='global-binding' visibility='default-visibility' is-defined='yes'/>
    <elf-symbol name='_ZN28vtkLineIntegralConvolution2DC1Ev' type='func-type' binding='global-binding' visibility='default-visibility' alias='_ZN28vtkLineIntegralConvolution2DC2Ev' is-defined='yes'/>
    <elf-symbol name='_ZN28vtkLineIntegralConvolution2DC2Ev' type='func-type' binding='global-binding' visibility='default-visibility' is-defined='yes'/>
    <elf-symbol name='_ZN28vtkLineIntegralConvolution2DD0Ev' type='func-type' binding='global-binding' visibility='default-visibility' is-defined='yes'/>
    <elf-symbol name='_ZN28vtkLineIntegralConvolution2DD1Ev' type='func-type' binding='global-binding' visibility='default-visibility' alias='_ZN28vtkLineIntegralConvolution2DD2Ev' is-defined='yes'/>
    <elf-symbol name='_ZN28vtkLineIntegralConvolution2DD2Ev' type='func-type' binding='global-binding' visibility='default-visibility' is-defined='yes'/>
    <elf-symbol name='_ZN33vtkImageDataLIC2DExtentTranslator12GetAlgorithmEv' type='func-type' binding='global-binding' visibility='default-visibility' is-defined='yes'/>
    <elf-symbol name='_ZN33vtkImageDataLIC2DExtentTranslator12SetAlgorithmEP17vtkImageDataLIC2D' type='func-type' binding='global-binding' visibility='default-visibility' is-defined='yes'/>
    <elf-symbol name='_ZN33vtkImageDataLIC2DExtentTranslator23PieceToExtentThreadSafeEiiiPiS0_ii' type='func-type' binding='global-binding' visibility='default-visibility' is-defined='yes'/>
    <elf-symbol name='_ZN33vtkImageDataLIC2DExtentTranslator24SetInputExtentTranslatorEP19vtkExtentTranslator' type='func-type' binding='global-binding' visibility='default-visibility' is-defined='yes'/>
    <elf-symbol name='_ZN33vtkImageDataLIC2DExtentTranslator3NewEv' type='func-type' binding='global-binding' visibility='default-visibility' is-defined='yes'/>
    <elf-symbol name='_ZN33vtkImageDataLIC2DExtentTranslator9PrintSelfERSo9vtkIndent' type='func-type' binding='global-binding' visibility='default-visibility' is-defined='yes'/>
    <elf-symbol name='_ZN33vtkImageDataLIC2DExtentTranslatorC1Ev' type='func-type' binding='global-binding' visibility='default-visibility' alias='_ZN33vtkImageDataLIC2DExtentTranslatorC2Ev' is-defined='yes'/>
    <elf-symbol name='_ZN33vtkImageDataLIC2DExtentTranslatorC2Ev' type='func-type' binding='global-binding' visibility='default-visibility' is-defined='yes'/>
    <elf-symbol name='_ZN33vtkImageDataLIC2DExtentTranslatorD0Ev' type='func-type' binding='global-binding' visibility='default-visibility' is-defined='yes'/>
    <elf-symbol name='_ZN33vtkImageDataLIC2DExtentTranslatorD1Ev' type='func-type' binding='global-binding' visibility='default-visibility' alias='_ZN33vtkImageDataLIC2DExtentTranslatorD2Ev' is-defined='yes'/>
    <elf-symbol name='_ZN33vtkImageDataLIC2DExtentTranslatorD2Ev' type='func-type' binding='global-binding' visibility='default-visibility' is-defined='yes'/>
    <elf-symbol name='_ZN9__gnu_cxx13new_allocatorI14vtkPixelExtentE8allocateEmPKv' type='func-type' binding='weak-binding' visibility='default-visibility' is-defined='yes'/>
    <elf-symbol name='_ZNKSt15_Deque_iteratorI14vtkPixelExtentRS0_PS0_EplEl' type='func-type' binding='weak-binding' visibility='default-visibility' is-defined='yes'/>
    <elf-symbol name='_ZNSt11_Deque_baseI14vtkPixelExtentSaIS0_EE17_M_initialize_mapEm' type='func-type' binding='weak-binding' visibility='default-visibility' is-defined='yes'/>
    <elf-symbol name='_ZNSt11_Deque_baseI14vtkPixelExtentSaIS0_EED1Ev' type='func-type' binding='weak-binding' visibility='default-visibility' alias='_ZNSt11_Deque_baseI14vtkPixelExtentSaIS0_EED2Ev' is-defined='yes'/>
    <elf-symbol name='_ZNSt11_Deque_baseI14vtkPixelExtentSaIS0_EED2Ev' type='func-type' binding='weak-binding' visibility='default-visibility' is-defined='yes'/>
    <elf-symbol name='_ZNSt15_Deque_iteratorI14vtkPixelExtentRS0_PS0_EpLEl' type='func-type' binding='weak-binding' visibility='default-visibility' is-defined='yes'/>
    <elf-symbol name='_ZNSt5dequeI14vtkPixelExtentSaIS0_EE13_M_insert_auxISt15_Deque_iteratorIS0_RKS0_PS5_EEEvS4_IS0_RS0_PS0_ET_SC_m' type='func-type' binding='weak-binding' visibility='default-visibility' is-defined='yes'/>
    <elf-symbol name='_ZNSt5dequeI14vtkPixelExtentSaIS0_EE13_M_insert_auxISt15_Deque_iteratorIS0_RS0_PS0_EEEvS7_T_S8_m' type='func-type' binding='weak-binding' visibility='default-visibility' is-defined='yes'/>
    <elf-symbol name='_ZNSt5dequeI14vtkPixelExtentSaIS0_EE17_M_reallocate_mapEmb' type='func-type' binding='weak-binding' visibility='default-visibility' is-defined='yes'/>
    <elf-symbol name='_ZNSt5dequeI14vtkPixelExtentSaIS0_EE19_M_range_insert_auxISt15_Deque_iteratorIS0_RKS0_PS5_EEEvS4_IS0_RS0_PS0_ET_SC_St20forward_iterator_tag' type='func-type' binding='weak-binding' visibility='default-visibility' is-defined='yes'/>
    <elf-symbol name='_ZNSt5dequeI14vtkPixelExtentSaIS0_EE19_M_range_insert_auxISt15_Deque_iteratorIS0_RS0_PS0_EEEvS7_T_S8_St20forward_iterator_tag' type='func-type' binding='weak-binding' visibility='default-visibility' is-defined='yes'/>
    <elf-symbol name='_ZNSt5dequeI14vtkPixelExtentSaIS0_EE22_M_reserve_map_at_backEm' type='func-type' binding='weak-binding' visibility='default-visibility' is-defined='yes'/>
    <elf-symbol name='_ZNSt5dequeI14vtkPixelExtentSaIS0_EE23_M_new_elements_at_backEm' type='func-type' binding='weak-binding' visibility='default-visibility' is-defined='yes'/>
    <elf-symbol name='_ZNSt5dequeI14vtkPixelExtentSaIS0_EE24_M_new_elements_at_frontEm' type='func-type' binding='weak-binding' visibility='default-visibility' is-defined='yes'/>
    <elf-symbol name='_ZNSt5dequeI14vtkPixelExtentSaIS0_EE27_M_reserve_elements_at_backEm' type='func-type' binding='weak-binding' visibility='default-visibility' is-defined='yes'/>
    <elf-symbol name='_ZNSt5dequeI14vtkPixelExtentSaIS0_EE28_M_reserve_elements_at_frontEm' type='func-type' binding='weak-binding' visibility='default-visibility' is-defined='yes'/>
    <elf-symbol name='_ZNSt5dequeI14vtkPixelExtentSaIS0_EEC1ERKS2_' type='func-type' binding='weak-binding' visibility='default-visibility' is-defined='yes'/>
    <elf-symbol name='_ZNSt5dequeI14vtkPixelExtentSaIS0_EEC2ERKS2_' type='func-type' binding='weak-binding' visibility='default-visibility' alias='_ZNSt5dequeI14vtkPixelExtentSaIS0_EEC1ERKS2_' is-defined='yes'/>
    <elf-symbol name='_ZNSt5dequeI14vtkPixelExtentSaIS0_EEaSERKS2_' type='func-type' binding='weak-binding' visibility='default-visibility' is-defined='yes'/>
    <elf-symbol name='_ZNSt6vectorIfSaIfEE14_M_fill_insertEN9__gnu_cxx17__normal_iteratorIPfS1_EEmRKf' type='func-type' binding='weak-binding' visibility='default-visibility' is-defined='yes'/>
    <elf-symbol name='_ZSt11__push_heapISt15_Deque_iteratorI14vtkPixelExtentRS1_PS1_ElS1_EvT_T0_S6_T1_' type='func-type' binding='weak-binding' visibility='default-visibility' is-defined='yes'/>
    <elf-symbol name='_ZSt13__adjust_heapISt15_Deque_iteratorI14vtkPixelExtentRS1_PS1_ElS1_EvT_T0_S6_T1_' type='func-type' binding='weak-binding' visibility='default-visibility' is-defined='yes'/>
    <elf-symbol name='_ZSt16__insertion_sortISt15_Deque_iteratorI14vtkPixelExtentRS1_PS1_EEvT_S5_' type='func-type' binding='weak-binding' visibility='default-visibility' is-defined='yes'/>
    <elf-symbol name='_ZSt16__introsort_loopISt15_Deque_iteratorI14vtkPixelExtentRS1_PS1_ElEvT_S5_T0_' type='func-type' binding='weak-binding' visibility='default-visibility' is-defined='yes'/>
    <elf-symbol name='_ZSt21__unguarded_partitionISt15_Deque_iteratorI14vtkPixelExtentRS1_PS1_ES1_ET_S5_S5_T0_' type='func-type' binding='weak-binding' visibility='default-visibility' is-defined='yes'/>
    <elf-symbol name='_ZSt22__final_insertion_sortISt15_Deque_iteratorI14vtkPixelExtentRS1_PS1_EEvT_S5_' type='func-type' binding='weak-binding' visibility='default-visibility' is-defined='yes'/>
    <elf-symbol name='_ZSt22__uninitialized_copy_aISt15_Deque_iteratorI14vtkPixelExtentRS1_PS1_ES4_S1_ET0_T_S6_S5_RSaIT1_E' type='func-type' binding='weak-binding' visibility='default-visibility' is-defined='yes'/>
    <elf-symbol name='_ZSt22__uninitialized_move_aIPfS0_SaIfEET0_T_S3_S2_RT1_' type='func-type' binding='weak-binding' visibility='default-visibility' is-defined='yes'/>
    <elf-symbol name='_ZSt25__unguarded_linear_insertISt15_Deque_iteratorI14vtkPixelExtentRS1_PS1_ES1_EvT_T0_' type='func-type' binding='weak-binding' visibility='default-visibility' is-defined='yes'/>
    <elf-symbol name='_ZSt4copyISt15_Deque_iteratorI14vtkPixelExtentRS1_PS1_ES4_ET0_T_S6_S5_' type='func-type' binding='weak-binding' visibility='default-visibility' is-defined='yes'/>
    <elf-symbol name='_ZSt9make_heapISt15_Deque_iteratorI14vtkPixelExtentRS1_PS1_EEvT_S5_' type='func-type' binding='weak-binding' visibility='default-visibility' is-defined='yes'/>
    <elf-symbol name='_fini' type='func-type' binding='global-binding' visibility='default-visibility' is-defined='yes'/>
    <elf-symbol name='_init' type='func-type' binding='global-binding' visibility='default-visibility' is-defined='yes'/>
  </elf-function-symbols>
  <elf-variable-symbols>
    <elf-symbol name='_ZTI17vtkImageDataLIC2D' size='24' type='object-type' binding='weak-binding' visibility='default-visibility' is-defined='yes'/>
    <elf-symbol name='_ZTI20vtkSurfaceLICPainter' size='24' type='object-type' binding='weak-binding' visibility='default-visibility' is-defined='yes'/>
    <elf-symbol name='_ZTI22vtkPainterCommunicator' size='16' type='object-type' binding='weak-binding' visibility='default-visibility' is-defined='yes'/>
    <elf-symbol name='_ZTI22vtkStructuredGridLIC2D' size='24' type='object-type' binding='weak-binding' visibility='default-visibility' is-defined='yes'/>
    <elf-symbol name='_ZTI22vtkSurfaceLICComposite' size='24' type='object-type' binding='weak-binding' visibility='default-visibility' is-defined='yes'/>
    <elf-symbol name='_ZTI27vtkSurfaceLICDefaultPainter' size='24' type='object-type' binding='weak-binding' visibility='default-visibility' is-defined='yes'/>
    <elf-symbol name='_ZTI28vtkLineIntegralConvolution2D' size='24' type='object-type' binding='weak-binding' visibility='default-visibility' is-defined='yes'/>
    <elf-symbol name='_ZTI33vtkImageDataLIC2DExtentTranslator' size='24' type='object-type' binding='weak-binding' visibility='default-visibility' is-defined='yes'/>
    <elf-symbol name='_ZTS17vtkImageDataLIC2D' size='20' type='object-type' binding='weak-binding' visibility='default-visibility' is-defined='yes'/>
    <elf-symbol name='_ZTS20vtkSurfaceLICPainter' size='23' type='object-type' binding='weak-binding' visibility='default-visibility' is-defined='yes'/>
    <elf-symbol name='_ZTS22vtkPainterCommunicator' size='25' type='object-type' binding='weak-binding' visibility='default-visibility' is-defined='yes'/>
    <elf-symbol name='_ZTS22vtkStructuredGridLIC2D' size='25' type='object-type' binding='weak-binding' visibility='default-visibility' is-defined='yes'/>
    <elf-symbol name='_ZTS22vtkSurfaceLICComposite' size='25' type='object-type' binding='weak-binding' visibility='default-visibility' is-defined='yes'/>
    <elf-symbol name='_ZTS27vtkSurfaceLICDefaultPainter' size='30' type='object-type' binding='weak-binding' visibility='default-visibility' is-defined='yes'/>
    <elf-symbol name='_ZTS28vtkLineIntegralConvolution2D' size='31' type='object-type' binding='weak-binding' visibility='default-visibility' is-defined='yes'/>
    <elf-symbol name='_ZTS33vtkImageDataLIC2DExtentTranslator' size='36' type='object-type' binding='weak-binding' visibility='default-visibility' is-defined='yes'/>
    <elf-symbol name='_ZTV17vtkImageDataLIC2D' size='720' type='object-type' binding='weak-binding' visibility='default-visibility' is-defined='yes'/>
    <elf-symbol name='_ZTV20vtkSurfaceLICPainter' size='696' type='object-type' binding='weak-binding' visibility='default-visibility' is-defined='yes'/>
    <elf-symbol name='_ZTV22vtkPainterCommunicator' size='104' type='object-type' binding='weak-binding' visibility='default-visibility' is-defined='yes'/>
    <elf-symbol name='_ZTV22vtkStructuredGridLIC2D' size='664' type='object-type' binding='weak-binding' visibility='default-visibility' is-defined='yes'/>
    <elf-symbol name='_ZTV22vtkSurfaceLICComposite' size='232' type='object-type' binding='weak-binding' visibility='default-visibility' is-defined='yes'/>
    <elf-symbol name='_ZTV27vtkSurfaceLICDefaultPainter' size='408' type='object-type' binding='weak-binding' visibility='default-visibility' is-defined='yes'/>
    <elf-symbol name='_ZTV28vtkLineIntegralConvolution2D' size='600' type='object-type' binding='weak-binding' visibility='default-visibility' is-defined='yes'/>
    <elf-symbol name='_ZTV33vtkImageDataLIC2DExtentTranslator' size='384' type='object-type' binding='weak-binding' visibility='default-visibility' is-defined='yes'/>
    <elf-symbol name='vtkLineIntegralConvolution2D_AAH' size='8' type='object-type' binding='global-binding' visibility='default-visibility' is-defined='yes'/>
    <elf-symbol name='vtkLineIntegralConvolution2D_AAV' size='8' type='object-type' binding='global-binding' visibility='default-visibility' is-defined='yes'/>
    <elf-symbol name='vtkLineIntegralConvolution2D_CE' size='8' type='object-type' binding='global-binding' visibility='default-visibility' is-defined='yes'/>
    <elf-symbol name='vtkLineIntegralConvolution2D_EE' size='8' type='object-type' binding='global-binding' visibility='default-visibility' is-defined='yes'/>
    <elf-symbol name='vtkLineIntegralConvolution2D_LIC0' size='8' type='object-type' binding='global-binding' visibility='default-visibility' is-defined='yes'/>
    <elf-symbol name='vtkLineIntegralConvolution2D_LICI' size='8' type='object-type' binding='global-binding' visibility='default-visibility' is-defined='yes'/>
    <elf-symbol name='vtkLineIntegralConvolution2D_LICN' size='8' type='object-type' binding='global-binding' visibility='default-visibility' is-defined='yes'/>
    <elf-symbol name='vtkLineIntegralConvolution2D_VT' size='8' type='object-type' binding='global-binding' visibility='default-visibility' is-defined='yes'/>
    <elf-symbol name='vtkStructuredGridLIC2D_fs' size='8' type='object-type' binding='global-binding' visibility='default-visibility' is-defined='yes'/>
    <elf-symbol name='vtkSurfaceLICPainter_CE' size='8' type='object-type' binding='global-binding' visibility='default-visibility' is-defined='yes'/>
    <elf-symbol name='vtkSurfaceLICPainter_DCpy' size='8' type='object-type' binding='global-binding' visibility='default-visibility' is-defined='yes'/>
    <elf-symbol name='vtkSurfaceLICPainter_GeomFs' size='8' type='object-type' binding='global-binding' visibility='default-visibility' is-defined='yes'/>
    <elf-symbol name='vtkSurfaceLICPainter_GeomVs' size='8' type='object-type' binding='global-binding' visibility='default-visibility' is-defined='yes'/>
    <elf-symbol name='vtkSurfaceLICPainter_SC' size='8' type='object-type' binding='global-binding' visibility='default-visibility' is-defined='yes'/>
  </elf-variable-symbols>
  <abi-instr address-size='64' path='/tmp/legendre/spack-stage/spack-stage-R_crTC/VTK-6.1.0/Rendering/LIC/vtkImageDataLIC2D.cxx' comp-dir-path='/tmp/legendre/spack-stage/spack-stage-R_crTC/VTK-6.1.0/spack-build/Rendering/LIC' language='LANG_C_plus_plus'>
    <type-decl name='bool' size-in-bits='8' hash='5ba96bb22f4237fb' id='type-id-1'/>
    <type-decl name='char' size-in-bits='8' hash='65b2d157027b431a' id='type-id-2'/>
    <array-type-def dimensions='1' type-id='type-id-2' size-in-bits='8' hash='f7aed1c6cc6e7b3c' id='type-id-3'>
      <subrange length='1' lower-bound='0' upper-bound='0' type-id='type-id-4' size-in-bits='64' is-anonymous='yes' hash='eba0a2b392137dcb' id='type-id-5'/>
    </array-type-def>
    <array-type-def dimensions='1' type-id='type-id-2' size-in-bits='160' hash='99641d293d1da856' id='type-id-6'>
      <subrange length='20' lower-bound='0' upper-bound='19' type-id='type-id-4' size-in-bits='64' is-anonymous='yes' hash='1ca9e41140ea49be' id='type-id-7'/>
    </array-type-def>
    <array-type-def dimensions='1' type-id='type-id-2' size-in-bits='32' hash='932523ac2c3bfb84' id='type-id-8'>
      <subrange length='4' lower-bound='0' upper-bound='3' type-id='type-id-4' size-in-bits='64' is-anonymous='yes' hash='cee611f4a73e486c' id='type-id-9'/>
    </array-type-def>
    <class-decl name='vtkImageDataLIC2D' visibility='default' size-in-bits='1472' filepath='/tmp/legendre/spack-stage/spack-stage-R_crTC/VTK-6.1.0/Rendering/LIC/vtkImageDataLIC2D.h' line='45' column='1' hash='c51f93f42853b0ee' id='type-id-10'>
      <base-class access='public' layout-offset-in-bits='0' type-id='type-id-11'/>
      <data-member access='protected' layout-offset-in-bits='1024'>
        <var-decl name='Context' type-id='type-id-12' visibility='default' filepath='/tmp/legendre/spack-stage/spack-stage-R_crTC/VTK-6.1.0/Rendering/LIC/vtkImageDataLIC2D.h' line='121' column='1'/>
      </data-member>
      <data-member access='protected' layout-offset-in-bits='1088'>
        <var-decl name='OwnWindow' type-id='type-id-1' visibility='default' filepath='/tmp/legendre/spack-stage/spack-stage-R_crTC/VTK-6.1.0/Rendering/LIC/vtkImageDataLIC2D.h' line='122' column='1'/>
      </data-member>
      <data-member access='protected' layout-offset-in-bits='1120'>
        <var-decl name='OpenGLExtensionsSupported' type-id='type-id-13' visibility='default' filepath='/tmp/legendre/spack-stage/spack-stage-R_crTC/VTK-6.1.0/Rendering/LIC/vtkImageDataLIC2D.h' line='123' column='1'/>
      </data-member>
      <data-member access='protected' layout-offset-in-bits='1152'>
        <var-decl name='MagShader' type-id='type-id-14' visibility='default' filepath='/tmp/legendre/spack-stage/spack-stage-R_crTC/VTK-6.1.0/Rendering/LIC/vtkImageDataLIC2D.h' line='125' column='1'/>
      </data-member>
      <data-member access='protected' layout-offset-in-bits='1216'>
        <var-decl name='NoiseSource' type-id='type-id-15' visibility='default' filepath='/tmp/legendre/spack-stage/spack-stage-R_crTC/VTK-6.1.0/Rendering/LIC/vtkImageDataLIC2D.h' line='127' column='1'/>
      </data-member>
      <data-member access='protected' layout-offset-in-bits='1280'>
        <var-decl name='Steps' type-id='type-id-13' visibility='default' filepath='/tmp/legendre/spack-stage/spack-stage-R_crTC/VTK-6.1.0/Rendering/LIC/vtkImageDataLIC2D.h' line='129' column='1'/>
      </data-member>
      <data-member access='protected' layout-offset-in-bits='1344'>
        <var-decl name='StepSize' type-id='type-id-16' visibility='default' filepath='/tmp/legendre/spack-stage/spack-stage-R_crTC/VTK-6.1.0/Rendering/LIC/vtkImageDataLIC2D.h' line='130' column='1'/>
      </data-member>
      <data-member access='protected' layout-offset-in-bits='1408'>
        <var-decl name='Magnification' type-id='type-id-13' visibility='default' filepath='/tmp/legendre/spack-stage/spack-stage-R_crTC/VTK-6.1.0/Rendering/LIC/vtkImageDataLIC2D.h' line='131' column='1'/>
      </data-member>
      <member-function access='private'>
        <function-decl name='GetContext' mangled-name='_ZN17vtkImageDataLIC2D10GetContextEv' filepath='/tmp/legendre/spack-stage/spack-stage-R_crTC/VTK-6.1.0/Rendering/LIC/vtkImageDataLIC2D.cxx' line='176' column='1' visibility='default' binding='global' size-in-bits='64' elf-symbol-id='_ZN17vtkImageDataLIC2D10GetContextEv' hash='7f32ffea222edbe7'>
          <parameter type-id='type-id-17' is-artificial='yes'/>
          <return type-id='type-id-18'/>
        </function-decl>
      </member-function>
      <member-function access='private'>
        <function-decl name='TranslateInputExtent' mangled-name='_ZN17vtkImageDataLIC2D20TranslateInputExtentEPKiS1_Pi' filepath='/tmp/legendre/spack-stage/spack-stage-R_crTC/VTK-6.1.0/Rendering/LIC/vtkImageDataLIC2D.cxx' line='198' column='1' visibility='default' binding='global' size-in-bits='64' elf-symbol-id='_ZN17vtkImageDataLIC2D20TranslateInputExtentEPKiS1_Pi' hash='3f3e769fbc7ef139'>
          <parameter type-id='type-id-17' is-artificial='yes'/>
          <parameter type-id='type-id-19'/>
          <parameter type-id='type-id-19'/>
          <parameter type-id='type-id-20'/>
          <return type-id='type-id-21'/>
        </function-decl>
      </member-function>
      <member-function access='private'>
        <function-decl name='SetContext' mangled-name='_ZN17vtkImageDataLIC2D10SetContextEP15vtkRenderWindow' filepath='/tmp/legendre/spack-stage/spack-stage-R_crTC/VTK-6.1.0/Rendering/LIC/vtkImageDataLIC2D.cxx' line='99' column='1' visibility='default' binding='global' size-in-bits='64' elf-symbol-id='_ZN17vtkImageDataLIC2D10SetContextEP15vtkRenderWindow' hash='388da3fa973fde78'>
          <parameter type-id='type-id-17' is-artificial='yes'/>
          <parameter type-id='type-id-18'/>
          <return type-id='type-id-13'/>
        </function-decl>
      </member-function>
      <member-function access='protected' constructor='yes'>
        <function-decl name='vtkImageDataLIC2D' mangled-name='_ZN17vtkImageDataLIC2DC1Ev' filepath='/tmp/legendre/spack-stage/spack-stage-R_crTC/VTK-6.1.0/Rendering/LIC/vtkImageDataLIC2D.cxx' line='62' column='1' visibility='default' binding='global' size-in-bits='64' elf-symbol-id='_ZN17vtkImageDataLIC2DC1Ev' hash='7f32ffea222edbe7'>
          <parameter type-id='type-id-17' is-artificial='yes'/>
          <return type-id='type-id-21'/>
        </function-decl>
      </member-function>
      <member-function access='private' static='yes'>
        <function-decl name='New' mangled-name='_ZN17vtkImageDataLIC2D3NewEv' filepath='/tmp/legendre/spack-stage/spack-stage-R_crTC/VTK-6.1.0/Rendering/LIC/vtkImageDataLIC2D.cxx' line='59' column='1' visibility='default' binding='global' size-in-bits='64' elf-symbol-id='_ZN17vtkImageDataLIC2D3NewEv' hash='aa9646e9ffdb061a'>
          <return type-id='type-id-17'/>
        </function-decl>
      </member-function>
      <member-function access='protected' destructor='yes' vtable-offset='-1'>
        <function-decl name='~vtkImageDataLIC2D' filepath='/tmp/legendre/spack-stage/spack-stage-R_crTC/VTK-6.1.0/Rendering/LIC/vtkImageDataLIC2D.cxx' line='92' column='1' visibility='default' binding='global' size-in-bits='64' hash='388da3fa973fde78'>
          <parameter type-id='type-id-17' is-artificial='yes'/>
          <parameter type-id='type-id-13'/>
          <return type-id='type-id-21'/>
        </function-decl>
      </member-function>
      <member-function access='protected' destructor='yes' vtable-offset='-1'>
        <function-decl name='~vtkImageDataLIC2D' mangled-name='_ZN17vtkImageDataLIC2DD0Ev' filepath='/tmp/legendre/spack-stage/spack-stage-R_crTC/VTK-6.1.0/Rendering/LIC/vtkImageDataLIC2D.cxx' line='92' column='1' visibility='default' binding='global' size-in-bits='64' elf-symbol-id='_ZN17vtkImageDataLIC2DD0Ev' hash='7f32ffea222edbe7'>
          <parameter type-id='type-id-17' is-artificial='yes'/>
          <return type-id='type-id-21'/>
        </function-decl>
      </member-function>
      <member-function access='protected' destructor='yes' vtable-offset='-1'>
        <function-decl name='~vtkImageDataLIC2D' mangled-name='_ZN17vtkImageDataLIC2DD1Ev' filepath='/tmp/legendre/spack-stage/spack-stage-R_crTC/VTK-6.1.0/Rendering/LIC/vtkImageDataLIC2D.cxx' line='92' column='1' visibility='default' binding='global' size-in-bits='64' elf-symbol-id='_ZN17vtkImageDataLIC2DD1Ev' hash='7f32ffea222edbe7'>
          <parameter type-id='type-id-17' is-artificial='yes'/>
          <return type-id='type-id-21'/>
        </function-decl>
      </member-function>
      <member-function access='private' const='yes' vtable-offset='0'>
        <function-decl name='GetClassNameInternal' mangled-name='_ZNK17vtkImageDataLIC2D20GetClassNameInternalEv' filepath='/tmp/legendre/spack-stage/spack-stage-R_crTC/VTK-6.1.0/Rendering/LIC/vtkImageDataLIC2D.h' line='48' column='1' visibility='default' binding='global' size-in-bits='64' hash='53885bde0aa65efe'>
          <parameter type-id='type-id-22' is-artificial='yes'/>
          <return type-id='type-id-23'/>
        </function-decl>
      </member-function>
      <member-function access='private' vtable-offset='1'>
        <function-decl name='IsA' mangled-name='_ZN17vtkImageDataLIC2D3IsAEPKc' filepath='/tmp/legendre/spack-stage/spack-stage-R_crTC/VTK-6.1.0/Rendering/LIC/vtkImageDataLIC2D.h' line='48' column='1' visibility='default' binding='global' size-in-bits='64' hash='e9ea91a7eab8302c'>
          <parameter type-id='type-id-17' is-artificial='yes'/>
          <parameter type-id='type-id-23'/>
          <return type-id='type-id-13'/>
        </function-decl>
      </member-function>
      <member-function access='private' vtable-offset='4'>
        <function-decl name='PrintSelf' mangled-name='_ZN17vtkImageDataLIC2D9PrintSelfERSo9vtkIndent' filepath='/tmp/legendre/spack-stage/spack-stage-R_crTC/VTK-6.1.0/Rendering/LIC/vtkImageDataLIC2D.cxx' line='713' column='1' visibility='default' binding='global' size-in-bits='64' elf-symbol-id='_ZN17vtkImageDataLIC2D9PrintSelfERSo9vtkIndent' hash='7f32ffea222edbe7'>
          <parameter type-id='type-id-17' is-artificial='yes'/>
          <parameter type-id='type-id-24'/>
          <parameter type-id='type-id-25'/>
          <return type-id='type-id-21'/>
        </function-decl>
      </member-function>
      <member-function access='protected' const='yes' vtable-offset='15'>
        <function-decl name='NewInstanceInternal' mangled-name='_ZNK17vtkImageDataLIC2D19NewInstanceInternalEv' filepath='/tmp/legendre/spack-stage/spack-stage-R_crTC/VTK-6.1.0/Rendering/LIC/vtkImageDataLIC2D.h' line='48' column='1' visibility='default' binding='global' size-in-bits='64' hash='7f32ffea222edbe7'>
          <parameter type-id='type-id-22' is-artificial='yes'/>
          <return type-id='type-id-26'/>
        </function-decl>
      </member-function>
      <member-function access='protected' vtable-offset='60'>
        <function-decl name='FillInputPortInformation' mangled-name='_ZN17vtkImageDataLIC2D24FillInputPortInformationEiP14vtkInformation' filepath='/tmp/legendre/spack-stage/spack-stage-R_crTC/VTK-6.1.0/Rendering/LIC/vtkImageDataLIC2D.cxx' line='182' column='1' visibility='default' binding='global' size-in-bits='64' elf-symbol-id='_ZN17vtkImageDataLIC2D24FillInputPortInformationEiP14vtkInformation' hash='d628501fd2223339'>
          <parameter type-id='type-id-17' is-artificial='yes'/>
          <parameter type-id='type-id-13'/>
          <parameter type-id='type-id-27'/>
          <return type-id='type-id-13'/>
        </function-decl>
      </member-function>
      <member-function access='protected' vtable-offset='71'>
        <function-decl name='RequestInformation' mangled-name='_ZN17vtkImageDataLIC2D18RequestInformationEP14vtkInformationPP20vtkInformationVectorS3_' filepath='/tmp/legendre/spack-stage/spack-stage-R_crTC/VTK-6.1.0/Rendering/LIC/vtkImageDataLIC2D.cxx' line='226' column='1' visibility='default' binding='global' size-in-bits='64' elf-symbol-id='_ZN17vtkImageDataLIC2D18RequestInformationEP14vtkInformationPP20vtkInformationVectorS3_' hash='388da3fa973fde78'>
          <parameter type-id='type-id-17' is-artificial='yes'/>
          <parameter type-id='type-id-27'/>
          <parameter type-id='type-id-28'/>
          <parameter type-id='type-id-29'/>
          <return type-id='type-id-13'/>
        </function-decl>
      </member-function>
      <member-function access='protected' vtable-offset='72'>
        <function-decl name='RequestUpdateExtent' mangled-name='_ZN17vtkImageDataLIC2D19RequestUpdateExtentEP14vtkInformationPP20vtkInformationVectorS3_' filepath='/tmp/legendre/spack-stage/spack-stage-R_crTC/VTK-6.1.0/Rendering/LIC/vtkImageDataLIC2D.cxx' line='275' column='1' visibility='default' binding='global' size-in-bits='64' elf-symbol-id='_ZN17vtkImageDataLIC2D19RequestUpdateExtentEP14vtkInformationPP20vtkInformationVectorS3_' hash='388da3fa973fde78'>
          <parameter type-id='type-id-17' is-artificial='yes'/>
          <parameter type-id='type-id-27'/>
          <parameter type-id='type-id-28'/>
          <parameter type-id='type-id-29'/>
          <return type-id='type-id-13'/>
        </function-decl>
      </member-function>
      <member-function access='protected' vtable-offset='74'>
        <function-decl name='RequestData' mangled-name='_ZN17vtkImageDataLIC2D11RequestDataEP14vtkInformationPP20vtkInformationVectorS3_' filepath='/tmp/legendre/spack-stage/spack-stage-R_crTC/VTK-6.1.0/Rendering/LIC/vtkImageDataLIC2D.cxx' line='319' column='1' visibility='default' binding='global' size-in-bits='64' elf-symbol-id='_ZN17vtkImageDataLIC2D11RequestDataEP14vtkInformationPP20vtkInformationVectorS3_' hash='388da3fa973fde78'>
          <parameter type-id='type-id-17' is-artificial='yes'/>
          <parameter type-id='type-id-27'/>
          <parameter type-id='type-id-28'/>
          <parameter type-id='type-id-29'/>
          <return type-id='type-id-13'/>
        </function-decl>
      </member-function>
      <member-function access='private' vtable-offset='81'>
        <function-decl name='SetSteps' mangled-name='_ZN17vtkImageDataLIC2D8SetStepsEi' filepath='/tmp/legendre/spack-stage/spack-stage-R_crTC/VTK-6.1.0/Rendering/LIC/vtkImageDataLIC2D.h' line='64' column='1' visibility='default' binding='global' size-in-bits='64' hash='388da3fa973fde78'>
          <parameter type-id='type-id-17' is-artificial='yes'/>
          <parameter type-id='type-id-13'/>
          <return type-id='type-id-21'/>
        </function-decl>
      </member-function>
      <member-function access='private' vtable-offset='82'>
        <function-decl name='GetSteps' mangled-name='_ZN17vtkImageDataLIC2D8GetStepsEv' filepath='/tmp/legendre/spack-stage/spack-stage-R_crTC/VTK-6.1.0/Rendering/LIC/vtkImageDataLIC2D.h' line='65' column='1' visibility='default' binding='global' size-in-bits='64' hash='388da3fa973fde78'>
          <parameter type-id='type-id-17' is-artificial='yes'/>
          <return type-id='type-id-13'/>
        </function-decl>
      </member-function>
      <member-function access='private' vtable-offset='83'>
        <function-decl name='SetStepSize' mangled-name='_ZN17vtkImageDataLIC2D11SetStepSizeEd' filepath='/tmp/legendre/spack-stage/spack-stage-R_crTC/VTK-6.1.0/Rendering/LIC/vtkImageDataLIC2D.h' line='77' column='1' visibility='default' binding='global' size-in-bits='64' hash='14e245f4052d89de'>
          <parameter type-id='type-id-17' is-artificial='yes'/>
          <parameter type-id='type-id-16'/>
          <return type-id='type-id-21'/>
        </function-decl>
      </member-function>
      <member-function access='private' vtable-offset='84'>
        <function-decl name='GetStepSize' mangled-name='_ZN17vtkImageDataLIC2D11GetStepSizeEv' filepath='/tmp/legendre/spack-stage/spack-stage-R_crTC/VTK-6.1.0/Rendering/LIC/vtkImageDataLIC2D.h' line='78' column='1' visibility='default' binding='global' size-in-bits='64' hash='14e245f4052d89de'>
          <parameter type-id='type-id-17' is-artificial='yes'/>
          <return type-id='type-id-16'/>
        </function-decl>
      </member-function>
      <member-function access='private' vtable-offset='85'>
        <function-decl name='SetMagnification' mangled-name='_ZN17vtkImageDataLIC2D16SetMagnificationEi' filepath='/tmp/legendre/spack-stage/spack-stage-R_crTC/VTK-6.1.0/Rendering/LIC/vtkImageDataLIC2D.h' line='82' column='1' visibility='default' binding='global' size-in-bits='64' hash='388da3fa973fde78'>
          <parameter type-id='type-id-17' is-artificial='yes'/>
          <parameter type-id='type-id-13'/>
          <return type-id='type-id-21'/>
        </function-decl>
      </member-function>
      <member-function access='private' vtable-offset='86'>
        <function-decl name='GetMagnification' mangled-name='_ZN17vtkImageDataLIC2D16GetMagnificationEv' filepath='/tmp/legendre/spack-stage/spack-stage-R_crTC/VTK-6.1.0/Rendering/LIC/vtkImageDataLIC2D.h' line='83' column='1' visibility='default' binding='global' size-in-bits='64' hash='388da3fa973fde78'>
          <parameter type-id='type-id-17' is-artificial='yes'/>
          <return type-id='type-id-13'/>
        </function-decl>
      </member-function>
      <member-function access='private' vtable-offset='87'>
        <function-decl name='GetOpenGLExtensionsSupported' mangled-name='_ZN17vtkImageDataLIC2D28GetOpenGLExtensionsSupportedEv' filepath='/tmp/legendre/spack-stage/spack-stage-R_crTC/VTK-6.1.0/Rendering/LIC/vtkImageDataLIC2D.h' line='87' column='1' visibility='default' binding='global' size-in-bits='64' hash='388da3fa973fde78'>
          <parameter type-id='type-id-17' is-artificial='yes'/>
          <return type-id='type-id-13'/>
        </function-decl>
      </member-function>
    </class-decl>
    <class-decl name='vtkIndent' visibility='default' size-in-bits='32' filepath='/tmp/legendre/spack-stage/spack-stage-R_crTC/VTK-6.1.0/Common/Core/vtkIndent.h' line='31' column='1' hash='ef414bfa043d4b24' id='type-id-25'>
      <data-member access='protected' layout-offset-in-bits='0'>
        <var-decl name='Indent' type-id='type-id-13' visibility='default' filepath='/tmp/legendre/spack-stage/spack-stage-R_crTC/VTK-6.1.0/Common/Core/vtkIndent.h' line='49' column='1'/>
      </data-member>
    </class-decl>
    <class-decl name='vtkPixelExtent' visibility='default' size-in-bits='128' filepath='/tmp/legendre/spack-stage/spack-stage-R_crTC/VTK-6.1.0/Common/DataModel/vtkPixelExtent.h' line='37' column='1' hash='b7c178b613cb2212' id='type-id-30'>
      <data-member access='private' layout-offset-in-bits='0'>
        <var-decl name='Data' type-id='type-id-31' visibility='default' filepath='/tmp/legendre/spack-stage/spack-stage-R_crTC/VTK-6.1.0/Common/DataModel/vtkPixelExtent.h' line='259' column='1'/>
      </data-member>
      <member-function access='private' static='yes'>
        <function-decl name='Subtract' mangled-name='_ZN14vtkPixelExtent8SubtractERKS_S_RSt5dequeIS_SaIS_EE' filepath='/tmp/legendre/spack-stage/spack-stage-R_crTC/VTK-6.1.0/Common/DataModel/vtkPixelExtent.h' line='247' column='1' visibility='default' binding='global' size-in-bits='64' hash='f8f29251022b3a82'>
          <parameter type-id='type-id-32'/>
          <parameter type-id='type-id-30'/>
          <parameter type-id='type-id-33'/>
          <return type-id='type-id-21'/>
        </function-decl>
      </member-function>
    </class-decl>
    <class-decl name='vtkPixelTransfer' visibility='default' size-in-bits='8' filepath='/tmp/legendre/spack-stage/spack-stage-R_crTC/VTK-6.1.0/Rendering/LIC/vtkPixelTransfer.h' line='35' column='1' hash='90170051cce17c30' id='type-id-34'>
      <member-type access='private'>
        <typedef-decl name='VTK_TT' type-id='type-id-2' size-in-bits='8' filepath='/tmp/legendre/spack-stage/spack-stage-R_crTC/VTK-6.1.0/Rendering/LIC/vtkPixelTransfer.cxx' line='19' column='1' hash='65b2d157027b431a' id='type-id-35'/>
      </member-type>
      <member-type access='private'>
        <typedef-decl name='VTK_TT' type-id='type-id-16' size-in-bits='64' filepath='/tmp/legendre/spack-stage/spack-stage-R_crTC/VTK-6.1.0/Rendering/LIC/vtkPixelTransfer.cxx' line='19' column='1' hash='e9e9b320886d9aa6#2' id='type-id-36'/>
      </member-type>
      <member-type access='private'>
        <typedef-decl name='VTK_TT' type-id='type-id-38' size-in-bits='32' filepath='/tmp/legendre/spack-stage/spack-stage-R_crTC/VTK-6.1.0/Rendering/LIC/vtkPixelTransfer.cxx' line='19' column='1' hash='d7ec3bf03d3c5690#3' id='type-id-37'/>
      </member-type>
      <member-type access='private'>
        <typedef-decl name='VTK_TT' type-id='type-id-13' size-in-bits='32' filepath='/tmp/legendre/spack-stage/spack-stage-R_crTC/VTK-6.1.0/Rendering/LIC/vtkPixelTransfer.cxx' line='19' column='1' hash='09d17c08f594edc7#4' id='type-id-39'/>
      </member-type>
      <member-type access='private'>
        <typedef-decl name='VTK_TT' type-id='type-id-41' size-in-bits='64' filepath='/tmp/legendre/spack-stage/spack-stage-R_crTC/VTK-6.1.0/Rendering/LIC/vtkPixelTransfer.cxx' line='19' column='1' hash='b119fe0931d2ee10#5' id='type-id-40'/>
      </member-type>
      <member-type access='private'>
        <typedef-decl name='VTK_TT' type-id='type-id-43' size-in-bits='64' filepath='/tmp/legendre/spack-stage/spack-stage-R_crTC/VTK-6.1.0/Rendering/LIC/vtkPixelTransfer.cxx' line='19' column='1' hash='5ae7f9eec1fc43d6#6' id='type-id-42'/>
      </member-type>
      <member-type access='private'>
        <typedef-decl name='VTK_TT' type-id='type-id-45' size-in-bits='16' filepath='/tmp/legendre/spack-stage/spack-stage-R_crTC/VTK-6.1.0/Rendering/LIC/vtkPixelTransfer.cxx' line='19' column='1' hash='6c2352eccdcd3eea#7' id='type-id-44'/>
      </member-type>
      <member-type access='private'>
        <typedef-decl name='VTK_TT' type-id='type-id-47' size-in-bits='8' filepath='/tmp/legendre/spack-stage/spack-stage-R_crTC/VTK-6.1.0/Rendering/LIC/vtkPixelTransfer.cxx' line='19' column='1' hash='3c595c3350588f18#8' id='type-id-46'/>
      </member-type>
      <member-type access='private'>
        <typedef-decl name='VTK_TT' type-id='type-id-49' size-in-bits='8' filepath='/tmp/legendre/spack-stage/spack-stage-R_crTC/VTK-6.1.0/Rendering/LIC/vtkPixelTransfer.cxx' line='19' column='1' hash='6ebac62b3366db68#9' id='type-id-48'/>
      </member-type>
      <member-type access='private'>
        <typedef-decl name='VTK_TT' type-id='type-id-51' size-in-bits='32' filepath='/tmp/legendre/spack-stage/spack-stage-R_crTC/VTK-6.1.0/Rendering/LIC/vtkPixelTransfer.cxx' line='19' column='1' hash='e66b43f97c38e87a#10' id='type-id-50'/>
      </member-type>
      <member-type access='private'>
        <typedef-decl name='VTK_TT' type-id='type-id-4' size-in-bits='64' filepath='/tmp/legendre/spack-stage/spack-stage-R_crTC/VTK-6.1.0/Rendering/LIC/vtkPixelTransfer.cxx' line='19' column='1' hash='8fdc5eea2983a729#11' id='type-id-52'/>
      </member-type>
      <member-type access='private'>
        <typedef-decl name='VTK_TT' type-id='type-id-54' size-in-bits='64' filepath='/tmp/legendre/spack-stage/spack-stage-R_crTC/VTK-6.1.0/Rendering/LIC/vtkPixelTransfer.cxx' line='19' column='1' hash='ebdfc4685a1e82df#12' id='type-id-53'/>
      </member-type>
      <member-type access='private'>
        <typedef-decl name='VTK_TT' type-id='type-id-56' size-in-bits='16' filepath='/tmp/legendre/spack-stage/spack-stage-R_crTC/VTK-6.1.0/Rendering/LIC/vtkPixelTransfer.cxx' line='19' column='1' hash='d7723bb93a30b11d#13' id='type-id-55'/>
      </member-type>
      <member-function access='private' static='yes'>
        <function-decl name='Blit&lt;float, float&gt;' mangled-name='_ZN16vtkPixelTransfer4BlitIffEEiRK14vtkPixelExtentS3_S3_S3_iPT_iPT0_' filepath='/tmp/legendre/spack-stage/spack-stage-R_crTC/VTK-6.1.0/Rendering/LIC/vtkPixelTransfer.h' line='154' column='1' visibility='default' binding='global' size-in-bits='64' elf-symbol-id='_ZN16vtkPixelTransfer4BlitIffEEiRK14vtkPixelExtentS3_S3_S3_iPT_iPT0_' hash='2cf5ebe5acc2c97d'>
          <parameter type-id='type-id-32'/>
          <parameter type-id='type-id-32'/>
          <parameter type-id='type-id-32'/>
          <parameter type-id='type-id-32'/>
          <parameter type-id='type-id-13'/>
          <parameter type-id='type-id-57'/>
          <parameter type-id='type-id-13'/>
          <parameter type-id='type-id-57'/>
          <return type-id='type-id-13'/>
        </function-decl>
      </member-function>
      <member-function access='private' static='yes'>
        <function-decl name='Blit&lt;vtkPixelTransfer::Blit::VTK_TT, vtkPixelTransfer::Blit::VTK_TT&gt;' mangled-name='_ZN16vtkPixelTransfer4BlitIddEEiRK14vtkPixelExtentS3_S3_S3_iPT_iPT0_' filepath='/tmp/legendre/spack-stage/spack-stage-R_crTC/VTK-6.1.0/Rendering/LIC/vtkPixelTransfer.h' line='154' column='1' visibility='default' binding='global' size-in-bits='64' elf-symbol-id='_ZN16vtkPixelTransfer4BlitIddEEiRK14vtkPixelExtentS3_S3_S3_iPT_iPT0_' hash='4d399ce92d82791b'>
          <parameter type-id='type-id-32'/>
          <parameter type-id='type-id-32'/>
          <parameter type-id='type-id-32'/>
          <parameter type-id='type-id-32'/>
          <parameter type-id='type-id-13'/>
          <parameter type-id='type-id-58'/>
          <parameter type-id='type-id-13'/>
          <parameter type-id='type-id-58'/>
          <return type-id='type-id-13'/>
        </function-decl>
      </member-function>
      <member-function access='private' static='yes'>
        <function-decl name='Blit&lt;vtkPixelTransfer::Blit::VTK_TT, vtkPixelTransfer::Blit::VTK_TT&gt;' mangled-name='_ZN16vtkPixelTransfer4BlitIdfEEiRK14vtkPixelExtentS3_S3_S3_iPT_iPT0_' filepath='/tmp/legendre/spack-stage/spack-stage-R_crTC/VTK-6.1.0/Rendering/LIC/vtkPixelTransfer.h' line='154' column='1' visibility='default' binding='global' size-in-bits='64' elf-symbol-id='_ZN16vtkPixelTransfer4BlitIdfEEiRK14vtkPixelExtentS3_S3_S3_iPT_iPT0_' hash='a21dc7c499e5825f#2'>
          <parameter type-id='type-id-32'/>
          <parameter type-id='type-id-32'/>
          <parameter type-id='type-id-32'/>
          <parameter type-id='type-id-32'/>
          <parameter type-id='type-id-13'/>
          <parameter type-id='type-id-58'/>
          <parameter type-id='type-id-13'/>
          <parameter type-id='type-id-59'/>
          <return type-id='type-id-13'/>
        </function-decl>
      </member-function>
      <member-function access='private' static='yes'>
        <function-decl name='Blit&lt;vtkPixelTransfer::Blit::VTK_TT, vtkPixelTransfer::Blit::VTK_TT&gt;' mangled-name='_ZN16vtkPixelTransfer4BlitIdxEEiRK14vtkPixelExtentS3_S3_S3_iPT_iPT0_' filepath='/tmp/legendre/spack-stage/spack-stage-R_crTC/VTK-6.1.0/Rendering/LIC/vtkPixelTransfer.h' line='154' column='1' visibility='default' binding='global' size-in-bits='64' elf-symbol-id='_ZN16vtkPixelTransfer4BlitIdxEEiRK14vtkPixelExtentS3_S3_S3_iPT_iPT0_' hash='97ed855077ea1772#3'>
          <parameter type-id='type-id-32'/>
          <parameter type-id='type-id-32'/>
          <parameter type-id='type-id-32'/>
          <parameter type-id='type-id-32'/>
          <parameter type-id='type-id-13'/>
          <parameter type-id='type-id-58'/>
          <parameter type-id='type-id-13'/>
          <parameter type-id='type-id-60'/>
          <return type-id='type-id-13'/>
        </function-decl>
      </member-function>
      <member-function access='private' static='yes'>
        <function-decl name='Blit&lt;vtkPixelTransfer::Blit::VTK_TT, vtkPixelTransfer::Blit::VTK_TT&gt;' mangled-name='_ZN16vtkPixelTransfer4BlitIdyEEiRK14vtkPixelExtentS3_S3_S3_iPT_iPT0_' filepath='/tmp/legendre/spack-stage/spack-stage-R_crTC/VTK-6.1.0/Rendering/LIC/vtkPixelTransfer.h' line='154' column='1' visibility='default' binding='global' size-in-bits='64' elf-symbol-id='_ZN16vtkPixelTransfer4BlitIdyEEiRK14vtkPixelExtentS3_S3_S3_iPT_iPT0_' hash='3cf22f29dbe2bfb9#4'>
          <parameter type-id='type-id-32'/>
          <parameter type-id='type-id-32'/>
          <parameter type-id='type-id-32'/>
          <parameter type-id='type-id-32'/>
          <parameter type-id='type-id-13'/>
          <parameter type-id='type-id-58'/>
          <parameter type-id='type-id-13'/>
          <parameter type-id='type-id-61'/>
          <return type-id='type-id-13'/>
        </function-decl>
      </member-function>
      <member-function access='private' static='yes'>
        <function-decl name='Blit&lt;vtkPixelTransfer::Blit::VTK_TT, vtkPixelTransfer::Blit::VTK_TT&gt;' mangled-name='_ZN16vtkPixelTransfer4BlitIdlEEiRK14vtkPixelExtentS3_S3_S3_iPT_iPT0_' filepath='/tmp/legendre/spack-stage/spack-stage-R_crTC/VTK-6.1.0/Rendering/LIC/vtkPixelTransfer.h' line='154' column='1' visibility='default' binding='global' size-in-bits='64' elf-symbol-id='_ZN16vtkPixelTransfer4BlitIdlEEiRK14vtkPixelExtentS3_S3_S3_iPT_iPT0_' hash='cb0b8922f9dc3dff#5'>
          <parameter type-id='type-id-32'/>
          <parameter type-id='type-id-32'/>
          <parameter type-id='type-id-32'/>
          <parameter type-id='type-id-32'/>
          <parameter type-id='type-id-13'/>
          <parameter type-id='type-id-58'/>
          <parameter type-id='type-id-13'/>
          <parameter type-id='type-id-62'/>
          <return type-id='type-id-13'/>
        </function-decl>
      </member-function>
      <member-function access='private' static='yes'>
        <function-decl name='Blit&lt;vtkPixelTransfer::Blit::VTK_TT, vtkPixelTransfer::Blit::VTK_TT&gt;' mangled-name='_ZN16vtkPixelTransfer4BlitIdmEEiRK14vtkPixelExtentS3_S3_S3_iPT_iPT0_' filepath='/tmp/legendre/spack-stage/spack-stage-R_crTC/VTK-6.1.0/Rendering/LIC/vtkPixelTransfer.h' line='154' column='1' visibility='default' binding='global' size-in-bits='64' elf-symbol-id='_ZN16vtkPixelTransfer4BlitIdmEEiRK14vtkPixelExtentS3_S3_S3_iPT_iPT0_' hash='f75980d6efd2e0a1#6'>
          <parameter type-id='type-id-32'/>
          <parameter type-id='type-id-32'/>
          <parameter type-id='type-id-32'/>
          <parameter type-id='type-id-32'/>
          <parameter type-id='type-id-13'/>
          <parameter type-id='type-id-58'/>
          <parameter type-id='type-id-13'/>
          <parameter type-id='type-id-63'/>
          <return type-id='type-id-13'/>
        </function-decl>
      </member-function>
      <member-function access='private' static='yes'>
        <function-decl name='Blit&lt;vtkPixelTransfer::Blit::VTK_TT, vtkPixelTransfer::Blit::VTK_TT&gt;' mangled-name='_ZN16vtkPixelTransfer4BlitIdiEEiRK14vtkPixelExtentS3_S3_S3_iPT_iPT0_' filepath='/tmp/legendre/spack-stage/spack-stage-R_crTC/VTK-6.1.0/Rendering/LIC/vtkPixelTransfer.h' line='154' column='1' visibility='default' binding='global' size-in-bits='64' elf-symbol-id='_ZN16vtkPixelTransfer4BlitIdiEEiRK14vtkPixelExtentS3_S3_S3_iPT_iPT0_' hash='cb80b8ef783ccfe8#7'>
          <parameter type-id='type-id-32'/>
          <parameter type-id='type-id-32'/>
          <parameter type-id='type-id-32'/>
          <parameter type-id='type-id-32'/>
          <parameter type-id='type-id-13'/>
          <parameter type-id='type-id-58'/>
          <parameter type-id='type-id-13'/>
          <parameter type-id='type-id-64'/>
          <return type-id='type-id-13'/>
        </function-decl>
      </member-function>
      <member-function access='private' static='yes'>
        <function-decl name='Blit&lt;vtkPixelTransfer::Blit::VTK_TT, vtkPixelTransfer::Blit::VTK_TT&gt;' mangled-name='_ZN16vtkPixelTransfer4BlitIdjEEiRK14vtkPixelExtentS3_S3_S3_iPT_iPT0_' filepath='/tmp/legendre/spack-stage/spack-stage-R_crTC/VTK-6.1.0/Rendering/LIC/vtkPixelTransfer.h' line='154' column='1' visibility='default' binding='global' size-in-bits='64' elf-symbol-id='_ZN16vtkPixelTransfer4BlitIdjEEiRK14vtkPixelExtentS3_S3_S3_iPT_iPT0_' hash='2cbbedd492e301a0#8'>
          <parameter type-id='type-id-32'/>
          <parameter type-id='type-id-32'/>
          <parameter type-id='type-id-32'/>
          <parameter type-id='type-id-32'/>
          <parameter type-id='type-id-13'/>
          <parameter type-id='type-id-58'/>
          <parameter type-id='type-id-13'/>
          <parameter type-id='type-id-65'/>
          <return type-id='type-id-13'/>
        </function-decl>
      </member-function>
      <member-function access='private' static='yes'>
        <function-decl name='Blit&lt;vtkPixelTransfer::Blit::VTK_TT, vtkPixelTransfer::Blit::VTK_TT&gt;' mangled-name='_ZN16vtkPixelTransfer4BlitIdsEEiRK14vtkPixelExtentS3_S3_S3_iPT_iPT0_' filepath='/tmp/legendre/spack-stage/spack-stage-R_crTC/VTK-6.1.0/Rendering/LIC/vtkPixelTransfer.h' line='154' column='1' visibility='default' binding='global' size-in-bits='64' elf-symbol-id='_ZN16vtkPixelTransfer4BlitIdsEEiRK14vtkPixelExtentS3_S3_S3_iPT_iPT0_' hash='3f6de36cabeecf0b#9'>
          <parameter type-id='type-id-32'/>
          <parameter type-id='type-id-32'/>
          <parameter type-id='type-id-32'/>
          <parameter type-id='type-id-32'/>
          <parameter type-id='type-id-13'/>
          <parameter type-id='type-id-58'/>
          <parameter type-id='type-id-13'/>
          <parameter type-id='type-id-66'/>
          <return type-id='type-id-13'/>
        </function-decl>
      </member-function>
      <member-function access='private' static='yes'>
        <function-decl name='Blit&lt;vtkPixelTransfer::Blit::VTK_TT, vtkPixelTransfer::Blit::VTK_TT&gt;' mangled-name='_ZN16vtkPixelTransfer4BlitIdtEEiRK14vtkPixelExtentS3_S3_S3_iPT_iPT0_' filepath='/tmp/legendre/spack-stage/spack-stage-R_crTC/VTK-6.1.0/Rendering/LIC/vtkPixelTransfer.h' line='154' column='1' visibility='default' binding='global' size-in-bits='64' elf-symbol-id='_ZN16vtkPixelTransfer4BlitIdtEEiRK14vtkPixelExtentS3_S3_S3_iPT_iPT0_' hash='57b64a85bcecb0f6#10'>
          <parameter type-id='type-id-32'/>
          <parameter type-id='type-id-32'/>
          <parameter type-id='type-id-32'/>
          <parameter type-id='type-id-32'/>
          <parameter type-id='type-id-13'/>
          <parameter type-id='type-id-58'/>
          <parameter type-id='type-id-13'/>
          <parameter type-id='type-id-67'/>
          <return type-id='type-id-13'/>
        </function-decl>
      </member-function>
      <member-function access='private' static='yes'>
        <function-decl name='Blit&lt;vtkPixelTransfer::Blit::VTK_TT, vtkPixelTransfer::Blit::VTK_TT&gt;' mangled-name='_ZN16vtkPixelTransfer4BlitIdcEEiRK14vtkPixelExtentS3_S3_S3_iPT_iPT0_' filepath='/tmp/legendre/spack-stage/spack-stage-R_crTC/VTK-6.1.0/Rendering/LIC/vtkPixelTransfer.h' line='154' column='1' visibility='default' binding='global' size-in-bits='64' elf-symbol-id='_ZN16vtkPixelTransfer4BlitIdcEEiRK14vtkPixelExtentS3_S3_S3_iPT_iPT0_' hash='669f54e6d4a84643#11'>
          <parameter type-id='type-id-32'/>
          <parameter type-id='type-id-32'/>
          <parameter type-id='type-id-32'/>
          <parameter type-id='type-id-32'/>
          <parameter type-id='type-id-13'/>
          <parameter type-id='type-id-58'/>
          <parameter type-id='type-id-13'/>
          <parameter type-id='type-id-68'/>
          <return type-id='type-id-13'/>
        </function-decl>
      </member-function>
      <member-function access='private' static='yes'>
        <function-decl name='Blit&lt;vtkPixelTransfer::Blit::VTK_TT, vtkPixelTransfer::Blit::VTK_TT&gt;' mangled-name='_ZN16vtkPixelTransfer4BlitIdaEEiRK14vtkPixelExtentS3_S3_S3_iPT_iPT0_' filepath='/tmp/legendre/spack-stage/spack-stage-R_crTC/VTK-6.1.0/Rendering/LIC/vtkPixelTransfer.h' line='154' column='1' visibility='default' binding='global' size-in-bits='64' elf-symbol-id='_ZN16vtkPixelTransfer4BlitIdaEEiRK14vtkPixelExtentS3_S3_S3_iPT_iPT0_' hash='03342500d1c82c8f#12'>
          <parameter type-id='type-id-32'/>
          <parameter type-id='type-id-32'/>
          <parameter type-id='type-id-32'/>
          <parameter type-id='type-id-32'/>
          <parameter type-id='type-id-13'/>
          <parameter type-id='type-id-58'/>
          <parameter type-id='type-id-13'/>
          <parameter type-id='type-id-69'/>
          <return type-id='type-id-13'/>
        </function-decl>
      </member-function>
      <member-function access='private' static='yes'>
        <function-decl name='Blit&lt;vtkPixelTransfer::Blit::VTK_TT, vtkPixelTransfer::Blit::VTK_TT&gt;' mangled-name='_ZN16vtkPixelTransfer4BlitIdhEEiRK14vtkPixelExtentS3_S3_S3_iPT_iPT0_' filepath='/tmp/legendre/spack-stage/spack-stage-R_crTC/VTK-6.1.0/Rendering/LIC/vtkPixelTransfer.h' line='154' column='1' visibility='default' binding='global' size-in-bits='64' elf-symbol-id='_ZN16vtkPixelTransfer4BlitIdhEEiRK14vtkPixelExtentS3_S3_S3_iPT_iPT0_' hash='583918cc198af716#13'>
          <parameter type-id='type-id-32'/>
          <parameter type-id='type-id-32'/>
          <parameter type-id='type-id-32'/>
          <parameter type-id='type-id-32'/>
          <parameter type-id='type-id-13'/>
          <parameter type-id='type-id-58'/>
          <parameter type-id='type-id-13'/>
          <parameter type-id='type-id-70'/>
          <return type-id='type-id-13'/>
        </function-decl>
      </member-function>
      <member-function access='private' static='yes'>
        <function-decl name='Blit&lt;vtkPixelTransfer::Blit::VTK_TT&gt;' mangled-name='_ZN16vtkPixelTransfer4BlitIdEEiRK14vtkPixelExtentS3_S3_S3_iPT_iiPv' filepath='/tmp/legendre/spack-stage/spack-stage-R_crTC/VTK-6.1.0/Rendering/LIC/vtkPixelTransfer.h' line='124' column='1' visibility='default' binding='global' size-in-bits='64' elf-symbol-id='_ZN16vtkPixelTransfer4BlitIdEEiRK14vtkPixelExtentS3_S3_S3_iPT_iiPv' hash='b7c237140f6cdaf7'>
          <parameter type-id='type-id-32'/>
          <parameter type-id='type-id-32'/>
          <parameter type-id='type-id-32'/>
          <parameter type-id='type-id-32'/>
          <parameter type-id='type-id-13'/>
          <parameter type-id='type-id-58'/>
          <parameter type-id='type-id-13'/>
          <parameter type-id='type-id-13'/>
          <parameter type-id='type-id-71'/>
          <return type-id='type-id-13'/>
        </function-decl>
      </member-function>
      <member-function access='private' static='yes'>
        <function-decl name='Blit&lt;vtkPixelTransfer::Blit::VTK_TT, vtkPixelTransfer::Blit::VTK_TT&gt;' mangled-name='_ZN16vtkPixelTransfer4BlitIfdEEiRK14vtkPixelExtentS3_S3_S3_iPT_iPT0_' filepath='/tmp/legendre/spack-stage/spack-stage-R_crTC/VTK-6.1.0/Rendering/LIC/vtkPixelTransfer.h' line='154' column='1' visibility='default' binding='global' size-in-bits='64' elf-symbol-id='_ZN16vtkPixelTransfer4BlitIfdEEiRK14vtkPixelExtentS3_S3_S3_iPT_iPT0_' hash='26310d266c9db514#14'>
          <parameter type-id='type-id-32'/>
          <parameter type-id='type-id-32'/>
          <parameter type-id='type-id-32'/>
          <parameter type-id='type-id-32'/>
          <parameter type-id='type-id-13'/>
          <parameter type-id='type-id-59'/>
          <parameter type-id='type-id-13'/>
          <parameter type-id='type-id-58'/>
          <return type-id='type-id-13'/>
        </function-decl>
      </member-function>
      <member-function access='private' static='yes'>
        <function-decl name='Blit&lt;vtkPixelTransfer::Blit::VTK_TT, vtkPixelTransfer::Blit::VTK_TT&gt;' mangled-name='_ZN16vtkPixelTransfer4BlitIfxEEiRK14vtkPixelExtentS3_S3_S3_iPT_iPT0_' filepath='/tmp/legendre/spack-stage/spack-stage-R_crTC/VTK-6.1.0/Rendering/LIC/vtkPixelTransfer.h' line='154' column='1' visibility='default' binding='global' size-in-bits='64' elf-symbol-id='_ZN16vtkPixelTransfer4BlitIfxEEiRK14vtkPixelExtentS3_S3_S3_iPT_iPT0_' hash='476da4b6169a9018#15'>
          <parameter type-id='type-id-32'/>
          <parameter type-id='type-id-32'/>
          <parameter type-id='type-id-32'/>
          <parameter type-id='type-id-32'/>
          <parameter type-id='type-id-13'/>
          <parameter type-id='type-id-59'/>
          <parameter type-id='type-id-13'/>
          <parameter type-id='type-id-60'/>
          <return type-id='type-id-13'/>
        </function-decl>
      </member-function>
      <member-function access='private' static='yes'>
        <function-decl name='Blit&lt;vtkPixelTransfer::Blit::VTK_TT, vtkPixelTransfer::Blit::VTK_TT&gt;' mangled-name='_ZN16vtkPixelTransfer4BlitIfyEEiRK14vtkPixelExtentS3_S3_S3_iPT_iPT0_' filepath='/tmp/legendre/spack-stage/spack-stage-R_crTC/VTK-6.1.0/Rendering/LIC/vtkPixelTransfer.h' line='154' column='1' visibility='default' binding='global' size-in-bits='64' elf-symbol-id='_ZN16vtkPixelTransfer4BlitIfyEEiRK14vtkPixelExtentS3_S3_S3_iPT_iPT0_' hash='8305a7692e59bbc3#16'>
          <parameter type-id='type-id-32'/>
          <parameter type-id='type-id-32'/>
          <parameter type-id='type-id-32'/>
          <parameter type-id='type-id-32'/>
          <parameter type-id='type-id-13'/>
          <parameter type-id='type-id-59'/>
          <parameter type-id='type-id-13'/>
          <parameter type-id='type-id-61'/>
          <return type-id='type-id-13'/>
        </function-decl>
      </member-function>
      <member-function access='private' static='yes'>
        <function-decl name='Blit&lt;vtkPixelTransfer::Blit::VTK_TT, vtkPixelTransfer::Blit::VTK_TT&gt;' mangled-name='_ZN16vtkPixelTransfer4BlitIflEEiRK14vtkPixelExtentS3_S3_S3_iPT_iPT0_' filepath='/tmp/legendre/spack-stage/spack-stage-R_crTC/VTK-6.1.0/Rendering/LIC/vtkPixelTransfer.h' line='154' column='1' visibility='default' binding='global' size-in-bits='64' elf-symbol-id='_ZN16vtkPixelTransfer4BlitIflEEiRK14vtkPixelExtentS3_S3_S3_iPT_iPT0_' hash='b981bf6df9d96e25#17'>
          <parameter type-id='type-id-32'/>
          <parameter type-id='type-id-32'/>
          <parameter type-id='type-id-32'/>
          <parameter type-id='type-id-32'/>
          <parameter type-id='type-id-13'/>
          <parameter type-id='type-id-59'/>
          <parameter type-id='type-id-13'/>
          <parameter type-id='type-id-62'/>
          <return type-id='type-id-13'/>
        </function-decl>
      </member-function>
      <member-function access='private' static='yes'>
        <function-decl name='Blit&lt;vtkPixelTransfer::Blit::VTK_TT, vtkPixelTransfer::Blit::VTK_TT&gt;' mangled-name='_ZN16vtkPixelTransfer4BlitIfmEEiRK14vtkPixelExtentS3_S3_S3_iPT_iPT0_' filepath='/tmp/legendre/spack-stage/spack-stage-R_crTC/VTK-6.1.0/Rendering/LIC/vtkPixelTransfer.h' line='154' column='1' visibility='default' binding='global' size-in-bits='64' elf-symbol-id='_ZN16vtkPixelTransfer4BlitIfmEEiRK14vtkPixelExtentS3_S3_S3_iPT_iPT0_' hash='d332f36cf5197713#18'>
          <parameter type-id='type-id-32'/>
          <parameter type-id='type-id-32'/>
          <parameter type-id='type-id-32'/>
          <parameter type-id='type-id-32'/>
          <parameter type-id='type-id-13'/>
          <parameter type-id='type-id-59'/>
          <parameter type-id='type-id-13'/>
          <parameter type-id='type-id-63'/>
          <return type-id='type-id-13'/>
        </function-decl>
      </member-function>
      <member-function access='private' static='yes'>
        <function-decl name='Blit&lt;vtkPixelTransfer::Blit::VTK_TT, vtkPixelTransfer::Blit::VTK_TT&gt;' mangled-name='_ZN16vtkPixelTransfer4BlitIfiEEiRK14vtkPixelExtentS3_S3_S3_iPT_iPT0_' filepath='/tmp/legendre/spack-stage/spack-stage-R_crTC/VTK-6.1.0/Rendering/LIC/vtkPixelTransfer.h' line='154' column='1' visibility='default' binding='global' size-in-bits='64' elf-symbol-id='_ZN16vtkPixelTransfer4BlitIfiEEiRK14vtkPixelExtentS3_S3_S3_iPT_iPT0_' hash='fc131c503c446212#19'>
          <parameter type-id='type-id-32'/>
          <parameter type-id='type-id-32'/>
          <parameter type-id='type-id-32'/>
          <parameter type-id='type-id-32'/>
          <parameter type-id='type-id-13'/>
          <parameter type-id='type-id-59'/>
          <parameter type-id='type-id-13'/>
          <parameter type-id='type-id-64'/>
          <return type-id='type-id-13'/>
        </function-decl>
      </member-function>
      <member-function access='private' static='yes'>
        <function-decl name='Blit&lt;vtkPixelTransfer::Blit::VTK_TT, vtkPixelTransfer::Blit::VTK_TT&gt;' mangled-name='_ZN16vtkPixelTransfer4BlitIfjEEiRK14vtkPixelExtentS3_S3_S3_iPT_iPT0_' filepath='/tmp/legendre/spack-stage/spack-stage-R_crTC/VTK-6.1.0/Rendering/LIC/vtkPixelTransfer.h' line='154' column='1' visibility='default' binding='global' size-in-bits='64' elf-symbol-id='_ZN16vtkPixelTransfer4BlitIfjEEiRK14vtkPixelExtentS3_S3_S3_iPT_iPT0_' hash='c7ad5124f81a840a#20'>
          <parameter type-id='type-id-32'/>
          <parameter type-id='type-id-32'/>
          <parameter type-id='type-id-32'/>
          <parameter type-id='type-id-32'/>
          <parameter type-id='type-id-13'/>
          <parameter type-id='type-id-59'/>
          <parameter type-id='type-id-13'/>
          <parameter type-id='type-id-65'/>
          <return type-id='type-id-13'/>
        </function-decl>
      </member-function>
      <member-function access='private' static='yes'>
        <function-decl name='Blit&lt;vtkPixelTransfer::Blit::VTK_TT, vtkPixelTransfer::Blit::VTK_TT&gt;' mangled-name='_ZN16vtkPixelTransfer4BlitIfsEEiRK14vtkPixelExtentS3_S3_S3_iPT_iPT0_' filepath='/tmp/legendre/spack-stage/spack-stage-R_crTC/VTK-6.1.0/Rendering/LIC/vtkPixelTransfer.h' line='154' column='1' visibility='default' binding='global' size-in-bits='64' elf-symbol-id='_ZN16vtkPixelTransfer4BlitIfsEEiRK14vtkPixelExtentS3_S3_S3_iPT_iPT0_' hash='8b58833170fc95c9#21'>
          <parameter type-id='type-id-32'/>
          <parameter type-id='type-id-32'/>
          <parameter type-id='type-id-32'/>
          <parameter type-id='type-id-32'/>
          <parameter type-id='type-id-13'/>
          <parameter type-id='type-id-59'/>
          <parameter type-id='type-id-13'/>
          <parameter type-id='type-id-66'/>
          <return type-id='type-id-13'/>
        </function-decl>
      </member-function>
      <member-function access='private' static='yes'>
        <function-decl name='Blit&lt;vtkPixelTransfer::Blit::VTK_TT, vtkPixelTransfer::Blit::VTK_TT&gt;' mangled-name='_ZN16vtkPixelTransfer4BlitIftEEiRK14vtkPixelExtentS3_S3_S3_iPT_iPT0_' filepath='/tmp/legendre/spack-stage/spack-stage-R_crTC/VTK-6.1.0/Rendering/LIC/vtkPixelTransfer.h' line='154' column='1' visibility='default' binding='global' size-in-bits='64' elf-symbol-id='_ZN16vtkPixelTransfer4BlitIftEEiRK14vtkPixelExtentS3_S3_S3_iPT_iPT0_' hash='9e9ef87b4ebe801f#22'>
          <parameter type-id='type-id-32'/>
          <parameter type-id='type-id-32'/>
          <parameter type-id='type-id-32'/>
          <parameter type-id='type-id-32'/>
          <parameter type-id='type-id-13'/>
          <parameter type-id='type-id-59'/>
          <parameter type-id='type-id-13'/>
          <parameter type-id='type-id-67'/>
          <return type-id='type-id-13'/>
        </function-decl>
      </member-function>
      <member-function access='private' static='yes'>
        <function-decl name='Blit&lt;vtkPixelTransfer::Blit::VTK_TT, vtkPixelTransfer::Blit::VTK_TT&gt;' mangled-name='_ZN16vtkPixelTransfer4BlitIfcEEiRK14vtkPixelExtentS3_S3_S3_iPT_iPT0_' filepath='/tmp/legendre/spack-stage/spack-stage-R_crTC/VTK-6.1.0/Rendering/LIC/vtkPixelTransfer.h' line='154' column='1' visibility='default' binding='global' size-in-bits='64' elf-symbol-id='_ZN16vtkPixelTransfer4BlitIfcEEiRK14vtkPixelExtentS3_S3_S3_iPT_iPT0_' hash='650ff5bd30fcbe7c#23'>
          <parameter type-id='type-id-32'/>
          <parameter type-id='type-id-32'/>
          <parameter type-id='type-id-32'/>
          <parameter type-id='type-id-32'/>
          <parameter type-id='type-id-13'/>
          <parameter type-id='type-id-59'/>
          <parameter type-id='type-id-13'/>
          <parameter type-id='type-id-68'/>
          <return type-id='type-id-13'/>
        </function-decl>
      </member-function>
      <member-function access='private' static='yes'>
        <function-decl name='Blit&lt;vtkPixelTransfer::Blit::VTK_TT, vtkPixelTransfer::Blit::VTK_TT&gt;' mangled-name='_ZN16vtkPixelTransfer4BlitIfaEEiRK14vtkPixelExtentS3_S3_S3_iPT_iPT0_' filepath='/tmp/legendre/spack-stage/spack-stage-R_crTC/VTK-6.1.0/Rendering/LIC/vtkPixelTransfer.h' line='154' column='1' visibility='default' binding='global' size-in-bits='64' elf-symbol-id='_ZN16vtkPixelTransfer4BlitIfaEEiRK14vtkPixelExtentS3_S3_S3_iPT_iPT0_' hash='3c3d94ebe49f22b9#24'>
          <parameter type-id='type-id-32'/>
          <parameter type-id='type-id-32'/>
          <parameter type-id='type-id-32'/>
          <parameter type-id='type-id-32'/>
          <parameter type-id='type-id-13'/>
          <parameter type-id='type-id-59'/>
          <parameter type-id='type-id-13'/>
          <parameter type-id='type-id-69'/>
          <return type-id='type-id-13'/>
        </function-decl>
      </member-function>
      <member-function access='private' static='yes'>
        <function-decl name='Blit&lt;vtkPixelTransfer::Blit::VTK_TT, vtkPixelTransfer::Blit::VTK_TT&gt;' mangled-name='_ZN16vtkPixelTransfer4BlitIfhEEiRK14vtkPixelExtentS3_S3_S3_iPT_iPT0_' filepath='/tmp/legendre/spack-stage/spack-stage-R_crTC/VTK-6.1.0/Rendering/LIC/vtkPixelTransfer.h' line='154' column='1' visibility='default' binding='global' size-in-bits='64' elf-symbol-id='_ZN16vtkPixelTransfer4BlitIfhEEiRK14vtkPixelExtentS3_S3_S3_iPT_iPT0_' hash='a26bf8457c32f07d#25'>
          <parameter type-id='type-id-32'/>
          <parameter type-id='type-id-32'/>
          <parameter type-id='type-id-32'/>
          <parameter type-id='type-id-32'/>
          <parameter type-id='type-id-13'/>
          <parameter type-id='type-id-59'/>
          <parameter type-id='type-id-13'/>
          <parameter type-id='type-id-70'/>
          <return type-id='type-id-13'/>
        </function-decl>
      </member-function>
      <member-function access='private' static='yes'>
        <function-decl name='Blit&lt;vtkPixelTransfer::Blit::VTK_TT&gt;' mangled-name='_ZN16vtkPixelTransfer4BlitIfEEiRK14vtkPixelExtentS3_S3_S3_iPT_iiPv' filepath='/tmp/legendre/spack-stage/spack-stage-R_crTC/VTK-6.1.0/Rendering/LIC/vtkPixelTransfer.h' line='124' column='1' visibility='default' binding='global' size-in-bits='64' elf-symbol-id='_ZN16vtkPixelTransfer4BlitIfEEiRK14vtkPixelExtentS3_S3_S3_iPT_iiPv' hash='4c8b6029ac5ea72e#2'>
          <parameter type-id='type-id-32'/>
          <parameter type-id='type-id-32'/>
          <parameter type-id='type-id-32'/>
          <parameter type-id='type-id-32'/>
          <parameter type-id='type-id-13'/>
          <parameter type-id='type-id-59'/>
          <parameter type-id='type-id-13'/>
          <parameter type-id='type-id-13'/>
          <parameter type-id='type-id-71'/>
          <return type-id='type-id-13'/>
        </function-decl>
      </member-function>
      <member-function access='private' static='yes'>
        <function-decl name='Blit&lt;vtkPixelTransfer::Blit::VTK_TT, vtkPixelTransfer::Blit::VTK_TT&gt;' mangled-name='_ZN16vtkPixelTransfer4BlitIxdEEiRK14vtkPixelExtentS3_S3_S3_iPT_iPT0_' filepath='/tmp/legendre/spack-stage/spack-stage-R_crTC/VTK-6.1.0/Rendering/LIC/vtkPixelTransfer.h' line='154' column='1' visibility='default' binding='global' size-in-bits='64' elf-symbol-id='_ZN16vtkPixelTransfer4BlitIxdEEiRK14vtkPixelExtentS3_S3_S3_iPT_iPT0_' hash='cf049996cfbe5f55#26'>
          <parameter type-id='type-id-32'/>
          <parameter type-id='type-id-32'/>
          <parameter type-id='type-id-32'/>
          <parameter type-id='type-id-32'/>
          <parameter type-id='type-id-13'/>
          <parameter type-id='type-id-60'/>
          <parameter type-id='type-id-13'/>
          <parameter type-id='type-id-58'/>
          <return type-id='type-id-13'/>
        </function-decl>
      </member-function>
      <member-function access='private' static='yes'>
        <function-decl name='Blit&lt;vtkPixelTransfer::Blit::VTK_TT, vtkPixelTransfer::Blit::VTK_TT&gt;' mangled-name='_ZN16vtkPixelTransfer4BlitIxfEEiRK14vtkPixelExtentS3_S3_S3_iPT_iPT0_' filepath='/tmp/legendre/spack-stage/spack-stage-R_crTC/VTK-6.1.0/Rendering/LIC/vtkPixelTransfer.h' line='154' column='1' visibility='default' binding='global' size-in-bits='64' elf-symbol-id='_ZN16vtkPixelTransfer4BlitIxfEEiRK14vtkPixelExtentS3_S3_S3_iPT_iPT0_' hash='6e821337b829bd03#27'>
          <parameter type-id='type-id-32'/>
          <parameter type-id='type-id-32'/>
          <parameter type-id='type-id-32'/>
          <parameter type-id='type-id-32'/>
          <parameter type-id='type-id-13'/>
          <parameter type-id='type-id-60'/>
          <parameter type-id='type-id-13'/>
          <parameter type-id='type-id-59'/>
          <return type-id='type-id-13'/>
        </function-decl>
      </member-function>
      <member-function access='private' static='yes'>
        <function-decl name='Blit&lt;vtkPixelTransfer::Blit::VTK_TT, vtkPixelTransfer::Blit::VTK_TT&gt;' mangled-name='_ZN16vtkPixelTransfer4BlitIxxEEiRK14vtkPixelExtentS3_S3_S3_iPT_iPT0_' filepath='/tmp/legendre/spack-stage/spack-stage-R_crTC/VTK-6.1.0/Rendering/LIC/vtkPixelTransfer.h' line='154' column='1' visibility='default' binding='global' size-in-bits='64' elf-symbol-id='_ZN16vtkPixelTransfer4BlitIxxEEiRK14vtkPixelExtentS3_S3_S3_iPT_iPT0_' hash='6845159791d69122#28'>
          <parameter type-id='type-id-32'/>
          <parameter type-id='type-id-32'/>
          <parameter type-id='type-id-32'/>
          <parameter type-id='type-id-32'/>
          <parameter type-id='type-id-13'/>
          <parameter type-id='type-id-60'/>
          <parameter type-id='type-id-13'/>
          <parameter type-id='type-id-60'/>
          <return type-id='type-id-13'/>
        </function-decl>
      </member-function>
      <member-function access='private' static='yes'>
        <function-decl name='Blit&lt;vtkPixelTransfer::Blit::VTK_TT, vtkPixelTransfer::Blit::VTK_TT&gt;' mangled-name='_ZN16vtkPixelTransfer4BlitIxyEEiRK14vtkPixelExtentS3_S3_S3_iPT_iPT0_' filepath='/tmp/legendre/spack-stage/spack-stage-R_crTC/VTK-6.1.0/Rendering/LIC/vtkPixelTransfer.h' line='154' column='1' visibility='default' binding='global' size-in-bits='64' elf-symbol-id='_ZN16vtkPixelTransfer4BlitIxyEEiRK14vtkPixelExtentS3_S3_S3_iPT_iPT0_' hash='08145703aaca720c#29'>
          <parameter type-id='type-id-32'/>
          <parameter type-id='type-id-32'/>
          <parameter type-id='type-id-32'/>
          <parameter type-id='type-id-32'/>
          <parameter type-id='type-id-13'/>
          <parameter type-id='type-id-60'/>
          <parameter type-id='type-id-13'/>
          <parameter type-id='type-id-61'/>
          <return type-id='type-id-13'/>
        </function-decl>
      </member-function>
      <member-function access='private' static='yes'>
        <function-decl name='Blit&lt;vtkPixelTransfer::Blit::VTK_TT, vtkPixelTransfer::Blit::VTK_TT&gt;' mangled-name='_ZN16vtkPixelTransfer4BlitIxlEEiRK14vtkPixelExtentS3_S3_S3_iPT_iPT0_' filepath='/tmp/legendre/spack-stage/spack-stage-R_crTC/VTK-6.1.0/Rendering/LIC/vtkPixelTransfer.h' line='154' column='1' visibility='default' binding='global' size-in-bits='64' elf-symbol-id='_ZN16vtkPixelTransfer4BlitIxlEEiRK14vtkPixelExtentS3_S3_S3_iPT_iPT0_' hash='e75062be838c8bac#30'>
          <parameter type-id='type-id-32'/>
          <parameter type-id='type-id-32'/>
          <parameter type-id='type-id-32'/>
          <parameter type-id='type-id-32'/>
          <parameter type-id='type-id-13'/>
          <parameter type-id='type-id-60'/>
          <parameter type-id='type-id-13'/>
          <parameter type-id='type-id-62'/>
          <return type-id='type-id-13'/>
        </function-decl>
      </member-function>
      <member-function access='private' static='yes'>
        <function-decl name='Blit&lt;vtkPixelTransfer::Blit::VTK_TT, vtkPixelTransfer::Blit::VTK_TT&gt;' mangled-name='_ZN16vtkPixelTransfer4BlitIxmEEiRK14vtkPixelExtentS3_S3_S3_iPT_iPT0_' filepath='/tmp/legendre/spack-stage/spack-stage-R_crTC/VTK-6.1.0/Rendering/LIC/vtkPixelTransfer.h' line='154' column='1' visibility='default' binding='global' size-in-bits='64' elf-symbol-id='_ZN16vtkPixelTransfer4BlitIxmEEiRK14vtkPixelExtentS3_S3_S3_iPT_iPT0_' hash='845304603bb1c3b3#31'>
          <parameter type-id='type-id-32'/>
          <parameter type-id='type-id-32'/>
          <parameter type-id='type-id-32'/>
          <parameter type-id='type-id-32'/>
          <parameter type-id='type-id-13'/>
          <parameter type-id='type-id-60'/>
          <parameter type-id='type-id-13'/>
          <parameter type-id='type-id-63'/>
          <return type-id='type-id-13'/>
        </function-decl>
      </member-function>
      <member-function access='private' static='yes'>
        <function-decl name='Blit&lt;vtkPixelTransfer::Blit::VTK_TT, vtkPixelTransfer::Blit::VTK_TT&gt;' mangled-name='_ZN16vtkPixelTransfer4BlitIxiEEiRK14vtkPixelExtentS3_S3_S3_iPT_iPT0_' filepath='/tmp/legendre/spack-stage/spack-stage-R_crTC/VTK-6.1.0/Rendering/LIC/vtkPixelTransfer.h' line='154' column='1' visibility='default' binding='global' size-in-bits='64' elf-symbol-id='_ZN16vtkPixelTransfer4BlitIxiEEiRK14vtkPixelExtentS3_S3_S3_iPT_iPT0_' hash='4cf94db345ad6987#32'>
          <parameter type-id='type-id-32'/>
          <parameter type-id='type-id-32'/>
          <parameter type-id='type-id-32'/>
          <parameter type-id='type-id-32'/>
          <parameter type-id='type-id-13'/>
          <parameter type-id='type-id-60'/>
          <parameter type-id='type-id-13'/>
          <parameter type-id='type-id-64'/>
          <return type-id='type-id-13'/>
        </function-decl>
      </member-function>
      <member-function access='private' static='yes'>
        <function-decl name='Blit&lt;vtkPixelTransfer::Blit::VTK_TT, vtkPixelTransfer::Blit::VTK_TT&gt;' mangled-name='_ZN16vtkPixelTransfer4BlitIxjEEiRK14vtkPixelExtentS3_S3_S3_iPT_iPT0_' filepath='/tmp/legendre/spack-stage/spack-stage-R_crTC/VTK-6.1.0/Rendering/LIC/vtkPixelTransfer.h' line='154' column='1' visibility='default' binding='global' size-in-bits='64' elf-symbol-id='_ZN16vtkPixelTransfer4BlitIxjEEiRK14vtkPixelExtentS3_S3_S3_iPT_iPT0_' hash='53ff4377c9f2e00a#33'>
          <parameter type-id='type-id-32'/>
          <parameter type-id='type-id-32'/>
          <parameter type-id='type-id-32'/>
          <parameter type-id='type-id-32'/>
          <parameter type-id='type-id-13'/>
          <parameter type-id='type-id-60'/>
          <parameter type-id='type-id-13'/>
          <parameter type-id='type-id-65'/>
          <return type-id='type-id-13'/>
        </function-decl>
      </member-function>
      <member-function access='private' static='yes'>
        <function-decl name='Blit&lt;vtkPixelTransfer::Blit::VTK_TT, vtkPixelTransfer::Blit::VTK_TT&gt;' mangled-name='_ZN16vtkPixelTransfer4BlitIxsEEiRK14vtkPixelExtentS3_S3_S3_iPT_iPT0_' filepath='/tmp/legendre/spack-stage/spack-stage-R_crTC/VTK-6.1.0/Rendering/LIC/vtkPixelTransfer.h' line='154' column='1' visibility='default' binding='global' size-in-bits='64' elf-symbol-id='_ZN16vtkPixelTransfer4BlitIxsEEiRK14vtkPixelExtentS3_S3_S3_iPT_iPT0_' hash='14f506a2ca674a9f#34'>
          <parameter type-id='type-id-32'/>
          <parameter type-id='type-id-32'/>
          <parameter type-id='type-id-32'/>
          <parameter type-id='type-id-32'/>
          <parameter type-id='type-id-13'/>
          <parameter type-id='type-id-60'/>
          <parameter type-id='type-id-13'/>
          <parameter type-id='type-id-66'/>
          <return type-id='type-id-13'/>
        </function-decl>
      </member-function>
      <member-function access='private' static='yes'>
        <function-decl name='Blit&lt;vtkPixelTransfer::Blit::VTK_TT, vtkPixelTransfer::Blit::VTK_TT&gt;' mangled-name='_ZN16vtkPixelTransfer4BlitIxtEEiRK14vtkPixelExtentS3_S3_S3_iPT_iPT0_' filepath='/tmp/legendre/spack-stage/spack-stage-R_crTC/VTK-6.1.0/Rendering/LIC/vtkPixelTransfer.h' line='154' column='1' visibility='default' binding='global' size-in-bits='64' elf-symbol-id='_ZN16vtkPixelTransfer4BlitIxtEEiRK14vtkPixelExtentS3_S3_S3_iPT_iPT0_' hash='352dc886736ff0ed#35'>
          <parameter type-id='type-id-32'/>
          <parameter type-id='type-id-32'/>
          <parameter type-id='type-id-32'/>
          <parameter type-id='type-id-32'/>
          <parameter type-id='type-id-13'/>
          <parameter type-id='type-id-60'/>
          <parameter type-id='type-id-13'/>
          <parameter type-id='type-id-67'/>
          <return type-id='type-id-13'/>
        </function-decl>
      </member-function>
      <member-function access='private' static='yes'>
        <function-decl name='Blit&lt;vtkPixelTransfer::Blit::VTK_TT, vtkPixelTransfer::Blit::VTK_TT&gt;' mangled-name='_ZN16vtkPixelTransfer4BlitIxcEEiRK14vtkPixelExtentS3_S3_S3_iPT_iPT0_' filepath='/tmp/legendre/spack-stage/spack-stage-R_crTC/VTK-6.1.0/Rendering/LIC/vtkPixelTransfer.h' line='154' column='1' visibility='default' binding='global' size-in-bits='64' elf-symbol-id='_ZN16vtkPixelTransfer4BlitIxcEEiRK14vtkPixelExtentS3_S3_S3_iPT_iPT0_' hash='b51a3e0ef023d5f9#36'>
          <parameter type-id='type-id-32'/>
          <parameter type-id='type-id-32'/>
          <parameter type-id='type-id-32'/>
          <parameter type-id='type-id-32'/>
          <parameter type-id='type-id-13'/>
          <parameter type-id='type-id-60'/>
          <parameter type-id='type-id-13'/>
          <parameter type-id='type-id-68'/>
          <return type-id='type-id-13'/>
        </function-decl>
      </member-function>
      <member-function access='private' static='yes'>
        <function-decl name='Blit&lt;vtkPixelTransfer::Blit::VTK_TT, vtkPixelTransfer::Blit::VTK_TT&gt;' mangled-name='_ZN16vtkPixelTransfer4BlitIxaEEiRK14vtkPixelExtentS3_S3_S3_iPT_iPT0_' filepath='/tmp/legendre/spack-stage/spack-stage-R_crTC/VTK-6.1.0/Rendering/LIC/vtkPixelTransfer.h' line='154' column='1' visibility='default' binding='global' size-in-bits='64' elf-symbol-id='_ZN16vtkPixelTransfer4BlitIxaEEiRK14vtkPixelExtentS3_S3_S3_iPT_iPT0_' hash='c30bce04021ea659#37'>
          <parameter type-id='type-id-32'/>
          <parameter type-id='type-id-32'/>
          <parameter type-id='type-id-32'/>
          <parameter type-id='type-id-32'/>
          <parameter type-id='type-id-13'/>
          <parameter type-id='type-id-60'/>
          <parameter type-id='type-id-13'/>
          <parameter type-id='type-id-69'/>
          <return type-id='type-id-13'/>
        </function-decl>
      </member-function>
      <member-function access='private' static='yes'>
        <function-decl name='Blit&lt;vtkPixelTransfer::Blit::VTK_TT, vtkPixelTransfer::Blit::VTK_TT&gt;' mangled-name='_ZN16vtkPixelTransfer4BlitIxhEEiRK14vtkPixelExtentS3_S3_S3_iPT_iPT0_' filepath='/tmp/legendre/spack-stage/spack-stage-R_crTC/VTK-6.1.0/Rendering/LIC/vtkPixelTransfer.h' line='154' column='1' visibility='default' binding='global' size-in-bits='64' elf-symbol-id='_ZN16vtkPixelTransfer4BlitIxhEEiRK14vtkPixelExtentS3_S3_S3_iPT_iPT0_' hash='559ba4d53ff8b724#38'>
          <parameter type-id='type-id-32'/>
          <parameter type-id='type-id-32'/>
          <parameter type-id='type-id-32'/>
          <parameter type-id='type-id-32'/>
          <parameter type-id='type-id-13'/>
          <parameter type-id='type-id-60'/>
          <parameter type-id='type-id-13'/>
          <parameter type-id='type-id-70'/>
          <return type-id='type-id-13'/>
        </function-decl>
      </member-function>
      <member-function access='private' static='yes'>
        <function-decl name='Blit&lt;vtkPixelTransfer::Blit::VTK_TT&gt;' mangled-name='_ZN16vtkPixelTransfer4BlitIxEEiRK14vtkPixelExtentS3_S3_S3_iPT_iiPv' filepath='/tmp/legendre/spack-stage/spack-stage-R_crTC/VTK-6.1.0/Rendering/LIC/vtkPixelTransfer.h' line='124' column='1' visibility='default' binding='global' size-in-bits='64' elf-symbol-id='_ZN16vtkPixelTransfer4BlitIxEEiRK14vtkPixelExtentS3_S3_S3_iPT_iiPv' hash='f70a7a347ad8c02d#3'>
          <parameter type-id='type-id-32'/>
          <parameter type-id='type-id-32'/>
          <parameter type-id='type-id-32'/>
          <parameter type-id='type-id-32'/>
          <parameter type-id='type-id-13'/>
          <parameter type-id='type-id-60'/>
          <parameter type-id='type-id-13'/>
          <parameter type-id='type-id-13'/>
          <parameter type-id='type-id-71'/>
          <return type-id='type-id-13'/>
        </function-decl>
      </member-function>
      <member-function access='private' static='yes'>
        <function-decl name='Blit&lt;vtkPixelTransfer::Blit::VTK_TT, vtkPixelTransfer::Blit::VTK_TT&gt;' mangled-name='_ZN16vtkPixelTransfer4BlitIydEEiRK14vtkPixelExtentS3_S3_S3_iPT_iPT0_' filepath='/tmp/legendre/spack-stage/spack-stage-R_crTC/VTK-6.1.0/Rendering/LIC/vtkPixelTransfer.h' line='154' column='1' visibility='default' binding='global' size-in-bits='64' elf-symbol-id='_ZN16vtkPixelTransfer4BlitIydEEiRK14vtkPixelExtentS3_S3_S3_iPT_iPT0_' hash='c154dfaffe5df2df#39'>
          <parameter type-id='type-id-32'/>
          <parameter type-id='type-id-32'/>
          <parameter type-id='type-id-32'/>
          <parameter type-id='type-id-32'/>
          <parameter type-id='type-id-13'/>
          <parameter type-id='type-id-61'/>
          <parameter type-id='type-id-13'/>
          <parameter type-id='type-id-58'/>
          <return type-id='type-id-13'/>
        </function-decl>
      </member-function>
      <member-function access='private' static='yes'>
        <function-decl name='Blit&lt;vtkPixelTransfer::Blit::VTK_TT, vtkPixelTransfer::Blit::VTK_TT&gt;' mangled-name='_ZN16vtkPixelTransfer4BlitIyfEEiRK14vtkPixelExtentS3_S3_S3_iPT_iPT0_' filepath='/tmp/legendre/spack-stage/spack-stage-R_crTC/VTK-6.1.0/Rendering/LIC/vtkPixelTransfer.h' line='154' column='1' visibility='default' binding='global' size-in-bits='64' elf-symbol-id='_ZN16vtkPixelTransfer4BlitIyfEEiRK14vtkPixelExtentS3_S3_S3_iPT_iPT0_' hash='3201eb9cfa67e225#40'>
          <parameter type-id='type-id-32'/>
          <parameter type-id='type-id-32'/>
          <parameter type-id='type-id-32'/>
          <parameter type-id='type-id-32'/>
          <parameter type-id='type-id-13'/>
          <parameter type-id='type-id-61'/>
          <parameter type-id='type-id-13'/>
          <parameter type-id='type-id-59'/>
          <return type-id='type-id-13'/>
        </function-decl>
      </member-function>
      <member-function access='private' static='yes'>
        <function-decl name='Blit&lt;vtkPixelTransfer::Blit::VTK_TT, vtkPixelTransfer::Blit::VTK_TT&gt;' mangled-name='_ZN16vtkPixelTransfer4BlitIyxEEiRK14vtkPixelExtentS3_S3_S3_iPT_iPT0_' filepath='/tmp/legendre/spack-stage/spack-stage-R_crTC/VTK-6.1.0/Rendering/LIC/vtkPixelTransfer.h' line='154' column='1' visibility='default' binding='global' size-in-bits='64' elf-symbol-id='_ZN16vtkPixelTransfer4BlitIyxEEiRK14vtkPixelExtentS3_S3_S3_iPT_iPT0_' hash='8439a57ea40222cb#41'>
          <parameter type-id='type-id-32'/>
          <parameter type-id='type-id-32'/>
          <parameter type-id='type-id-32'/>
          <parameter type-id='type-id-32'/>
          <parameter type-id='type-id-13'/>
          <parameter type-id='type-id-61'/>
          <parameter type-id='type-id-13'/>
          <parameter type-id='type-id-60'/>
          <return type-id='type-id-13'/>
        </function-decl>
      </member-function>
      <member-function access='private' static='yes'>
        <function-decl name='Blit&lt;vtkPixelTransfer::Blit::VTK_TT, vtkPixelTransfer::Blit::VTK_TT&gt;' mangled-name='_ZN16vtkPixelTransfer4BlitIyyEEiRK14vtkPixelExtentS3_S3_S3_iPT_iPT0_' filepath='/tmp/legendre/spack-stage/spack-stage-R_crTC/VTK-6.1.0/Rendering/LIC/vtkPixelTransfer.h' line='154' column='1' visibility='default' binding='global' size-in-bits='64' elf-symbol-id='_ZN16vtkPixelTransfer4BlitIyyEEiRK14vtkPixelExtentS3_S3_S3_iPT_iPT0_' hash='c23e7e69a593f63f#42'>
          <parameter type-id='type-id-32'/>
          <parameter type-id='type-id-32'/>
          <parameter type-id='type-id-32'/>
          <parameter type-id='type-id-32'/>
          <parameter type-id='type-id-13'/>
          <parameter type-id='type-id-61'/>
          <parameter type-id='type-id-13'/>
          <parameter type-id='type-id-61'/>
          <return type-id='type-id-13'/>
        </function-decl>
      </member-function>
      <member-function access='private' static='yes'>
        <function-decl name='Blit&lt;vtkPixelTransfer::Blit::VTK_TT, vtkPixelTransfer::Blit::VTK_TT&gt;' mangled-name='_ZN16vtkPixelTransfer4BlitIylEEiRK14vtkPixelExtentS3_S3_S3_iPT_iPT0_' filepath='/tmp/legendre/spack-stage/spack-stage-R_crTC/VTK-6.1.0/Rendering/LIC/vtkPixelTransfer.h' line='154' column='1' visibility='default' binding='global' size-in-bits='64' elf-symbol-id='_ZN16vtkPixelTransfer4BlitIylEEiRK14vtkPixelExtentS3_S3_S3_iPT_iPT0_' hash='6b973d7304fdee3f#43'>
          <parameter type-id='type-id-32'/>
          <parameter type-id='type-id-32'/>
          <parameter type-id='type-id-32'/>
          <parameter type-id='type-id-32'/>
          <parameter type-id='type-id-13'/>
          <parameter type-id='type-id-61'/>
          <parameter type-id='type-id-13'/>
          <parameter type-id='type-id-62'/>
          <return type-id='type-id-13'/>
        </function-decl>
      </member-function>
      <member-function access='private' static='yes'>
        <function-decl name='Blit&lt;vtkPixelTransfer::Blit::VTK_TT, vtkPixelTransfer::Blit::VTK_TT&gt;' mangled-name='_ZN16vtkPixelTransfer4BlitIymEEiRK14vtkPixelExtentS3_S3_S3_iPT_iPT0_' filepath='/tmp/legendre/spack-stage/spack-stage-R_crTC/VTK-6.1.0/Rendering/LIC/vtkPixelTransfer.h' line='154' column='1' visibility='default' binding='global' size-in-bits='64' elf-symbol-id='_ZN16vtkPixelTransfer4BlitIymEEiRK14vtkPixelExtentS3_S3_S3_iPT_iPT0_' hash='6bec8b56f2c715f8#44'>
          <parameter type-id='type-id-32'/>
          <parameter type-id='type-id-32'/>
          <parameter type-id='type-id-32'/>
          <parameter type-id='type-id-32'/>
          <parameter type-id='type-id-13'/>
          <parameter type-id='type-id-61'/>
          <parameter type-id='type-id-13'/>
          <parameter type-id='type-id-63'/>
          <return type-id='type-id-13'/>
        </function-decl>
      </member-function>
      <member-function access='private' static='yes'>
        <function-decl name='Blit&lt;vtkPixelTransfer::Blit::VTK_TT, vtkPixelTransfer::Blit::VTK_TT&gt;' mangled-name='_ZN16vtkPixelTransfer4BlitIyiEEiRK14vtkPixelExtentS3_S3_S3_iPT_iPT0_' filepath='/tmp/legendre/spack-stage/spack-stage-R_crTC/VTK-6.1.0/Rendering/LIC/vtkPixelTransfer.h' line='154' column='1' visibility='default' binding='global' size-in-bits='64' elf-symbol-id='_ZN16vtkPixelTransfer4BlitIyiEEiRK14vtkPixelExtentS3_S3_S3_iPT_iPT0_' hash='2378497afc98ba9c#45'>
          <parameter type-id='type-id-32'/>
          <parameter type-id='type-id-32'/>
          <parameter type-id='type-id-32'/>
          <parameter type-id='type-id-32'/>
          <parameter type-id='type-id-13'/>
          <parameter type-id='type-id-61'/>
          <parameter type-id='type-id-13'/>
          <parameter type-id='type-id-64'/>
          <return type-id='type-id-13'/>
        </function-decl>
      </member-function>
      <member-function access='private' static='yes'>
        <function-decl name='Blit&lt;vtkPixelTransfer::Blit::VTK_TT, vtkPixelTransfer::Blit::VTK_TT&gt;' mangled-name='_ZN16vtkPixelTransfer4BlitIyjEEiRK14vtkPixelExtentS3_S3_S3_iPT_iPT0_' filepath='/tmp/legendre/spack-stage/spack-stage-R_crTC/VTK-6.1.0/Rendering/LIC/vtkPixelTransfer.h' line='154' column='1' visibility='default' binding='global' size-in-bits='64' elf-symbol-id='_ZN16vtkPixelTransfer4BlitIyjEEiRK14vtkPixelExtentS3_S3_S3_iPT_iPT0_' hash='cf8fe230cf929c4a#46'>
          <parameter type-id='type-id-32'/>
          <parameter type-id='type-id-32'/>
          <parameter type-id='type-id-32'/>
          <parameter type-id='type-id-32'/>
          <parameter type-id='type-id-13'/>
          <parameter type-id='type-id-61'/>
          <parameter type-id='type-id-13'/>
          <parameter type-id='type-id-65'/>
          <return type-id='type-id-13'/>
        </function-decl>
      </member-function>
      <member-function access='private' static='yes'>
        <function-decl name='Blit&lt;vtkPixelTransfer::Blit::VTK_TT, vtkPixelTransfer::Blit::VTK_TT&gt;' mangled-name='_ZN16vtkPixelTransfer4BlitIysEEiRK14vtkPixelExtentS3_S3_S3_iPT_iPT0_' filepath='/tmp/legendre/spack-stage/spack-stage-R_crTC/VTK-6.1.0/Rendering/LIC/vtkPixelTransfer.h' line='154' column='1' visibility='default' binding='global' size-in-bits='64' elf-symbol-id='_ZN16vtkPixelTransfer4BlitIysEEiRK14vtkPixelExtentS3_S3_S3_iPT_iPT0_' hash='5ffd5305a30adf38#47'>
          <parameter type-id='type-id-32'/>
          <parameter type-id='type-id-32'/>
          <parameter type-id='type-id-32'/>
          <parameter type-id='type-id-32'/>
          <parameter type-id='type-id-13'/>
          <parameter type-id='type-id-61'/>
          <parameter type-id='type-id-13'/>
          <parameter type-id='type-id-66'/>
          <return type-id='type-id-13'/>
        </function-decl>
      </member-function>
      <member-function access='private' static='yes'>
        <function-decl name='Blit&lt;vtkPixelTransfer::Blit::VTK_TT, vtkPixelTransfer::Blit::VTK_TT&gt;' mangled-name='_ZN16vtkPixelTransfer4BlitIytEEiRK14vtkPixelExtentS3_S3_S3_iPT_iPT0_' filepath='/tmp/legendre/spack-stage/spack-stage-R_crTC/VTK-6.1.0/Rendering/LIC/vtkPixelTransfer.h' line='154' column='1' visibility='default' binding='global' size-in-bits='64' elf-symbol-id='_ZN16vtkPixelTransfer4BlitIytEEiRK14vtkPixelExtentS3_S3_S3_iPT_iPT0_' hash='eaf9e32416a20d63#48'>
          <parameter type-id='type-id-32'/>
          <parameter type-id='type-id-32'/>
          <parameter type-id='type-id-32'/>
          <parameter type-id='type-id-32'/>
          <parameter type-id='type-id-13'/>
          <parameter type-id='type-id-61'/>
          <parameter type-id='type-id-13'/>
          <parameter type-id='type-id-67'/>
          <return type-id='type-id-13'/>
        </function-decl>
      </member-function>
      <member-function access='private' static='yes'>
        <function-decl name='Blit&lt;vtkPixelTransfer::Blit::VTK_TT, vtkPixelTransfer::Blit::VTK_TT&gt;' mangled-name='_ZN16vtkPixelTransfer4BlitIycEEiRK14vtkPixelExtentS3_S3_S3_iPT_iPT0_' filepath='/tmp/legendre/spack-stage/spack-stage-R_crTC/VTK-6.1.0/Rendering/LIC/vtkPixelTransfer.h' line='154' column='1' visibility='default' binding='global' size-in-bits='64' elf-symbol-id='_ZN16vtkPixelTransfer4BlitIycEEiRK14vtkPixelExtentS3_S3_S3_iPT_iPT0_' hash='ffac1ef67434ebd9#49'>
          <parameter type-id='type-id-32'/>
          <parameter type-id='type-id-32'/>
          <parameter type-id='type-id-32'/>
          <parameter type-id='type-id-32'/>
          <parameter type-id='type-id-13'/>
          <parameter type-id='type-id-61'/>
          <parameter type-id='type-id-13'/>
          <parameter type-id='type-id-68'/>
          <return type-id='type-id-13'/>
        </function-decl>
      </member-function>
      <member-function access='private' static='yes'>
        <function-decl name='Blit&lt;vtkPixelTransfer::Blit::VTK_TT, vtkPixelTransfer::Blit::VTK_TT&gt;' mangled-name='_ZN16vtkPixelTransfer4BlitIyaEEiRK14vtkPixelExtentS3_S3_S3_iPT_iPT0_' filepath='/tmp/legendre/spack-stage/spack-stage-R_crTC/VTK-6.1.0/Rendering/LIC/vtkPixelTransfer.h' line='154' column='1' visibility='default' binding='global' size-in-bits='64' elf-symbol-id='_ZN16vtkPixelTransfer4BlitIyaEEiRK14vtkPixelExtentS3_S3_S3_iPT_iPT0_' hash='618b4bd0018854f9#50'>
          <parameter type-id='type-id-32'/>
          <parameter type-id='type-id-32'/>
          <parameter type-id='type-id-32'/>
          <parameter type-id='type-id-32'/>
          <parameter type-id='type-id-13'/>
          <parameter type-id='type-id-61'/>
          <parameter type-id='type-id-13'/>
          <parameter type-id='type-id-69'/>
          <return type-id='type-id-13'/>
        </function-decl>
      </member-function>
      <member-function access='private' static='yes'>
        <function-decl name='Blit&lt;vtkPixelTransfer::Blit::VTK_TT, vtkPixelTransfer::Blit::VTK_TT&gt;' mangled-name='_ZN16vtkPixelTransfer4BlitIyhEEiRK14vtkPixelExtentS3_S3_S3_iPT_iPT0_' filepath='/tmp/legendre/spack-stage/spack-stage-R_crTC/VTK-6.1.0/Rendering/LIC/vtkPixelTransfer.h' line='154' column='1' visibility='default' binding='global' size-in-bits='64' elf-symbol-id='_ZN16vtkPixelTransfer4BlitIyhEEiRK14vtkPixelExtentS3_S3_S3_iPT_iPT0_' hash='1fffc6df97926324#51'>
          <parameter type-id='type-id-32'/>
          <parameter type-id='type-id-32'/>
          <parameter type-id='type-id-32'/>
          <parameter type-id='type-id-32'/>
          <parameter type-id='type-id-13'/>
          <parameter type-id='type-id-61'/>
          <parameter type-id='type-id-13'/>
          <parameter type-id='type-id-70'/>
          <return type-id='type-id-13'/>
        </function-decl>
      </member-function>
      <member-function access='private' static='yes'>
        <function-decl name='Blit&lt;vtkPixelTransfer::Blit::VTK_TT&gt;' mangled-name='_ZN16vtkPixelTransfer4BlitIyEEiRK14vtkPixelExtentS3_S3_S3_iPT_iiPv' filepath='/tmp/legendre/spack-stage/spack-stage-R_crTC/VTK-6.1.0/Rendering/LIC/vtkPixelTransfer.h' line='124' column='1' visibility='default' binding='global' size-in-bits='64' elf-symbol-id='_ZN16vtkPixelTransfer4BlitIyEEiRK14vtkPixelExtentS3_S3_S3_iPT_iiPv' hash='4b8d757e399f631a#4'>
          <parameter type-id='type-id-32'/>
          <parameter type-id='type-id-32'/>
          <parameter type-id='type-id-32'/>
          <parameter type-id='type-id-32'/>
          <parameter type-id='type-id-13'/>
          <parameter type-id='type-id-61'/>
          <parameter type-id='type-id-13'/>
          <parameter type-id='type-id-13'/>
          <parameter type-id='type-id-71'/>
          <return type-id='type-id-13'/>
        </function-decl>
      </member-function>
      <member-function access='private' static='yes'>
        <function-decl name='Blit&lt;vtkPixelTransfer::Blit::VTK_TT, vtkPixelTransfer::Blit::VTK_TT&gt;' mangled-name='_ZN16vtkPixelTransfer4BlitIldEEiRK14vtkPixelExtentS3_S3_S3_iPT_iPT0_' filepath='/tmp/legendre/spack-stage/spack-stage-R_crTC/VTK-6.1.0/Rendering/LIC/vtkPixelTransfer.h' line='154' column='1' visibility='default' binding='global' size-in-bits='64' elf-symbol-id='_ZN16vtkPixelTransfer4BlitIldEEiRK14vtkPixelExtentS3_S3_S3_iPT_iPT0_' hash='b3a57f245cc639e6#52'>
          <parameter type-id='type-id-32'/>
          <parameter type-id='type-id-32'/>
          <parameter type-id='type-id-32'/>
          <parameter type-id='type-id-32'/>
          <parameter type-id='type-id-13'/>
          <parameter type-id='type-id-62'/>
          <parameter type-id='type-id-13'/>
          <parameter type-id='type-id-58'/>
          <return type-id='type-id-13'/>
        </function-decl>
      </member-function>
      <member-function access='private' static='yes'>
        <function-decl name='Blit&lt;vtkPixelTransfer::Blit::VTK_TT, vtkPixelTransfer::Blit::VTK_TT&gt;' mangled-name='_ZN16vtkPixelTransfer4BlitIlfEEiRK14vtkPixelExtentS3_S3_S3_iPT_iPT0_' filepath='/tmp/legendre/spack-stage/spack-stage-R_crTC/VTK-6.1.0/Rendering/LIC/vtkPixelTransfer.h' line='154' column='1' visibility='default' binding='global' size-in-bits='64' elf-symbol-id='_ZN16vtkPixelTransfer4BlitIlfEEiRK14vtkPixelExtentS3_S3_S3_iPT_iPT0_' hash='0bd4ea284f7cffff#53'>
          <parameter type-id='type-id-32'/>
          <parameter type-id='type-id-32'/>
          <parameter type-id='type-id-32'/>
          <parameter type-id='type-id-32'/>
          <parameter type-id='type-id-13'/>
          <parameter type-id='type-id-62'/>
          <parameter type-id='type-id-13'/>
          <parameter type-id='type-id-59'/>
          <return type-id='type-id-13'/>
        </function-decl>
      </member-function>
      <member-function access='private' static='yes'>
        <function-decl name='Blit&lt;vtkPixelTransfer::Blit::VTK_TT, vtkPixelTransfer::Blit::VTK_TT&gt;' mangled-name='_ZN16vtkPixelTransfer4BlitIlxEEiRK14vtkPixelExtentS3_S3_S3_iPT_iPT0_' filepath='/tmp/legendre/spack-stage/spack-stage-R_crTC/VTK-6.1.0/Rendering/LIC/vtkPixelTransfer.h' line='154' column='1' visibility='default' binding='global' size-in-bits='64' elf-symbol-id='_ZN16vtkPixelTransfer4BlitIlxEEiRK14vtkPixelExtentS3_S3_S3_iPT_iPT0_' hash='46a87a9298fb8895#54'>
          <parameter type-id='type-id-32'/>
          <parameter type-id='type-id-32'/>
          <parameter type-id='type-id-32'/>
          <parameter type-id='type-id-32'/>
          <parameter type-id='type-id-13'/>
          <parameter type-id='type-id-62'/>
          <parameter type-id='type-id-13'/>
          <parameter type-id='type-id-60'/>
          <return type-id='type-id-13'/>
        </function-decl>
      </member-function>
      <member-function access='private' static='yes'>
        <function-decl name='Blit&lt;vtkPixelTransfer::Blit::VTK_TT, vtkPixelTransfer::Blit::VTK_TT&gt;' mangled-name='_ZN16vtkPixelTransfer4BlitIlyEEiRK14vtkPixelExtentS3_S3_S3_iPT_iPT0_' filepath='/tmp/legendre/spack-stage/spack-stage-R_crTC/VTK-6.1.0/Rendering/LIC/vtkPixelTransfer.h' line='154' column='1' visibility='default' binding='global' size-in-bits='64' elf-symbol-id='_ZN16vtkPixelTransfer4BlitIlyEEiRK14vtkPixelExtentS3_S3_S3_iPT_iPT0_' hash='cc6442ae8b9659c5#55'>
          <parameter type-id='type-id-32'/>
          <parameter type-id='type-id-32'/>
          <parameter type-id='type-id-32'/>
          <parameter type-id='type-id-32'/>
          <parameter type-id='type-id-13'/>
          <parameter type-id='type-id-62'/>
          <parameter type-id='type-id-13'/>
          <parameter type-id='type-id-61'/>
          <return type-id='type-id-13'/>
        </function-decl>
      </member-function>
      <member-function access='private' static='yes'>
        <function-decl name='Blit&lt;vtkPixelTransfer::Blit::VTK_TT, vtkPixelTransfer::Blit::VTK_TT&gt;' mangled-name='_ZN16vtkPixelTransfer4BlitIllEEiRK14vtkPixelExtentS3_S3_S3_iPT_iPT0_' filepath='/tmp/legendre/spack-stage/spack-stage-R_crTC/VTK-6.1.0/Rendering/LIC/vtkPixelTransfer.h' line='154' column='1' visibility='default' binding='global' size-in-bits='64' elf-symbol-id='_ZN16vtkPixelTransfer4BlitIllEEiRK14vtkPixelExtentS3_S3_S3_iPT_iPT0_' hash='dac186b6b058b9b7#56'>
          <parameter type-id='type-id-32'/>
          <parameter type-id='type-id-32'/>
          <parameter type-id='type-id-32'/>
          <parameter type-id='type-id-32'/>
          <parameter type-id='type-id-13'/>
          <parameter type-id='type-id-62'/>
          <parameter type-id='type-id-13'/>
          <parameter type-id='type-id-62'/>
          <return type-id='type-id-13'/>
        </function-decl>
      </member-function>
      <member-function access='private' static='yes'>
        <function-decl name='Blit&lt;vtkPixelTransfer::Blit::VTK_TT, vtkPixelTransfer::Blit::VTK_TT&gt;' mangled-name='_ZN16vtkPixelTransfer4BlitIlmEEiRK14vtkPixelExtentS3_S3_S3_iPT_iPT0_' filepath='/tmp/legendre/spack-stage/spack-stage-R_crTC/VTK-6.1.0/Rendering/LIC/vtkPixelTransfer.h' line='154' column='1' visibility='default' binding='global' size-in-bits='64' elf-symbol-id='_ZN16vtkPixelTransfer4BlitIlmEEiRK14vtkPixelExtentS3_S3_S3_iPT_iPT0_' hash='8e49526af8a167a0#57'>
          <parameter type-id='type-id-32'/>
          <parameter type-id='type-id-32'/>
          <parameter type-id='type-id-32'/>
          <parameter type-id='type-id-32'/>
          <parameter type-id='type-id-13'/>
          <parameter type-id='type-id-62'/>
          <parameter type-id='type-id-13'/>
          <parameter type-id='type-id-63'/>
          <return type-id='type-id-13'/>
        </function-decl>
      </member-function>
      <member-function access='private' static='yes'>
        <function-decl name='Blit&lt;vtkPixelTransfer::Blit::VTK_TT, vtkPixelTransfer::Blit::VTK_TT&gt;' mangled-name='_ZN16vtkPixelTransfer4BlitIliEEiRK14vtkPixelExtentS3_S3_S3_iPT_iPT0_' filepath='/tmp/legendre/spack-stage/spack-stage-R_crTC/VTK-6.1.0/Rendering/LIC/vtkPixelTransfer.h' line='154' column='1' visibility='default' binding='global' size-in-bits='64' elf-symbol-id='_ZN16vtkPixelTransfer4BlitIliEEiRK14vtkPixelExtentS3_S3_S3_iPT_iPT0_' hash='b02f158ddd2544d0#58'>
          <parameter type-id='type-id-32'/>
          <parameter type-id='type-id-32'/>
          <parameter type-id='type-id-32'/>
          <parameter type-id='type-id-32'/>
          <parameter type-id='type-id-13'/>
          <parameter type-id='type-id-62'/>
          <parameter type-id='type-id-13'/>
          <parameter type-id='type-id-64'/>
          <return type-id='type-id-13'/>
        </function-decl>
      </member-function>
      <member-function access='private' static='yes'>
        <function-decl name='Blit&lt;vtkPixelTransfer::Blit::VTK_TT, vtkPixelTransfer::Blit::VTK_TT&gt;' mangled-name='_ZN16vtkPixelTransfer4BlitIljEEiRK14vtkPixelExtentS3_S3_S3_iPT_iPT0_' filepath='/tmp/legendre/spack-stage/spack-stage-R_crTC/VTK-6.1.0/Rendering/LIC/vtkPixelTransfer.h' line='154' column='1' visibility='default' binding='global' size-in-bits='64' elf-symbol-id='_ZN16vtkPixelTransfer4BlitIljEEiRK14vtkPixelExtentS3_S3_S3_iPT_iPT0_' hash='fa198293d5220d10#59'>
          <parameter type-id='type-id-32'/>
          <parameter type-id='type-id-32'/>
          <parameter type-id='type-id-32'/>
          <parameter type-id='type-id-32'/>
          <parameter type-id='type-id-13'/>
          <parameter type-id='type-id-62'/>
          <parameter type-id='type-id-13'/>
          <parameter type-id='type-id-65'/>
          <return type-id='type-id-13'/>
        </function-decl>
      </member-function>
      <member-function access='private' static='yes'>
        <function-decl name='Blit&lt;vtkPixelTransfer::Blit::VTK_TT, vtkPixelTransfer::Blit::VTK_TT&gt;' mangled-name='_ZN16vtkPixelTransfer4BlitIlsEEiRK14vtkPixelExtentS3_S3_S3_iPT_iPT0_' filepath='/tmp/legendre/spack-stage/spack-stage-R_crTC/VTK-6.1.0/Rendering/LIC/vtkPixelTransfer.h' line='154' column='1' visibility='default' binding='global' size-in-bits='64' elf-symbol-id='_ZN16vtkPixelTransfer4BlitIlsEEiRK14vtkPixelExtentS3_S3_S3_iPT_iPT0_' hash='5dedc09b6a4161b2#60'>
          <parameter type-id='type-id-32'/>
          <parameter type-id='type-id-32'/>
          <parameter type-id='type-id-32'/>
          <parameter type-id='type-id-32'/>
          <parameter type-id='type-id-13'/>
          <parameter type-id='type-id-62'/>
          <parameter type-id='type-id-13'/>
          <parameter type-id='type-id-66'/>
          <return type-id='type-id-13'/>
        </function-decl>
      </member-function>
      <member-function access='private' static='yes'>
        <function-decl name='Blit&lt;vtkPixelTransfer::Blit::VTK_TT, vtkPixelTransfer::Blit::VTK_TT&gt;' mangled-name='_ZN16vtkPixelTransfer4BlitIltEEiRK14vtkPixelExtentS3_S3_S3_iPT_iPT0_' filepath='/tmp/legendre/spack-stage/spack-stage-R_crTC/VTK-6.1.0/Rendering/LIC/vtkPixelTransfer.h' line='154' column='1' visibility='default' binding='global' size-in-bits='64' elf-symbol-id='_ZN16vtkPixelTransfer4BlitIltEEiRK14vtkPixelExtentS3_S3_S3_iPT_iPT0_' hash='7fba3d90498df2d0#61'>
          <parameter type-id='type-id-32'/>
          <parameter type-id='type-id-32'/>
          <parameter type-id='type-id-32'/>
          <parameter type-id='type-id-32'/>
          <parameter type-id='type-id-13'/>
          <parameter type-id='type-id-62'/>
          <parameter type-id='type-id-13'/>
          <parameter type-id='type-id-67'/>
          <return type-id='type-id-13'/>
        </function-decl>
      </member-function>
      <member-function access='private' static='yes'>
        <function-decl name='Blit&lt;vtkPixelTransfer::Blit::VTK_TT, vtkPixelTransfer::Blit::VTK_TT&gt;' mangled-name='_ZN16vtkPixelTransfer4BlitIlcEEiRK14vtkPixelExtentS3_S3_S3_iPT_iPT0_' filepath='/tmp/legendre/spack-stage/spack-stage-R_crTC/VTK-6.1.0/Rendering/LIC/vtkPixelTransfer.h' line='154' column='1' visibility='default' binding='global' size-in-bits='64' elf-symbol-id='_ZN16vtkPixelTransfer4BlitIlcEEiRK14vtkPixelExtentS3_S3_S3_iPT_iPT0_' hash='b534b6ef0f030b7e#62'>
          <parameter type-id='type-id-32'/>
          <parameter type-id='type-id-32'/>
          <parameter type-id='type-id-32'/>
          <parameter type-id='type-id-32'/>
          <parameter type-id='type-id-13'/>
          <parameter type-id='type-id-62'/>
          <parameter type-id='type-id-13'/>
          <parameter type-id='type-id-68'/>
          <return type-id='type-id-13'/>
        </function-decl>
      </member-function>
      <member-function access='private' static='yes'>
        <function-decl name='Blit&lt;vtkPixelTransfer::Blit::VTK_TT, vtkPixelTransfer::Blit::VTK_TT&gt;' mangled-name='_ZN16vtkPixelTransfer4BlitIlaEEiRK14vtkPixelExtentS3_S3_S3_iPT_iPT0_' filepath='/tmp/legendre/spack-stage/spack-stage-R_crTC/VTK-6.1.0/Rendering/LIC/vtkPixelTransfer.h' line='154' column='1' visibility='default' binding='global' size-in-bits='64' elf-symbol-id='_ZN16vtkPixelTransfer4BlitIlaEEiRK14vtkPixelExtentS3_S3_S3_iPT_iPT0_' hash='29765200faa74e03#63'>
          <parameter type-id='type-id-32'/>
          <parameter type-id='type-id-32'/>
          <parameter type-id='type-id-32'/>
          <parameter type-id='type-id-32'/>
          <parameter type-id='type-id-13'/>
          <parameter type-id='type-id-62'/>
          <parameter type-id='type-id-13'/>
          <parameter type-id='type-id-69'/>
          <return type-id='type-id-13'/>
        </function-decl>
      </member-function>
      <member-function access='private' static='yes'>
        <function-decl name='Blit&lt;vtkPixelTransfer::Blit::VTK_TT, vtkPixelTransfer::Blit::VTK_TT&gt;' mangled-name='_ZN16vtkPixelTransfer4BlitIlhEEiRK14vtkPixelExtentS3_S3_S3_iPT_iPT0_' filepath='/tmp/legendre/spack-stage/spack-stage-R_crTC/VTK-6.1.0/Rendering/LIC/vtkPixelTransfer.h' line='154' column='1' visibility='default' binding='global' size-in-bits='64' elf-symbol-id='_ZN16vtkPixelTransfer4BlitIlhEEiRK14vtkPixelExtentS3_S3_S3_iPT_iPT0_' hash='268f38a7ce271f57#64'>
          <parameter type-id='type-id-32'/>
          <parameter type-id='type-id-32'/>
          <parameter type-id='type-id-32'/>
          <parameter type-id='type-id-32'/>
          <parameter type-id='type-id-13'/>
          <parameter type-id='type-id-62'/>
          <parameter type-id='type-id-13'/>
          <parameter type-id='type-id-70'/>
          <return type-id='type-id-13'/>
        </function-decl>
      </member-function>
      <member-function access='private' static='yes'>
        <function-decl name='Blit&lt;vtkPixelTransfer::Blit::VTK_TT&gt;' mangled-name='_ZN16vtkPixelTransfer4BlitIlEEiRK14vtkPixelExtentS3_S3_S3_iPT_iiPv' filepath='/tmp/legendre/spack-stage/spack-stage-R_crTC/VTK-6.1.0/Rendering/LIC/vtkPixelTransfer.h' line='124' column='1' visibility='default' binding='global' size-in-bits='64' elf-symbol-id='_ZN16vtkPixelTransfer4BlitIlEEiRK14vtkPixelExtentS3_S3_S3_iPT_iiPv' hash='0abb21c40519164c#5'>
          <parameter type-id='type-id-32'/>
          <parameter type-id='type-id-32'/>
          <parameter type-id='type-id-32'/>
          <parameter type-id='type-id-32'/>
          <parameter type-id='type-id-13'/>
          <parameter type-id='type-id-62'/>
          <parameter type-id='type-id-13'/>
          <parameter type-id='type-id-13'/>
          <parameter type-id='type-id-71'/>
          <return type-id='type-id-13'/>
        </function-decl>
      </member-function>
      <member-function access='private' static='yes'>
        <function-decl name='Blit&lt;vtkPixelTransfer::Blit::VTK_TT, vtkPixelTransfer::Blit::VTK_TT&gt;' mangled-name='_ZN16vtkPixelTransfer4BlitImdEEiRK14vtkPixelExtentS3_S3_S3_iPT_iPT0_' filepath='/tmp/legendre/spack-stage/spack-stage-R_crTC/VTK-6.1.0/Rendering/LIC/vtkPixelTransfer.h' line='154' column='1' visibility='default' binding='global' size-in-bits='64' elf-symbol-id='_ZN16vtkPixelTransfer4BlitImdEEiRK14vtkPixelExtentS3_S3_S3_iPT_iPT0_' hash='aca6b3f638c15527#65'>
          <parameter type-id='type-id-32'/>
          <parameter type-id='type-id-32'/>
          <parameter type-id='type-id-32'/>
          <parameter type-id='type-id-32'/>
          <parameter type-id='type-id-13'/>
          <parameter type-id='type-id-63'/>
          <parameter type-id='type-id-13'/>
          <parameter type-id='type-id-58'/>
          <return type-id='type-id-13'/>
        </function-decl>
      </member-function>
      <member-function access='private' static='yes'>
        <function-decl name='Blit&lt;vtkPixelTransfer::Blit::VTK_TT, vtkPixelTransfer::Blit::VTK_TT&gt;' mangled-name='_ZN16vtkPixelTransfer4BlitImfEEiRK14vtkPixelExtentS3_S3_S3_iPT_iPT0_' filepath='/tmp/legendre/spack-stage/spack-stage-R_crTC/VTK-6.1.0/Rendering/LIC/vtkPixelTransfer.h' line='154' column='1' visibility='default' binding='global' size-in-bits='64' elf-symbol-id='_ZN16vtkPixelTransfer4BlitImfEEiRK14vtkPixelExtentS3_S3_S3_iPT_iPT0_' hash='3483523a99287632#66'>
          <parameter type-id='type-id-32'/>
          <parameter type-id='type-id-32'/>
          <parameter type-id='type-id-32'/>
          <parameter type-id='type-id-32'/>
          <parameter type-id='type-id-13'/>
          <parameter type-id='type-id-63'/>
          <parameter type-id='type-id-13'/>
          <parameter type-id='type-id-59'/>
          <return type-id='type-id-13'/>
        </function-decl>
      </member-function>
      <member-function access='private' static='yes'>
        <function-decl name='Blit&lt;vtkPixelTransfer::Blit::VTK_TT, vtkPixelTransfer::Blit::VTK_TT&gt;' mangled-name='_ZN16vtkPixelTransfer4BlitImxEEiRK14vtkPixelExtentS3_S3_S3_iPT_iPT0_' filepath='/tmp/legendre/spack-stage/spack-stage-R_crTC/VTK-6.1.0/Rendering/LIC/vtkPixelTransfer.h' line='154' column='1' visibility='default' binding='global' size-in-bits='64' elf-symbol-id='_ZN16vtkPixelTransfer4BlitImxEEiRK14vtkPixelExtentS3_S3_S3_iPT_iPT0_' hash='bc86cb8f1deb492b#67'>
          <parameter type-id='type-id-32'/>
          <parameter type-id='type-id-32'/>
          <parameter type-id='type-id-32'/>
          <parameter type-id='type-id-32'/>
          <parameter type-id='type-id-13'/>
          <parameter type-id='type-id-63'/>
          <parameter type-id='type-id-13'/>
          <parameter type-id='type-id-60'/>
          <return type-id='type-id-13'/>
        </function-decl>
      </member-function>
      <member-function access='private' static='yes'>
        <function-decl name='Blit&lt;vtkPixelTransfer::Blit::VTK_TT, vtkPixelTransfer::Blit::VTK_TT&gt;' mangled-name='_ZN16vtkPixelTransfer4BlitImyEEiRK14vtkPixelExtentS3_S3_S3_iPT_iPT0_' filepath='/tmp/legendre/spack-stage/spack-stage-R_crTC/VTK-6.1.0/Rendering/LIC/vtkPixelTransfer.h' line='154' column='1' visibility='default' binding='global' size-in-bits='64' elf-symbol-id='_ZN16vtkPixelTransfer4BlitImyEEiRK14vtkPixelExtentS3_S3_S3_iPT_iPT0_' hash='7e71759312495e5f#68'>
          <parameter type-id='type-id-32'/>
          <parameter type-id='type-id-32'/>
          <parameter type-id='type-id-32'/>
          <parameter type-id='type-id-32'/>
          <parameter type-id='type-id-13'/>
          <parameter type-id='type-id-63'/>
          <parameter type-id='type-id-13'/>
          <parameter type-id='type-id-61'/>
          <return type-id='type-id-13'/>
        </function-decl>
      </member-function>
      <member-function access='private' static='yes'>
        <function-decl name='Blit&lt;vtkPixelTransfer::Blit::VTK_TT, vtkPixelTransfer::Blit::VTK_TT&gt;' mangled-name='_ZN16vtkPixelTransfer4BlitImlEEiRK14vtkPixelExtentS3_S3_S3_iPT_iPT0_' filepath='/tmp/legendre/spack-stage/spack-stage-R_crTC/VTK-6.1.0/Rendering/LIC/vtkPixelTransfer.h' line='154' column='1' visibility='default' binding='global' size-in-bits='64' elf-symbol-id='_ZN16vtkPixelTransfer4BlitImlEEiRK14vtkPixelExtentS3_S3_S3_iPT_iPT0_' hash='8a0347169566e102#69'>
          <parameter type-id='type-id-32'/>
          <parameter type-id='type-id-32'/>
          <parameter type-id='type-id-32'/>
          <parameter type-id='type-id-32'/>
          <parameter type-id='type-id-13'/>
          <parameter type-id='type-id-63'/>
          <parameter type-id='type-id-13'/>
          <parameter type-id='type-id-62'/>
          <return type-id='type-id-13'/>
        </function-decl>
      </member-function>
      <member-function access='private' static='yes'>
        <function-decl name='Blit&lt;vtkPixelTransfer::Blit::VTK_TT, vtkPixelTransfer::Blit::VTK_TT&gt;' mangled-name='_ZN16vtkPixelTransfer4BlitImmEEiRK14vtkPixelExtentS3_S3_S3_iPT_iPT0_' filepath='/tmp/legendre/spack-stage/spack-stage-R_crTC/VTK-6.1.0/Rendering/LIC/vtkPixelTransfer.h' line='154' column='1' visibility='default' binding='global' size-in-bits='64' elf-symbol-id='_ZN16vtkPixelTransfer4BlitImmEEiRK14vtkPixelExtentS3_S3_S3_iPT_iPT0_' hash='dba6d433a958f745#70'>
          <parameter type-id='type-id-32'/>
          <parameter type-id='type-id-32'/>
          <parameter type-id='type-id-32'/>
          <parameter type-id='type-id-32'/>
          <parameter type-id='type-id-13'/>
          <parameter type-id='type-id-63'/>
          <parameter type-id='type-id-13'/>
          <parameter type-id='type-id-63'/>
          <return type-id='type-id-13'/>
        </function-decl>
      </member-function>
      <member-function access='private' static='yes'>
        <function-decl name='Blit&lt;vtkPixelTransfer::Blit::VTK_TT, vtkPixelTransfer::Blit::VTK_TT&gt;' mangled-name='_ZN16vtkPixelTransfer4BlitImiEEiRK14vtkPixelExtentS3_S3_S3_iPT_iPT0_' filepath='/tmp/legendre/spack-stage/spack-stage-R_crTC/VTK-6.1.0/Rendering/LIC/vtkPixelTransfer.h' line='154' column='1' visibility='default' binding='global' size-in-bits='64' elf-symbol-id='_ZN16vtkPixelTransfer4BlitImiEEiRK14vtkPixelExtentS3_S3_S3_iPT_iPT0_' hash='ab9a943b733af6a9#71'>
          <parameter type-id='type-id-32'/>
          <parameter type-id='type-id-32'/>
          <parameter type-id='type-id-32'/>
          <parameter type-id='type-id-32'/>
          <parameter type-id='type-id-13'/>
          <parameter type-id='type-id-63'/>
          <parameter type-id='type-id-13'/>
          <parameter type-id='type-id-64'/>
          <return type-id='type-id-13'/>
        </function-decl>
      </member-function>
      <member-function access='private' static='yes'>
        <function-decl name='Blit&lt;vtkPixelTransfer::Blit::VTK_TT, vtkPixelTransfer::Blit::VTK_TT&gt;' mangled-name='_ZN16vtkPixelTransfer4BlitImjEEiRK14vtkPixelExtentS3_S3_S3_iPT_iPT0_' filepath='/tmp/legendre/spack-stage/spack-stage-R_crTC/VTK-6.1.0/Rendering/LIC/vtkPixelTransfer.h' line='154' column='1' visibility='default' binding='global' size-in-bits='64' elf-symbol-id='_ZN16vtkPixelTransfer4BlitImjEEiRK14vtkPixelExtentS3_S3_S3_iPT_iPT0_' hash='c1452de97608019f#72'>
          <parameter type-id='type-id-32'/>
          <parameter type-id='type-id-32'/>
          <parameter type-id='type-id-32'/>
          <parameter type-id='type-id-32'/>
          <parameter type-id='type-id-13'/>
          <parameter type-id='type-id-63'/>
          <parameter type-id='type-id-13'/>
          <parameter type-id='type-id-65'/>
          <return type-id='type-id-13'/>
        </function-decl>
      </member-function>
      <member-function access='private' static='yes'>
        <function-decl name='Blit&lt;vtkPixelTransfer::Blit::VTK_TT, vtkPixelTransfer::Blit::VTK_TT&gt;' mangled-name='_ZN16vtkPixelTransfer4BlitImsEEiRK14vtkPixelExtentS3_S3_S3_iPT_iPT0_' filepath='/tmp/legendre/spack-stage/spack-stage-R_crTC/VTK-6.1.0/Rendering/LIC/vtkPixelTransfer.h' line='154' column='1' visibility='default' binding='global' size-in-bits='64' elf-symbol-id='_ZN16vtkPixelTransfer4BlitImsEEiRK14vtkPixelExtentS3_S3_S3_iPT_iPT0_' hash='3ef1ff57f278d1b0#73'>
          <parameter type-id='type-id-32'/>
          <parameter type-id='type-id-32'/>
          <parameter type-id='type-id-32'/>
          <parameter type-id='type-id-32'/>
          <parameter type-id='type-id-13'/>
          <parameter type-id='type-id-63'/>
          <parameter type-id='type-id-13'/>
          <parameter type-id='type-id-66'/>
          <return type-id='type-id-13'/>
        </function-decl>
      </member-function>
      <member-function access='private' static='yes'>
        <function-decl name='Blit&lt;vtkPixelTransfer::Blit::VTK_TT, vtkPixelTransfer::Blit::VTK_TT&gt;' mangled-name='_ZN16vtkPixelTransfer4BlitImtEEiRK14vtkPixelExtentS3_S3_S3_iPT_iPT0_' filepath='/tmp/legendre/spack-stage/spack-stage-R_crTC/VTK-6.1.0/Rendering/LIC/vtkPixelTransfer.h' line='154' column='1' visibility='default' binding='global' size-in-bits='64' elf-symbol-id='_ZN16vtkPixelTransfer4BlitImtEEiRK14vtkPixelExtentS3_S3_S3_iPT_iPT0_' hash='27829841ba42947e#74'>
          <parameter type-id='type-id-32'/>
          <parameter type-id='type-id-32'/>
          <parameter type-id='type-id-32'/>
          <parameter type-id='type-id-32'/>
          <parameter type-id='type-id-13'/>
          <parameter type-id='type-id-63'/>
          <parameter type-id='type-id-13'/>
          <parameter type-id='type-id-67'/>
          <return type-id='type-id-13'/>
        </function-decl>
      </member-function>
      <member-function access='private' static='yes'>
        <function-decl name='Blit&lt;vtkPixelTransfer::Blit::VTK_TT, vtkPixelTransfer::Blit::VTK_TT&gt;' mangled-name='_ZN16vtkPixelTransfer4BlitImcEEiRK14vtkPixelExtentS3_S3_S3_iPT_iPT0_' filepath='/tmp/legendre/spack-stage/spack-stage-R_crTC/VTK-6.1.0/Rendering/LIC/vtkPixelTransfer.h' line='154' column='1' visibility='default' binding='global' size-in-bits='64' elf-symbol-id='_ZN16vtkPixelTransfer4BlitImcEEiRK14vtkPixelExtentS3_S3_S3_iPT_iPT0_' hash='9c45f49c90a0b49a#75'>
          <parameter type-id='type-id-32'/>
          <parameter type-id='type-id-32'/>
          <parameter type-id='type-id-32'/>
          <parameter type-id='type-id-32'/>
          <parameter type-id='type-id-13'/>
          <parameter type-id='type-id-63'/>
          <parameter type-id='type-id-13'/>
          <parameter type-id='type-id-68'/>
          <return type-id='type-id-13'/>
        </function-decl>
      </member-function>
      <member-function access='private' static='yes'>
        <function-decl name='Blit&lt;vtkPixelTransfer::Blit::VTK_TT, vtkPixelTransfer::Blit::VTK_TT&gt;' mangled-name='_ZN16vtkPixelTransfer4BlitImaEEiRK14vtkPixelExtentS3_S3_S3_iPT_iPT0_' filepath='/tmp/legendre/spack-stage/spack-stage-R_crTC/VTK-6.1.0/Rendering/LIC/vtkPixelTransfer.h' line='154' column='1' visibility='default' binding='global' size-in-bits='64' elf-symbol-id='_ZN16vtkPixelTransfer4BlitImaEEiRK14vtkPixelExtentS3_S3_S3_iPT_iPT0_' hash='0013496cf58cf999#76'>
          <parameter type-id='type-id-32'/>
          <parameter type-id='type-id-32'/>
          <parameter type-id='type-id-32'/>
          <parameter type-id='type-id-32'/>
          <parameter type-id='type-id-13'/>
          <parameter type-id='type-id-63'/>
          <parameter type-id='type-id-13'/>
          <parameter type-id='type-id-69'/>
          <return type-id='type-id-13'/>
        </function-decl>
      </member-function>
      <member-function access='private' static='yes'>
        <function-decl name='Blit&lt;vtkPixelTransfer::Blit::VTK_TT, vtkPixelTransfer::Blit::VTK_TT&gt;' mangled-name='_ZN16vtkPixelTransfer4BlitImhEEiRK14vtkPixelExtentS3_S3_S3_iPT_iPT0_' filepath='/tmp/legendre/spack-stage/spack-stage-R_crTC/VTK-6.1.0/Rendering/LIC/vtkPixelTransfer.h' line='154' column='1' visibility='default' binding='global' size-in-bits='64' elf-symbol-id='_ZN16vtkPixelTransfer4BlitImhEEiRK14vtkPixelExtentS3_S3_S3_iPT_iPT0_' hash='1f3e2251aea0ddca#77'>
          <parameter type-id='type-id-32'/>
          <parameter type-id='type-id-32'/>
          <parameter type-id='type-id-32'/>
          <parameter type-id='type-id-32'/>
          <parameter type-id='type-id-13'/>
          <parameter type-id='type-id-63'/>
          <parameter type-id='type-id-13'/>
          <parameter type-id='type-id-70'/>
          <return type-id='type-id-13'/>
        </function-decl>
      </member-function>
      <member-function access='private' static='yes'>
        <function-decl name='Blit&lt;vtkPixelTransfer::Blit::VTK_TT&gt;' mangled-name='_ZN16vtkPixelTransfer4BlitImEEiRK14vtkPixelExtentS3_S3_S3_iPT_iiPv' filepath='/tmp/legendre/spack-stage/spack-stage-R_crTC/VTK-6.1.0/Rendering/LIC/vtkPixelTransfer.h' line='124' column='1' visibility='default' binding='global' size-in-bits='64' elf-symbol-id='_ZN16vtkPixelTransfer4BlitImEEiRK14vtkPixelExtentS3_S3_S3_iPT_iiPv' hash='2704812d263c1547#6'>
          <parameter type-id='type-id-32'/>
          <parameter type-id='type-id-32'/>
          <parameter type-id='type-id-32'/>
          <parameter type-id='type-id-32'/>
          <parameter type-id='type-id-13'/>
          <parameter type-id='type-id-63'/>
          <parameter type-id='type-id-13'/>
          <parameter type-id='type-id-13'/>
          <parameter type-id='type-id-71'/>
          <return type-id='type-id-13'/>
        </function-decl>
      </member-function>
      <member-function access='private' static='yes'>
        <function-decl name='Blit&lt;vtkPixelTransfer::Blit::VTK_TT, vtkPixelTransfer::Blit::VTK_TT&gt;' mangled-name='_ZN16vtkPixelTransfer4BlitIidEEiRK14vtkPixelExtentS3_S3_S3_iPT_iPT0_' filepath='/tmp/legendre/spack-stage/spack-stage-R_crTC/VTK-6.1.0/Rendering/LIC/vtkPixelTransfer.h' line='154' column='1' visibility='default' binding='global' size-in-bits='64' elf-symbol-id='_ZN16vtkPixelTransfer4BlitIidEEiRK14vtkPixelExtentS3_S3_S3_iPT_iPT0_' hash='c7c1e67b09522e01#78'>
          <parameter type-id='type-id-32'/>
          <parameter type-id='type-id-32'/>
          <parameter type-id='type-id-32'/>
          <parameter type-id='type-id-32'/>
          <parameter type-id='type-id-13'/>
          <parameter type-id='type-id-64'/>
          <parameter type-id='type-id-13'/>
          <parameter type-id='type-id-58'/>
          <return type-id='type-id-13'/>
        </function-decl>
      </member-function>
      <member-function access='private' static='yes'>
        <function-decl name='Blit&lt;vtkPixelTransfer::Blit::VTK_TT, vtkPixelTransfer::Blit::VTK_TT&gt;' mangled-name='_ZN16vtkPixelTransfer4BlitIifEEiRK14vtkPixelExtentS3_S3_S3_iPT_iPT0_' filepath='/tmp/legendre/spack-stage/spack-stage-R_crTC/VTK-6.1.0/Rendering/LIC/vtkPixelTransfer.h' line='154' column='1' visibility='default' binding='global' size-in-bits='64' elf-symbol-id='_ZN16vtkPixelTransfer4BlitIifEEiRK14vtkPixelExtentS3_S3_S3_iPT_iPT0_' hash='8556e8d1b8d2e161#79'>
          <parameter type-id='type-id-32'/>
          <parameter type-id='type-id-32'/>
          <parameter type-id='type-id-32'/>
          <parameter type-id='type-id-32'/>
          <parameter type-id='type-id-13'/>
          <parameter type-id='type-id-64'/>
          <parameter type-id='type-id-13'/>
          <parameter type-id='type-id-59'/>
          <return type-id='type-id-13'/>
        </function-decl>
      </member-function>
      <member-function access='private' static='yes'>
        <function-decl name='Blit&lt;vtkPixelTransfer::Blit::VTK_TT, vtkPixelTransfer::Blit::VTK_TT&gt;' mangled-name='_ZN16vtkPixelTransfer4BlitIixEEiRK14vtkPixelExtentS3_S3_S3_iPT_iPT0_' filepath='/tmp/legendre/spack-stage/spack-stage-R_crTC/VTK-6.1.0/Rendering/LIC/vtkPixelTransfer.h' line='154' column='1' visibility='default' binding='global' size-in-bits='64' elf-symbol-id='_ZN16vtkPixelTransfer4BlitIixEEiRK14vtkPixelExtentS3_S3_S3_iPT_iPT0_' hash='c493e06a2150d8c2#80'>
          <parameter type-id='type-id-32'/>
          <parameter type-id='type-id-32'/>
          <parameter type-id='type-id-32'/>
          <parameter type-id='type-id-32'/>
          <parameter type-id='type-id-13'/>
          <parameter type-id='type-id-64'/>
          <parameter type-id='type-id-13'/>
          <parameter type-id='type-id-60'/>
          <return type-id='type-id-13'/>
        </function-decl>
      </member-function>
      <member-function access='private' static='yes'>
        <function-decl name='Blit&lt;vtkPixelTransfer::Blit::VTK_TT, vtkPixelTransfer::Blit::VTK_TT&gt;' mangled-name='_ZN16vtkPixelTransfer4BlitIiyEEiRK14vtkPixelExtentS3_S3_S3_iPT_iPT0_' filepath='/tmp/legendre/spack-stage/spack-stage-R_crTC/VTK-6.1.0/Rendering/LIC/vtkPixelTransfer.h' line='154' column='1' visibility='default' binding='global' size-in-bits='64' elf-symbol-id='_ZN16vtkPixelTransfer4BlitIiyEEiRK14vtkPixelExtentS3_S3_S3_iPT_iPT0_' hash='8d15bc2125db2b49#81'>
          <parameter type-id='type-id-32'/>
          <parameter type-id='type-id-32'/>
          <parameter type-id='type-id-32'/>
          <parameter type-id='type-id-32'/>
          <parameter type-id='type-id-13'/>
          <parameter type-id='type-id-64'/>
          <parameter type-id='type-id-13'/>
          <parameter type-id='type-id-61'/>
          <return type-id='type-id-13'/>
        </function-decl>
      </member-function>
      <member-function access='private' static='yes'>
        <function-decl name='Blit&lt;vtkPixelTransfer::Blit::VTK_TT, vtkPixelTransfer::Blit::VTK_TT&gt;' mangled-name='_ZN16vtkPixelTransfer4BlitIilEEiRK14vtkPixelExtentS3_S3_S3_iPT_iPT0_' filepath='/tmp/legendre/spack-stage/spack-stage-R_crTC/VTK-6.1.0/Rendering/LIC/vtkPixelTransfer.h' line='154' column='1' visibility='default' binding='global' size-in-bits='64' elf-symbol-id='_ZN16vtkPixelTransfer4BlitIilEEiRK14vtkPixelExtentS3_S3_S3_iPT_iPT0_' hash='00ccc26247a95968#82'>
          <parameter type-id='type-id-32'/>
          <parameter type-id='type-id-32'/>
          <parameter type-id='type-id-32'/>
          <parameter type-id='type-id-32'/>
          <parameter type-id='type-id-13'/>
          <parameter type-id='type-id-64'/>
          <parameter type-id='type-id-13'/>
          <parameter type-id='type-id-62'/>
          <return type-id='type-id-13'/>
        </function-decl>
      </member-function>
      <member-function access='private' static='yes'>
        <function-decl name='Blit&lt;vtkPixelTransfer::Blit::VTK_TT, vtkPixelTransfer::Blit::VTK_TT&gt;' mangled-name='_ZN16vtkPixelTransfer4BlitIimEEiRK14vtkPixelExtentS3_S3_S3_iPT_iPT0_' filepath='/tmp/legendre/spack-stage/spack-stage-R_crTC/VTK-6.1.0/Rendering/LIC/vtkPixelTransfer.h' line='154' column='1' visibility='default' binding='global' size-in-bits='64' elf-symbol-id='_ZN16vtkPixelTransfer4BlitIimEEiRK14vtkPixelExtentS3_S3_S3_iPT_iPT0_' hash='32f5a55888831a14#83'>
          <parameter type-id='type-id-32'/>
          <parameter type-id='type-id-32'/>
          <parameter type-id='type-id-32'/>
          <parameter type-id='type-id-32'/>
          <parameter type-id='type-id-13'/>
          <parameter type-id='type-id-64'/>
          <parameter type-id='type-id-13'/>
          <parameter type-id='type-id-63'/>
          <return type-id='type-id-13'/>
        </function-decl>
      </member-function>
      <member-function access='private' static='yes'>
        <function-decl name='Blit&lt;vtkPixelTransfer::Blit::VTK_TT, vtkPixelTransfer::Blit::VTK_TT&gt;' mangled-name='_ZN16vtkPixelTransfer4BlitIiiEEiRK14vtkPixelExtentS3_S3_S3_iPT_iPT0_' filepath='/tmp/legendre/spack-stage/spack-stage-R_crTC/VTK-6.1.0/Rendering/LIC/vtkPixelTransfer.h' line='154' column='1' visibility='default' binding='global' size-in-bits='64' elf-symbol-id='_ZN16vtkPixelTransfer4BlitIiiEEiRK14vtkPixelExtentS3_S3_S3_iPT_iPT0_' hash='89b17054cca3eb3c#84'>
          <parameter type-id='type-id-32'/>
          <parameter type-id='type-id-32'/>
          <parameter type-id='type-id-32'/>
          <parameter type-id='type-id-32'/>
          <parameter type-id='type-id-13'/>
          <parameter type-id='type-id-64'/>
          <parameter type-id='type-id-13'/>
          <parameter type-id='type-id-64'/>
          <return type-id='type-id-13'/>
        </function-decl>
      </member-function>
      <member-function access='private' static='yes'>
        <function-decl name='Blit&lt;vtkPixelTransfer::Blit::VTK_TT, vtkPixelTransfer::Blit::VTK_TT&gt;' mangled-name='_ZN16vtkPixelTransfer4BlitIijEEiRK14vtkPixelExtentS3_S3_S3_iPT_iPT0_' filepath='/tmp/legendre/spack-stage/spack-stage-R_crTC/VTK-6.1.0/Rendering/LIC/vtkPixelTransfer.h' line='154' column='1' visibility='default' binding='global' size-in-bits='64' elf-symbol-id='_ZN16vtkPixelTransfer4BlitIijEEiRK14vtkPixelExtentS3_S3_S3_iPT_iPT0_' hash='98e53a26932cc7c6#85'>
          <parameter type-id='type-id-32'/>
          <parameter type-id='type-id-32'/>
          <parameter type-id='type-id-32'/>
          <parameter type-id='type-id-32'/>
          <parameter type-id='type-id-13'/>
          <parameter type-id='type-id-64'/>
          <parameter type-id='type-id-13'/>
          <parameter type-id='type-id-65'/>
          <return type-id='type-id-13'/>
        </function-decl>
      </member-function>
      <member-function access='private' static='yes'>
        <function-decl name='Blit&lt;vtkPixelTransfer::Blit::VTK_TT, vtkPixelTransfer::Blit::VTK_TT&gt;' mangled-name='_ZN16vtkPixelTransfer4BlitIisEEiRK14vtkPixelExtentS3_S3_S3_iPT_iPT0_' filepath='/tmp/legendre/spack-stage/spack-stage-R_crTC/VTK-6.1.0/Rendering/LIC/vtkPixelTransfer.h' line='154' column='1' visibility='default' binding='global' size-in-bits='64' elf-symbol-id='_ZN16vtkPixelTransfer4BlitIisEEiRK14vtkPixelExtentS3_S3_S3_iPT_iPT0_' hash='7d87560a25521de0#86'>
          <parameter type-id='type-id-32'/>
          <parameter type-id='type-id-32'/>
          <parameter type-id='type-id-32'/>
          <parameter type-id='type-id-32'/>
          <parameter type-id='type-id-13'/>
          <parameter type-id='type-id-64'/>
          <parameter type-id='type-id-13'/>
          <parameter type-id='type-id-66'/>
          <return type-id='type-id-13'/>
        </function-decl>
      </member-function>
      <member-function access='private' static='yes'>
        <function-decl name='Blit&lt;vtkPixelTransfer::Blit::VTK_TT, vtkPixelTransfer::Blit::VTK_TT&gt;' mangled-name='_ZN16vtkPixelTransfer4BlitIitEEiRK14vtkPixelExtentS3_S3_S3_iPT_iPT0_' filepath='/tmp/legendre/spack-stage/spack-stage-R_crTC/VTK-6.1.0/Rendering/LIC/vtkPixelTransfer.h' line='154' column='1' visibility='default' binding='global' size-in-bits='64' elf-symbol-id='_ZN16vtkPixelTransfer4BlitIitEEiRK14vtkPixelExtentS3_S3_S3_iPT_iPT0_' hash='bbc928e0625fac95#87'>
          <parameter type-id='type-id-32'/>
          <parameter type-id='type-id-32'/>
          <parameter type-id='type-id-32'/>
          <parameter type-id='type-id-32'/>
          <parameter type-id='type-id-13'/>
          <parameter type-id='type-id-64'/>
          <parameter type-id='type-id-13'/>
          <parameter type-id='type-id-67'/>
          <return type-id='type-id-13'/>
        </function-decl>
      </member-function>
      <member-function access='private' static='yes'>
        <function-decl name='Blit&lt;vtkPixelTransfer::Blit::VTK_TT, vtkPixelTransfer::Blit::VTK_TT&gt;' mangled-name='_ZN16vtkPixelTransfer4BlitIicEEiRK14vtkPixelExtentS3_S3_S3_iPT_iPT0_' filepath='/tmp/legendre/spack-stage/spack-stage-R_crTC/VTK-6.1.0/Rendering/LIC/vtkPixelTransfer.h' line='154' column='1' visibility='default' binding='global' size-in-bits='64' elf-symbol-id='_ZN16vtkPixelTransfer4BlitIicEEiRK14vtkPixelExtentS3_S3_S3_iPT_iPT0_' hash='3ab1b72de172093b#88'>
          <parameter type-id='type-id-32'/>
          <parameter type-id='type-id-32'/>
          <parameter type-id='type-id-32'/>
          <parameter type-id='type-id-32'/>
          <parameter type-id='type-id-13'/>
          <parameter type-id='type-id-64'/>
          <parameter type-id='type-id-13'/>
          <parameter type-id='type-id-68'/>
          <return type-id='type-id-13'/>
        </function-decl>
      </member-function>
      <member-function access='private' static='yes'>
        <function-decl name='Blit&lt;vtkPixelTransfer::Blit::VTK_TT, vtkPixelTransfer::Blit::VTK_TT&gt;' mangled-name='_ZN16vtkPixelTransfer4BlitIiaEEiRK14vtkPixelExtentS3_S3_S3_iPT_iPT0_' filepath='/tmp/legendre/spack-stage/spack-stage-R_crTC/VTK-6.1.0/Rendering/LIC/vtkPixelTransfer.h' line='154' column='1' visibility='default' binding='global' size-in-bits='64' elf-symbol-id='_ZN16vtkPixelTransfer4BlitIiaEEiRK14vtkPixelExtentS3_S3_S3_iPT_iPT0_' hash='104311c1a8dcc993#89'>
          <parameter type-id='type-id-32'/>
          <parameter type-id='type-id-32'/>
          <parameter type-id='type-id-32'/>
          <parameter type-id='type-id-32'/>
          <parameter type-id='type-id-13'/>
          <parameter type-id='type-id-64'/>
          <parameter type-id='type-id-13'/>
          <parameter type-id='type-id-69'/>
          <return type-id='type-id-13'/>
        </function-decl>
      </member-function>
      <member-function access='private' static='yes'>
        <function-decl name='Blit&lt;vtkPixelTransfer::Blit::VTK_TT, vtkPixelTransfer::Blit::VTK_TT&gt;' mangled-name='_ZN16vtkPixelTransfer4BlitIihEEiRK14vtkPixelExtentS3_S3_S3_iPT_iPT0_' filepath='/tmp/legendre/spack-stage/spack-stage-R_crTC/VTK-6.1.0/Rendering/LIC/vtkPixelTransfer.h' line='154' column='1' visibility='default' binding='global' size-in-bits='64' elf-symbol-id='_ZN16vtkPixelTransfer4BlitIihEEiRK14vtkPixelExtentS3_S3_S3_iPT_iPT0_' hash='defa84a7747a3730#90'>
          <parameter type-id='type-id-32'/>
          <parameter type-id='type-id-32'/>
          <parameter type-id='type-id-32'/>
          <parameter type-id='type-id-32'/>
          <parameter type-id='type-id-13'/>
          <parameter type-id='type-id-64'/>
          <parameter type-id='type-id-13'/>
          <parameter type-id='type-id-70'/>
          <return type-id='type-id-13'/>
        </function-decl>
      </member-function>
      <member-function access='private' static='yes'>
        <function-decl name='Blit&lt;vtkPixelTransfer::Blit::VTK_TT&gt;' mangled-name='_ZN16vtkPixelTransfer4BlitIiEEiRK14vtkPixelExtentS3_S3_S3_iPT_iiPv' filepath='/tmp/legendre/spack-stage/spack-stage-R_crTC/VTK-6.1.0/Rendering/LIC/vtkPixelTransfer.h' line='124' column='1' visibility='default' binding='global' size-in-bits='64' elf-symbol-id='_ZN16vtkPixelTransfer4BlitIiEEiRK14vtkPixelExtentS3_S3_S3_iPT_iiPv' hash='d25d1e7b4bcf8e31#7'>
          <parameter type-id='type-id-32'/>
          <parameter type-id='type-id-32'/>
          <parameter type-id='type-id-32'/>
          <parameter type-id='type-id-32'/>
          <parameter type-id='type-id-13'/>
          <parameter type-id='type-id-64'/>
          <parameter type-id='type-id-13'/>
          <parameter type-id='type-id-13'/>
          <parameter type-id='type-id-71'/>
          <return type-id='type-id-13'/>
        </function-decl>
      </member-function>
      <member-function access='private' static='yes'>
        <function-decl name='Blit&lt;vtkPixelTransfer::Blit::VTK_TT, vtkPixelTransfer::Blit::VTK_TT&gt;' mangled-name='_ZN16vtkPixelTransfer4BlitIjdEEiRK14vtkPixelExtentS3_S3_S3_iPT_iPT0_' filepath='/tmp/legendre/spack-stage/spack-stage-R_crTC/VTK-6.1.0/Rendering/LIC/vtkPixelTransfer.h' line='154' column='1' visibility='default' binding='global' size-in-bits='64' elf-symbol-id='_ZN16vtkPixelTransfer4BlitIjdEEiRK14vtkPixelExtentS3_S3_S3_iPT_iPT0_' hash='cbd332f5f399b149#91'>
          <parameter type-id='type-id-32'/>
          <parameter type-id='type-id-32'/>
          <parameter type-id='type-id-32'/>
          <parameter type-id='type-id-32'/>
          <parameter type-id='type-id-13'/>
          <parameter type-id='type-id-65'/>
          <parameter type-id='type-id-13'/>
          <parameter type-id='type-id-58'/>
          <return type-id='type-id-13'/>
        </function-decl>
      </member-function>
      <member-function access='private' static='yes'>
        <function-decl name='Blit&lt;vtkPixelTransfer::Blit::VTK_TT, vtkPixelTransfer::Blit::VTK_TT&gt;' mangled-name='_ZN16vtkPixelTransfer4BlitIjfEEiRK14vtkPixelExtentS3_S3_S3_iPT_iPT0_' filepath='/tmp/legendre/spack-stage/spack-stage-R_crTC/VTK-6.1.0/Rendering/LIC/vtkPixelTransfer.h' line='154' column='1' visibility='default' binding='global' size-in-bits='64' elf-symbol-id='_ZN16vtkPixelTransfer4BlitIjfEEiRK14vtkPixelExtentS3_S3_S3_iPT_iPT0_' hash='16a72ae1253fd6bb#92'>
          <parameter type-id='type-id-32'/>
          <parameter type-id='type-id-32'/>
          <parameter type-id='type-id-32'/>
          <parameter type-id='type-id-32'/>
          <parameter type-id='type-id-13'/>
          <parameter type-id='type-id-65'/>
          <parameter type-id='type-id-13'/>
          <parameter type-id='type-id-59'/>
          <return type-id='type-id-13'/>
        </function-decl>
      </member-function>
      <member-function access='private' static='yes'>
        <function-decl name='Blit&lt;vtkPixelTransfer::Blit::VTK_TT, vtkPixelTransfer::Blit::VTK_TT&gt;' mangled-name='_ZN16vtkPixelTransfer4BlitIjxEEiRK14vtkPixelExtentS3_S3_S3_iPT_iPT0_' filepath='/tmp/legendre/spack-stage/spack-stage-R_crTC/VTK-6.1.0/Rendering/LIC/vtkPixelTransfer.h' line='154' column='1' visibility='default' binding='global' size-in-bits='64' elf-symbol-id='_ZN16vtkPixelTransfer4BlitIjxEEiRK14vtkPixelExtentS3_S3_S3_iPT_iPT0_' hash='69902481ac7c27d7#93'>
          <parameter type-id='type-id-32'/>
          <parameter type-id='type-id-32'/>
          <parameter type-id='type-id-32'/>
          <parameter type-id='type-id-32'/>
          <parameter type-id='type-id-13'/>
          <parameter type-id='type-id-65'/>
          <parameter type-id='type-id-13'/>
          <parameter type-id='type-id-60'/>
          <return type-id='type-id-13'/>
        </function-decl>
      </member-function>
      <member-function access='private' static='yes'>
        <function-decl name='Blit&lt;vtkPixelTransfer::Blit::VTK_TT, vtkPixelTransfer::Blit::VTK_TT&gt;' mangled-name='_ZN16vtkPixelTransfer4BlitIjyEEiRK14vtkPixelExtentS3_S3_S3_iPT_iPT0_' filepath='/tmp/legendre/spack-stage/spack-stage-R_crTC/VTK-6.1.0/Rendering/LIC/vtkPixelTransfer.h' line='154' column='1' visibility='default' binding='global' size-in-bits='64' elf-symbol-id='_ZN16vtkPixelTransfer4BlitIjyEEiRK14vtkPixelExtentS3_S3_S3_iPT_iPT0_' hash='64ec3cfd38a781d4#94'>
          <parameter type-id='type-id-32'/>
          <parameter type-id='type-id-32'/>
          <parameter type-id='type-id-32'/>
          <parameter type-id='type-id-32'/>
          <parameter type-id='type-id-13'/>
          <parameter type-id='type-id-65'/>
          <parameter type-id='type-id-13'/>
          <parameter type-id='type-id-61'/>
          <return type-id='type-id-13'/>
        </function-decl>
      </member-function>
      <member-function access='private' static='yes'>
        <function-decl name='Blit&lt;vtkPixelTransfer::Blit::VTK_TT, vtkPixelTransfer::Blit::VTK_TT&gt;' mangled-name='_ZN16vtkPixelTransfer4BlitIjlEEiRK14vtkPixelExtentS3_S3_S3_iPT_iPT0_' filepath='/tmp/legendre/spack-stage/spack-stage-R_crTC/VTK-6.1.0/Rendering/LIC/vtkPixelTransfer.h' line='154' column='1' visibility='default' binding='global' size-in-bits='64' elf-symbol-id='_ZN16vtkPixelTransfer4BlitIjlEEiRK14vtkPixelExtentS3_S3_S3_iPT_iPT0_' hash='636b4817f5ed19f6#95'>
          <parameter type-id='type-id-32'/>
          <parameter type-id='type-id-32'/>
          <parameter type-id='type-id-32'/>
          <parameter type-id='type-id-32'/>
          <parameter type-id='type-id-13'/>
          <parameter type-id='type-id-65'/>
          <parameter type-id='type-id-13'/>
          <parameter type-id='type-id-62'/>
          <return type-id='type-id-13'/>
        </function-decl>
      </member-function>
      <member-function access='private' static='yes'>
        <function-decl name='Blit&lt;vtkPixelTransfer::Blit::VTK_TT, vtkPixelTransfer::Blit::VTK_TT&gt;' mangled-name='_ZN16vtkPixelTransfer4BlitIjmEEiRK14vtkPixelExtentS3_S3_S3_iPT_iPT0_' filepath='/tmp/legendre/spack-stage/spack-stage-R_crTC/VTK-6.1.0/Rendering/LIC/vtkPixelTransfer.h' line='154' column='1' visibility='default' binding='global' size-in-bits='64' elf-symbol-id='_ZN16vtkPixelTransfer4BlitIjmEEiRK14vtkPixelExtentS3_S3_S3_iPT_iPT0_' hash='dcade6534f25f620#96'>
          <parameter type-id='type-id-32'/>
          <parameter type-id='type-id-32'/>
          <parameter type-id='type-id-32'/>
          <parameter type-id='type-id-32'/>
          <parameter type-id='type-id-13'/>
          <parameter type-id='type-id-65'/>
          <parameter type-id='type-id-13'/>
          <parameter type-id='type-id-63'/>
          <return type-id='type-id-13'/>
        </function-decl>
      </member-function>
      <member-function access='private' static='yes'>
        <function-decl name='Blit&lt;vtkPixelTransfer::Blit::VTK_TT, vtkPixelTransfer::Blit::VTK_TT&gt;' mangled-name='_ZN16vtkPixelTransfer4BlitIjiEEiRK14vtkPixelExtentS3_S3_S3_iPT_iPT0_' filepath='/tmp/legendre/spack-stage/spack-stage-R_crTC/VTK-6.1.0/Rendering/LIC/vtkPixelTransfer.h' line='154' column='1' visibility='default' binding='global' size-in-bits='64' elf-symbol-id='_ZN16vtkPixelTransfer4BlitIjiEEiRK14vtkPixelExtentS3_S3_S3_iPT_iPT0_' hash='4e0c9a0c1b2a62e2#97'>
          <parameter type-id='type-id-32'/>
          <parameter type-id='type-id-32'/>
          <parameter type-id='type-id-32'/>
          <parameter type-id='type-id-32'/>
          <parameter type-id='type-id-13'/>
          <parameter type-id='type-id-65'/>
          <parameter type-id='type-id-13'/>
          <parameter type-id='type-id-64'/>
          <return type-id='type-id-13'/>
        </function-decl>
      </member-function>
      <member-function access='private' static='yes'>
        <function-decl name='Blit&lt;vtkPixelTransfer::Blit::VTK_TT, vtkPixelTransfer::Blit::VTK_TT&gt;' mangled-name='_ZN16vtkPixelTransfer4BlitIjjEEiRK14vtkPixelExtentS3_S3_S3_iPT_iPT0_' filepath='/tmp/legendre/spack-stage/spack-stage-R_crTC/VTK-6.1.0/Rendering/LIC/vtkPixelTransfer.h' line='154' column='1' visibility='default' binding='global' size-in-bits='64' elf-symbol-id='_ZN16vtkPixelTransfer4BlitIjjEEiRK14vtkPixelExtentS3_S3_S3_iPT_iPT0_' hash='3b224a01b93c9b24#98'>
          <parameter type-id='type-id-32'/>
          <parameter type-id='type-id-32'/>
          <parameter type-id='type-id-32'/>
          <parameter type-id='type-id-32'/>
          <parameter type-id='type-id-13'/>
          <parameter type-id='type-id-65'/>
          <parameter type-id='type-id-13'/>
          <parameter type-id='type-id-65'/>
          <return type-id='type-id-13'/>
        </function-decl>
      </member-function>
      <member-function access='private' static='yes'>
        <function-decl name='Blit&lt;vtkPixelTransfer::Blit::VTK_TT, vtkPixelTransfer::Blit::VTK_TT&gt;' mangled-name='_ZN16vtkPixelTransfer4BlitIjsEEiRK14vtkPixelExtentS3_S3_S3_iPT_iPT0_' filepath='/tmp/legendre/spack-stage/spack-stage-R_crTC/VTK-6.1.0/Rendering/LIC/vtkPixelTransfer.h' line='154' column='1' visibility='default' binding='global' size-in-bits='64' elf-symbol-id='_ZN16vtkPixelTransfer4BlitIjsEEiRK14vtkPixelExtentS3_S3_S3_iPT_iPT0_' hash='282f3c3de20049d3#99'>
          <parameter type-id='type-id-32'/>
          <parameter type-id='type-id-32'/>
          <parameter type-id='type-id-32'/>
          <parameter type-id='type-id-32'/>
          <parameter type-id='type-id-13'/>
          <parameter type-id='type-id-65'/>
          <parameter type-id='type-id-13'/>
          <parameter type-id='type-id-66'/>
          <return type-id='type-id-13'/>
        </function-decl>
      </member-function>
      <member-function access='private' static='yes'>
        <function-decl name='Blit&lt;vtkPixelTransfer::Blit::VTK_TT, vtkPixelTransfer::Blit::VTK_TT&gt;' mangled-name='_ZN16vtkPixelTransfer4BlitIjtEEiRK14vtkPixelExtentS3_S3_S3_iPT_iPT0_' filepath='/tmp/legendre/spack-stage/spack-stage-R_crTC/VTK-6.1.0/Rendering/LIC/vtkPixelTransfer.h' line='154' column='1' visibility='default' binding='global' size-in-bits='64' elf-symbol-id='_ZN16vtkPixelTransfer4BlitIjtEEiRK14vtkPixelExtentS3_S3_S3_iPT_iPT0_' hash='1bb9386b61b252e8#100'>
          <parameter type-id='type-id-32'/>
          <parameter type-id='type-id-32'/>
          <parameter type-id='type-id-32'/>
          <parameter type-id='type-id-32'/>
          <parameter type-id='type-id-13'/>
          <parameter type-id='type-id-65'/>
          <parameter type-id='type-id-13'/>
          <parameter type-id='type-id-67'/>
          <return type-id='type-id-13'/>
        </function-decl>
      </member-function>
      <member-function access='private' static='yes'>
        <function-decl name='Blit&lt;vtkPixelTransfer::Blit::VTK_TT, vtkPixelTransfer::Blit::VTK_TT&gt;' mangled-name='_ZN16vtkPixelTransfer4BlitIjcEEiRK14vtkPixelExtentS3_S3_S3_iPT_iPT0_' filepath='/tmp/legendre/spack-stage/spack-stage-R_crTC/VTK-6.1.0/Rendering/LIC/vtkPixelTransfer.h' line='154' column='1' visibility='default' binding='global' size-in-bits='64' elf-symbol-id='_ZN16vtkPixelTransfer4BlitIjcEEiRK14vtkPixelExtentS3_S3_S3_iPT_iPT0_' hash='3a5701010a1a0822#101'>
          <parameter type-id='type-id-32'/>
          <parameter type-id='type-id-32'/>
          <parameter type-id='type-id-32'/>
          <parameter type-id='type-id-32'/>
          <parameter type-id='type-id-13'/>
          <parameter type-id='type-id-65'/>
          <parameter type-id='type-id-13'/>
          <parameter type-id='type-id-68'/>
          <return type-id='type-id-13'/>
        </function-decl>
      </member-function>
      <member-function access='private' static='yes'>
        <function-decl name='Blit&lt;vtkPixelTransfer::Blit::VTK_TT, vtkPixelTransfer::Blit::VTK_TT&gt;' mangled-name='_ZN16vtkPixelTransfer4BlitIjaEEiRK14vtkPixelExtentS3_S3_S3_iPT_iPT0_' filepath='/tmp/legendre/spack-stage/spack-stage-R_crTC/VTK-6.1.0/Rendering/LIC/vtkPixelTransfer.h' line='154' column='1' visibility='default' binding='global' size-in-bits='64' elf-symbol-id='_ZN16vtkPixelTransfer4BlitIjaEEiRK14vtkPixelExtentS3_S3_S3_iPT_iPT0_' hash='6f93449fe2a5665f#102'>
          <parameter type-id='type-id-32'/>
          <parameter type-id='type-id-32'/>
          <parameter type-id='type-id-32'/>
          <parameter type-id='type-id-32'/>
          <parameter type-id='type-id-13'/>
          <parameter type-id='type-id-65'/>
          <parameter type-id='type-id-13'/>
          <parameter type-id='type-id-69'/>
          <return type-id='type-id-13'/>
        </function-decl>
      </member-function>
      <member-function access='private' static='yes'>
        <function-decl name='Blit&lt;vtkPixelTransfer::Blit::VTK_TT, vtkPixelTransfer::Blit::VTK_TT&gt;' mangled-name='_ZN16vtkPixelTransfer4BlitIjhEEiRK14vtkPixelExtentS3_S3_S3_iPT_iPT0_' filepath='/tmp/legendre/spack-stage/spack-stage-R_crTC/VTK-6.1.0/Rendering/LIC/vtkPixelTransfer.h' line='154' column='1' visibility='default' binding='global' size-in-bits='64' elf-symbol-id='_ZN16vtkPixelTransfer4BlitIjhEEiRK14vtkPixelExtentS3_S3_S3_iPT_iPT0_' hash='1b666c438e16eaac#103'>
          <parameter type-id='type-id-32'/>
          <parameter type-id='type-id-32'/>
          <parameter type-id='type-id-32'/>
          <parameter type-id='type-id-32'/>
          <parameter type-id='type-id-13'/>
          <parameter type-id='type-id-65'/>
          <parameter type-id='type-id-13'/>
          <parameter type-id='type-id-70'/>
          <return type-id='type-id-13'/>
        </function-decl>
      </member-function>
      <member-function access='private' static='yes'>
        <function-decl name='Blit&lt;vtkPixelTransfer::Blit::VTK_TT&gt;' mangled-name='_ZN16vtkPixelTransfer4BlitIjEEiRK14vtkPixelExtentS3_S3_S3_iPT_iiPv' filepath='/tmp/legendre/spack-stage/spack-stage-R_crTC/VTK-6.1.0/Rendering/LIC/vtkPixelTransfer.h' line='124' column='1' visibility='default' binding='global' size-in-bits='64' elf-symbol-id='_ZN16vtkPixelTransfer4BlitIjEEiRK14vtkPixelExtentS3_S3_S3_iPT_iiPv' hash='87d552053a98ade9#8'>
          <parameter type-id='type-id-32'/>
          <parameter type-id='type-id-32'/>
          <parameter type-id='type-id-32'/>
          <parameter type-id='type-id-32'/>
          <parameter type-id='type-id-13'/>
          <parameter type-id='type-id-65'/>
          <parameter type-id='type-id-13'/>
          <parameter type-id='type-id-13'/>
          <parameter type-id='type-id-71'/>
          <return type-id='type-id-13'/>
        </function-decl>
      </member-function>
      <member-function access='private' static='yes'>
        <function-decl name='Blit&lt;vtkPixelTransfer::Blit::VTK_TT, vtkPixelTransfer::Blit::VTK_TT&gt;' mangled-name='_ZN16vtkPixelTransfer4BlitIsdEEiRK14vtkPixelExtentS3_S3_S3_iPT_iPT0_' filepath='/tmp/legendre/spack-stage/spack-stage-R_crTC/VTK-6.1.0/Rendering/LIC/vtkPixelTransfer.h' line='154' column='1' visibility='default' binding='global' size-in-bits='64' elf-symbol-id='_ZN16vtkPixelTransfer4BlitIsdEEiRK14vtkPixelExtentS3_S3_S3_iPT_iPT0_' hash='5dbf671e386959ed#104'>
          <parameter type-id='type-id-32'/>
          <parameter type-id='type-id-32'/>
          <parameter type-id='type-id-32'/>
          <parameter type-id='type-id-32'/>
          <parameter type-id='type-id-13'/>
          <parameter type-id='type-id-66'/>
          <parameter type-id='type-id-13'/>
          <parameter type-id='type-id-58'/>
          <return type-id='type-id-13'/>
        </function-decl>
      </member-function>
      <member-function access='private' static='yes'>
        <function-decl name='Blit&lt;vtkPixelTransfer::Blit::VTK_TT, vtkPixelTransfer::Blit::VTK_TT&gt;' mangled-name='_ZN16vtkPixelTransfer4BlitIsfEEiRK14vtkPixelExtentS3_S3_S3_iPT_iPT0_' filepath='/tmp/legendre/spack-stage/spack-stage-R_crTC/VTK-6.1.0/Rendering/LIC/vtkPixelTransfer.h' line='154' column='1' visibility='default' binding='global' size-in-bits='64' elf-symbol-id='_ZN16vtkPixelTransfer4BlitIsfEEiRK14vtkPixelExtentS3_S3_S3_iPT_iPT0_' hash='f014099f809cea4d#105'>
          <parameter type-id='type-id-32'/>
          <parameter type-id='type-id-32'/>
          <parameter type-id='type-id-32'/>
          <parameter type-id='type-id-32'/>
          <parameter type-id='type-id-13'/>
          <parameter type-id='type-id-66'/>
          <parameter type-id='type-id-13'/>
          <parameter type-id='type-id-59'/>
          <return type-id='type-id-13'/>
        </function-decl>
      </member-function>
      <member-function access='private' static='yes'>
        <function-decl name='Blit&lt;vtkPixelTransfer::Blit::VTK_TT, vtkPixelTransfer::Blit::VTK_TT&gt;' mangled-name='_ZN16vtkPixelTransfer4BlitIsxEEiRK14vtkPixelExtentS3_S3_S3_iPT_iPT0_' filepath='/tmp/legendre/spack-stage/spack-stage-R_crTC/VTK-6.1.0/Rendering/LIC/vtkPixelTransfer.h' line='154' column='1' visibility='default' binding='global' size-in-bits='64' elf-symbol-id='_ZN16vtkPixelTransfer4BlitIsxEEiRK14vtkPixelExtentS3_S3_S3_iPT_iPT0_' hash='5655f0c6a1777a4c#106'>
          <parameter type-id='type-id-32'/>
          <parameter type-id='type-id-32'/>
          <parameter type-id='type-id-32'/>
          <parameter type-id='type-id-32'/>
          <parameter type-id='type-id-13'/>
          <parameter type-id='type-id-66'/>
          <parameter type-id='type-id-13'/>
          <parameter type-id='type-id-60'/>
          <return type-id='type-id-13'/>
        </function-decl>
      </member-function>
      <member-function access='private' static='yes'>
        <function-decl name='Blit&lt;vtkPixelTransfer::Blit::VTK_TT, vtkPixelTransfer::Blit::VTK_TT&gt;' mangled-name='_ZN16vtkPixelTransfer4BlitIsyEEiRK14vtkPixelExtentS3_S3_S3_iPT_iPT0_' filepath='/tmp/legendre/spack-stage/spack-stage-R_crTC/VTK-6.1.0/Rendering/LIC/vtkPixelTransfer.h' line='154' column='1' visibility='default' binding='global' size-in-bits='64' elf-symbol-id='_ZN16vtkPixelTransfer4BlitIsyEEiRK14vtkPixelExtentS3_S3_S3_iPT_iPT0_' hash='5e275bc28121316a#107'>
          <parameter type-id='type-id-32'/>
          <parameter type-id='type-id-32'/>
          <parameter type-id='type-id-32'/>
          <parameter type-id='type-id-32'/>
          <parameter type-id='type-id-13'/>
          <parameter type-id='type-id-66'/>
          <parameter type-id='type-id-13'/>
          <parameter type-id='type-id-61'/>
          <return type-id='type-id-13'/>
        </function-decl>
      </member-function>
      <member-function access='private' static='yes'>
        <function-decl name='Blit&lt;vtkPixelTransfer::Blit::VTK_TT, vtkPixelTransfer::Blit::VTK_TT&gt;' mangled-name='_ZN16vtkPixelTransfer4BlitIslEEiRK14vtkPixelExtentS3_S3_S3_iPT_iPT0_' filepath='/tmp/legendre/spack-stage/spack-stage-R_crTC/VTK-6.1.0/Rendering/LIC/vtkPixelTransfer.h' line='154' column='1' visibility='default' binding='global' size-in-bits='64' elf-symbol-id='_ZN16vtkPixelTransfer4BlitIslEEiRK14vtkPixelExtentS3_S3_S3_iPT_iPT0_' hash='3f878c54c34c42b2#108'>
          <parameter type-id='type-id-32'/>
          <parameter type-id='type-id-32'/>
          <parameter type-id='type-id-32'/>
          <parameter type-id='type-id-32'/>
          <parameter type-id='type-id-13'/>
          <parameter type-id='type-id-66'/>
          <parameter type-id='type-id-13'/>
          <parameter type-id='type-id-62'/>
          <return type-id='type-id-13'/>
        </function-decl>
      </member-function>
      <member-function access='private' static='yes'>
        <function-decl name='Blit&lt;vtkPixelTransfer::Blit::VTK_TT, vtkPixelTransfer::Blit::VTK_TT&gt;' mangled-name='_ZN16vtkPixelTransfer4BlitIsmEEiRK14vtkPixelExtentS3_S3_S3_iPT_iPT0_' filepath='/tmp/legendre/spack-stage/spack-stage-R_crTC/VTK-6.1.0/Rendering/LIC/vtkPixelTransfer.h' line='154' column='1' visibility='default' binding='global' size-in-bits='64' elf-symbol-id='_ZN16vtkPixelTransfer4BlitIsmEEiRK14vtkPixelExtentS3_S3_S3_iPT_iPT0_' hash='a119db423de0eb92#109'>
          <parameter type-id='type-id-32'/>
          <parameter type-id='type-id-32'/>
          <parameter type-id='type-id-32'/>
          <parameter type-id='type-id-32'/>
          <parameter type-id='type-id-13'/>
          <parameter type-id='type-id-66'/>
          <parameter type-id='type-id-13'/>
          <parameter type-id='type-id-63'/>
          <return type-id='type-id-13'/>
        </function-decl>
      </member-function>
      <member-function access='private' static='yes'>
        <function-decl name='Blit&lt;vtkPixelTransfer::Blit::VTK_TT, vtkPixelTransfer::Blit::VTK_TT&gt;' mangled-name='_ZN16vtkPixelTransfer4BlitIsiEEiRK14vtkPixelExtentS3_S3_S3_iPT_iPT0_' filepath='/tmp/legendre/spack-stage/spack-stage-R_crTC/VTK-6.1.0/Rendering/LIC/vtkPixelTransfer.h' line='154' column='1' visibility='default' binding='global' size-in-bits='64' elf-symbol-id='_ZN16vtkPixelTransfer4BlitIsiEEiRK14vtkPixelExtentS3_S3_S3_iPT_iPT0_' hash='5e89b59f05ee7259#110'>
          <parameter type-id='type-id-32'/>
          <parameter type-id='type-id-32'/>
          <parameter type-id='type-id-32'/>
          <parameter type-id='type-id-32'/>
          <parameter type-id='type-id-13'/>
          <parameter type-id='type-id-66'/>
          <parameter type-id='type-id-13'/>
          <parameter type-id='type-id-64'/>
          <return type-id='type-id-13'/>
        </function-decl>
      </member-function>
      <member-function access='private' static='yes'>
        <function-decl name='Blit&lt;vtkPixelTransfer::Blit::VTK_TT, vtkPixelTransfer::Blit::VTK_TT&gt;' mangled-name='_ZN16vtkPixelTransfer4BlitIsjEEiRK14vtkPixelExtentS3_S3_S3_iPT_iPT0_' filepath='/tmp/legendre/spack-stage/spack-stage-R_crTC/VTK-6.1.0/Rendering/LIC/vtkPixelTransfer.h' line='154' column='1' visibility='default' binding='global' size-in-bits='64' elf-symbol-id='_ZN16vtkPixelTransfer4BlitIsjEEiRK14vtkPixelExtentS3_S3_S3_iPT_iPT0_' hash='97400eb8b2f7c61f#111'>
          <parameter type-id='type-id-32'/>
          <parameter type-id='type-id-32'/>
          <parameter type-id='type-id-32'/>
          <parameter type-id='type-id-32'/>
          <parameter type-id='type-id-13'/>
          <parameter type-id='type-id-66'/>
          <parameter type-id='type-id-13'/>
          <parameter type-id='type-id-65'/>
          <return type-id='type-id-13'/>
        </function-decl>
      </member-function>
      <member-function access='private' static='yes'>
        <function-decl name='Blit&lt;vtkPixelTransfer::Blit::VTK_TT, vtkPixelTransfer::Blit::VTK_TT&gt;' mangled-name='_ZN16vtkPixelTransfer4BlitIssEEiRK14vtkPixelExtentS3_S3_S3_iPT_iPT0_' filepath='/tmp/legendre/spack-stage/spack-stage-R_crTC/VTK-6.1.0/Rendering/LIC/vtkPixelTransfer.h' line='154' column='1' visibility='default' binding='global' size-in-bits='64' elf-symbol-id='_ZN16vtkPixelTransfer4BlitIssEEiRK14vtkPixelExtentS3_S3_S3_iPT_iPT0_' hash='dedf8e29fc714974#112'>
          <parameter type-id='type-id-32'/>
          <parameter type-id='type-id-32'/>
          <parameter type-id='type-id-32'/>
          <parameter type-id='type-id-32'/>
          <parameter type-id='type-id-13'/>
          <parameter type-id='type-id-66'/>
          <parameter type-id='type-id-13'/>
          <parameter type-id='type-id-66'/>
          <return type-id='type-id-13'/>
        </function-decl>
      </member-function>
      <member-function access='private' static='yes'>
        <function-decl name='Blit&lt;vtkPixelTransfer::Blit::VTK_TT, vtkPixelTransfer::Blit::VTK_TT&gt;' mangled-name='_ZN16vtkPixelTransfer4BlitIstEEiRK14vtkPixelExtentS3_S3_S3_iPT_iPT0_' filepath='/tmp/legendre/spack-stage/spack-stage-R_crTC/VTK-6.1.0/Rendering/LIC/vtkPixelTransfer.h' line='154' column='1' visibility='default' binding='global' size-in-bits='64' elf-symbol-id='_ZN16vtkPixelTransfer4BlitIstEEiRK14vtkPixelExtentS3_S3_S3_iPT_iPT0_' hash='c6a963c7d12cfd85#113'>
          <parameter type-id='type-id-32'/>
          <parameter type-id='type-id-32'/>
          <parameter type-id='type-id-32'/>
          <parameter type-id='type-id-32'/>
          <parameter type-id='type-id-13'/>
          <parameter type-id='type-id-66'/>
          <parameter type-id='type-id-13'/>
          <parameter type-id='type-id-67'/>
          <return type-id='type-id-13'/>
        </function-decl>
      </member-function>
      <member-function access='private' static='yes'>
        <function-decl name='Blit&lt;vtkPixelTransfer::Blit::VTK_TT, vtkPixelTransfer::Blit::VTK_TT&gt;' mangled-name='_ZN16vtkPixelTransfer4BlitIscEEiRK14vtkPixelExtentS3_S3_S3_iPT_iPT0_' filepath='/tmp/legendre/spack-stage/spack-stage-R_crTC/VTK-6.1.0/Rendering/LIC/vtkPixelTransfer.h' line='154' column='1' visibility='default' binding='global' size-in-bits='64' elf-symbol-id='_ZN16vtkPixelTransfer4BlitIscEEiRK14vtkPixelExtentS3_S3_S3_iPT_iPT0_' hash='0c62e5450c0953a8#114'>
          <parameter type-id='type-id-32'/>
          <parameter type-id='type-id-32'/>
          <parameter type-id='type-id-32'/>
          <parameter type-id='type-id-32'/>
          <parameter type-id='type-id-13'/>
          <parameter type-id='type-id-66'/>
          <parameter type-id='type-id-13'/>
          <parameter type-id='type-id-68'/>
          <return type-id='type-id-13'/>
        </function-decl>
      </member-function>
      <member-function access='private' static='yes'>
        <function-decl name='Blit&lt;vtkPixelTransfer::Blit::VTK_TT, vtkPixelTransfer::Blit::VTK_TT&gt;' mangled-name='_ZN16vtkPixelTransfer4BlitIsaEEiRK14vtkPixelExtentS3_S3_S3_iPT_iPT0_' filepath='/tmp/legendre/spack-stage/spack-stage-R_crTC/VTK-6.1.0/Rendering/LIC/vtkPixelTransfer.h' line='154' column='1' visibility='default' binding='global' size-in-bits='64' elf-symbol-id='_ZN16vtkPixelTransfer4BlitIsaEEiRK14vtkPixelExtentS3_S3_S3_iPT_iPT0_' hash='203edb1328b98f60#115'>
          <parameter type-id='type-id-32'/>
          <parameter type-id='type-id-32'/>
          <parameter type-id='type-id-32'/>
          <parameter type-id='type-id-32'/>
          <parameter type-id='type-id-13'/>
          <parameter type-id='type-id-66'/>
          <parameter type-id='type-id-13'/>
          <parameter type-id='type-id-69'/>
          <return type-id='type-id-13'/>
        </function-decl>
      </member-function>
      <member-function access='private' static='yes'>
        <function-decl name='Blit&lt;vtkPixelTransfer::Blit::VTK_TT, vtkPixelTransfer::Blit::VTK_TT&gt;' mangled-name='_ZN16vtkPixelTransfer4BlitIshEEiRK14vtkPixelExtentS3_S3_S3_iPT_iPT0_' filepath='/tmp/legendre/spack-stage/spack-stage-R_crTC/VTK-6.1.0/Rendering/LIC/vtkPixelTransfer.h' line='154' column='1' visibility='default' binding='global' size-in-bits='64' elf-symbol-id='_ZN16vtkPixelTransfer4BlitIshEEiRK14vtkPixelExtentS3_S3_S3_iPT_iPT0_' hash='9cd647fb3aa8cba0#116'>
          <parameter type-id='type-id-32'/>
          <parameter type-id='type-id-32'/>
          <parameter type-id='type-id-32'/>
          <parameter type-id='type-id-32'/>
          <parameter type-id='type-id-13'/>
          <parameter type-id='type-id-66'/>
          <parameter type-id='type-id-13'/>
          <parameter type-id='type-id-70'/>
          <return type-id='type-id-13'/>
        </function-decl>
      </member-function>
      <member-function access='private' static='yes'>
        <function-decl name='Blit&lt;vtkPixelTransfer::Blit::VTK_TT&gt;' mangled-name='_ZN16vtkPixelTransfer4BlitIsEEiRK14vtkPixelExtentS3_S3_S3_iPT_iiPv' filepath='/tmp/legendre/spack-stage/spack-stage-R_crTC/VTK-6.1.0/Rendering/LIC/vtkPixelTransfer.h' line='124' column='1' visibility='default' binding='global' size-in-bits='64' elf-symbol-id='_ZN16vtkPixelTransfer4BlitIsEEiRK14vtkPixelExtentS3_S3_S3_iPT_iiPv' hash='4f19860668cd888f#9'>
          <parameter type-id='type-id-32'/>
          <parameter type-id='type-id-32'/>
          <parameter type-id='type-id-32'/>
          <parameter type-id='type-id-32'/>
          <parameter type-id='type-id-13'/>
          <parameter type-id='type-id-66'/>
          <parameter type-id='type-id-13'/>
          <parameter type-id='type-id-13'/>
          <parameter type-id='type-id-71'/>
          <return type-id='type-id-13'/>
        </function-decl>
      </member-function>
      <member-function access='private' static='yes'>
        <function-decl name='Blit&lt;vtkPixelTransfer::Blit::VTK_TT, vtkPixelTransfer::Blit::VTK_TT&gt;' mangled-name='_ZN16vtkPixelTransfer4BlitItdEEiRK14vtkPixelExtentS3_S3_S3_iPT_iPT0_' filepath='/tmp/legendre/spack-stage/spack-stage-R_crTC/VTK-6.1.0/Rendering/LIC/vtkPixelTransfer.h' line='154' column='1' visibility='default' binding='global' size-in-bits='64' elf-symbol-id='_ZN16vtkPixelTransfer4BlitItdEEiRK14vtkPixelExtentS3_S3_S3_iPT_iPT0_' hash='683ee5a61c180b21#117'>
          <parameter type-id='type-id-32'/>
          <parameter type-id='type-id-32'/>
          <parameter type-id='type-id-32'/>
          <parameter type-id='type-id-32'/>
          <parameter type-id='type-id-13'/>
          <parameter type-id='type-id-67'/>
          <parameter type-id='type-id-13'/>
          <parameter type-id='type-id-58'/>
          <return type-id='type-id-13'/>
        </function-decl>
      </member-function>
      <member-function access='private' static='yes'>
        <function-decl name='Blit&lt;vtkPixelTransfer::Blit::VTK_TT, vtkPixelTransfer::Blit::VTK_TT&gt;' mangled-name='_ZN16vtkPixelTransfer4BlitItfEEiRK14vtkPixelExtentS3_S3_S3_iPT_iPT0_' filepath='/tmp/legendre/spack-stage/spack-stage-R_crTC/VTK-6.1.0/Rendering/LIC/vtkPixelTransfer.h' line='154' column='1' visibility='default' binding='global' size-in-bits='64' elf-symbol-id='_ZN16vtkPixelTransfer4BlitItfEEiRK14vtkPixelExtentS3_S3_S3_iPT_iPT0_' hash='e18e613f8820369f#118'>
          <parameter type-id='type-id-32'/>
          <parameter type-id='type-id-32'/>
          <parameter type-id='type-id-32'/>
          <parameter type-id='type-id-32'/>
          <parameter type-id='type-id-13'/>
          <parameter type-id='type-id-67'/>
          <parameter type-id='type-id-13'/>
          <parameter type-id='type-id-59'/>
          <return type-id='type-id-13'/>
        </function-decl>
      </member-function>
      <member-function access='private' static='yes'>
        <function-decl name='Blit&lt;vtkPixelTransfer::Blit::VTK_TT, vtkPixelTransfer::Blit::VTK_TT&gt;' mangled-name='_ZN16vtkPixelTransfer4BlitItxEEiRK14vtkPixelExtentS3_S3_S3_iPT_iPT0_' filepath='/tmp/legendre/spack-stage/spack-stage-R_crTC/VTK-6.1.0/Rendering/LIC/vtkPixelTransfer.h' line='154' column='1' visibility='default' binding='global' size-in-bits='64' elf-symbol-id='_ZN16vtkPixelTransfer4BlitItxEEiRK14vtkPixelExtentS3_S3_S3_iPT_iPT0_' hash='eed83c6543d5ab2d#119'>
          <parameter type-id='type-id-32'/>
          <parameter type-id='type-id-32'/>
          <parameter type-id='type-id-32'/>
          <parameter type-id='type-id-32'/>
          <parameter type-id='type-id-13'/>
          <parameter type-id='type-id-67'/>
          <parameter type-id='type-id-13'/>
          <parameter type-id='type-id-60'/>
          <return type-id='type-id-13'/>
        </function-decl>
      </member-function>
      <member-function access='private' static='yes'>
        <function-decl name='Blit&lt;vtkPixelTransfer::Blit::VTK_TT, vtkPixelTransfer::Blit::VTK_TT&gt;' mangled-name='_ZN16vtkPixelTransfer4BlitItyEEiRK14vtkPixelExtentS3_S3_S3_iPT_iPT0_' filepath='/tmp/legendre/spack-stage/spack-stage-R_crTC/VTK-6.1.0/Rendering/LIC/vtkPixelTransfer.h' line='154' column='1' visibility='default' binding='global' size-in-bits='64' elf-symbol-id='_ZN16vtkPixelTransfer4BlitItyEEiRK14vtkPixelExtentS3_S3_S3_iPT_iPT0_' hash='f4917dbfecd8ea13#120'>
          <parameter type-id='type-id-32'/>
          <parameter type-id='type-id-32'/>
          <parameter type-id='type-id-32'/>
          <parameter type-id='type-id-32'/>
          <parameter type-id='type-id-13'/>
          <parameter type-id='type-id-67'/>
          <parameter type-id='type-id-13'/>
          <parameter type-id='type-id-61'/>
          <return type-id='type-id-13'/>
        </function-decl>
      </member-function>
      <member-function access='private' static='yes'>
        <function-decl name='Blit&lt;vtkPixelTransfer::Blit::VTK_TT, vtkPixelTransfer::Blit::VTK_TT&gt;' mangled-name='_ZN16vtkPixelTransfer4BlitItlEEiRK14vtkPixelExtentS3_S3_S3_iPT_iPT0_' filepath='/tmp/legendre/spack-stage/spack-stage-R_crTC/VTK-6.1.0/Rendering/LIC/vtkPixelTransfer.h' line='154' column='1' visibility='default' binding='global' size-in-bits='64' elf-symbol-id='_ZN16vtkPixelTransfer4BlitItlEEiRK14vtkPixelExtentS3_S3_S3_iPT_iPT0_' hash='d2b8fb9a7430c3ad#121'>
          <parameter type-id='type-id-32'/>
          <parameter type-id='type-id-32'/>
          <parameter type-id='type-id-32'/>
          <parameter type-id='type-id-32'/>
          <parameter type-id='type-id-13'/>
          <parameter type-id='type-id-67'/>
          <parameter type-id='type-id-13'/>
          <parameter type-id='type-id-62'/>
          <return type-id='type-id-13'/>
        </function-decl>
      </member-function>
      <member-function access='private' static='yes'>
        <function-decl name='Blit&lt;vtkPixelTransfer::Blit::VTK_TT, vtkPixelTransfer::Blit::VTK_TT&gt;' mangled-name='_ZN16vtkPixelTransfer4BlitItmEEiRK14vtkPixelExtentS3_S3_S3_iPT_iPT0_' filepath='/tmp/legendre/spack-stage/spack-stage-R_crTC/VTK-6.1.0/Rendering/LIC/vtkPixelTransfer.h' line='154' column='1' visibility='default' binding='global' size-in-bits='64' elf-symbol-id='_ZN16vtkPixelTransfer4BlitItmEEiRK14vtkPixelExtentS3_S3_S3_iPT_iPT0_' hash='3460c02e35d2fb71#122'>
          <parameter type-id='type-id-32'/>
          <parameter type-id='type-id-32'/>
          <parameter type-id='type-id-32'/>
          <parameter type-id='type-id-32'/>
          <parameter type-id='type-id-13'/>
          <parameter type-id='type-id-67'/>
          <parameter type-id='type-id-13'/>
          <parameter type-id='type-id-63'/>
          <return type-id='type-id-13'/>
        </function-decl>
      </member-function>
      <member-function access='private' static='yes'>
        <function-decl name='Blit&lt;vtkPixelTransfer::Blit::VTK_TT, vtkPixelTransfer::Blit::VTK_TT&gt;' mangled-name='_ZN16vtkPixelTransfer4BlitItiEEiRK14vtkPixelExtentS3_S3_S3_iPT_iPT0_' filepath='/tmp/legendre/spack-stage/spack-stage-R_crTC/VTK-6.1.0/Rendering/LIC/vtkPixelTransfer.h' line='154' column='1' visibility='default' binding='global' size-in-bits='64' elf-symbol-id='_ZN16vtkPixelTransfer4BlitItiEEiRK14vtkPixelExtentS3_S3_S3_iPT_iPT0_' hash='d7aeb42ca19826aa#123'>
          <parameter type-id='type-id-32'/>
          <parameter type-id='type-id-32'/>
          <parameter type-id='type-id-32'/>
          <parameter type-id='type-id-32'/>
          <parameter type-id='type-id-13'/>
          <parameter type-id='type-id-67'/>
          <parameter type-id='type-id-13'/>
          <parameter type-id='type-id-64'/>
          <return type-id='type-id-13'/>
        </function-decl>
      </member-function>
      <member-function access='private' static='yes'>
        <function-decl name='Blit&lt;vtkPixelTransfer::Blit::VTK_TT, vtkPixelTransfer::Blit::VTK_TT&gt;' mangled-name='_ZN16vtkPixelTransfer4BlitItjEEiRK14vtkPixelExtentS3_S3_S3_iPT_iPT0_' filepath='/tmp/legendre/spack-stage/spack-stage-R_crTC/VTK-6.1.0/Rendering/LIC/vtkPixelTransfer.h' line='154' column='1' visibility='default' binding='global' size-in-bits='64' elf-symbol-id='_ZN16vtkPixelTransfer4BlitItjEEiRK14vtkPixelExtentS3_S3_S3_iPT_iPT0_' hash='8bad628fd03954e2#124'>
          <parameter type-id='type-id-32'/>
          <parameter type-id='type-id-32'/>
          <parameter type-id='type-id-32'/>
          <parameter type-id='type-id-32'/>
          <parameter type-id='type-id-13'/>
          <parameter type-id='type-id-67'/>
          <parameter type-id='type-id-13'/>
          <parameter type-id='type-id-65'/>
          <return type-id='type-id-13'/>
        </function-decl>
      </member-function>
      <member-function access='private' static='yes'>
        <function-decl name='Blit&lt;vtkPixelTransfer::Blit::VTK_TT, vtkPixelTransfer::Blit::VTK_TT&gt;' mangled-name='_ZN16vtkPixelTransfer4BlitItsEEiRK14vtkPixelExtentS3_S3_S3_iPT_iPT0_' filepath='/tmp/legendre/spack-stage/spack-stage-R_crTC/VTK-6.1.0/Rendering/LIC/vtkPixelTransfer.h' line='154' column='1' visibility='default' binding='global' size-in-bits='64' elf-symbol-id='_ZN16vtkPixelTransfer4BlitItsEEiRK14vtkPixelExtentS3_S3_S3_iPT_iPT0_' hash='7710785d8b76f06e#125'>
          <parameter type-id='type-id-32'/>
          <parameter type-id='type-id-32'/>
          <parameter type-id='type-id-32'/>
          <parameter type-id='type-id-32'/>
          <parameter type-id='type-id-13'/>
          <parameter type-id='type-id-67'/>
          <parameter type-id='type-id-13'/>
          <parameter type-id='type-id-66'/>
          <return type-id='type-id-13'/>
        </function-decl>
      </member-function>
      <member-function access='private' static='yes'>
        <function-decl name='Blit&lt;vtkPixelTransfer::Blit::VTK_TT, vtkPixelTransfer::Blit::VTK_TT&gt;' mangled-name='_ZN16vtkPixelTransfer4BlitIttEEiRK14vtkPixelExtentS3_S3_S3_iPT_iPT0_' filepath='/tmp/legendre/spack-stage/spack-stage-R_crTC/VTK-6.1.0/Rendering/LIC/vtkPixelTransfer.h' line='154' column='1' visibility='default' binding='global' size-in-bits='64' elf-symbol-id='_ZN16vtkPixelTransfer4BlitIttEEiRK14vtkPixelExtentS3_S3_S3_iPT_iPT0_' hash='3e141a00758bd615#126'>
          <parameter type-id='type-id-32'/>
          <parameter type-id='type-id-32'/>
          <parameter type-id='type-id-32'/>
          <parameter type-id='type-id-32'/>
          <parameter type-id='type-id-13'/>
          <parameter type-id='type-id-67'/>
          <parameter type-id='type-id-13'/>
          <parameter type-id='type-id-67'/>
          <return type-id='type-id-13'/>
        </function-decl>
      </member-function>
      <member-function access='private' static='yes'>
        <function-decl name='Blit&lt;vtkPixelTransfer::Blit::VTK_TT, vtkPixelTransfer::Blit::VTK_TT&gt;' mangled-name='_ZN16vtkPixelTransfer4BlitItcEEiRK14vtkPixelExtentS3_S3_S3_iPT_iPT0_' filepath='/tmp/legendre/spack-stage/spack-stage-R_crTC/VTK-6.1.0/Rendering/LIC/vtkPixelTransfer.h' line='154' column='1' visibility='default' binding='global' size-in-bits='64' elf-symbol-id='_ZN16vtkPixelTransfer4BlitItcEEiRK14vtkPixelExtentS3_S3_S3_iPT_iPT0_' hash='4af11289aff32536#127'>
          <parameter type-id='type-id-32'/>
          <parameter type-id='type-id-32'/>
          <parameter type-id='type-id-32'/>
          <parameter type-id='type-id-32'/>
          <parameter type-id='type-id-13'/>
          <parameter type-id='type-id-67'/>
          <parameter type-id='type-id-13'/>
          <parameter type-id='type-id-68'/>
          <return type-id='type-id-13'/>
        </function-decl>
      </member-function>
      <member-function access='private' static='yes'>
        <function-decl name='Blit&lt;vtkPixelTransfer::Blit::VTK_TT, vtkPixelTransfer::Blit::VTK_TT&gt;' mangled-name='_ZN16vtkPixelTransfer4BlitItaEEiRK14vtkPixelExtentS3_S3_S3_iPT_iPT0_' filepath='/tmp/legendre/spack-stage/spack-stage-R_crTC/VTK-6.1.0/Rendering/LIC/vtkPixelTransfer.h' line='154' column='1' visibility='default' binding='global' size-in-bits='64' elf-symbol-id='_ZN16vtkPixelTransfer4BlitItaEEiRK14vtkPixelExtentS3_S3_S3_iPT_iPT0_' hash='4bbba7c6e4a7c096#128'>
          <parameter type-id='type-id-32'/>
          <parameter type-id='type-id-32'/>
          <parameter type-id='type-id-32'/>
          <parameter type-id='type-id-32'/>
          <parameter type-id='type-id-13'/>
          <parameter type-id='type-id-67'/>
          <parameter type-id='type-id-13'/>
          <parameter type-id='type-id-69'/>
          <return type-id='type-id-13'/>
        </function-decl>
      </member-function>
      <member-function access='private' static='yes'>
        <function-decl name='Blit&lt;vtkPixelTransfer::Blit::VTK_TT, vtkPixelTransfer::Blit::VTK_TT&gt;' mangled-name='_ZN16vtkPixelTransfer4BlitIthEEiRK14vtkPixelExtentS3_S3_S3_iPT_iPT0_' filepath='/tmp/legendre/spack-stage/spack-stage-R_crTC/VTK-6.1.0/Rendering/LIC/vtkPixelTransfer.h' line='154' column='1' visibility='default' binding='global' size-in-bits='64' elf-symbol-id='_ZN16vtkPixelTransfer4BlitIthEEiRK14vtkPixelExtentS3_S3_S3_iPT_iPT0_' hash='f60f9cd5f84b51a4#129'>
          <parameter type-id='type-id-32'/>
          <parameter type-id='type-id-32'/>
          <parameter type-id='type-id-32'/>
          <parameter type-id='type-id-32'/>
          <parameter type-id='type-id-13'/>
          <parameter type-id='type-id-67'/>
          <parameter type-id='type-id-13'/>
          <parameter type-id='type-id-70'/>
          <return type-id='type-id-13'/>
        </function-decl>
      </member-function>
      <member-function access='private' static='yes'>
        <function-decl name='Blit&lt;vtkPixelTransfer::Blit::VTK_TT&gt;' mangled-name='_ZN16vtkPixelTransfer4BlitItEEiRK14vtkPixelExtentS3_S3_S3_iPT_iiPv' filepath='/tmp/legendre/spack-stage/spack-stage-R_crTC/VTK-6.1.0/Rendering/LIC/vtkPixelTransfer.h' line='124' column='1' visibility='default' binding='global' size-in-bits='64' elf-symbol-id='_ZN16vtkPixelTransfer4BlitItEEiRK14vtkPixelExtentS3_S3_S3_iPT_iiPv' hash='f413981607534501#10'>
          <parameter type-id='type-id-32'/>
          <parameter type-id='type-id-32'/>
          <parameter type-id='type-id-32'/>
          <parameter type-id='type-id-32'/>
          <parameter type-id='type-id-13'/>
          <parameter type-id='type-id-67'/>
          <parameter type-id='type-id-13'/>
          <parameter type-id='type-id-13'/>
          <parameter type-id='type-id-71'/>
          <return type-id='type-id-13'/>
        </function-decl>
      </member-function>
      <member-function access='private' static='yes'>
        <function-decl name='Blit&lt;vtkPixelTransfer::Blit::VTK_TT, vtkPixelTransfer::Blit::VTK_TT&gt;' mangled-name='_ZN16vtkPixelTransfer4BlitIcdEEiRK14vtkPixelExtentS3_S3_S3_iPT_iPT0_' filepath='/tmp/legendre/spack-stage/spack-stage-R_crTC/VTK-6.1.0/Rendering/LIC/vtkPixelTransfer.h' line='154' column='1' visibility='default' binding='global' size-in-bits='64' elf-symbol-id='_ZN16vtkPixelTransfer4BlitIcdEEiRK14vtkPixelExtentS3_S3_S3_iPT_iPT0_' hash='12b2d38c3d6ae8db#130'>
          <parameter type-id='type-id-32'/>
          <parameter type-id='type-id-32'/>
          <parameter type-id='type-id-32'/>
          <parameter type-id='type-id-32'/>
          <parameter type-id='type-id-13'/>
          <parameter type-id='type-id-68'/>
          <parameter type-id='type-id-13'/>
          <parameter type-id='type-id-58'/>
          <return type-id='type-id-13'/>
        </function-decl>
      </member-function>
      <member-function access='private' static='yes'>
        <function-decl name='Blit&lt;vtkPixelTransfer::Blit::VTK_TT, vtkPixelTransfer::Blit::VTK_TT&gt;' mangled-name='_ZN16vtkPixelTransfer4BlitIcfEEiRK14vtkPixelExtentS3_S3_S3_iPT_iPT0_' filepath='/tmp/legendre/spack-stage/spack-stage-R_crTC/VTK-6.1.0/Rendering/LIC/vtkPixelTransfer.h' line='154' column='1' visibility='default' binding='global' size-in-bits='64' elf-symbol-id='_ZN16vtkPixelTransfer4BlitIcfEEiRK14vtkPixelExtentS3_S3_S3_iPT_iPT0_' hash='195d4422e3bbc52a#131'>
          <parameter type-id='type-id-32'/>
          <parameter type-id='type-id-32'/>
          <parameter type-id='type-id-32'/>
          <parameter type-id='type-id-32'/>
          <parameter type-id='type-id-13'/>
          <parameter type-id='type-id-68'/>
          <parameter type-id='type-id-13'/>
          <parameter type-id='type-id-59'/>
          <return type-id='type-id-13'/>
        </function-decl>
      </member-function>
      <member-function access='private' static='yes'>
        <function-decl name='Blit&lt;vtkPixelTransfer::Blit::VTK_TT, vtkPixelTransfer::Blit::VTK_TT&gt;' mangled-name='_ZN16vtkPixelTransfer4BlitIcxEEiRK14vtkPixelExtentS3_S3_S3_iPT_iPT0_' filepath='/tmp/legendre/spack-stage/spack-stage-R_crTC/VTK-6.1.0/Rendering/LIC/vtkPixelTransfer.h' line='154' column='1' visibility='default' binding='global' size-in-bits='64' elf-symbol-id='_ZN16vtkPixelTransfer4BlitIcxEEiRK14vtkPixelExtentS3_S3_S3_iPT_iPT0_' hash='60d3ac650011eb38#132'>
          <parameter type-id='type-id-32'/>
          <parameter type-id='type-id-32'/>
          <parameter type-id='type-id-32'/>
          <parameter type-id='type-id-32'/>
          <parameter type-id='type-id-13'/>
          <parameter type-id='type-id-68'/>
          <parameter type-id='type-id-13'/>
          <parameter type-id='type-id-60'/>
          <return type-id='type-id-13'/>
        </function-decl>
      </member-function>
      <member-function access='private' static='yes'>
        <function-decl name='Blit&lt;vtkPixelTransfer::Blit::VTK_TT, vtkPixelTransfer::Blit::VTK_TT&gt;' mangled-name='_ZN16vtkPixelTransfer4BlitIcyEEiRK14vtkPixelExtentS3_S3_S3_iPT_iPT0_' filepath='/tmp/legendre/spack-stage/spack-stage-R_crTC/VTK-6.1.0/Rendering/LIC/vtkPixelTransfer.h' line='154' column='1' visibility='default' binding='global' size-in-bits='64' elf-symbol-id='_ZN16vtkPixelTransfer4BlitIcyEEiRK14vtkPixelExtentS3_S3_S3_iPT_iPT0_' hash='9d54fa789b8c5834#133'>
          <parameter type-id='type-id-32'/>
          <parameter type-id='type-id-32'/>
          <parameter type-id='type-id-32'/>
          <parameter type-id='type-id-32'/>
          <parameter type-id='type-id-13'/>
          <parameter type-id='type-id-68'/>
          <parameter type-id='type-id-13'/>
          <parameter type-id='type-id-61'/>
          <return type-id='type-id-13'/>
        </function-decl>
      </member-function>
      <member-function access='private' static='yes'>
        <function-decl name='Blit&lt;vtkPixelTransfer::Blit::VTK_TT, vtkPixelTransfer::Blit::VTK_TT&gt;' mangled-name='_ZN16vtkPixelTransfer4BlitIclEEiRK14vtkPixelExtentS3_S3_S3_iPT_iPT0_' filepath='/tmp/legendre/spack-stage/spack-stage-R_crTC/VTK-6.1.0/Rendering/LIC/vtkPixelTransfer.h' line='154' column='1' visibility='default' binding='global' size-in-bits='64' elf-symbol-id='_ZN16vtkPixelTransfer4BlitIclEEiRK14vtkPixelExtentS3_S3_S3_iPT_iPT0_' hash='31b3c09d505a9f61#134'>
          <parameter type-id='type-id-32'/>
          <parameter type-id='type-id-32'/>
          <parameter type-id='type-id-32'/>
          <parameter type-id='type-id-32'/>
          <parameter type-id='type-id-13'/>
          <parameter type-id='type-id-68'/>
          <parameter type-id='type-id-13'/>
          <parameter type-id='type-id-62'/>
          <return type-id='type-id-13'/>
        </function-decl>
      </member-function>
      <member-function access='private' static='yes'>
        <function-decl name='Blit&lt;vtkPixelTransfer::Blit::VTK_TT, vtkPixelTransfer::Blit::VTK_TT&gt;' mangled-name='_ZN16vtkPixelTransfer4BlitIcmEEiRK14vtkPixelExtentS3_S3_S3_iPT_iPT0_' filepath='/tmp/legendre/spack-stage/spack-stage-R_crTC/VTK-6.1.0/Rendering/LIC/vtkPixelTransfer.h' line='154' column='1' visibility='default' binding='global' size-in-bits='64' elf-symbol-id='_ZN16vtkPixelTransfer4BlitIcmEEiRK14vtkPixelExtentS3_S3_S3_iPT_iPT0_' hash='0091e794d5f7187d#135'>
          <parameter type-id='type-id-32'/>
          <parameter type-id='type-id-32'/>
          <parameter type-id='type-id-32'/>
          <parameter type-id='type-id-32'/>
          <parameter type-id='type-id-13'/>
          <parameter type-id='type-id-68'/>
          <parameter type-id='type-id-13'/>
          <parameter type-id='type-id-63'/>
          <return type-id='type-id-13'/>
        </function-decl>
      </member-function>
      <member-function access='private' static='yes'>
        <function-decl name='Blit&lt;vtkPixelTransfer::Blit::VTK_TT, vtkPixelTransfer::Blit::VTK_TT&gt;' mangled-name='_ZN16vtkPixelTransfer4BlitIciEEiRK14vtkPixelExtentS3_S3_S3_iPT_iPT0_' filepath='/tmp/legendre/spack-stage/spack-stage-R_crTC/VTK-6.1.0/Rendering/LIC/vtkPixelTransfer.h' line='154' column='1' visibility='default' binding='global' size-in-bits='64' elf-symbol-id='_ZN16vtkPixelTransfer4BlitIciEEiRK14vtkPixelExtentS3_S3_S3_iPT_iPT0_' hash='a000265dd1f2baab#136'>
          <parameter type-id='type-id-32'/>
          <parameter type-id='type-id-32'/>
          <parameter type-id='type-id-32'/>
          <parameter type-id='type-id-32'/>
          <parameter type-id='type-id-13'/>
          <parameter type-id='type-id-68'/>
          <parameter type-id='type-id-13'/>
          <parameter type-id='type-id-64'/>
          <return type-id='type-id-13'/>
        </function-decl>
      </member-function>
      <member-function access='private' static='yes'>
        <function-decl name='Blit&lt;vtkPixelTransfer::Blit::VTK_TT, vtkPixelTransfer::Blit::VTK_TT&gt;' mangled-name='_ZN16vtkPixelTransfer4BlitIcjEEiRK14vtkPixelExtentS3_S3_S3_iPT_iPT0_' filepath='/tmp/legendre/spack-stage/spack-stage-R_crTC/VTK-6.1.0/Rendering/LIC/vtkPixelTransfer.h' line='154' column='1' visibility='default' binding='global' size-in-bits='64' elf-symbol-id='_ZN16vtkPixelTransfer4BlitIcjEEiRK14vtkPixelExtentS3_S3_S3_iPT_iPT0_' hash='372ca322468e3f60#137'>
          <parameter type-id='type-id-32'/>
          <parameter type-id='type-id-32'/>
          <parameter type-id='type-id-32'/>
          <parameter type-id='type-id-32'/>
          <parameter type-id='type-id-13'/>
          <parameter type-id='type-id-68'/>
          <parameter type-id='type-id-13'/>
          <parameter type-id='type-id-65'/>
          <return type-id='type-id-13'/>
        </function-decl>
      </member-function>
      <member-function access='private' static='yes'>
        <function-decl name='Blit&lt;vtkPixelTransfer::Blit::VTK_TT, vtkPixelTransfer::Blit::VTK_TT&gt;' mangled-name='_ZN16vtkPixelTransfer4BlitIcsEEiRK14vtkPixelExtentS3_S3_S3_iPT_iPT0_' filepath='/tmp/legendre/spack-stage/spack-stage-R_crTC/VTK-6.1.0/Rendering/LIC/vtkPixelTransfer.h' line='154' column='1' visibility='default' binding='global' size-in-bits='64' elf-symbol-id='_ZN16vtkPixelTransfer4BlitIcsEEiRK14vtkPixelExtentS3_S3_S3_iPT_iPT0_' hash='b8407f4d91b9041a#138'>
          <parameter type-id='type-id-32'/>
          <parameter type-id='type-id-32'/>
          <parameter type-id='type-id-32'/>
          <parameter type-id='type-id-32'/>
          <parameter type-id='type-id-13'/>
          <parameter type-id='type-id-68'/>
          <parameter type-id='type-id-13'/>
          <parameter type-id='type-id-66'/>
          <return type-id='type-id-13'/>
        </function-decl>
      </member-function>
      <member-function access='private' static='yes'>
        <function-decl name='Blit&lt;vtkPixelTransfer::Blit::VTK_TT, vtkPixelTransfer::Blit::VTK_TT&gt;' mangled-name='_ZN16vtkPixelTransfer4BlitIctEEiRK14vtkPixelExtentS3_S3_S3_iPT_iPT0_' filepath='/tmp/legendre/spack-stage/spack-stage-R_crTC/VTK-6.1.0/Rendering/LIC/vtkPixelTransfer.h' line='154' column='1' visibility='default' binding='global' size-in-bits='64' elf-symbol-id='_ZN16vtkPixelTransfer4BlitIctEEiRK14vtkPixelExtentS3_S3_S3_iPT_iPT0_' hash='5553adc067ee9628#139'>
          <parameter type-id='type-id-32'/>
          <parameter type-id='type-id-32'/>
          <parameter type-id='type-id-32'/>
          <parameter type-id='type-id-32'/>
          <parameter type-id='type-id-13'/>
          <parameter type-id='type-id-68'/>
          <parameter type-id='type-id-13'/>
          <parameter type-id='type-id-67'/>
          <return type-id='type-id-13'/>
        </function-decl>
      </member-function>
      <member-function access='private' static='yes'>
        <function-decl name='Blit&lt;vtkPixelTransfer::Blit::VTK_TT, vtkPixelTransfer::Blit::VTK_TT&gt;' mangled-name='_ZN16vtkPixelTransfer4BlitIccEEiRK14vtkPixelExtentS3_S3_S3_iPT_iPT0_' filepath='/tmp/legendre/spack-stage/spack-stage-R_crTC/VTK-6.1.0/Rendering/LIC/vtkPixelTransfer.h' line='154' column='1' visibility='default' binding='global' size-in-bits='64' elf-symbol-id='_ZN16vtkPixelTransfer4BlitIccEEiRK14vtkPixelExtentS3_S3_S3_iPT_iPT0_' hash='0cc014ff736a4f4c#140'>
          <parameter type-id='type-id-32'/>
          <parameter type-id='type-id-32'/>
          <parameter type-id='type-id-32'/>
          <parameter type-id='type-id-32'/>
          <parameter type-id='type-id-13'/>
          <parameter type-id='type-id-68'/>
          <parameter type-id='type-id-13'/>
          <parameter type-id='type-id-68'/>
          <return type-id='type-id-13'/>
        </function-decl>
      </member-function>
      <member-function access='private' static='yes'>
        <function-decl name='Blit&lt;vtkPixelTransfer::Blit::VTK_TT, vtkPixelTransfer::Blit::VTK_TT&gt;' mangled-name='_ZN16vtkPixelTransfer4BlitIcaEEiRK14vtkPixelExtentS3_S3_S3_iPT_iPT0_' filepath='/tmp/legendre/spack-stage/spack-stage-R_crTC/VTK-6.1.0/Rendering/LIC/vtkPixelTransfer.h' line='154' column='1' visibility='default' binding='global' size-in-bits='64' elf-symbol-id='_ZN16vtkPixelTransfer4BlitIcaEEiRK14vtkPixelExtentS3_S3_S3_iPT_iPT0_' hash='f88dea01d68a330c#141'>
          <parameter type-id='type-id-32'/>
          <parameter type-id='type-id-32'/>
          <parameter type-id='type-id-32'/>
          <parameter type-id='type-id-32'/>
          <parameter type-id='type-id-13'/>
          <parameter type-id='type-id-68'/>
          <parameter type-id='type-id-13'/>
          <parameter type-id='type-id-69'/>
          <return type-id='type-id-13'/>
        </function-decl>
      </member-function>
      <member-function access='private' static='yes'>
        <function-decl name='Blit&lt;vtkPixelTransfer::Blit::VTK_TT, vtkPixelTransfer::Blit::VTK_TT&gt;' mangled-name='_ZN16vtkPixelTransfer4BlitIchEEiRK14vtkPixelExtentS3_S3_S3_iPT_iPT0_' filepath='/tmp/legendre/spack-stage/spack-stage-R_crTC/VTK-6.1.0/Rendering/LIC/vtkPixelTransfer.h' line='154' column='1' visibility='default' binding='global' size-in-bits='64' elf-symbol-id='_ZN16vtkPixelTransfer4BlitIchEEiRK14vtkPixelExtentS3_S3_S3_iPT_iPT0_' hash='a4ddeb6ca73b992f#142'>
          <parameter type-id='type-id-32'/>
          <parameter type-id='type-id-32'/>
          <parameter type-id='type-id-32'/>
          <parameter type-id='type-id-32'/>
          <parameter type-id='type-id-13'/>
          <parameter type-id='type-id-68'/>
          <parameter type-id='type-id-13'/>
          <parameter type-id='type-id-70'/>
          <return type-id='type-id-13'/>
        </function-decl>
      </member-function>
      <member-function access='private' static='yes'>
        <function-decl name='Blit&lt;vtkPixelTransfer::Blit::VTK_TT&gt;' mangled-name='_ZN16vtkPixelTransfer4BlitIcEEiRK14vtkPixelExtentS3_S3_S3_iPT_iiPv' filepath='/tmp/legendre/spack-stage/spack-stage-R_crTC/VTK-6.1.0/Rendering/LIC/vtkPixelTransfer.h' line='124' column='1' visibility='default' binding='global' size-in-bits='64' elf-symbol-id='_ZN16vtkPixelTransfer4BlitIcEEiRK14vtkPixelExtentS3_S3_S3_iPT_iiPv' hash='bd59931b0638d38d#11'>
          <parameter type-id='type-id-32'/>
          <parameter type-id='type-id-32'/>
          <parameter type-id='type-id-32'/>
          <parameter type-id='type-id-32'/>
          <parameter type-id='type-id-13'/>
          <parameter type-id='type-id-68'/>
          <parameter type-id='type-id-13'/>
          <parameter type-id='type-id-13'/>
          <parameter type-id='type-id-71'/>
          <return type-id='type-id-13'/>
        </function-decl>
      </member-function>
      <member-function access='private' static='yes'>
        <function-decl name='Blit&lt;vtkPixelTransfer::Blit::VTK_TT, vtkPixelTransfer::Blit::VTK_TT&gt;' mangled-name='_ZN16vtkPixelTransfer4BlitIadEEiRK14vtkPixelExtentS3_S3_S3_iPT_iPT0_' filepath='/tmp/legendre/spack-stage/spack-stage-R_crTC/VTK-6.1.0/Rendering/LIC/vtkPixelTransfer.h' line='154' column='1' visibility='default' binding='global' size-in-bits='64' elf-symbol-id='_ZN16vtkPixelTransfer4BlitIadEEiRK14vtkPixelExtentS3_S3_S3_iPT_iPT0_' hash='773f196e7dd128e3#143'>
          <parameter type-id='type-id-32'/>
          <parameter type-id='type-id-32'/>
          <parameter type-id='type-id-32'/>
          <parameter type-id='type-id-32'/>
          <parameter type-id='type-id-13'/>
          <parameter type-id='type-id-69'/>
          <parameter type-id='type-id-13'/>
          <parameter type-id='type-id-58'/>
          <return type-id='type-id-13'/>
        </function-decl>
      </member-function>
      <member-function access='private' static='yes'>
        <function-decl name='Blit&lt;vtkPixelTransfer::Blit::VTK_TT, vtkPixelTransfer::Blit::VTK_TT&gt;' mangled-name='_ZN16vtkPixelTransfer4BlitIafEEiRK14vtkPixelExtentS3_S3_S3_iPT_iPT0_' filepath='/tmp/legendre/spack-stage/spack-stage-R_crTC/VTK-6.1.0/Rendering/LIC/vtkPixelTransfer.h' line='154' column='1' visibility='default' binding='global' size-in-bits='64' elf-symbol-id='_ZN16vtkPixelTransfer4BlitIafEEiRK14vtkPixelExtentS3_S3_S3_iPT_iPT0_' hash='5eaa931217d8d3e2#144'>
          <parameter type-id='type-id-32'/>
          <parameter type-id='type-id-32'/>
          <parameter type-id='type-id-32'/>
          <parameter type-id='type-id-32'/>
          <parameter type-id='type-id-13'/>
          <parameter type-id='type-id-69'/>
          <parameter type-id='type-id-13'/>
          <parameter type-id='type-id-59'/>
          <return type-id='type-id-13'/>
        </function-decl>
      </member-function>
      <member-function access='private' static='yes'>
        <function-decl name='Blit&lt;vtkPixelTransfer::Blit::VTK_TT, vtkPixelTransfer::Blit::VTK_TT&gt;' mangled-name='_ZN16vtkPixelTransfer4BlitIaxEEiRK14vtkPixelExtentS3_S3_S3_iPT_iPT0_' filepath='/tmp/legendre/spack-stage/spack-stage-R_crTC/VTK-6.1.0/Rendering/LIC/vtkPixelTransfer.h' line='154' column='1' visibility='default' binding='global' size-in-bits='64' elf-symbol-id='_ZN16vtkPixelTransfer4BlitIaxEEiRK14vtkPixelExtentS3_S3_S3_iPT_iPT0_' hash='d8bee9d039665923#145'>
          <parameter type-id='type-id-32'/>
          <parameter type-id='type-id-32'/>
          <parameter type-id='type-id-32'/>
          <parameter type-id='type-id-32'/>
          <parameter type-id='type-id-13'/>
          <parameter type-id='type-id-69'/>
          <parameter type-id='type-id-13'/>
          <parameter type-id='type-id-60'/>
          <return type-id='type-id-13'/>
        </function-decl>
      </member-function>
      <member-function access='private' static='yes'>
        <function-decl name='Blit&lt;vtkPixelTransfer::Blit::VTK_TT, vtkPixelTransfer::Blit::VTK_TT&gt;' mangled-name='_ZN16vtkPixelTransfer4BlitIayEEiRK14vtkPixelExtentS3_S3_S3_iPT_iPT0_' filepath='/tmp/legendre/spack-stage/spack-stage-R_crTC/VTK-6.1.0/Rendering/LIC/vtkPixelTransfer.h' line='154' column='1' visibility='default' binding='global' size-in-bits='64' elf-symbol-id='_ZN16vtkPixelTransfer4BlitIayEEiRK14vtkPixelExtentS3_S3_S3_iPT_iPT0_' hash='97b78f62da210d12#146'>
          <parameter type-id='type-id-32'/>
          <parameter type-id='type-id-32'/>
          <parameter type-id='type-id-32'/>
          <parameter type-id='type-id-32'/>
          <parameter type-id='type-id-13'/>
          <parameter type-id='type-id-69'/>
          <parameter type-id='type-id-13'/>
          <parameter type-id='type-id-61'/>
          <return type-id='type-id-13'/>
        </function-decl>
      </member-function>
      <member-function access='private' static='yes'>
        <function-decl name='Blit&lt;vtkPixelTransfer::Blit::VTK_TT, vtkPixelTransfer::Blit::VTK_TT&gt;' mangled-name='_ZN16vtkPixelTransfer4BlitIalEEiRK14vtkPixelExtentS3_S3_S3_iPT_iPT0_' filepath='/tmp/legendre/spack-stage/spack-stage-R_crTC/VTK-6.1.0/Rendering/LIC/vtkPixelTransfer.h' line='154' column='1' visibility='default' binding='global' size-in-bits='64' elf-symbol-id='_ZN16vtkPixelTransfer4BlitIalEEiRK14vtkPixelExtentS3_S3_S3_iPT_iPT0_' hash='9d18f88acd1bf5db#147'>
          <parameter type-id='type-id-32'/>
          <parameter type-id='type-id-32'/>
          <parameter type-id='type-id-32'/>
          <parameter type-id='type-id-32'/>
          <parameter type-id='type-id-13'/>
          <parameter type-id='type-id-69'/>
          <parameter type-id='type-id-13'/>
          <parameter type-id='type-id-62'/>
          <return type-id='type-id-13'/>
        </function-decl>
      </member-function>
      <member-function access='private' static='yes'>
        <function-decl name='Blit&lt;vtkPixelTransfer::Blit::VTK_TT, vtkPixelTransfer::Blit::VTK_TT&gt;' mangled-name='_ZN16vtkPixelTransfer4BlitIamEEiRK14vtkPixelExtentS3_S3_S3_iPT_iPT0_' filepath='/tmp/legendre/spack-stage/spack-stage-R_crTC/VTK-6.1.0/Rendering/LIC/vtkPixelTransfer.h' line='154' column='1' visibility='default' binding='global' size-in-bits='64' elf-symbol-id='_ZN16vtkPixelTransfer4BlitIamEEiRK14vtkPixelExtentS3_S3_S3_iPT_iPT0_' hash='1bb7660d7b05161b#148'>
          <parameter type-id='type-id-32'/>
          <parameter type-id='type-id-32'/>
          <parameter type-id='type-id-32'/>
          <parameter type-id='type-id-32'/>
          <parameter type-id='type-id-13'/>
          <parameter type-id='type-id-69'/>
          <parameter type-id='type-id-13'/>
          <parameter type-id='type-id-63'/>
          <return type-id='type-id-13'/>
        </function-decl>
      </member-function>
      <member-function access='private' static='yes'>
        <function-decl name='Blit&lt;vtkPixelTransfer::Blit::VTK_TT, vtkPixelTransfer::Blit::VTK_TT&gt;' mangled-name='_ZN16vtkPixelTransfer4BlitIaiEEiRK14vtkPixelExtentS3_S3_S3_iPT_iPT0_' filepath='/tmp/legendre/spack-stage/spack-stage-R_crTC/VTK-6.1.0/Rendering/LIC/vtkPixelTransfer.h' line='154' column='1' visibility='default' binding='global' size-in-bits='64' elf-symbol-id='_ZN16vtkPixelTransfer4BlitIaiEEiRK14vtkPixelExtentS3_S3_S3_iPT_iPT0_' hash='67488e7396d21ddc#149'>
          <parameter type-id='type-id-32'/>
          <parameter type-id='type-id-32'/>
          <parameter type-id='type-id-32'/>
          <parameter type-id='type-id-32'/>
          <parameter type-id='type-id-13'/>
          <parameter type-id='type-id-69'/>
          <parameter type-id='type-id-13'/>
          <parameter type-id='type-id-64'/>
          <return type-id='type-id-13'/>
        </function-decl>
      </member-function>
      <member-function access='private' static='yes'>
        <function-decl name='Blit&lt;vtkPixelTransfer::Blit::VTK_TT, vtkPixelTransfer::Blit::VTK_TT&gt;' mangled-name='_ZN16vtkPixelTransfer4BlitIajEEiRK14vtkPixelExtentS3_S3_S3_iPT_iPT0_' filepath='/tmp/legendre/spack-stage/spack-stage-R_crTC/VTK-6.1.0/Rendering/LIC/vtkPixelTransfer.h' line='154' column='1' visibility='default' binding='global' size-in-bits='64' elf-symbol-id='_ZN16vtkPixelTransfer4BlitIajEEiRK14vtkPixelExtentS3_S3_S3_iPT_iPT0_' hash='6e3efd54576a5948#150'>
          <parameter type-id='type-id-32'/>
          <parameter type-id='type-id-32'/>
          <parameter type-id='type-id-32'/>
          <parameter type-id='type-id-32'/>
          <parameter type-id='type-id-13'/>
          <parameter type-id='type-id-69'/>
          <parameter type-id='type-id-13'/>
          <parameter type-id='type-id-65'/>
          <return type-id='type-id-13'/>
        </function-decl>
      </member-function>
      <member-function access='private' static='yes'>
        <function-decl name='Blit&lt;vtkPixelTransfer::Blit::VTK_TT, vtkPixelTransfer::Blit::VTK_TT&gt;' mangled-name='_ZN16vtkPixelTransfer4BlitIasEEiRK14vtkPixelExtentS3_S3_S3_iPT_iPT0_' filepath='/tmp/legendre/spack-stage/spack-stage-R_crTC/VTK-6.1.0/Rendering/LIC/vtkPixelTransfer.h' line='154' column='1' visibility='default' binding='global' size-in-bits='64' elf-symbol-id='_ZN16vtkPixelTransfer4BlitIasEEiRK14vtkPixelExtentS3_S3_S3_iPT_iPT0_' hash='c821976e2189c371#151'>
          <parameter type-id='type-id-32'/>
          <parameter type-id='type-id-32'/>
          <parameter type-id='type-id-32'/>
          <parameter type-id='type-id-32'/>
          <parameter type-id='type-id-13'/>
          <parameter type-id='type-id-69'/>
          <parameter type-id='type-id-13'/>
          <parameter type-id='type-id-66'/>
          <return type-id='type-id-13'/>
        </function-decl>
      </member-function>
      <member-function access='private' static='yes'>
        <function-decl name='Blit&lt;vtkPixelTransfer::Blit::VTK_TT, vtkPixelTransfer::Blit::VTK_TT&gt;' mangled-name='_ZN16vtkPixelTransfer4BlitIatEEiRK14vtkPixelExtentS3_S3_S3_iPT_iPT0_' filepath='/tmp/legendre/spack-stage/spack-stage-R_crTC/VTK-6.1.0/Rendering/LIC/vtkPixelTransfer.h' line='154' column='1' visibility='default' binding='global' size-in-bits='64' elf-symbol-id='_ZN16vtkPixelTransfer4BlitIatEEiRK14vtkPixelExtentS3_S3_S3_iPT_iPT0_' hash='6cf2bd9d25a5111b#152'>
          <parameter type-id='type-id-32'/>
          <parameter type-id='type-id-32'/>
          <parameter type-id='type-id-32'/>
          <parameter type-id='type-id-32'/>
          <parameter type-id='type-id-13'/>
          <parameter type-id='type-id-69'/>
          <parameter type-id='type-id-13'/>
          <parameter type-id='type-id-67'/>
          <return type-id='type-id-13'/>
        </function-decl>
      </member-function>
      <member-function access='private' static='yes'>
        <function-decl name='Blit&lt;vtkPixelTransfer::Blit::VTK_TT, vtkPixelTransfer::Blit::VTK_TT&gt;' mangled-name='_ZN16vtkPixelTransfer4BlitIacEEiRK14vtkPixelExtentS3_S3_S3_iPT_iPT0_' filepath='/tmp/legendre/spack-stage/spack-stage-R_crTC/VTK-6.1.0/Rendering/LIC/vtkPixelTransfer.h' line='154' column='1' visibility='default' binding='global' size-in-bits='64' elf-symbol-id='_ZN16vtkPixelTransfer4BlitIacEEiRK14vtkPixelExtentS3_S3_S3_iPT_iPT0_' hash='85a785e3e6a8e972#153'>
          <parameter type-id='type-id-32'/>
          <parameter type-id='type-id-32'/>
          <parameter type-id='type-id-32'/>
          <parameter type-id='type-id-32'/>
          <parameter type-id='type-id-13'/>
          <parameter type-id='type-id-69'/>
          <parameter type-id='type-id-13'/>
          <parameter type-id='type-id-68'/>
          <return type-id='type-id-13'/>
        </function-decl>
      </member-function>
      <member-function access='private' static='yes'>
        <function-decl name='Blit&lt;vtkPixelTransfer::Blit::VTK_TT, vtkPixelTransfer::Blit::VTK_TT&gt;' mangled-name='_ZN16vtkPixelTransfer4BlitIaaEEiRK14vtkPixelExtentS3_S3_S3_iPT_iPT0_' filepath='/tmp/legendre/spack-stage/spack-stage-R_crTC/VTK-6.1.0/Rendering/LIC/vtkPixelTransfer.h' line='154' column='1' visibility='default' binding='global' size-in-bits='64' elf-symbol-id='_ZN16vtkPixelTransfer4BlitIaaEEiRK14vtkPixelExtentS3_S3_S3_iPT_iPT0_' hash='5ddb2593e084130e#154'>
          <parameter type-id='type-id-32'/>
          <parameter type-id='type-id-32'/>
          <parameter type-id='type-id-32'/>
          <parameter type-id='type-id-32'/>
          <parameter type-id='type-id-13'/>
          <parameter type-id='type-id-69'/>
          <parameter type-id='type-id-13'/>
          <parameter type-id='type-id-69'/>
          <return type-id='type-id-13'/>
        </function-decl>
      </member-function>
      <member-function access='private' static='yes'>
        <function-decl name='Blit&lt;vtkPixelTransfer::Blit::VTK_TT, vtkPixelTransfer::Blit::VTK_TT&gt;' mangled-name='_ZN16vtkPixelTransfer4BlitIahEEiRK14vtkPixelExtentS3_S3_S3_iPT_iPT0_' filepath='/tmp/legendre/spack-stage/spack-stage-R_crTC/VTK-6.1.0/Rendering/LIC/vtkPixelTransfer.h' line='154' column='1' visibility='default' binding='global' size-in-bits='64' elf-symbol-id='_ZN16vtkPixelTransfer4BlitIahEEiRK14vtkPixelExtentS3_S3_S3_iPT_iPT0_' hash='7968346fe99b2377#155'>
          <parameter type-id='type-id-32'/>
          <parameter type-id='type-id-32'/>
          <parameter type-id='type-id-32'/>
          <parameter type-id='type-id-32'/>
          <parameter type-id='type-id-13'/>
          <parameter type-id='type-id-69'/>
          <parameter type-id='type-id-13'/>
          <parameter type-id='type-id-70'/>
          <return type-id='type-id-13'/>
        </function-decl>
      </member-function>
      <member-function access='private' static='yes'>
        <function-decl name='Blit&lt;vtkPixelTransfer::Blit::VTK_TT&gt;' mangled-name='_ZN16vtkPixelTransfer4BlitIaEEiRK14vtkPixelExtentS3_S3_S3_iPT_iiPv' filepath='/tmp/legendre/spack-stage/spack-stage-R_crTC/VTK-6.1.0/Rendering/LIC/vtkPixelTransfer.h' line='124' column='1' visibility='default' binding='global' size-in-bits='64' elf-symbol-id='_ZN16vtkPixelTransfer4BlitIaEEiRK14vtkPixelExtentS3_S3_S3_iPT_iiPv' hash='3fff95ab88e793bc#12'>
          <parameter type-id='type-id-32'/>
          <parameter type-id='type-id-32'/>
          <parameter type-id='type-id-32'/>
          <parameter type-id='type-id-32'/>
          <parameter type-id='type-id-13'/>
          <parameter type-id='type-id-69'/>
          <parameter type-id='type-id-13'/>
          <parameter type-id='type-id-13'/>
          <parameter type-id='type-id-71'/>
          <return type-id='type-id-13'/>
        </function-decl>
      </member-function>
      <member-function access='private' static='yes'>
        <function-decl name='Blit&lt;vtkPixelTransfer::Blit::VTK_TT, vtkPixelTransfer::Blit::VTK_TT&gt;' mangled-name='_ZN16vtkPixelTransfer4BlitIhdEEiRK14vtkPixelExtentS3_S3_S3_iPT_iPT0_' filepath='/tmp/legendre/spack-stage/spack-stage-R_crTC/VTK-6.1.0/Rendering/LIC/vtkPixelTransfer.h' line='154' column='1' visibility='default' binding='global' size-in-bits='64' elf-symbol-id='_ZN16vtkPixelTransfer4BlitIhdEEiRK14vtkPixelExtentS3_S3_S3_iPT_iPT0_' hash='675b3ae1d0e1fb86#156'>
          <parameter type-id='type-id-32'/>
          <parameter type-id='type-id-32'/>
          <parameter type-id='type-id-32'/>
          <parameter type-id='type-id-32'/>
          <parameter type-id='type-id-13'/>
          <parameter type-id='type-id-70'/>
          <parameter type-id='type-id-13'/>
          <parameter type-id='type-id-58'/>
          <return type-id='type-id-13'/>
        </function-decl>
      </member-function>
      <member-function access='private' static='yes'>
        <function-decl name='Blit&lt;vtkPixelTransfer::Blit::VTK_TT, vtkPixelTransfer::Blit::VTK_TT&gt;' mangled-name='_ZN16vtkPixelTransfer4BlitIhfEEiRK14vtkPixelExtentS3_S3_S3_iPT_iPT0_' filepath='/tmp/legendre/spack-stage/spack-stage-R_crTC/VTK-6.1.0/Rendering/LIC/vtkPixelTransfer.h' line='154' column='1' visibility='default' binding='global' size-in-bits='64' elf-symbol-id='_ZN16vtkPixelTransfer4BlitIhfEEiRK14vtkPixelExtentS3_S3_S3_iPT_iPT0_' hash='bd0d03d6758638c7#157'>
          <parameter type-id='type-id-32'/>
          <parameter type-id='type-id-32'/>
          <parameter type-id='type-id-32'/>
          <parameter type-id='type-id-32'/>
          <parameter type-id='type-id-13'/>
          <parameter type-id='type-id-70'/>
          <parameter type-id='type-id-13'/>
          <parameter type-id='type-id-59'/>
          <return type-id='type-id-13'/>
        </function-decl>
      </member-function>
      <member-function access='private' static='yes'>
        <function-decl name='Blit&lt;vtkPixelTransfer::Blit::VTK_TT, vtkPixelTransfer::Blit::VTK_TT&gt;' mangled-name='_ZN16vtkPixelTransfer4BlitIhxEEiRK14vtkPixelExtentS3_S3_S3_iPT_iPT0_' filepath='/tmp/legendre/spack-stage/spack-stage-R_crTC/VTK-6.1.0/Rendering/LIC/vtkPixelTransfer.h' line='154' column='1' visibility='default' binding='global' size-in-bits='64' elf-symbol-id='_ZN16vtkPixelTransfer4BlitIhxEEiRK14vtkPixelExtentS3_S3_S3_iPT_iPT0_' hash='d6813c53408cc499#158'>
          <parameter type-id='type-id-32'/>
          <parameter type-id='type-id-32'/>
          <parameter type-id='type-id-32'/>
          <parameter type-id='type-id-32'/>
          <parameter type-id='type-id-13'/>
          <parameter type-id='type-id-70'/>
          <parameter type-id='type-id-13'/>
          <parameter type-id='type-id-60'/>
          <return type-id='type-id-13'/>
        </function-decl>
      </member-function>
      <member-function access='private' static='yes'>
        <function-decl name='Blit&lt;vtkPixelTransfer::Blit::VTK_TT, vtkPixelTransfer::Blit::VTK_TT&gt;' mangled-name='_ZN16vtkPixelTransfer4BlitIhyEEiRK14vtkPixelExtentS3_S3_S3_iPT_iPT0_' filepath='/tmp/legendre/spack-stage/spack-stage-R_crTC/VTK-6.1.0/Rendering/LIC/vtkPixelTransfer.h' line='154' column='1' visibility='default' binding='global' size-in-bits='64' elf-symbol-id='_ZN16vtkPixelTransfer4BlitIhyEEiRK14vtkPixelExtentS3_S3_S3_iPT_iPT0_' hash='e3b9dbf90af11fce#159'>
          <parameter type-id='type-id-32'/>
          <parameter type-id='type-id-32'/>
          <parameter type-id='type-id-32'/>
          <parameter type-id='type-id-32'/>
          <parameter type-id='type-id-13'/>
          <parameter type-id='type-id-70'/>
          <parameter type-id='type-id-13'/>
          <parameter type-id='type-id-61'/>
          <return type-id='type-id-13'/>
        </function-decl>
      </member-function>
      <member-function access='private' static='yes'>
        <function-decl name='Blit&lt;vtkPixelTransfer::Blit::VTK_TT, vtkPixelTransfer::Blit::VTK_TT&gt;' mangled-name='_ZN16vtkPixelTransfer4BlitIhlEEiRK14vtkPixelExtentS3_S3_S3_iPT_iPT0_' filepath='/tmp/legendre/spack-stage/spack-stage-R_crTC/VTK-6.1.0/Rendering/LIC/vtkPixelTransfer.h' line='154' column='1' visibility='default' binding='global' size-in-bits='64' elf-symbol-id='_ZN16vtkPixelTransfer4BlitIhlEEiRK14vtkPixelExtentS3_S3_S3_iPT_iPT0_' hash='89cef22b4f9ba841#160'>
          <parameter type-id='type-id-32'/>
          <parameter type-id='type-id-32'/>
          <parameter type-id='type-id-32'/>
          <parameter type-id='type-id-32'/>
          <parameter type-id='type-id-13'/>
          <parameter type-id='type-id-70'/>
          <parameter type-id='type-id-13'/>
          <parameter type-id='type-id-62'/>
          <return type-id='type-id-13'/>
        </function-decl>
      </member-function>
      <member-function access='private' static='yes'>
        <function-decl name='Blit&lt;vtkPixelTransfer::Blit::VTK_TT, vtkPixelTransfer::Blit::VTK_TT&gt;' mangled-name='_ZN16vtkPixelTransfer4BlitIhmEEiRK14vtkPixelExtentS3_S3_S3_iPT_iPT0_' filepath='/tmp/legendre/spack-stage/spack-stage-R_crTC/VTK-6.1.0/Rendering/LIC/vtkPixelTransfer.h' line='154' column='1' visibility='default' binding='global' size-in-bits='64' elf-symbol-id='_ZN16vtkPixelTransfer4BlitIhmEEiRK14vtkPixelExtentS3_S3_S3_iPT_iPT0_' hash='e46e132cc0af3762#161'>
          <parameter type-id='type-id-32'/>
          <parameter type-id='type-id-32'/>
          <parameter type-id='type-id-32'/>
          <parameter type-id='type-id-32'/>
          <parameter type-id='type-id-13'/>
          <parameter type-id='type-id-70'/>
          <parameter type-id='type-id-13'/>
          <parameter type-id='type-id-63'/>
          <return type-id='type-id-13'/>
        </function-decl>
      </member-function>
      <member-function access='private' static='yes'>
        <function-decl name='Blit&lt;vtkPixelTransfer::Blit::VTK_TT, vtkPixelTransfer::Blit::VTK_TT&gt;' mangled-name='_ZN16vtkPixelTransfer4BlitIhiEEiRK14vtkPixelExtentS3_S3_S3_iPT_iPT0_' filepath='/tmp/legendre/spack-stage/spack-stage-R_crTC/VTK-6.1.0/Rendering/LIC/vtkPixelTransfer.h' line='154' column='1' visibility='default' binding='global' size-in-bits='64' elf-symbol-id='_ZN16vtkPixelTransfer4BlitIhiEEiRK14vtkPixelExtentS3_S3_S3_iPT_iPT0_' hash='06a3a23d1a732631#162'>
          <parameter type-id='type-id-32'/>
          <parameter type-id='type-id-32'/>
          <parameter type-id='type-id-32'/>
          <parameter type-id='type-id-32'/>
          <parameter type-id='type-id-13'/>
          <parameter type-id='type-id-70'/>
          <parameter type-id='type-id-13'/>
          <parameter type-id='type-id-64'/>
          <return type-id='type-id-13'/>
        </function-decl>
      </member-function>
      <member-function access='private' static='yes'>
        <function-decl name='Blit&lt;vtkPixelTransfer::Blit::VTK_TT, vtkPixelTransfer::Blit::VTK_TT&gt;' mangled-name='_ZN16vtkPixelTransfer4BlitIhjEEiRK14vtkPixelExtentS3_S3_S3_iPT_iPT0_' filepath='/tmp/legendre/spack-stage/spack-stage-R_crTC/VTK-6.1.0/Rendering/LIC/vtkPixelTransfer.h' line='154' column='1' visibility='default' binding='global' size-in-bits='64' elf-symbol-id='_ZN16vtkPixelTransfer4BlitIhjEEiRK14vtkPixelExtentS3_S3_S3_iPT_iPT0_' hash='fd94cd30d30ae332#163'>
          <parameter type-id='type-id-32'/>
          <parameter type-id='type-id-32'/>
          <parameter type-id='type-id-32'/>
          <parameter type-id='type-id-32'/>
          <parameter type-id='type-id-13'/>
          <parameter type-id='type-id-70'/>
          <parameter type-id='type-id-13'/>
          <parameter type-id='type-id-65'/>
          <return type-id='type-id-13'/>
        </function-decl>
      </member-function>
      <member-function access='private' static='yes'>
        <function-decl name='Blit&lt;vtkPixelTransfer::Blit::VTK_TT, vtkPixelTransfer::Blit::VTK_TT&gt;' mangled-name='_ZN16vtkPixelTransfer4BlitIhsEEiRK14vtkPixelExtentS3_S3_S3_iPT_iPT0_' filepath='/tmp/legendre/spack-stage/spack-stage-R_crTC/VTK-6.1.0/Rendering/LIC/vtkPixelTransfer.h' line='154' column='1' visibility='default' binding='global' size-in-bits='64' elf-symbol-id='_ZN16vtkPixelTransfer4BlitIhsEEiRK14vtkPixelExtentS3_S3_S3_iPT_iPT0_' hash='d4695d0a6472abf9#164'>
          <parameter type-id='type-id-32'/>
          <parameter type-id='type-id-32'/>
          <parameter type-id='type-id-32'/>
          <parameter type-id='type-id-32'/>
          <parameter type-id='type-id-13'/>
          <parameter type-id='type-id-70'/>
          <parameter type-id='type-id-13'/>
          <parameter type-id='type-id-66'/>
          <return type-id='type-id-13'/>
        </function-decl>
      </member-function>
      <member-function access='private' static='yes'>
        <function-decl name='Blit&lt;vtkPixelTransfer::Blit::VTK_TT, vtkPixelTransfer::Blit::VTK_TT&gt;' mangled-name='_ZN16vtkPixelTransfer4BlitIhtEEiRK14vtkPixelExtentS3_S3_S3_iPT_iPT0_' filepath='/tmp/legendre/spack-stage/spack-stage-R_crTC/VTK-6.1.0/Rendering/LIC/vtkPixelTransfer.h' line='154' column='1' visibility='default' binding='global' size-in-bits='64' elf-symbol-id='_ZN16vtkPixelTransfer4BlitIhtEEiRK14vtkPixelExtentS3_S3_S3_iPT_iPT0_' hash='3efcbda75fbc3f58#165'>
          <parameter type-id='type-id-32'/>
          <parameter type-id='type-id-32'/>
          <parameter type-id='type-id-32'/>
          <parameter type-id='type-id-32'/>
          <parameter type-id='type-id-13'/>
          <parameter type-id='type-id-70'/>
          <parameter type-id='type-id-13'/>
          <parameter type-id='type-id-67'/>
          <return type-id='type-id-13'/>
        </function-decl>
      </member-function>
      <member-function access='private' static='yes'>
        <function-decl name='Blit&lt;vtkPixelTransfer::Blit::VTK_TT, vtkPixelTransfer::Blit::VTK_TT&gt;' mangled-name='_ZN16vtkPixelTransfer4BlitIhcEEiRK14vtkPixelExtentS3_S3_S3_iPT_iPT0_' filepath='/tmp/legendre/spack-stage/spack-stage-R_crTC/VTK-6.1.0/Rendering/LIC/vtkPixelTransfer.h' line='154' column='1' visibility='default' binding='global' size-in-bits='64' elf-symbol-id='_ZN16vtkPixelTransfer4BlitIhcEEiRK14vtkPixelExtentS3_S3_S3_iPT_iPT0_' hash='2b155664f0f1a9c8#166'>
          <parameter type-id='type-id-32'/>
          <parameter type-id='type-id-32'/>
          <parameter type-id='type-id-32'/>
          <parameter type-id='type-id-32'/>
          <parameter type-id='type-id-13'/>
          <parameter type-id='type-id-70'/>
          <parameter type-id='type-id-13'/>
          <parameter type-id='type-id-68'/>
          <return type-id='type-id-13'/>
        </function-decl>
      </member-function>
      <member-function access='private' static='yes'>
        <function-decl name='Blit&lt;vtkPixelTransfer::Blit::VTK_TT, vtkPixelTransfer::Blit::VTK_TT&gt;' mangled-name='_ZN16vtkPixelTransfer4BlitIhaEEiRK14vtkPixelExtentS3_S3_S3_iPT_iPT0_' filepath='/tmp/legendre/spack-stage/spack-stage-R_crTC/VTK-6.1.0/Rendering/LIC/vtkPixelTransfer.h' line='154' column='1' visibility='default' binding='global' size-in-bits='64' elf-symbol-id='_ZN16vtkPixelTransfer4BlitIhaEEiRK14vtkPixelExtentS3_S3_S3_iPT_iPT0_' hash='9ce05c9d34280365#167'>
          <parameter type-id='type-id-32'/>
          <parameter type-id='type-id-32'/>
          <parameter type-id='type-id-32'/>
          <parameter type-id='type-id-32'/>
          <parameter type-id='type-id-13'/>
          <parameter type-id='type-id-70'/>
          <parameter type-id='type-id-13'/>
          <parameter type-id='type-id-69'/>
          <return type-id='type-id-13'/>
        </function-decl>
      </member-function>
      <member-function access='private' static='yes'>
        <function-decl name='Blit&lt;vtkPixelTransfer::Blit::VTK_TT, vtkPixelTransfer::Blit::VTK_TT&gt;' mangled-name='_ZN16vtkPixelTransfer4BlitIhhEEiRK14vtkPixelExtentS3_S3_S3_iPT_iPT0_' filepath='/tmp/legendre/spack-stage/spack-stage-R_crTC/VTK-6.1.0/Rendering/LIC/vtkPixelTransfer.h' line='154' column='1' visibility='default' binding='global' size-in-bits='64' elf-symbol-id='_ZN16vtkPixelTransfer4BlitIhhEEiRK14vtkPixelExtentS3_S3_S3_iPT_iPT0_' hash='763267c075119fda#168'>
          <parameter type-id='type-id-32'/>
          <parameter type-id='type-id-32'/>
          <parameter type-id='type-id-32'/>
          <parameter type-id='type-id-32'/>
          <parameter type-id='type-id-13'/>
          <parameter type-id='type-id-70'/>
          <parameter type-id='type-id-13'/>
          <parameter type-id='type-id-70'/>
          <return type-id='type-id-13'/>
        </function-decl>
      </member-function>
      <member-function access='private' static='yes'>
        <function-decl name='Blit&lt;vtkPixelTransfer::Blit::VTK_TT&gt;' mangled-name='_ZN16vtkPixelTransfer4BlitIhEEiRK14vtkPixelExtentS3_S3_S3_iPT_iiPv' filepath='/tmp/legendre/spack-stage/spack-stage-R_crTC/VTK-6.1.0/Rendering/LIC/vtkPixelTransfer.h' line='124' column='1' visibility='default' binding='global' size-in-bits='64' elf-symbol-id='_ZN16vtkPixelTransfer4BlitIhEEiRK14vtkPixelExtentS3_S3_S3_iPT_iiPv' hash='a8475d97370c707e#13'>
          <parameter type-id='type-id-32'/>
          <parameter type-id='type-id-32'/>
          <parameter type-id='type-id-32'/>
          <parameter type-id='type-id-32'/>
          <parameter type-id='type-id-13'/>
          <parameter type-id='type-id-70'/>
          <parameter type-id='type-id-13'/>
          <parameter type-id='type-id-13'/>
          <parameter type-id='type-id-71'/>
          <return type-id='type-id-13'/>
        </function-decl>
      </member-function>
      <member-function access='private' static='yes'>
        <function-decl name='Blit' mangled-name='_ZN16vtkPixelTransfer4BlitERK14vtkPixelExtentS2_S2_S2_iiPviiS3_' filepath='/tmp/legendre/spack-stage/spack-stage-R_crTC/VTK-6.1.0/Rendering/LIC/vtkPixelTransfer.cxx' line='4' column='1' visibility='default' binding='global' size-in-bits='64' elf-symbol-id='_ZN16vtkPixelTransfer4BlitERK14vtkPixelExtentS2_S2_S2_iiPviiS3_' hash='54a8c552a1e6c700'>
          <parameter type-id='type-id-32'/>
          <parameter type-id='type-id-32'/>
          <parameter type-id='type-id-32'/>
          <parameter type-id='type-id-32'/>
          <parameter type-id='type-id-13'/>
          <parameter type-id='type-id-13'/>
          <parameter type-id='type-id-71'/>
          <parameter type-id='type-id-13'/>
          <parameter type-id='type-id-13'/>
          <parameter type-id='type-id-71'/>
          <return type-id='type-id-13'/>
        </function-decl>
      </member-function>
    </class-decl>
    <class-decl name='vtkWeakPointer&lt;vtkRenderWindow&gt;' visibility='default' size-in-bits='64' filepath='/tmp/legendre/spack-stage/spack-stage-R_crTC/VTK-6.1.0/Common/Core/vtkWeakPointer.h' line='47' column='1' hash='dc6d25104e737c39' id='type-id-12'>
      <base-class access='public' layout-offset-in-bits='0' type-id='type-id-72'/>
    </class-decl>
    <class-decl name='vtkWeakPointerBase' visibility='default' size-in-bits='64' filepath='/tmp/legendre/spack-stage/spack-stage-R_crTC/VTK-6.1.0/Common/Core/vtkWeakPointerBase.h' line='31' column='1' hash='dd4a45b3851d18ff' id='type-id-72'>
      <member-type access='protected'>
        <class-decl name='NoReference' visibility='default' size-in-bits='8' filepath='/tmp/legendre/spack-stage/spack-stage-R_crTC/VTK-6.1.0/Common/Core/vtkWeakPointerBase.h' line='70' column='1' hash='90e520def287525b' id='type-id-73'/>
      </member-type>
      <data-member access='protected' layout-offset-in-bits='0'>
        <var-decl name='Object' type-id='type-id-26' visibility='default' filepath='/tmp/legendre/spack-stage/spack-stage-R_crTC/VTK-6.1.0/Common/Core/vtkWeakPointerBase.h' line='74' column='1'/>
      </data-member>
      <member-function access='private'>
        <function-decl name='operator=' mangled-name='_ZN18vtkWeakPointerBaseaSEP13vtkObjectBase' filepath='/tmp/legendre/spack-stage/spack-stage-R_crTC/VTK-6.1.0/Common/Core/vtkWeakPointerBase.h' line='52' column='1' visibility='default' binding='global' size-in-bits='64' hash='490ae9d943b26962'>
          <parameter type-id='type-id-74' is-artificial='yes'/>
          <parameter type-id='type-id-26'/>
          <return type-id='type-id-75'/>
        </function-decl>
      </member-function>
    </class-decl>
    <type-decl name='double' size-in-bits='64' hash='e9e9b320886d9aa6' id='type-id-16'/>
    <type-decl name='float' size-in-bits='32' hash='d7ec3bf03d3c5690' id='type-id-38'/>
    <type-decl name='int' size-in-bits='32' hash='09d17c08f594edc7' id='type-id-13'/>
    <array-type-def dimensions='1' type-id='type-id-13' size-in-bits='128' hash='3320ece1fbb1b390' id='type-id-31'>
      <subrange length='4' lower-bound='0' upper-bound='3' type-id='type-id-4' size-in-bits='64' is-anonymous='yes' hash='cee611f4a73e486c' id='type-id-9'/>
    </array-type-def>
    <type-decl name='long double' size-in-bits='128' hash='2a9bbfe8bb0475f1#2' id='type-id-76'/>
    <type-decl name='long int' size-in-bits='64' hash='b119fe0931d2ee10#2' id='type-id-41'/>
    <type-decl name='long long int' size-in-bits='64' hash='5ae7f9eec1fc43d6#3' id='type-id-43'/>
    <type-decl name='signed char' size-in-bits='8' hash='3c595c3350588f18' id='type-id-47'/>
    <class-decl name='_G_fpos64_t' is-struct='yes' visibility='default' size-in-bits='128' filepath='/usr/include/_G_config.h' line='28' column='1' hash='0f4c884858b44079' id='type-id-77'>
      <data-member access='public' layout-offset-in-bits='0'>
        <var-decl name='__pos' type-id='type-id-78' visibility='default' filepath='/usr/include/_G_config.h' line='29' column='1'/>
      </data-member>
      <data-member access='public' layout-offset-in-bits='64'>
        <var-decl name='__state' type-id='type-id-79' visibility='default' filepath='/usr/include/_G_config.h' line='30' column='1'/>
      </data-member>
    </class-decl>
    <class-decl name='_IO_FILE' is-struct='yes' visibility='default' size-in-bits='1728' filepath='/usr/include/libio.h' line='271' column='1' hash='29dcdce3af7c2b79' id='type-id-80'>
      <data-member access='public' layout-offset-in-bits='0'>
        <var-decl name='_flags' type-id='type-id-13' visibility='default' filepath='/usr/include/libio.h' line='272' column='1'/>
      </data-member>
      <data-member access='public' layout-offset-in-bits='64'>
        <var-decl name='_IO_read_ptr' type-id='type-id-81' visibility='default' filepath='/usr/include/libio.h' line='277' column='1'/>
      </data-member>
      <data-member access='public' layout-offset-in-bits='128'>
        <var-decl name='_IO_read_end' type-id='type-id-81' visibility='default' filepath='/usr/include/libio.h' line='278' column='1'/>
      </data-member>
      <data-member access='public' layout-offset-in-bits='192'>
        <var-decl name='_IO_read_base' type-id='type-id-81' visibility='default' filepath='/usr/include/libio.h' line='279' column='1'/>
      </data-member>
      <data-member access='public' layout-offset-in-bits='256'>
        <var-decl name='_IO_write_base' type-id='type-id-81' visibility='default' filepath='/usr/include/libio.h' line='280' column='1'/>
      </data-member>
      <data-member access='public' layout-offset-in-bits='320'>
        <var-decl name='_IO_write_ptr' type-id='type-id-81' visibility='default' filepath='/usr/include/libio.h' line='281' column='1'/>
      </data-member>
      <data-member access='public' layout-offset-in-bits='384'>
        <var-decl name='_IO_write_end' type-id='type-id-81' visibility='default' filepath='/usr/include/libio.h' line='282' column='1'/>
      </data-member>
      <data-member access='public' layout-offset-in-bits='448'>
        <var-decl name='_IO_buf_base' type-id='type-id-81' visibility='default' filepath='/usr/include/libio.h' line='283' column='1'/>
      </data-member>
      <data-member access='public' layout-offset-in-bits='512'>
        <var-decl name='_IO_buf_end' type-id='type-id-81' visibility='default' filepath='/usr/include/libio.h' line='284' column='1'/>
      </data-member>
      <data-member access='public' layout-offset-in-bits='576'>
        <var-decl name='_IO_save_base' type-id='type-id-81' visibility='default' filepath='/usr/include/libio.h' line='286' column='1'/>
      </data-member>
      <data-member access='public' layout-offset-in-bits='640'>
        <var-decl name='_IO_backup_base' type-id='type-id-81' visibility='default' filepath='/usr/include/libio.h' line='287' column='1'/>
      </data-member>
      <data-member access='public' layout-offset-in-bits='704'>
        <var-decl name='_IO_save_end' type-id='type-id-81' visibility='default' filepath='/usr/include/libio.h' line='288' column='1'/>
      </data-member>
      <data-member access='public' layout-offset-in-bits='768'>
        <var-decl name='_markers' type-id='type-id-82' visibility='default' filepath='/usr/include/libio.h' line='290' column='1'/>
      </data-member>
      <data-member access='public' layout-offset-in-bits='832'>
        <var-decl name='_chain' type-id='type-id-83' visibility='default' filepath='/usr/include/libio.h' line='292' column='1'/>
      </data-member>
      <data-member access='public' layout-offset-in-bits='896'>
        <var-decl name='_fileno' type-id='type-id-13' visibility='default' filepath='/usr/include/libio.h' line='294' column='1'/>
      </data-member>
      <data-member access='public' layout-offset-in-bits='928'>
        <var-decl name='_flags2' type-id='type-id-13' visibility='default' filepath='/usr/include/libio.h' line='298' column='1'/>
      </data-member>
      <data-member access='public' layout-offset-in-bits='960'>
        <var-decl name='_old_offset' type-id='type-id-84' visibility='default' filepath='/usr/include/libio.h' line='300' column='1'/>
      </data-member>
      <data-member access='public' layout-offset-in-bits='1024'>
        <var-decl name='_cur_column' type-id='type-id-56' visibility='default' filepath='/usr/include/libio.h' line='304' column='1'/>
      </data-member>
      <data-member access='public' layout-offset-in-bits='1040'>
        <var-decl name='_vtable_offset' type-id='type-id-47' visibility='default' filepath='/usr/include/libio.h' line='305' column='1'/>
      </data-member>
      <data-member access='public' layout-offset-in-bits='1048'>
        <var-decl name='_shortbuf' type-id='type-id-3' visibility='default' filepath='/usr/include/libio.h' line='306' column='1'/>
      </data-member>
      <data-member access='public' layout-offset-in-bits='1088'>
        <var-decl name='_lock' type-id='type-id-85' visibility='default' filepath='/usr/include/libio.h' line='310' column='1'/>
      </data-member>
      <data-member access='public' layout-offset-in-bits='1152'>
        <var-decl name='_offset' type-id='type-id-78' visibility='default' filepath='/usr/include/libio.h' line='319' column='1'/>
      </data-member>
      <data-member access='public' layout-offset-in-bits='1216'>
        <var-decl name='__pad1' type-id='type-id-71' visibility='default' filepath='/usr/include/libio.h' line='328' column='1'/>
      </data-member>
      <data-member access='public' layout-offset-in-bits='1280'>
        <var-decl name='__pad2' type-id='type-id-71' visibility='default' filepath='/usr/include/libio.h' line='329' column='1'/>
      </data-member>
      <data-member access='public' layout-offset-in-bits='1344'>
        <var-decl name='__pad3' type-id='type-id-71' visibility='default' filepath='/usr/include/libio.h' line='330' column='1'/>
      </data-member>
      <data-member access='public' layout-offset-in-bits='1408'>
        <var-decl name='__pad4' type-id='type-id-71' visibility='default' filepath='/usr/include/libio.h' line='331' column='1'/>
      </data-member>
      <data-member access='public' layout-offset-in-bits='1472'>
        <var-decl name='__pad5' type-id='type-id-86' visibility='default' filepath='/usr/include/libio.h' line='332' column='1'/>
      </data-member>
      <data-member access='public' layout-offset-in-bits='1536'>
        <var-decl name='_mode' type-id='type-id-13' visibility='default' filepath='/usr/include/libio.h' line='334' column='1'/>
      </data-member>
      <data-member access='public' layout-offset-in-bits='1568'>
        <var-decl name='_unused2' type-id='type-id-6' visibility='default' filepath='/usr/include/libio.h' line='336' column='1'/>
      </data-member>
    </class-decl>
    <class-decl name='_IO_marker' is-struct='yes' visibility='default' size-in-bits='192' filepath='/usr/include/libio.h' line='186' column='1' hash='263be23b1e79201c' id='type-id-87'>
      <data-member access='public' layout-offset-in-bits='0'>
        <var-decl name='_next' type-id='type-id-82' visibility='default' filepath='/usr/include/libio.h' line='187' column='1'/>
      </data-member>
      <data-member access='public' layout-offset-in-bits='64'>
        <var-decl name='_sbuf' type-id='type-id-83' visibility='default' filepath='/usr/include/libio.h' line='188' column='1'/>
      </data-member>
      <data-member access='public' layout-offset-in-bits='128'>
        <var-decl name='_pos' type-id='type-id-13' visibility='default' filepath='/usr/include/libio.h' line='192' column='1'/>
      </data-member>
    </class-decl>
    <class-decl name='__mbstate_t' is-struct='yes' visibility='default' size-in-bits='64' filepath='/usr/include/wchar.h' line='84' column='1' hash='e97fe294ce223fec' id='type-id-79'>
      <member-type access='public'>
        <union-decl name='__anonymous_union__' visibility='default' size-in-bits='32' is-anonymous='yes' filepath='/usr/include/wchar.h' line='87' column='1' hash='db9d16b710a8f305' id='type-id-88'>
          <data-member access='public'>
            <var-decl name='__wch' type-id='type-id-51' visibility='default' filepath='/usr/include/wchar.h' line='89' column='1'/>
          </data-member>
          <data-member access='public'>
            <var-decl name='__wchb' type-id='type-id-8' visibility='default' filepath='/usr/include/wchar.h' line='93' column='1'/>
          </data-member>
        </union-decl>
      </member-type>
      <data-member access='public' layout-offset-in-bits='0'>
        <var-decl name='__count' type-id='type-id-13' visibility='default' filepath='/usr/include/wchar.h' line='85' column='1'/>
      </data-member>
      <data-member access='public' layout-offset-in-bits='32'>
        <var-decl name='__value' type-id='type-id-88' visibility='default' filepath='/usr/include/wchar.h' line='94' column='1'/>
      </data-member>
    </class-decl>
    <class-decl name='div_t' is-struct='yes' visibility='default' size-in-bits='64' filepath='/usr/include/stdlib.h' line='99' column='1' hash='5321a6845884f9ce' id='type-id-89'>
      <data-member access='public' layout-offset-in-bits='0'>
        <var-decl name='quot' type-id='type-id-13' visibility='default' filepath='/usr/include/stdlib.h' line='100' column='1'/>
      </data-member>
      <data-member access='public' layout-offset-in-bits='32'>
        <var-decl name='rem' type-id='type-id-13' visibility='default' filepath='/usr/include/stdlib.h' line='101' column='1'/>
      </data-member>
    </class-decl>
    <class-decl name='lconv' is-struct='yes' visibility='default' size-in-bits='768' filepath='/usr/include/locale.h' line='55' column='1' hash='91b2fd0786b4df3e' id='type-id-90'>
      <data-member access='public' layout-offset-in-bits='0'>
        <var-decl name='decimal_point' type-id='type-id-81' visibility='default' filepath='/usr/include/locale.h' line='58' column='1'/>
      </data-member>
      <data-member access='public' layout-offset-in-bits='64'>
        <var-decl name='thousands_sep' type-id='type-id-81' visibility='default' filepath='/usr/include/locale.h' line='59' column='1'/>
      </data-member>
      <data-member access='public' layout-offset-in-bits='128'>
        <var-decl name='grouping' type-id='type-id-81' visibility='default' filepath='/usr/include/locale.h' line='65' column='1'/>
      </data-member>
      <data-member access='public' layout-offset-in-bits='192'>
        <var-decl name='int_curr_symbol' type-id='type-id-81' visibility='default' filepath='/usr/include/locale.h' line='71' column='1'/>
      </data-member>
      <data-member access='public' layout-offset-in-bits='256'>
        <var-decl name='currency_symbol' type-id='type-id-81' visibility='default' filepath='/usr/include/locale.h' line='72' column='1'/>
      </data-member>
      <data-member access='public' layout-offset-in-bits='320'>
        <var-decl name='mon_decimal_point' type-id='type-id-81' visibility='default' filepath='/usr/include/locale.h' line='73' column='1'/>
      </data-member>
      <data-member access='public' layout-offset-in-bits='384'>
        <var-decl name='mon_thousands_sep' type-id='type-id-81' visibility='default' filepath='/usr/include/locale.h' line='74' column='1'/>
      </data-member>
      <data-member access='public' layout-offset-in-bits='448'>
        <var-decl name='mon_grouping' type-id='type-id-81' visibility='default' filepath='/usr/include/locale.h' line='75' column='1'/>
      </data-member>
      <data-member access='public' layout-offset-in-bits='512'>
        <var-decl name='positive_sign' type-id='type-id-81' visibility='default' filepath='/usr/include/locale.h' line='76' column='1'/>
      </data-member>
      <data-member access='public' layout-offset-in-bits='576'>
        <var-decl name='negative_sign' type-id='type-id-81' visibility='default' filepath='/usr/include/locale.h' line='77' column='1'/>
      </data-member>
      <data-member access='public' layout-offset-in-bits='640'>
        <var-decl name='int_frac_digits' type-id='type-id-2' visibility='default' filepath='/usr/include/locale.h' line='78' column='1'/>
      </data-member>
      <data-member access='public' layout-offset-in-bits='648'>
        <var-decl name='frac_digits' type-id='type-id-2' visibility='default' filepath='/usr/include/locale.h' line='79' column='1'/>
      </data-member>
      <data-member access='public' layout-offset-in-bits='656'>
        <var-decl name='p_cs_precedes' type-id='type-id-2' visibility='default' filepath='/usr/include/locale.h' line='81' column='1'/>
      </data-member>
      <data-member access='public' layout-offset-in-bits='664'>
        <var-decl name='p_sep_by_space' type-id='type-id-2' visibility='default' filepath='/usr/include/locale.h' line='83' column='1'/>
      </data-member>
      <data-member access='public' layout-offset-in-bits='672'>
        <var-decl name='n_cs_precedes' type-id='type-id-2' visibility='default' filepath='/usr/include/locale.h' line='85' column='1'/>
      </data-member>
      <data-member access='public' layout-offset-in-bits='680'>
        <var-decl name='n_sep_by_space' type-id='type-id-2' visibility='default' filepath='/usr/include/locale.h' line='87' column='1'/>
      </data-member>
      <data-member access='public' layout-offset-in-bits='688'>
        <var-decl name='p_sign_posn' type-id='type-id-2' visibility='default' filepath='/usr/include/locale.h' line='94' column='1'/>
      </data-member>
      <data-member access='public' layout-offset-in-bits='696'>
        <var-decl name='n_sign_posn' type-id='type-id-2' visibility='default' filepath='/usr/include/locale.h' line='95' column='1'/>
      </data-member>
      <data-member access='public' layout-offset-in-bits='704'>
        <var-decl name='int_p_cs_precedes' type-id='type-id-2' visibility='default' filepath='/usr/include/locale.h' line='98' column='1'/>
      </data-member>
      <data-member access='public' layout-offset-in-bits='712'>
        <var-decl name='int_p_sep_by_space' type-id='type-id-2' visibility='default' filepath='/usr/include/locale.h' line='100' column='1'/>
      </data-member>
      <data-member access='public' layout-offset-in-bits='720'>
        <var-decl name='int_n_cs_precedes' type-id='type-id-2' visibility='default' filepath='/usr/include/locale.h' line='102' column='1'/>
      </data-member>
      <data-member access='public' layout-offset-in-bits='728'>
        <var-decl name='int_n_sep_by_space' type-id='type-id-2' visibility='default' filepath='/usr/include/locale.h' line='104' column='1'/>
      </data-member>
      <data-member access='public' layout-offset-in-bits='736'>
        <var-decl name='int_p_sign_posn' type-id='type-id-2' visibility='default' filepath='/usr/include/locale.h' line='111' column='1'/>
      </data-member>
      <data-member access='public' layout-offset-in-bits='744'>
        <var-decl name='int_n_sign_posn' type-id='type-id-2' visibility='default' filepath='/usr/include/locale.h' line='112' column='1'/>
      </data-member>
    </class-decl>
    <class-decl name='ldiv_t' is-struct='yes' visibility='default' size-in-bits='128' filepath='/usr/include/stdlib.h' line='107' column='1' hash='f73ee30feb9e9f76' id='type-id-91'>
      <data-member access='public' layout-offset-in-bits='0'>
        <var-decl name='quot' type-id='type-id-41' visibility='default' filepath='/usr/include/stdlib.h' line='108' column='1'/>
      </data-member>
      <data-member access='public' layout-offset-in-bits='64'>
        <var-decl name='rem' type-id='type-id-41' visibility='default' filepath='/usr/include/stdlib.h' line='109' column='1'/>
      </data-member>
    </class-decl>
    <class-decl name='lldiv_t' is-struct='yes' visibility='default' size-in-bits='128' filepath='/usr/include/stdlib.h' line='119' column='1' hash='564e04be97ca0408' id='type-id-92'>
      <data-member access='public' layout-offset-in-bits='0'>
        <var-decl name='quot' type-id='type-id-43' visibility='default' filepath='/usr/include/stdlib.h' line='120' column='1'/>
      </data-member>
      <data-member access='public' layout-offset-in-bits='64'>
        <var-decl name='rem' type-id='type-id-43' visibility='default' filepath='/usr/include/stdlib.h' line='121' column='1'/>
      </data-member>
    </class-decl>
    <class-decl name='tm' is-struct='yes' visibility='default' size-in-bits='448' filepath='/usr/include/time.h' line='134' column='1' hash='831fa813c3806379' id='type-id-93'>
      <data-member access='public' layout-offset-in-bits='0'>
        <var-decl name='tm_sec' type-id='type-id-13' visibility='default' filepath='/usr/include/time.h' line='135' column='1'/>
      </data-member>
      <data-member access='public' layout-offset-in-bits='32'>
        <var-decl name='tm_min' type-id='type-id-13' visibility='default' filepath='/usr/include/time.h' line='136' column='1'/>
      </data-member>
      <data-member access='public' layout-offset-in-bits='64'>
        <var-decl name='tm_hour' type-id='type-id-13' visibility='default' filepath='/usr/include/time.h' line='137' column='1'/>
      </data-member>
      <data-member access='public' layout-offset-in-bits='96'>
        <var-decl name='tm_mday' type-id='type-id-13' visibility='default' filepath='/usr/include/time.h' line='138' column='1'/>
      </data-member>
      <data-member access='public' layout-offset-in-bits='128'>
        <var-decl name='tm_mon' type-id='type-id-13' visibility='default' filepath='/usr/include/time.h' line='139' column='1'/>
      </data-member>
      <data-member access='public' layout-offset-in-bits='160'>
        <var-decl name='tm_year' type-id='type-id-13' visibility='default' filepath='/usr/include/time.h' line='140' column='1'/>
      </data-member>
      <data-member access='public' layout-offset-in-bits='192'>
        <var-decl name='tm_wday' type-id='type-id-13' visibility='default' filepath='/usr/include/time.h' line='141' column='1'/>
      </data-member>
      <data-member access='public' layout-offset-in-bits='224'>
        <var-decl name='tm_yday' type-id='type-id-13' visibility='default' filepath='/usr/include/time.h' line='142' column='1'/>
      </data-member>
      <data-member access='public' layout-offset-in-bits='256'>
        <var-decl name='tm_isdst' type-id='type-id-13' visibility='default' filepath='/usr/include/time.h' line='143' column='1'/>
      </data-member>
      <data-member access='public' layout-offset-in-bits='320'>
        <var-decl name='tm_gmtoff' type-id='type-id-41' visibility='default' filepath='/usr/include/time.h' line='146' column='1'/>
      </data-member>
      <data-member access='public' layout-offset-in-bits='384'>
        <var-decl name='tm_zone' type-id='type-id-23' visibility='default' filepath='/usr/include/time.h' line='147' column='1'/>
      </data-member>
    </class-decl>
    <class-decl name='typedef __va_list_tag __va_list_tag' is-struct='yes' visibility='default' size-in-bits='192' hash='82aec996f90384a2' id='type-id-94'>
      <data-member access='public' layout-offset-in-bits='0'>
        <var-decl name='gp_offset' type-id='type-id-51' visibility='default'/>
      </data-member>
      <data-member access='public' layout-offset-in-bits='32'>
        <var-decl name='fp_offset' type-id='type-id-51' visibility='default'/>
      </data-member>
      <data-member access='public' layout-offset-in-bits='64'>
        <var-decl name='overflow_arg_area' type-id='type-id-71' visibility='default'/>
      </data-member>
      <data-member access='public' layout-offset-in-bits='128'>
        <var-decl name='reg_save_area' type-id='type-id-71' visibility='default'/>
      </data-member>
    </class-decl>
    <typedef-decl name='FILE' type-id='type-id-80' size-in-bits='1728' filepath='/usr/include/stdio.h' line='49' column='1' id='type-id-95'/>
    <typedef-decl name='_IO_lock_t' type-id='type-id-21' filepath='/usr/include/libio.h' line='180' column='1' id='type-id-96'/>
    <typedef-decl name='__FILE' type-id='type-id-80' size-in-bits='1728' filepath='/usr/include/stdio.h' line='65' column='1' id='type-id-97'/>
    <typedef-decl name='__compar_fn_t' type-id='type-id-98' size-in-bits='64' filepath='/usr/include/stdlib.h' line='742' column='1' hash='fd7a63c0c6c822c4' id='type-id-99'/>
    <typedef-decl name='__int32_t' type-id='type-id-13' size-in-bits='32' filepath='/usr/include/bits/types.h' line='41' column='1' hash='09d17c08f594edc7' id='type-id-100'/>
    <typedef-decl name='__off64_t' type-id='type-id-41' size-in-bits='64' filepath='/usr/include/bits/types.h' line='142' column='1' hash='b119fe0931d2ee10' id='type-id-78'/>
    <typedef-decl name='__off_t' type-id='type-id-41' size-in-bits='64' filepath='/usr/include/bits/types.h' line='141' column='1' hash='b119fe0931d2ee10' id='type-id-84'/>
    <typedef-decl name='fpos_t' type-id='type-id-77' size-in-bits='128' filepath='/usr/include/stdio.h' line='113' column='1' id='type-id-101'/>
    <typedef-decl name='mbstate_t' type-id='type-id-79' size-in-bits='64' filepath='/usr/include/wchar.h' line='106' column='1' id='type-id-102'/>
    <typedef-decl name='size_t' type-id='type-id-4' size-in-bits='64' filepath='/usr/lib/gcc/x86_64-redhat-linux/4.4.7/include/stddef.h' line='211' column='1' hash='8fdc5eea2983a729' id='type-id-86'/>
    <typedef-decl name='vtkIdType' type-id='type-id-43' size-in-bits='64' filepath='/tmp/legendre/spack-stage/spack-stage-R_crTC/VTK-6.1.0/Common/Core/vtkType.h' line='255' column='1' hash='5ae7f9eec1fc43d6' id='type-id-103'/>
    <typedef-decl name='wctrans_t' type-id='type-id-104' size-in-bits='64' filepath='/usr/include/wctype.h' line='187' column='1' hash='96e1bfcb27b9d6ed' id='type-id-105'/>
    <typedef-decl name='wctype_t' type-id='type-id-4' size-in-bits='64' filepath='/usr/include/wctype.h' line='53' column='1' hash='8fdc5eea2983a729' id='type-id-106'/>
    <typedef-decl name='wint_t' type-id='type-id-51' size-in-bits='32' filepath='/usr/lib/gcc/x86_64-redhat-linux/4.4.7/include/stddef.h' line='352' column='1' hash='e66b43f97c38e87a' id='type-id-107'/>
    <type-decl name='unnamed-enum-underlying-type-32' size-in-bits='32' alignment-in-bits='32' is-anonymous='yes' hash='5181a58e665b3619' id='type-id-108'/>
    <type-decl name='unsigned int' size-in-bits='32' hash='e66b43f97c38e87a' id='type-id-51'/>
    <type-decl name='unsigned long int' size-in-bits='64' hash='8fdc5eea2983a729#2' id='type-id-4'/>
    <type-decl name='unsigned long long int' size-in-bits='64' hash='ebdfc4685a1e82df#3' id='type-id-54'/>
    <type-decl name='unsigned short int' size-in-bits='16' hash='d7723bb93a30b11d#4' id='type-id-56'/>
    <type-decl name='wchar_t' size-in-bits='32' hash='4b224bc24abb5f1b' id='type-id-109'/>
    <pointer-type-def type-id='type-id-95' size-in-bits='64' hash='4cdc26b379a5c62d' id='type-id-110'/>
    <pointer-type-def type-id='type-id-80' size-in-bits='64' hash='071f36dcbe00ad00' id='type-id-83'/>
    <pointer-type-def type-id='type-id-87' size-in-bits='64' hash='4265a0e1ed6483b0' id='type-id-82'/>
    <pointer-type-def type-id='type-id-97' size-in-bits='64' hash='1a16dc71bfc55192' id='type-id-111'/>
    <pointer-type-def type-id='type-id-112' size-in-bits='64' hash='9973572a7a92fa89' id='type-id-113'/>
    <qualified-type-def type-id='type-id-113' const='yes' hash='3457c18c68767e9f' id='type-id-114'/>
    <pointer-type-def type-id='type-id-115' size-in-bits='64' hash='c32724c248c543d6' id='type-id-116'/>
    <qualified-type-def type-id='type-id-116' const='yes' hash='9431dc76d7f1d1d7' id='type-id-117'/>
    <pointer-type-def type-id='type-id-2' size-in-bits='64' hash='e533f42d1dd4942c' id='type-id-81'/>
    <pointer-type-def type-id='type-id-81' size-in-bits='64' hash='a93039fe023ed77b' id='type-id-118'/>
    <qualified-type-def type-id='type-id-112' const='yes' hash='8d553febc97e4a28' id='type-id-119'/>
    <reference-type-def kind='lvalue' type-id='type-id-119' size-in-bits='64' hash='2c659debc086c341' id='type-id-120'/>
    <pointer-type-def type-id='type-id-119' size-in-bits='64' hash='6d9c175c7ff1ed5b' id='type-id-121'/>
    <qualified-type-def type-id='type-id-121' const='yes' hash='2dc26fb5d68088f8' id='type-id-122'/>
    <qualified-type-def type-id='type-id-115' const='yes' hash='4041c0171f0e9b05' id='type-id-123'/>
    <reference-type-def kind='lvalue' type-id='type-id-123' size-in-bits='64' hash='21668e52b67f4234' id='type-id-124'/>
    <pointer-type-def type-id='type-id-123' size-in-bits='64' hash='ea240ca816390a0a' id='type-id-125'/>
    <qualified-type-def type-id='type-id-125' const='yes' hash='404993275131c501' id='type-id-126'/>
    <qualified-type-def type-id='type-id-100' const='yes' hash='3aaf0f2479f2834c' id='type-id-127'/>
    <pointer-type-def type-id='type-id-127' size-in-bits='64' hash='96e1bfcb27b9d6ed' id='type-id-104'/>
    <qualified-type-def type-id='type-id-2' const='yes' hash='3e50fd33f9bb78d9' id='type-id-128'/>
    <pointer-type-def type-id='type-id-128' size-in-bits='64' hash='c44743f354f6a443' id='type-id-23'/>
    <pointer-type-def type-id='type-id-23' size-in-bits='64' hash='cea1d4b0943594a3' id='type-id-129'/>
    <qualified-type-def type-id='type-id-101' const='yes' hash='d85759e223fc0d30' id='type-id-130'/>
    <pointer-type-def type-id='type-id-130' size-in-bits='64' hash='f7e9f827001f357b' id='type-id-131'/>
    <qualified-type-def type-id='type-id-13' const='yes' hash='8cef8df4b6728924' id='type-id-132'/>
    <reference-type-def kind='lvalue' type-id='type-id-132' size-in-bits='64' hash='5bb43a8603322674' id='type-id-133'/>
    <pointer-type-def type-id='type-id-132' size-in-bits='64' hash='15e84cc8db4ed19c' id='type-id-19'/>
    <qualified-type-def type-id='type-id-102' const='yes' hash='a328f2686e4dcc6e' id='type-id-134'/>
    <pointer-type-def type-id='type-id-134' size-in-bits='64' hash='965b139f91617649' id='type-id-135'/>
    <qualified-type-def type-id='type-id-86' const='yes' hash='86827e66a8bd4e2d' id='type-id-136'/>
    <reference-type-def kind='lvalue' type-id='type-id-136' size-in-bits='64' hash='59df9380ec284028' id='type-id-137'/>
    <qualified-type-def type-id='type-id-138' const='yes' hash='7520da090093d7d9' id='type-id-139'/>
    <pointer-type-def type-id='type-id-139' size-in-bits='64' hash='f559ca9c5395fb11' id='type-id-140'/>
    <qualified-type-def type-id='type-id-140' const='yes' hash='93a58f6f429e0a72' id='type-id-141'/>
    <qualified-type-def type-id='type-id-142' const='yes' hash='a9eff1fee3aee998' id='type-id-143'/>
    <reference-type-def kind='lvalue' type-id='type-id-143' size-in-bits='64' hash='eeead393066ca907' id='type-id-144'/>
    <pointer-type-def type-id='type-id-143' size-in-bits='64' hash='c57943d04d32da6a' id='type-id-145'/>
    <qualified-type-def type-id='type-id-146' const='yes' hash='c7a21a9e50d5a973' id='type-id-147'/>
    <reference-type-def kind='lvalue' type-id='type-id-147' size-in-bits='64' hash='dd39eb6f4df25edf' id='type-id-148'/>
    <qualified-type-def type-id='type-id-149' const='yes' hash='71b5108c882b258f' id='type-id-150'/>
    <reference-type-def kind='lvalue' type-id='type-id-150' size-in-bits='64' hash='1300fe95a8f446df' id='type-id-151'/>
    <qualified-type-def type-id='type-id-152' const='yes' hash='0d301f00e830e5eb' id='type-id-153'/>
    <reference-type-def kind='lvalue' type-id='type-id-153' size-in-bits='64' hash='d98a60be7234f7c8' id='type-id-154'/>
    <pointer-type-def type-id='type-id-153' size-in-bits='64' hash='f4903706bce76c85' id='type-id-155'/>
    <qualified-type-def type-id='type-id-156' const='yes' hash='9c3f1503b45b0328' id='type-id-157'/>
    <reference-type-def kind='lvalue' type-id='type-id-157' size-in-bits='64' hash='00b5256d58d8bd92' id='type-id-158'/>
    <qualified-type-def type-id='type-id-159' const='yes' hash='dca4974119b0cbcc' id='type-id-160'/>
    <reference-type-def kind='lvalue' type-id='type-id-160' size-in-bits='64' hash='045d8ea044b5327d' id='type-id-161'/>
    <pointer-type-def type-id='type-id-160' size-in-bits='64' hash='e4f0a6c1d39f9ec7' id='type-id-162'/>
    <qualified-type-def type-id='type-id-93' const='yes' hash='6d30d2c0485b21b8' id='type-id-163'/>
    <pointer-type-def type-id='type-id-163' size-in-bits='64' hash='934b82f269d593b3' id='type-id-164'/>
    <qualified-type-def type-id='type-id-51' const='yes' hash='6e5b7fbd041269f4' id='type-id-165'/>
    <pointer-type-def type-id='type-id-165' size-in-bits='64' hash='7b228ce973c39aff' id='type-id-166'/>
    <qualified-type-def type-id='type-id-10' const='yes' hash='ee493e68771a0e9d' id='type-id-167'/>
    <reference-type-def kind='lvalue' type-id='type-id-167' size-in-bits='64' hash='e8640e0c2d3a2e46' id='type-id-168'/>
    <pointer-type-def type-id='type-id-167' size-in-bits='64' hash='089d64c8c7025e4a' id='type-id-22'/>
    <qualified-type-def type-id='type-id-169' const='yes' hash='4631407c6192373d' id='type-id-170'/>
    <reference-type-def kind='lvalue' type-id='type-id-170' size-in-bits='64' hash='6efdb6253610fa08' id='type-id-171'/>
    <qualified-type-def type-id='type-id-30' const='yes' hash='503c842d66955749' id='type-id-172'/>
    <reference-type-def kind='lvalue' type-id='type-id-172' size-in-bits='64' hash='dd537af7cecaeca0' id='type-id-32'/>
    <pointer-type-def type-id='type-id-172' size-in-bits='64' hash='a88b901e40d290c4' id='type-id-173'/>
    <qualified-type-def type-id='type-id-173' const='yes' hash='8c7fef159e7c6db0' id='type-id-174'/>
    <qualified-type-def type-id='type-id-12' const='yes' hash='60be4443353fcc69' id='type-id-175'/>
    <pointer-type-def type-id='type-id-175' size-in-bits='64' hash='4430994744244992' id='type-id-176'/>
    <qualified-type-def type-id='type-id-176' const='yes' hash='642b1299ce781f3a' id='type-id-177'/>
    <qualified-type-def type-id='type-id-72' const='yes' hash='ced6742d2df0858a' id='type-id-178'/>
    <reference-type-def kind='lvalue' type-id='type-id-178' size-in-bits='64' hash='e071c741a5e7867e' id='type-id-179'/>
    <pointer-type-def type-id='type-id-178' size-in-bits='64' hash='33131ebad999122d' id='type-id-180'/>
    <qualified-type-def type-id='type-id-73' const='yes' hash='cf425e78cd782aea' id='type-id-181'/>
    <reference-type-def kind='lvalue' type-id='type-id-181' size-in-bits='64' hash='75954c7682fb8756' id='type-id-182'/>
    <qualified-type-def type-id='type-id-109' const='yes' hash='f2fba7dbc42fc9d5' id='type-id-183'/>
    <pointer-type-def type-id='type-id-183' size-in-bits='64' hash='317089067e76910a' id='type-id-184'/>
    <pointer-type-def type-id='type-id-184' size-in-bits='64' hash='535c62eb027026ae' id='type-id-185'/>
    <pointer-type-def type-id='type-id-16' size-in-bits='64' hash='dd31f93f4361bc41' id='type-id-186'/>
    <pointer-type-def type-id='type-id-38' size-in-bits='64' hash='5022839615992ac0' id='type-id-57'/>
    <pointer-type-def type-id='type-id-101' size-in-bits='64' hash='7d5bf80d5b25efb1' id='type-id-187'/>
    <pointer-type-def type-id='type-id-188' size-in-bits='64' hash='fd7a63c0c6c822c4' id='type-id-98'/>
    <reference-type-def kind='lvalue' type-id='type-id-13' size-in-bits='64' hash='5d95c516a5fa5466' id='type-id-189'/>
    <pointer-type-def type-id='type-id-13' size-in-bits='64' hash='3fd83b2c14ae2f2f' id='type-id-20'/>
    <pointer-type-def type-id='type-id-90' size-in-bits='64' hash='6921f81febec828e' id='type-id-190'/>
    <pointer-type-def type-id='type-id-102' size-in-bits='64' hash='18fb85b101e2cd25' id='type-id-191'/>
    <pointer-type-def type-id='type-id-138' size-in-bits='64' hash='1936558c46e85d2d' id='type-id-192'/>
    <qualified-type-def type-id='type-id-192' const='yes' hash='bfbb4d675dc357f2' id='type-id-193'/>
    <pointer-type-def type-id='type-id-194' size-in-bits='64' hash='c2e6db4aebb5b872' id='type-id-195'/>
    <qualified-type-def type-id='type-id-195' const='yes' hash='27fe4a427915619e' id='type-id-196'/>
    <reference-type-def kind='lvalue' type-id='type-id-142' size-in-bits='64' hash='76f6624712344855' id='type-id-197'/>
    <pointer-type-def type-id='type-id-142' size-in-bits='64' hash='cf79364f742300d5' id='type-id-198'/>
    <qualified-type-def type-id='type-id-198' const='yes' hash='f6f086af1134b9a3' id='type-id-199'/>
    <pointer-type-def type-id='type-id-146' size-in-bits='64' hash='07cac3a0b6b74b13' id='type-id-200'/>
    <qualified-type-def type-id='type-id-200' const='yes' hash='2f975454150b1629' id='type-id-201'/>
    <reference-type-def kind='lvalue' type-id='type-id-149' size-in-bits='64' hash='710a36caee8540d0' id='type-id-202'/>
    <pointer-type-def type-id='type-id-149' size-in-bits='64' hash='d0fd35d3a5f79092' id='type-id-203'/>
    <qualified-type-def type-id='type-id-203' const='yes' hash='ed3936294ebf7af3' id='type-id-204'/>
    <reference-type-def kind='lvalue' type-id='type-id-152' size-in-bits='64' hash='75929b1513585467' id='type-id-205'/>
    <pointer-type-def type-id='type-id-152' size-in-bits='64' hash='4cef840ef4725ab6' id='type-id-206'/>
    <reference-type-def kind='lvalue' type-id='type-id-159' size-in-bits='64' hash='cf7daba056a87db5' id='type-id-33'/>
    <pointer-type-def type-id='type-id-159' size-in-bits='64' hash='2af4dfdeb7f21db7' id='type-id-207'/>
    <qualified-type-def type-id='type-id-207' const='yes' hash='b9c3eaf44598da29' id='type-id-208'/>
    <pointer-type-def type-id='type-id-94' size-in-bits='64' hash='648313adc1c4c534' id='type-id-209'/>
    <pointer-type-def type-id='type-id-51' size-in-bits='64' hash='232fa04f890c2a5a' id='type-id-210'/>
    <pointer-type-def type-id='type-id-211' size-in-bits='64' hash='fd7a63c0c6c822c4' id='type-id-212'/>
    <pointer-type-def type-id='type-id-10' size-in-bits='64' hash='993651580870b7c0' id='type-id-17'/>
    <qualified-type-def type-id='type-id-17' const='yes' hash='08da4983f02503bb' id='type-id-213'/>
    <pointer-type-def type-id='type-id-214' size-in-bits='64' hash='c1a2beb2203e66dc' id='type-id-215'/>
    <pointer-type-def type-id='type-id-25' size-in-bits='64' hash='9399df4d400494ad' id='type-id-216'/>
    <reference-type-def kind='lvalue' type-id='type-id-30' size-in-bits='64' hash='88c5fa10d666fd81' id='type-id-217'/>
    <pointer-type-def type-id='type-id-30' size-in-bits='64' hash='d1fc604685c94648' id='type-id-218'/>
    <qualified-type-def type-id='type-id-218' const='yes' hash='294d341940ee3e42' id='type-id-219'/>
    <reference-type-def kind='lvalue' type-id='type-id-219' size-in-bits='64' hash='ee8930601944ea4b' id='type-id-220'/>
    <pointer-type-def type-id='type-id-219' size-in-bits='64' hash='5da9d5e840a38218' id='type-id-221'/>
    <reference-type-def kind='lvalue' type-id='type-id-218' size-in-bits='64' hash='965a7b80e74341a5' id='type-id-222'/>
    <pointer-type-def type-id='type-id-218' size-in-bits='64' hash='c60dfc2721f56a6a' id='type-id-223'/>
    <reference-type-def kind='lvalue' type-id='type-id-12' size-in-bits='64' hash='9aea6cbac7011671' id='type-id-224'/>
    <pointer-type-def type-id='type-id-12' size-in-bits='64' hash='7dc7769864df052f' id='type-id-225'/>
    <qualified-type-def type-id='type-id-225' const='yes' hash='fe152c8b87f00909' id='type-id-226'/>
    <reference-type-def kind='lvalue' type-id='type-id-72' size-in-bits='64' hash='4d43d6cd92caa290' id='type-id-75'/>
    <pointer-type-def type-id='type-id-72' size-in-bits='64' hash='914dbfaa72864160' id='type-id-74'/>
    <qualified-type-def type-id='type-id-74' const='yes' hash='fe41560a374f3643' id='type-id-227'/>
    <pointer-type-def type-id='type-id-109' size-in-bits='64' hash='fb9a8c973ae04ed8' id='type-id-228'/>
    <pointer-type-def type-id='type-id-228' size-in-bits='64' hash='f6157ba411f3141d' id='type-id-229'/>
    <pointer-type-def type-id='type-id-96' size-in-bits='64' id='type-id-85'/>
    <class-decl name='vtkAlgorithm' visibility='default' is-declaration-only='yes' id='type-id-230'>
      <member-function access='private' vtable-offset='24'>
        <function-decl name='GetInformation' mangled-name='_ZN12vtkAlgorithm14GetInformationEv' filepath='/tmp/legendre/spack-stage/spack-stage-R_crTC/VTK-6.1.0/Common/ExecutionModel/vtkAlgorithm.h' line='160' column='1' visibility='default' binding='global' size-in-bits='64' hash='7f32ffea222edbe7'>
          <parameter type-id='type-id-231' is-artificial='yes'/>
          <return type-id='type-id-27'/>
        </function-decl>
      </member-function>
      <member-function access='private' vtable-offset='26'>
        <function-decl name='SetAbortExecute' mangled-name='_ZN12vtkAlgorithm15SetAbortExecuteEi' filepath='/tmp/legendre/spack-stage/spack-stage-R_crTC/VTK-6.1.0/Common/ExecutionModel/vtkAlgorithm.h' line='179' column='1' visibility='default' binding='global' size-in-bits='64' hash='388da3fa973fde78'>
          <parameter type-id='type-id-231' is-artificial='yes'/>
          <parameter type-id='type-id-13' filepath='/tmp/legendre/spack-stage/spack-stage-R_crTC/VTK-6.1.0/Common/ExecutionModel/vtkAlgorithm.h' line='179' column='1'/>
          <return type-id='type-id-21'/>
        </function-decl>
      </member-function>
      <member-function access='private' vtable-offset='27'>
        <function-decl name='GetAbortExecute' mangled-name='_ZN12vtkAlgorithm15GetAbortExecuteEv' filepath='/tmp/legendre/spack-stage/spack-stage-R_crTC/VTK-6.1.0/Common/ExecutionModel/vtkAlgorithm.h' line='180' column='1' visibility='default' binding='global' size-in-bits='64' hash='388da3fa973fde78'>
          <parameter type-id='type-id-231' is-artificial='yes'/>
          <return type-id='type-id-13'/>
        </function-decl>
      </member-function>
      <member-function access='private' vtable-offset='28'>
        <function-decl name='AbortExecuteOn' mangled-name='_ZN12vtkAlgorithm14AbortExecuteOnEv' filepath='/tmp/legendre/spack-stage/spack-stage-R_crTC/VTK-6.1.0/Common/ExecutionModel/vtkAlgorithm.h' line='181' column='1' visibility='default' binding='global' size-in-bits='64' hash='7f32ffea222edbe7'>
          <parameter type-id='type-id-231' is-artificial='yes'/>
          <return type-id='type-id-21'/>
        </function-decl>
      </member-function>
      <member-function access='private' vtable-offset='29'>
        <function-decl name='AbortExecuteOff' mangled-name='_ZN12vtkAlgorithm15AbortExecuteOffEv' filepath='/tmp/legendre/spack-stage/spack-stage-R_crTC/VTK-6.1.0/Common/ExecutionModel/vtkAlgorithm.h' line='181' column='1' visibility='default' binding='global' size-in-bits='64' hash='7f32ffea222edbe7'>
          <parameter type-id='type-id-231' is-artificial='yes'/>
          <return type-id='type-id-21'/>
        </function-decl>
      </member-function>
      <member-function access='private' vtable-offset='30'>
        <function-decl name='SetProgress' mangled-name='_ZN12vtkAlgorithm11SetProgressEd' filepath='/tmp/legendre/spack-stage/spack-stage-R_crTC/VTK-6.1.0/Common/ExecutionModel/vtkAlgorithm.h' line='185' column='1' visibility='default' binding='global' size-in-bits='64' hash='14e245f4052d89de'>
          <parameter type-id='type-id-231' is-artificial='yes'/>
          <parameter type-id='type-id-16' filepath='/tmp/legendre/spack-stage/spack-stage-R_crTC/VTK-6.1.0/Common/ExecutionModel/vtkAlgorithm.h' line='185' column='1'/>
          <return type-id='type-id-21'/>
        </function-decl>
      </member-function>
      <member-function access='private' vtable-offset='31'>
        <function-decl name='GetProgressMinValue' mangled-name='_ZN12vtkAlgorithm19GetProgressMinValueEv' filepath='/tmp/legendre/spack-stage/spack-stage-R_crTC/VTK-6.1.0/Common/ExecutionModel/vtkAlgorithm.h' line='185' column='1' visibility='default' binding='global' size-in-bits='64' hash='14e245f4052d89de'>
          <parameter type-id='type-id-231' is-artificial='yes'/>
          <return type-id='type-id-16'/>
        </function-decl>
      </member-function>
      <member-function access='private' vtable-offset='32'>
        <function-decl name='GetProgressMaxValue' mangled-name='_ZN12vtkAlgorithm19GetProgressMaxValueEv' filepath='/tmp/legendre/spack-stage/spack-stage-R_crTC/VTK-6.1.0/Common/ExecutionModel/vtkAlgorithm.h' line='185' column='1' visibility='default' binding='global' size-in-bits='64' hash='14e245f4052d89de'>
          <parameter type-id='type-id-231' is-artificial='yes'/>
          <return type-id='type-id-16'/>
        </function-decl>
      </member-function>
      <member-function access='private' vtable-offset='33'>
        <function-decl name='GetProgress' mangled-name='_ZN12vtkAlgorithm11GetProgressEv' filepath='/tmp/legendre/spack-stage/spack-stage-R_crTC/VTK-6.1.0/Common/ExecutionModel/vtkAlgorithm.h' line='186' column='1' visibility='default' binding='global' size-in-bits='64' hash='14e245f4052d89de'>
          <parameter type-id='type-id-231' is-artificial='yes'/>
          <return type-id='type-id-16'/>
        </function-decl>
      </member-function>
      <member-function access='private' vtable-offset='34'>
        <function-decl name='GetProgressText' mangled-name='_ZN12vtkAlgorithm15GetProgressTextEv' filepath='/tmp/legendre/spack-stage/spack-stage-R_crTC/VTK-6.1.0/Common/ExecutionModel/vtkAlgorithm.h' line='201' column='1' visibility='default' binding='global' size-in-bits='64' hash='02a096d257a5e00d'>
          <parameter type-id='type-id-231' is-artificial='yes'/>
          <return type-id='type-id-81'/>
        </function-decl>
      </member-function>
      <member-function access='private' vtable-offset='35'>
        <function-decl name='GetErrorCode' mangled-name='_ZN12vtkAlgorithm12GetErrorCodeEv' filepath='/tmp/legendre/spack-stage/spack-stage-R_crTC/VTK-6.1.0/Common/ExecutionModel/vtkAlgorithm.h' line='206' column='1' visibility='default' binding='global' size-in-bits='64' hash='e0055d99adb0e173'>
          <parameter type-id='type-id-231' is-artificial='yes'/>
          <return type-id='type-id-4'/>
        </function-decl>
      </member-function>
      <member-function access='private' vtable-offset='48'>
        <function-decl name='SetInputDataObject' mangled-name='_ZN12vtkAlgorithm18SetInputDataObjectEP13vtkDataObject' filepath='/tmp/legendre/spack-stage/spack-stage-R_crTC/VTK-6.1.0/Common/ExecutionModel/vtkAlgorithm.h' line='338' column='1' visibility='default' binding='global' size-in-bits='64' hash='7f32ffea222edbe7'>
          <parameter type-id='type-id-231' is-artificial='yes'/>
          <parameter type-id='type-id-232' filepath='/tmp/legendre/spack-stage/spack-stage-R_crTC/VTK-6.1.0/Common/ExecutionModel/vtkAlgorithm.h' line='338' column='1'/>
          <return type-id='type-id-21'/>
        </function-decl>
      </member-function>
      <member-function access='private' vtable-offset='50'>
        <function-decl name='AddInputDataObject' mangled-name='_ZN12vtkAlgorithm18AddInputDataObjectEP13vtkDataObject' filepath='/tmp/legendre/spack-stage/spack-stage-R_crTC/VTK-6.1.0/Common/ExecutionModel/vtkAlgorithm.h' line='346' column='1' visibility='default' binding='global' size-in-bits='64' hash='7f32ffea222edbe7'>
          <parameter type-id='type-id-231' is-artificial='yes'/>
          <parameter type-id='type-id-232' filepath='/tmp/legendre/spack-stage/spack-stage-R_crTC/VTK-6.1.0/Common/ExecutionModel/vtkAlgorithm.h' line='338' column='1'/>
          <return type-id='type-id-21'/>
        </function-decl>
      </member-function>
      <member-function access='private' vtable-offset='59'>
        <function-decl name='GetProgressObserver' mangled-name='_ZN12vtkAlgorithm19GetProgressObserverEv' filepath='/tmp/legendre/spack-stage/spack-stage-R_crTC/VTK-6.1.0/Common/ExecutionModel/vtkAlgorithm.h' line='578' column='1' visibility='default' binding='global' size-in-bits='64' hash='7f32ffea222edbe7'>
          <parameter type-id='type-id-231' is-artificial='yes'/>
          <return type-id='type-id-233'/>
        </function-decl>
      </member-function>
      <member-function access='protected' vtable-offset='65'>
        <function-decl name='SetErrorCode' mangled-name='_ZN12vtkAlgorithm12SetErrorCodeEm' filepath='/tmp/legendre/spack-stage/spack-stage-R_crTC/VTK-6.1.0/Common/ExecutionModel/vtkAlgorithm.h' line='710' column='1' visibility='default' binding='global' size-in-bits='64' hash='e0055d99adb0e173'>
          <parameter type-id='type-id-231' is-artificial='yes'/>
          <parameter type-id='type-id-4' filepath='/tmp/legendre/spack-stage/spack-stage-R_crTC/VTK-6.1.0/Common/ExecutionModel/vtkAlgorithm.h' line='710' column='1'/>
          <return type-id='type-id-21'/>
        </function-decl>
      </member-function>
    </class-decl>
    <class-decl name='vtkDataArray' visibility='default' is-declaration-only='yes' id='type-id-234'/>
    <class-decl name='vtkDataArrayTemplate&lt;float&gt;' visibility='default' is-declaration-only='yes' id='type-id-235'/>
    <class-decl name='vtkDataObject' visibility='default' is-declaration-only='yes' id='type-id-236'/>
    <class-decl name='vtkDataSet' visibility='default' is-declaration-only='yes' id='type-id-237'/>
    <class-decl name='vtkExtentTranslator' visibility='default' is-declaration-only='yes' id='type-id-238'>
      <member-function access='private' vtable-offset='20'>
        <function-decl name='SetWholeExtent' mangled-name='_ZN19vtkExtentTranslator14SetWholeExtentEiiiiii' filepath='/tmp/legendre/spack-stage/spack-stage-R_crTC/VTK-6.1.0/Common/DataModel/vtkExtentTranslator.h' line='43' column='1' visibility='default' binding='global' size-in-bits='64' hash='37b5e264c3e68043'>
          <parameter type-id='type-id-239' is-artificial='yes'/>
          <parameter type-id='type-id-13' filepath='/tmp/legendre/spack-stage/spack-stage-R_crTC/VTK-6.1.0/Common/DataModel/vtkExtentTranslator.h' line='43' column='1'/>
          <parameter type-id='type-id-13' filepath='/tmp/legendre/spack-stage/spack-stage-R_crTC/VTK-6.1.0/Common/DataModel/vtkExtentTranslator.h' line='43' column='1'/>
          <parameter type-id='type-id-13' filepath='/tmp/legendre/spack-stage/spack-stage-R_crTC/VTK-6.1.0/Common/DataModel/vtkExtentTranslator.h' line='43' column='1'/>
          <parameter type-id='type-id-13' filepath='/tmp/legendre/spack-stage/spack-stage-R_crTC/VTK-6.1.0/Common/DataModel/vtkExtentTranslator.h' line='43' column='1'/>
          <parameter type-id='type-id-13' filepath='/tmp/legendre/spack-stage/spack-stage-R_crTC/VTK-6.1.0/Common/DataModel/vtkExtentTranslator.h' line='43' column='1'/>
          <parameter type-id='type-id-13' filepath='/tmp/legendre/spack-stage/spack-stage-R_crTC/VTK-6.1.0/Common/DataModel/vtkExtentTranslator.h' line='43' column='1'/>
          <return type-id='type-id-21'/>
        </function-decl>
      </member-function>
      <member-function access='private' vtable-offset='21'>
        <function-decl name='SetWholeExtent' mangled-name='_ZN19vtkExtentTranslator14SetWholeExtentEPi' filepath='/tmp/legendre/spack-stage/spack-stage-R_crTC/VTK-6.1.0/Common/DataModel/vtkExtentTranslator.h' line='43' column='1' visibility='default' binding='global' size-in-bits='64' hash='c0e4f5f42afc96e0'>
          <parameter type-id='type-id-239' is-artificial='yes'/>
          <parameter type-id='type-id-20' filepath='/tmp/legendre/spack-stage/spack-stage-R_crTC/VTK-6.1.0/Common/DataModel/vtkExtentTranslator.h' line='43' column='1'/>
          <return type-id='type-id-21'/>
        </function-decl>
      </member-function>
      <member-function access='private' vtable-offset='22'>
        <function-decl name='GetWholeExtent' mangled-name='_ZN19vtkExtentTranslator14GetWholeExtentEv' filepath='/tmp/legendre/spack-stage/spack-stage-R_crTC/VTK-6.1.0/Common/DataModel/vtkExtentTranslator.h' line='44' column='1' visibility='default' binding='global' size-in-bits='64' hash='c0e4f5f42afc96e0'>
          <parameter type-id='type-id-239' is-artificial='yes'/>
          <return type-id='type-id-20'/>
        </function-decl>
      </member-function>
      <member-function access='private' vtable-offset='23'>
        <function-decl name='GetWholeExtent' mangled-name='_ZN19vtkExtentTranslator14GetWholeExtentERiS0_S0_S0_S0_S0_' filepath='/tmp/legendre/spack-stage/spack-stage-R_crTC/VTK-6.1.0/Common/DataModel/vtkExtentTranslator.h' line='44' column='1' visibility='default' binding='global' size-in-bits='64' hash='54628893627f2e3f'>
          <parameter type-id='type-id-239' is-artificial='yes'/>
          <parameter type-id='type-id-189' filepath='/tmp/legendre/spack-stage/spack-stage-R_crTC/VTK-6.1.0/Common/DataModel/vtkExtentTranslator.h' line='44' column='1'/>
          <parameter type-id='type-id-189' filepath='/tmp/legendre/spack-stage/spack-stage-R_crTC/VTK-6.1.0/Common/DataModel/vtkExtentTranslator.h' line='44' column='1'/>
          <parameter type-id='type-id-189' filepath='/tmp/legendre/spack-stage/spack-stage-R_crTC/VTK-6.1.0/Common/DataModel/vtkExtentTranslator.h' line='44' column='1'/>
          <parameter type-id='type-id-189' filepath='/tmp/legendre/spack-stage/spack-stage-R_crTC/VTK-6.1.0/Common/DataModel/vtkExtentTranslator.h' line='44' column='1'/>
          <parameter type-id='type-id-189' filepath='/tmp/legendre/spack-stage/spack-stage-R_crTC/VTK-6.1.0/Common/DataModel/vtkExtentTranslator.h' line='44' column='1'/>
          <parameter type-id='type-id-189' filepath='/tmp/legendre/spack-stage/spack-stage-R_crTC/VTK-6.1.0/Common/DataModel/vtkExtentTranslator.h' line='44' column='1'/>
          <return type-id='type-id-21'/>
        </function-decl>
      </member-function>
      <member-function access='private' vtable-offset='24'>
        <function-decl name='GetWholeExtent' mangled-name='_ZN19vtkExtentTranslator14GetWholeExtentEPi' filepath='/tmp/legendre/spack-stage/spack-stage-R_crTC/VTK-6.1.0/Common/DataModel/vtkExtentTranslator.h' line='44' column='1' visibility='default' binding='global' size-in-bits='64' hash='c0e4f5f42afc96e0'>
          <parameter type-id='type-id-239' is-artificial='yes'/>
          <parameter type-id='type-id-20' filepath='/tmp/legendre/spack-stage/spack-stage-R_crTC/VTK-6.1.0/Common/DataModel/vtkExtentTranslator.h' line='43' column='1'/>
          <return type-id='type-id-21'/>
        </function-decl>
      </member-function>
      <member-function access='private' vtable-offset='25'>
        <function-decl name='SetExtent' mangled-name='_ZN19vtkExtentTranslator9SetExtentEiiiiii' filepath='/tmp/legendre/spack-stage/spack-stage-R_crTC/VTK-6.1.0/Common/DataModel/vtkExtentTranslator.h' line='45' column='1' visibility='default' binding='global' size-in-bits='64' hash='37b5e264c3e68043'>
          <parameter type-id='type-id-239' is-artificial='yes'/>
          <parameter type-id='type-id-13' filepath='/tmp/legendre/spack-stage/spack-stage-R_crTC/VTK-6.1.0/Common/DataModel/vtkExtentTranslator.h' line='43' column='1'/>
          <parameter type-id='type-id-13' filepath='/tmp/legendre/spack-stage/spack-stage-R_crTC/VTK-6.1.0/Common/DataModel/vtkExtentTranslator.h' line='43' column='1'/>
          <parameter type-id='type-id-13' filepath='/tmp/legendre/spack-stage/spack-stage-R_crTC/VTK-6.1.0/Common/DataModel/vtkExtentTranslator.h' line='43' column='1'/>
          <parameter type-id='type-id-13' filepath='/tmp/legendre/spack-stage/spack-stage-R_crTC/VTK-6.1.0/Common/DataModel/vtkExtentTranslator.h' line='43' column='1'/>
          <parameter type-id='type-id-13' filepath='/tmp/legendre/spack-stage/spack-stage-R_crTC/VTK-6.1.0/Common/DataModel/vtkExtentTranslator.h' line='43' column='1'/>
          <parameter type-id='type-id-13' filepath='/tmp/legendre/spack-stage/spack-stage-R_crTC/VTK-6.1.0/Common/DataModel/vtkExtentTranslator.h' line='43' column='1'/>
          <return type-id='type-id-21'/>
        </function-decl>
      </member-function>
      <member-function access='private' vtable-offset='26'>
        <function-decl name='SetExtent' mangled-name='_ZN19vtkExtentTranslator9SetExtentEPi' filepath='/tmp/legendre/spack-stage/spack-stage-R_crTC/VTK-6.1.0/Common/DataModel/vtkExtentTranslator.h' line='45' column='1' visibility='default' binding='global' size-in-bits='64' hash='c0e4f5f42afc96e0'>
          <parameter type-id='type-id-239' is-artificial='yes'/>
          <parameter type-id='type-id-20' filepath='/tmp/legendre/spack-stage/spack-stage-R_crTC/VTK-6.1.0/Common/DataModel/vtkExtentTranslator.h' line='43' column='1'/>
          <return type-id='type-id-21'/>
        </function-decl>
      </member-function>
      <member-function access='private' vtable-offset='27'>
        <function-decl name='GetExtent' mangled-name='_ZN19vtkExtentTranslator9GetExtentEv' filepath='/tmp/legendre/spack-stage/spack-stage-R_crTC/VTK-6.1.0/Common/DataModel/vtkExtentTranslator.h' line='46' column='1' visibility='default' binding='global' size-in-bits='64' hash='c0e4f5f42afc96e0'>
          <parameter type-id='type-id-239' is-artificial='yes'/>
          <return type-id='type-id-20'/>
        </function-decl>
      </member-function>
      <member-function access='private' vtable-offset='28'>
        <function-decl name='GetExtent' mangled-name='_ZN19vtkExtentTranslator9GetExtentERiS0_S0_S0_S0_S0_' filepath='/tmp/legendre/spack-stage/spack-stage-R_crTC/VTK-6.1.0/Common/DataModel/vtkExtentTranslator.h' line='46' column='1' visibility='default' binding='global' size-in-bits='64' hash='54628893627f2e3f'>
          <parameter type-id='type-id-239' is-artificial='yes'/>
          <parameter type-id='type-id-189' filepath='/tmp/legendre/spack-stage/spack-stage-R_crTC/VTK-6.1.0/Common/DataModel/vtkExtentTranslator.h' line='44' column='1'/>
          <parameter type-id='type-id-189' filepath='/tmp/legendre/spack-stage/spack-stage-R_crTC/VTK-6.1.0/Common/DataModel/vtkExtentTranslator.h' line='44' column='1'/>
          <parameter type-id='type-id-189' filepath='/tmp/legendre/spack-stage/spack-stage-R_crTC/VTK-6.1.0/Common/DataModel/vtkExtentTranslator.h' line='44' column='1'/>
          <parameter type-id='type-id-189' filepath='/tmp/legendre/spack-stage/spack-stage-R_crTC/VTK-6.1.0/Common/DataModel/vtkExtentTranslator.h' line='44' column='1'/>
          <parameter type-id='type-id-189' filepath='/tmp/legendre/spack-stage/spack-stage-R_crTC/VTK-6.1.0/Common/DataModel/vtkExtentTranslator.h' line='44' column='1'/>
          <parameter type-id='type-id-189' filepath='/tmp/legendre/spack-stage/spack-stage-R_crTC/VTK-6.1.0/Common/DataModel/vtkExtentTranslator.h' line='44' column='1'/>
          <return type-id='type-id-21'/>
        </function-decl>
      </member-function>
      <member-function access='private' vtable-offset='29'>
        <function-decl name='GetExtent' mangled-name='_ZN19vtkExtentTranslator9GetExtentEPi' filepath='/tmp/legendre/spack-stage/spack-stage-R_crTC/VTK-6.1.0/Common/DataModel/vtkExtentTranslator.h' line='46' column='1' visibility='default' binding='global' size-in-bits='64' hash='c0e4f5f42afc96e0'>
          <parameter type-id='type-id-239' is-artificial='yes'/>
          <parameter type-id='type-id-20' filepath='/tmp/legendre/spack-stage/spack-stage-R_crTC/VTK-6.1.0/Common/DataModel/vtkExtentTranslator.h' line='43' column='1'/>
          <return type-id='type-id-21'/>
        </function-decl>
      </member-function>
      <member-function access='private' vtable-offset='30'>
        <function-decl name='SetPiece' mangled-name='_ZN19vtkExtentTranslator8SetPieceEi' filepath='/tmp/legendre/spack-stage/spack-stage-R_crTC/VTK-6.1.0/Common/DataModel/vtkExtentTranslator.h' line='47' column='1' visibility='default' binding='global' size-in-bits='64' hash='388da3fa973fde78'>
          <parameter type-id='type-id-239' is-artificial='yes'/>
          <parameter type-id='type-id-13' filepath='/tmp/legendre/spack-stage/spack-stage-R_crTC/VTK-6.1.0/Common/DataModel/vtkExtentTranslator.h' line='47' column='1'/>
          <return type-id='type-id-21'/>
        </function-decl>
      </member-function>
      <member-function access='private' vtable-offset='31'>
        <function-decl name='GetPiece' mangled-name='_ZN19vtkExtentTranslator8GetPieceEv' filepath='/tmp/legendre/spack-stage/spack-stage-R_crTC/VTK-6.1.0/Common/DataModel/vtkExtentTranslator.h' line='48' column='1' visibility='default' binding='global' size-in-bits='64' hash='388da3fa973fde78'>
          <parameter type-id='type-id-239' is-artificial='yes'/>
          <return type-id='type-id-13'/>
        </function-decl>
      </member-function>
      <member-function access='private' vtable-offset='32'>
        <function-decl name='SetNumberOfPieces' mangled-name='_ZN19vtkExtentTranslator17SetNumberOfPiecesEi' filepath='/tmp/legendre/spack-stage/spack-stage-R_crTC/VTK-6.1.0/Common/DataModel/vtkExtentTranslator.h' line='49' column='1' visibility='default' binding='global' size-in-bits='64' hash='388da3fa973fde78'>
          <parameter type-id='type-id-239' is-artificial='yes'/>
          <parameter type-id='type-id-13' filepath='/tmp/legendre/spack-stage/spack-stage-R_crTC/VTK-6.1.0/Common/DataModel/vtkExtentTranslator.h' line='47' column='1'/>
          <return type-id='type-id-21'/>
        </function-decl>
      </member-function>
      <member-function access='private' vtable-offset='33'>
        <function-decl name='GetNumberOfPieces' mangled-name='_ZN19vtkExtentTranslator17GetNumberOfPiecesEv' filepath='/tmp/legendre/spack-stage/spack-stage-R_crTC/VTK-6.1.0/Common/DataModel/vtkExtentTranslator.h' line='50' column='1' visibility='default' binding='global' size-in-bits='64' hash='388da3fa973fde78'>
          <parameter type-id='type-id-239' is-artificial='yes'/>
          <return type-id='type-id-13'/>
        </function-decl>
      </member-function>
      <member-function access='private' vtable-offset='34'>
        <function-decl name='SetGhostLevel' mangled-name='_ZN19vtkExtentTranslator13SetGhostLevelEi' filepath='/tmp/legendre/spack-stage/spack-stage-R_crTC/VTK-6.1.0/Common/DataModel/vtkExtentTranslator.h' line='51' column='1' visibility='default' binding='global' size-in-bits='64' hash='388da3fa973fde78'>
          <parameter type-id='type-id-239' is-artificial='yes'/>
          <parameter type-id='type-id-13' filepath='/tmp/legendre/spack-stage/spack-stage-R_crTC/VTK-6.1.0/Common/DataModel/vtkExtentTranslator.h' line='47' column='1'/>
          <return type-id='type-id-21'/>
        </function-decl>
      </member-function>
      <member-function access='private' vtable-offset='35'>
        <function-decl name='GetGhostLevel' mangled-name='_ZN19vtkExtentTranslator13GetGhostLevelEv' filepath='/tmp/legendre/spack-stage/spack-stage-R_crTC/VTK-6.1.0/Common/DataModel/vtkExtentTranslator.h' line='52' column='1' visibility='default' binding='global' size-in-bits='64' hash='388da3fa973fde78'>
          <parameter type-id='type-id-239' is-artificial='yes'/>
          <return type-id='type-id-13'/>
        </function-decl>
      </member-function>
      <member-function access='private' vtable-offset='39'>
        <function-decl name='GetSplitMode' mangled-name='_ZN19vtkExtentTranslator12GetSplitModeEv' filepath='/tmp/legendre/spack-stage/spack-stage-R_crTC/VTK-6.1.0/Common/DataModel/vtkExtentTranslator.h' line='83' column='1' visibility='default' binding='global' size-in-bits='64' hash='388da3fa973fde78'>
          <parameter type-id='type-id-239' is-artificial='yes'/>
          <return type-id='type-id-13'/>
        </function-decl>
      </member-function>
    </class-decl>
    <class-decl name='vtkImageAlgorithm' visibility='default' is-declaration-only='yes' id='type-id-11'/>
    <class-decl name='vtkImageData' visibility='default' is-declaration-only='yes' id='type-id-240'/>
    <class-decl name='vtkImageDataLIC2DExtentTranslator' visibility='default' size-in-bits='1344' filepath='/tmp/legendre/spack-stage/spack-stage-R_crTC/VTK-6.1.0/Rendering/LIC/vtkImageDataLIC2DExtentTranslator.h' line='32' column='1' hash='3c8c0f7ac97661fe' id='type-id-214'>
      <base-class access='public' layout-offset-in-bits='0' type-id='type-id-241'/>
      <data-member access='protected' layout-offset-in-bits='992'>
        <var-decl name='InputWholeExtent' type-id='type-id-242' visibility='default' filepath='/tmp/legendre/spack-stage/spack-stage-R_crTC/VTK-6.1.0/Rendering/LIC/vtkImageDataLIC2DExtentTranslator.h' line='65' column='1'/>
      </data-member>
      <data-member access='protected' layout-offset-in-bits='1216'>
        <var-decl name='InputExtentTranslator' type-id='type-id-239' visibility='default' filepath='/tmp/legendre/spack-stage/spack-stage-R_crTC/VTK-6.1.0/Rendering/LIC/vtkImageDataLIC2DExtentTranslator.h' line='66' column='1'/>
      </data-member>
      <data-member access='protected' layout-offset-in-bits='1280'>
        <var-decl name='Algorithm' type-id='type-id-243' visibility='default' filepath='/tmp/legendre/spack-stage/spack-stage-R_crTC/VTK-6.1.0/Rendering/LIC/vtkImageDataLIC2DExtentTranslator.h' line='67' column='1'/>
      </data-member>
      <member-function access='private'>
        <function-decl name='SetInputExtentTranslator' mangled-name='_ZN33vtkImageDataLIC2DExtentTranslator24SetInputExtentTranslatorEP19vtkExtentTranslator' filepath='/tmp/legendre/spack-stage/spack-stage-R_crTC/VTK-6.1.0/Rendering/LIC/vtkImageDataLIC2DExtentTranslator.cxx' line='24' column='1' visibility='default' binding='global' size-in-bits='64' elf-symbol-id='_ZN33vtkImageDataLIC2DExtentTranslator24SetInputExtentTranslatorEP19vtkExtentTranslator' hash='7f32ffea222edbe7'>
          <parameter type-id='type-id-215' is-artificial='yes'/>
          <parameter type-id='type-id-239' filepath='/tmp/legendre/spack-stage/spack-stage-R_crTC/VTK-6.1.0/Rendering/LIC/vtkImageDataLIC2DExtentTranslator.cxx' line='24' column='1'/>
          <return type-id='type-id-21'/>
        </function-decl>
      </member-function>
      <member-function access='private'>
        <function-decl name='GetAlgorithm' mangled-name='_ZN33vtkImageDataLIC2DExtentTranslator12GetAlgorithmEv' filepath='/tmp/legendre/spack-stage/spack-stage-R_crTC/VTK-6.1.0/Rendering/LIC/vtkImageDataLIC2DExtentTranslator.cxx' line='60' column='1' visibility='default' binding='global' size-in-bits='64' elf-symbol-id='_ZN33vtkImageDataLIC2DExtentTranslator12GetAlgorithmEv' hash='aa9646e9ffdb061a'>
          <parameter type-id='type-id-215' is-artificial='yes'/>
          <return type-id='type-id-17'/>
        </function-decl>
      </member-function>
      <member-function access='private'>
        <function-decl name='SetAlgorithm' mangled-name='_ZN33vtkImageDataLIC2DExtentTranslator12SetAlgorithmEP17vtkImageDataLIC2D' filepath='/tmp/legendre/spack-stage/spack-stage-R_crTC/VTK-6.1.0/Rendering/LIC/vtkImageDataLIC2DExtentTranslator.cxx' line='49' column='1' visibility='default' binding='global' size-in-bits='64' elf-symbol-id='_ZN33vtkImageDataLIC2DExtentTranslator12SetAlgorithmEP17vtkImageDataLIC2D' hash='aa9646e9ffdb061a'>
          <parameter type-id='type-id-215' is-artificial='yes'/>
          <parameter type-id='type-id-17' filepath='/tmp/legendre/spack-stage/spack-stage-R_crTC/VTK-6.1.0/Rendering/LIC/vtkImageDataLIC2DExtentTranslator.cxx' line='50' column='1'/>
          <return type-id='type-id-21'/>
        </function-decl>
      </member-function>
      <member-function access='protected' constructor='yes'>
        <function-decl name='vtkImageDataLIC2DExtentTranslator' mangled-name='_ZN33vtkImageDataLIC2DExtentTranslatorC1Ev' filepath='/tmp/legendre/spack-stage/spack-stage-R_crTC/VTK-6.1.0/Rendering/LIC/vtkImageDataLIC2DExtentTranslator.cxx' line='30' column='1' visibility='default' binding='global' size-in-bits='64' elf-symbol-id='_ZN33vtkImageDataLIC2DExtentTranslatorC1Ev' hash='7f32ffea222edbe7'>
          <parameter type-id='type-id-215' is-artificial='yes'/>
          <return type-id='type-id-21'/>
        </function-decl>
      </member-function>
      <member-function access='private' static='yes'>
        <function-decl name='New' mangled-name='_ZN33vtkImageDataLIC2DExtentTranslator3NewEv' filepath='/tmp/legendre/spack-stage/spack-stage-R_crTC/VTK-6.1.0/Rendering/LIC/vtkImageDataLIC2DExtentTranslator.cxx' line='21' column='1' visibility='default' binding='global' size-in-bits='64' elf-symbol-id='_ZN33vtkImageDataLIC2DExtentTranslator3NewEv' hash='629c7f199b8f77da'>
          <return type-id='type-id-215'/>
        </function-decl>
      </member-function>
      <member-function access='protected' destructor='yes' vtable-offset='-1'>
        <function-decl name='~vtkImageDataLIC2DExtentTranslator' filepath='/tmp/legendre/spack-stage/spack-stage-R_crTC/VTK-6.1.0/Rendering/LIC/vtkImageDataLIC2DExtentTranslator.cxx' line='43' column='1' visibility='default' binding='global' size-in-bits='64' hash='388da3fa973fde78'>
          <parameter type-id='type-id-215' is-artificial='yes'/>
          <parameter type-id='type-id-13' is-artificial='yes'/>
          <return type-id='type-id-21'/>
        </function-decl>
      </member-function>
      <member-function access='protected' destructor='yes' vtable-offset='-1'>
        <function-decl name='~vtkImageDataLIC2DExtentTranslator' mangled-name='_ZN33vtkImageDataLIC2DExtentTranslatorD0Ev' filepath='/tmp/legendre/spack-stage/spack-stage-R_crTC/VTK-6.1.0/Rendering/LIC/vtkImageDataLIC2DExtentTranslator.cxx' line='43' column='1' visibility='default' binding='global' size-in-bits='64' elf-symbol-id='_ZN33vtkImageDataLIC2DExtentTranslatorD0Ev' hash='7f32ffea222edbe7'>
          <parameter type-id='type-id-215' is-artificial='yes'/>
          <return type-id='type-id-21'/>
        </function-decl>
      </member-function>
      <member-function access='protected' destructor='yes' vtable-offset='-1'>
        <function-decl name='~vtkImageDataLIC2DExtentTranslator' mangled-name='_ZN33vtkImageDataLIC2DExtentTranslatorD1Ev' filepath='/tmp/legendre/spack-stage/spack-stage-R_crTC/VTK-6.1.0/Rendering/LIC/vtkImageDataLIC2DExtentTranslator.cxx' line='43' column='1' visibility='default' binding='global' size-in-bits='64' elf-symbol-id='_ZN33vtkImageDataLIC2DExtentTranslatorD1Ev' hash='7f32ffea222edbe7'>
          <parameter type-id='type-id-215' is-artificial='yes'/>
          <return type-id='type-id-21'/>
        </function-decl>
      </member-function>
      <member-function access='private' const='yes' vtable-offset='0'>
        <function-decl name='GetClassNameInternal' mangled-name='_ZNK33vtkImageDataLIC2DExtentTranslator20GetClassNameInternalEv' filepath='/tmp/legendre/spack-stage/spack-stage-R_crTC/VTK-6.1.0/Rendering/LIC/vtkImageDataLIC2DExtentTranslator.h' line='35' column='1' visibility='default' binding='global' size-in-bits='64' hash='53885bde0aa65efe'>
          <parameter type-id='type-id-244' is-artificial='yes'/>
          <return type-id='type-id-23'/>
        </function-decl>
      </member-function>
      <member-function access='private' vtable-offset='1'>
        <function-decl name='IsA' mangled-name='_ZN33vtkImageDataLIC2DExtentTranslator3IsAEPKc' filepath='/tmp/legendre/spack-stage/spack-stage-R_crTC/VTK-6.1.0/Rendering/LIC/vtkImageDataLIC2DExtentTranslator.h' line='35' column='1' visibility='default' binding='global' size-in-bits='64' hash='e9ea91a7eab8302c'>
          <parameter type-id='type-id-215' is-artificial='yes'/>
          <parameter type-id='type-id-23'/>
          <return type-id='type-id-13'/>
        </function-decl>
      </member-function>
      <member-function access='private' vtable-offset='4'>
        <function-decl name='PrintSelf' mangled-name='_ZN33vtkImageDataLIC2DExtentTranslator9PrintSelfERSo9vtkIndent' filepath='/tmp/legendre/spack-stage/spack-stage-R_crTC/VTK-6.1.0/Rendering/LIC/vtkImageDataLIC2DExtentTranslator.cxx' line='107' column='1' visibility='default' binding='global' size-in-bits='64' elf-symbol-id='_ZN33vtkImageDataLIC2DExtentTranslator9PrintSelfERSo9vtkIndent' hash='7f32ffea222edbe7'>
          <parameter type-id='type-id-215' is-artificial='yes'/>
          <parameter type-id='type-id-24'/>
          <parameter type-id='type-id-25'/>
          <return type-id='type-id-21'/>
        </function-decl>
      </member-function>
      <member-function access='protected' const='yes' vtable-offset='15'>
        <function-decl name='NewInstanceInternal' mangled-name='_ZNK33vtkImageDataLIC2DExtentTranslator19NewInstanceInternalEv' filepath='/tmp/legendre/spack-stage/spack-stage-R_crTC/VTK-6.1.0/Rendering/LIC/vtkImageDataLIC2DExtentTranslator.h' line='35' column='1' visibility='default' binding='global' size-in-bits='64' hash='7f32ffea222edbe7'>
          <parameter type-id='type-id-244' is-artificial='yes'/>
          <return type-id='type-id-245'/>
        </function-decl>
      </member-function>
      <member-function access='private' vtable-offset='38'>
        <function-decl name='PieceToExtentThreadSafe' mangled-name='_ZN33vtkImageDataLIC2DExtentTranslator23PieceToExtentThreadSafeEiiiPiS0_ii' filepath='/tmp/legendre/spack-stage/spack-stage-R_crTC/VTK-6.1.0/Rendering/LIC/vtkImageDataLIC2DExtentTranslator.cxx' line='66' column='1' visibility='default' binding='global' size-in-bits='64' elf-symbol-id='_ZN33vtkImageDataLIC2DExtentTranslator23PieceToExtentThreadSafeEiiiPiS0_ii' hash='900b564c0575ecb2'>
          <parameter type-id='type-id-215' is-artificial='yes'/>
          <parameter type-id='type-id-13'/>
          <parameter type-id='type-id-13'/>
          <parameter type-id='type-id-13'/>
          <parameter type-id='type-id-20'/>
          <parameter type-id='type-id-20'/>
          <parameter type-id='type-id-13'/>
          <parameter type-id='type-id-13'/>
          <return type-id='type-id-13'/>
        </function-decl>
      </member-function>
      <member-function access='private' vtable-offset='40'>
        <function-decl name='GetInputExtentTranslator' mangled-name='_ZN33vtkImageDataLIC2DExtentTranslator24GetInputExtentTranslatorEv' filepath='/tmp/legendre/spack-stage/spack-stage-R_crTC/VTK-6.1.0/Rendering/LIC/vtkImageDataLIC2DExtentTranslator.h' line='46' column='1' visibility='default' binding='global' size-in-bits='64' hash='7f32ffea222edbe7'>
          <parameter type-id='type-id-215' is-artificial='yes'/>
          <return type-id='type-id-239'/>
        </function-decl>
      </member-function>
      <member-function access='private' vtable-offset='41'>
        <function-decl name='SetInputWholeExtent' mangled-name='_ZN33vtkImageDataLIC2DExtentTranslator19SetInputWholeExtentEiiiiii' filepath='/tmp/legendre/spack-stage/spack-stage-R_crTC/VTK-6.1.0/Rendering/LIC/vtkImageDataLIC2DExtentTranslator.h' line='48' column='1' visibility='default' binding='global' size-in-bits='64' hash='37b5e264c3e68043'>
          <parameter type-id='type-id-215' is-artificial='yes'/>
          <parameter type-id='type-id-13'/>
          <parameter type-id='type-id-13'/>
          <parameter type-id='type-id-13'/>
          <parameter type-id='type-id-13'/>
          <parameter type-id='type-id-13'/>
          <parameter type-id='type-id-13'/>
          <return type-id='type-id-21'/>
        </function-decl>
      </member-function>
      <member-function access='private' vtable-offset='42'>
        <function-decl name='SetInputWholeExtent' mangled-name='_ZN33vtkImageDataLIC2DExtentTranslator19SetInputWholeExtentEPi' filepath='/tmp/legendre/spack-stage/spack-stage-R_crTC/VTK-6.1.0/Rendering/LIC/vtkImageDataLIC2DExtentTranslator.h' line='48' column='1' visibility='default' binding='global' size-in-bits='64' hash='c0e4f5f42afc96e0'>
          <parameter type-id='type-id-215' is-artificial='yes'/>
          <parameter type-id='type-id-20'/>
          <return type-id='type-id-21'/>
        </function-decl>
      </member-function>
      <member-function access='private' vtable-offset='43'>
        <function-decl name='GetInputWholeExtent' mangled-name='_ZN33vtkImageDataLIC2DExtentTranslator19GetInputWholeExtentEv' filepath='/tmp/legendre/spack-stage/spack-stage-R_crTC/VTK-6.1.0/Rendering/LIC/vtkImageDataLIC2DExtentTranslator.h' line='49' column='1' visibility='default' binding='global' size-in-bits='64' hash='c0e4f5f42afc96e0'>
          <parameter type-id='type-id-215' is-artificial='yes'/>
          <return type-id='type-id-20'/>
        </function-decl>
      </member-function>
      <member-function access='private' vtable-offset='44'>
        <function-decl name='GetInputWholeExtent' mangled-name='_ZN33vtkImageDataLIC2DExtentTranslator19GetInputWholeExtentERiS0_S0_S0_S0_S0_' filepath='/tmp/legendre/spack-stage/spack-stage-R_crTC/VTK-6.1.0/Rendering/LIC/vtkImageDataLIC2DExtentTranslator.h' line='49' column='1' visibility='default' binding='global' size-in-bits='64' hash='54628893627f2e3f'>
          <parameter type-id='type-id-215' is-artificial='yes'/>
          <parameter type-id='type-id-189'/>
          <parameter type-id='type-id-189'/>
          <parameter type-id='type-id-189'/>
          <parameter type-id='type-id-189'/>
          <parameter type-id='type-id-189'/>
          <parameter type-id='type-id-189'/>
          <return type-id='type-id-21'/>
        </function-decl>
      </member-function>
      <member-function access='private' vtable-offset='45'>
        <function-decl name='GetInputWholeExtent' mangled-name='_ZN33vtkImageDataLIC2DExtentTranslator19GetInputWholeExtentEPi' filepath='/tmp/legendre/spack-stage/spack-stage-R_crTC/VTK-6.1.0/Rendering/LIC/vtkImageDataLIC2DExtentTranslator.h' line='49' column='1' visibility='default' binding='global' size-in-bits='64' hash='c0e4f5f42afc96e0'>
          <parameter type-id='type-id-215' is-artificial='yes'/>
          <parameter type-id='type-id-20'/>
          <return type-id='type-id-21'/>
        </function-decl>
      </member-function>
    </class-decl>
    <class-decl name='vtkImageNoiseSource' visibility='default' is-declaration-only='yes' id='type-id-246'/>
    <class-decl name='vtkInformationVector' visibility='default' is-declaration-only='yes' id='type-id-247'/>
    <class-decl name='vtkOStreamWrapper' visibility='default' is-declaration-only='yes' id='type-id-248'>
      <member-type access='private'>
        <class-decl name='EndlType' is-struct='yes' visibility='default' size-in-bits='8' filepath='/tmp/legendre/spack-stage/spack-stage-R_crTC/VTK-6.1.0/Common/Core/vtkOStreamWrapper.h' line='58' column='1' hash='901437817b260300' id='type-id-169'/>
      </member-type>
    </class-decl>
    <class-decl name='vtkObject' visibility='default' is-declaration-only='yes' id='type-id-249'/>
    <class-decl name='vtkObjectBase' visibility='default' is-declaration-only='yes' id='type-id-250'>
      <member-function access='protected' vtable-offset='11'>
        <function-decl name='CollectRevisions' mangled-name='_ZN13vtkObjectBase16CollectRevisionsERSo' filepath='/tmp/legendre/spack-stage/spack-stage-R_crTC/VTK-6.1.0/Common/Core/vtkObjectBase.h' line='163' column='1' visibility='default' binding='global' size-in-bits='64' hash='7f32ffea222edbe7'>
          <parameter type-id='type-id-26' is-artificial='yes'/>
          <parameter type-id='type-id-24'/>
          <return type-id='type-id-21'/>
        </function-decl>
      </member-function>
    </class-decl>
    <class-decl name='vtkOpenGLRenderWindow' visibility='default' is-declaration-only='yes' id='type-id-251'/>
    <class-decl name='vtkPixelBufferObject' visibility='default' is-declaration-only='yes' id='type-id-252'/>
    <class-decl name='vtkPointData' visibility='default' is-declaration-only='yes' id='type-id-253'/>
    <class-decl name='vtkShaderProgram2' visibility='default' is-declaration-only='yes' id='type-id-254'/>
    <class-decl name='vtkTextureObject' visibility='default' is-declaration-only='yes' id='type-id-255'/>
    <qualified-type-def type-id='type-id-256' const='yes' id='type-id-257'/>
    <pointer-type-def type-id='type-id-257' size-in-bits='64' id='type-id-258'/>
    <qualified-type-def type-id='type-id-258' const='yes' id='type-id-259'/>
    <namespace-decl name='std'>
      <class-decl name='_Deque_base&lt;vtkPixelExtent, std::allocator&lt;vtkPixelExtent&gt; &gt;' visibility='default' size-in-bits='640' filepath='/usr/lib/gcc/x86_64-redhat-linux/4.4.7/../../../../include/c++/4.4.7/bits/stl_deque.h' line='362' column='1' hash='be8c313177761bbf#2' id='type-id-138'>
        <member-type access='protected'>
          <enum-decl name='__anonymous_enum__' size-in-bits='32' alignment-in-bits='32' is-anonymous='yes' filepath='/usr/lib/gcc/x86_64-redhat-linux/4.4.7/../../../../include/c++/4.4.7/bits/stl_deque.h' line='465' column='1' hash='c7ef7270c0c5d9d1#5' id='type-id-260'>
            <underlying-type type-id='type-id-108'/>
            <enumerator name='_S_initial_map_size' value='8'/>
          </enum-decl>
        </member-type>
        <member-type access='protected'>
          <class-decl name='_Deque_impl' is-struct='yes' visibility='default' size-in-bits='640' filepath='/usr/lib/gcc/x86_64-redhat-linux/4.4.7/../../../../include/c++/4.4.7/bits/stl_deque.h' line='412' column='1' hash='38238f65fae5eacd' id='type-id-194'>
            <base-class access='public' layout-offset-in-bits='0' type-id='type-id-149'/>
            <data-member access='public' layout-offset-in-bits='0'>
              <var-decl name='_M_map' type-id='type-id-223' visibility='default' filepath='/usr/lib/gcc/x86_64-redhat-linux/4.4.7/../../../../include/c++/4.4.7/bits/stl_deque.h' line='413' column='1'/>
            </data-member>
            <data-member access='public' layout-offset-in-bits='64'>
              <var-decl name='_M_map_size' type-id='type-id-86' visibility='default' filepath='/usr/lib/gcc/x86_64-redhat-linux/4.4.7/../../../../include/c++/4.4.7/bits/stl_deque.h' line='414' column='1'/>
            </data-member>
            <data-member access='public' layout-offset-in-bits='128'>
              <var-decl name='_M_start' type-id='type-id-142' visibility='default' filepath='/usr/lib/gcc/x86_64-redhat-linux/4.4.7/../../../../include/c++/4.4.7/bits/stl_deque.h' line='415' column='1'/>
            </data-member>
            <data-member access='public' layout-offset-in-bits='384'>
              <var-decl name='_M_finish' type-id='type-id-142' visibility='default' filepath='/usr/lib/gcc/x86_64-redhat-linux/4.4.7/../../../../include/c++/4.4.7/bits/stl_deque.h' line='416' column='1'/>
            </data-member>
          </class-decl>
        </member-type>
        <data-member access='protected' layout-offset-in-bits='0'>
          <var-decl name='_M_impl' type-id='type-id-194' visibility='default' filepath='/usr/lib/gcc/x86_64-redhat-linux/4.4.7/../../../../include/c++/4.4.7/bits/stl_deque.h' line='467' column='1'/>
        </data-member>
        <member-function access='protected'>
          <function-decl name='_M_initialize_map' mangled-name='_ZNSt11_Deque_baseI14vtkPixelExtentSaIS0_EE17_M_initialize_mapEm' filepath='/usr/lib/gcc/x86_64-redhat-linux/4.4.7/../../../../include/c++/4.4.7/bits/stl_deque.h' line='492' column='1' visibility='default' binding='global' size-in-bits='64' elf-symbol-id='_ZNSt11_Deque_baseI14vtkPixelExtentSaIS0_EE17_M_initialize_mapEm' hash='e0055d99adb0e173'>
            <parameter type-id='type-id-192' is-artificial='yes'/>
            <parameter type-id='type-id-86' filepath='/usr/lib/gcc/x86_64-redhat-linux/4.4.7/../../../../include/c++/4.4.7/bits/stl_deque.h' line='493' column='1'/>
            <return type-id='type-id-21'/>
          </function-decl>
        </member-function>
        <member-function access='private' destructor='yes'>
          <function-decl name='~_Deque_base' mangled-name='_ZNSt11_Deque_baseI14vtkPixelExtentSaIS0_EED1Ev' filepath='/usr/lib/gcc/x86_64-redhat-linux/4.4.7/../../../../include/c++/4.4.7/bits/stl_deque.h' line='471' column='1' visibility='default' binding='global' size-in-bits='64' elf-symbol-id='_ZNSt11_Deque_baseI14vtkPixelExtentSaIS0_EED1Ev' hash='7f32ffea222edbe7'>
            <parameter type-id='type-id-192' is-artificial='yes'/>
            <return type-id='type-id-21'/>
          </function-decl>
        </member-function>
        <member-function access='private' destructor='yes'>
          <function-decl name='~_Deque_base' mangled-name='_ZNSt11_Deque_baseI14vtkPixelExtentSaIS0_EED1Ev' filepath='/usr/lib/gcc/x86_64-redhat-linux/4.4.7/../../../../include/c++/4.4.7/bits/stl_deque.h' line='471' column='1' visibility='default' binding='global' size-in-bits='64' elf-symbol-id='_ZNSt11_Deque_baseI14vtkPixelExtentSaIS0_EED1Ev' hash='7f32ffea222edbe7'>
            <parameter type-id='type-id-192' is-artificial='yes'/>
            <return type-id='type-id-21'/>
          </function-decl>
        </member-function>
        <member-function access='private' destructor='yes'>
          <function-decl name='~_Deque_base' mangled-name='_ZNSt11_Deque_baseI14vtkPixelExtentSaIS0_EED1Ev' filepath='/usr/lib/gcc/x86_64-redhat-linux/4.4.7/../../../../include/c++/4.4.7/bits/stl_deque.h' line='471' column='1' visibility='default' binding='global' size-in-bits='64' elf-symbol-id='_ZNSt11_Deque_baseI14vtkPixelExtentSaIS0_EED1Ev' hash='7f32ffea222edbe7'>
            <parameter type-id='type-id-192' is-artificial='yes'/>
            <return type-id='type-id-21'/>
          </function-decl>
        </member-function>
        <member-function access='private' destructor='yes'>
          <function-decl name='~_Deque_base' mangled-name='_ZNSt11_Deque_baseI14vtkPixelExtentSaIS0_EED1Ev' filepath='/usr/lib/gcc/x86_64-redhat-linux/4.4.7/../../../../include/c++/4.4.7/bits/stl_deque.h' line='471' column='1' visibility='default' binding='global' size-in-bits='64' elf-symbol-id='_ZNSt11_Deque_baseI14vtkPixelExtentSaIS0_EED1Ev' hash='7f32ffea222edbe7'>
            <parameter type-id='type-id-192' is-artificial='yes'/>
            <return type-id='type-id-21'/>
          </function-decl>
        </member-function>
      </class-decl>
      <class-decl name='allocator&lt;vtkPixelExtent*&gt;' visibility='default' size-in-bits='8' filepath='/usr/lib/gcc/x86_64-redhat-linux/4.4.7/../../../../include/c++/4.4.7/bits/allocator.h' line='87' column='1' hash='939a107509fd208f' id='type-id-146'>
        <base-class access='public' layout-offset-in-bits='0' type-id='type-id-112'/>
      </class-decl>
      <class-decl name='allocator&lt;vtkPixelExtent&gt;' visibility='default' size-in-bits='8' filepath='/usr/lib/gcc/x86_64-redhat-linux/4.4.7/../../../../include/c++/4.4.7/bits/allocator.h' line='87' column='1' hash='fe0ed4fc2485da85#2' id='type-id-149'>
        <base-class access='public' layout-offset-in-bits='0' type-id='type-id-115'/>
      </class-decl>
      <class-decl name='deque&lt;vtkPixelExtent, std::allocator&lt;vtkPixelExtent&gt; &gt;' visibility='default' size-in-bits='640' filepath='/usr/lib/gcc/x86_64-redhat-linux/4.4.7/../../../../include/c++/4.4.7/bits/stl_deque.h' line='639' column='1' hash='717f7f6af8699eba' id='type-id-159'>
        <base-class access='protected' layout-offset-in-bits='0' type-id='type-id-138'/>
        <member-function access='protected'>
          <function-decl name='_M_reallocate_map' mangled-name='_ZNSt5dequeI14vtkPixelExtentSaIS0_EE17_M_reallocate_mapEmb' filepath='/usr/lib/gcc/x86_64-redhat-linux/4.4.7/../../../../include/c++/4.4.7/bits/deque.tcc' line='795' column='1' visibility='default' binding='global' size-in-bits='64' elf-symbol-id='_ZNSt5dequeI14vtkPixelExtentSaIS0_EE17_M_reallocate_mapEmb' hash='56b9f7db394503ce'>
            <parameter type-id='type-id-207' is-artificial='yes'/>
            <parameter type-id='type-id-86' filepath='/usr/lib/gcc/x86_64-redhat-linux/4.4.7/../../../../include/c++/4.4.7/bits/deque.tcc' line='796' column='1'/>
            <parameter type-id='type-id-1' filepath='/usr/lib/gcc/x86_64-redhat-linux/4.4.7/../../../../include/c++/4.4.7/bits/deque.tcc' line='796' column='1'/>
            <return type-id='type-id-21'/>
          </function-decl>
        </member-function>
        <member-function access='private'>
          <function-decl name='deque' mangled-name='_ZNSt5dequeI14vtkPixelExtentSaIS0_EEC2ERKS2_' filepath='/usr/lib/gcc/x86_64-redhat-linux/4.4.7/../../../../include/c++/4.4.7/bits/stl_deque.h' line='722' column='1' declared-inline='yes' visibility='default' binding='global' size-in-bits='64' elf-symbol-id='_ZNSt5dequeI14vtkPixelExtentSaIS0_EEC2ERKS2_' hash='9f8026158f06a017'>
            <parameter type-id='type-id-207' is-artificial='yes'/>
            <parameter type-id='type-id-161'/>
            <return type-id='type-id-21'/>
          </function-decl>
        </member-function>
        <member-function access='protected'>
          <function-decl name='_M_new_elements_at_back' mangled-name='_ZNSt5dequeI14vtkPixelExtentSaIS0_EE23_M_new_elements_at_backEm' filepath='/usr/lib/gcc/x86_64-redhat-linux/4.4.7/../../../../include/c++/4.4.7/bits/deque.tcc' line='770' column='1' visibility='default' binding='global' size-in-bits='64' elf-symbol-id='_ZNSt5dequeI14vtkPixelExtentSaIS0_EE23_M_new_elements_at_backEm' hash='e0055d99adb0e173'>
            <parameter type-id='type-id-207' is-artificial='yes'/>
            <parameter type-id='type-id-86' filepath='/usr/lib/gcc/x86_64-redhat-linux/4.4.7/../../../../include/c++/4.4.7/bits/stl_deque.h' line='1715' column='1'/>
            <return type-id='type-id-21'/>
          </function-decl>
        </member-function>
        <member-function access='protected'>
          <function-decl name='_M_reserve_elements_at_back' mangled-name='_ZNSt5dequeI14vtkPixelExtentSaIS0_EE27_M_reserve_elements_at_backEm' filepath='/usr/lib/gcc/x86_64-redhat-linux/4.4.7/../../../../include/c++/4.4.7/bits/stl_deque.h' line='1689' column='1' visibility='default' binding='global' size-in-bits='64' elf-symbol-id='_ZNSt5dequeI14vtkPixelExtentSaIS0_EE27_M_reserve_elements_at_backEm' hash='e0055d99adb0e173'>
            <parameter type-id='type-id-207' is-artificial='yes'/>
            <parameter type-id='type-id-86' filepath='/usr/lib/gcc/x86_64-redhat-linux/4.4.7/../../../../include/c++/4.4.7/bits/stl_deque.h' line='1689' column='1'/>
            <return type-id='type-id-142'/>
          </function-decl>
        </member-function>
        <member-function access='protected'>
          <function-decl name='_M_new_elements_at_front' mangled-name='_ZNSt5dequeI14vtkPixelExtentSaIS0_EE24_M_new_elements_at_frontEm' filepath='/usr/lib/gcc/x86_64-redhat-linux/4.4.7/../../../../include/c++/4.4.7/bits/deque.tcc' line='745' column='1' visibility='default' binding='global' size-in-bits='64' elf-symbol-id='_ZNSt5dequeI14vtkPixelExtentSaIS0_EE24_M_new_elements_at_frontEm' hash='e0055d99adb0e173'>
            <parameter type-id='type-id-207' is-artificial='yes'/>
            <parameter type-id='type-id-86' filepath='/usr/lib/gcc/x86_64-redhat-linux/4.4.7/../../../../include/c++/4.4.7/bits/stl_deque.h' line='1715' column='1'/>
            <return type-id='type-id-21'/>
          </function-decl>
        </member-function>
        <member-function access='protected'>
          <function-decl name='_M_reserve_elements_at_front' mangled-name='_ZNSt5dequeI14vtkPixelExtentSaIS0_EE28_M_reserve_elements_at_frontEm' filepath='/usr/lib/gcc/x86_64-redhat-linux/4.4.7/../../../../include/c++/4.4.7/bits/stl_deque.h' line='1679' column='1' visibility='default' binding='global' size-in-bits='64' elf-symbol-id='_ZNSt5dequeI14vtkPixelExtentSaIS0_EE28_M_reserve_elements_at_frontEm' hash='e0055d99adb0e173'>
            <parameter type-id='type-id-207' is-artificial='yes'/>
            <parameter type-id='type-id-86' filepath='/usr/lib/gcc/x86_64-redhat-linux/4.4.7/../../../../include/c++/4.4.7/bits/stl_deque.h' line='1689' column='1'/>
            <return type-id='type-id-142'/>
          </function-decl>
        </member-function>
        <member-function access='protected'>
          <function-decl name='_M_insert_aux&lt;std::_Deque_iterator&lt;vtkPixelExtent, const vtkPixelExtent&amp;, const vtkPixelExtent*&gt; &gt;' mangled-name='_ZNSt5dequeI14vtkPixelExtentSaIS0_EE13_M_insert_auxISt15_Deque_iteratorIS0_RKS0_PS5_EEEvS4_IS0_RS0_PS0_ET_SC_m' filepath='/usr/lib/gcc/x86_64-redhat-linux/4.4.7/../../../../include/c++/4.4.7/bits/deque.tcc' line='635' column='1' visibility='default' binding='global' size-in-bits='64' elf-symbol-id='_ZNSt5dequeI14vtkPixelExtentSaIS0_EE13_M_insert_auxISt15_Deque_iteratorIS0_RKS0_PS5_EEEvS4_IS0_RS0_PS0_ET_SC_m' hash='e0055d99adb0e173'>
            <parameter type-id='type-id-207' is-artificial='yes'/>
            <parameter type-id='type-id-142' filepath='/usr/lib/gcc/x86_64-redhat-linux/4.4.7/../../../../include/c++/4.4.7/bits/deque.tcc' line='636' column='1'/>
            <parameter type-id='type-id-261' filepath='/usr/lib/gcc/x86_64-redhat-linux/4.4.7/../../../../include/c++/4.4.7/bits/deque.tcc' line='637' column='1'/>
            <parameter type-id='type-id-261' filepath='/usr/lib/gcc/x86_64-redhat-linux/4.4.7/../../../../include/c++/4.4.7/bits/deque.tcc' line='637' column='1'/>
            <parameter type-id='type-id-86' filepath='/usr/lib/gcc/x86_64-redhat-linux/4.4.7/../../../../include/c++/4.4.7/bits/deque.tcc' line='638' column='1'/>
            <return type-id='type-id-21'/>
          </function-decl>
        </member-function>
        <member-function access='protected'>
          <function-decl name='_M_range_insert_aux&lt;std::_Deque_iterator&lt;vtkPixelExtent, const vtkPixelExtent&amp;, const vtkPixelExtent*&gt; &gt;' mangled-name='_ZNSt5dequeI14vtkPixelExtentSaIS0_EE19_M_range_insert_auxISt15_Deque_iteratorIS0_RKS0_PS5_EEEvS4_IS0_RS0_PS0_ET_SC_St20forward_iterator_tag' filepath='/usr/lib/gcc/x86_64-redhat-linux/4.4.7/../../../../include/c++/4.4.7/bits/deque.tcc' line='462' column='1' visibility='default' binding='global' size-in-bits='64' elf-symbol-id='_ZNSt5dequeI14vtkPixelExtentSaIS0_EE19_M_range_insert_auxISt15_Deque_iteratorIS0_RKS0_PS5_EEEvS4_IS0_RS0_PS0_ET_SC_St20forward_iterator_tag' hash='7f32ffea222edbe7'>
            <parameter type-id='type-id-207' is-artificial='yes'/>
            <parameter type-id='type-id-142' filepath='/usr/lib/gcc/x86_64-redhat-linux/4.4.7/../../../../include/c++/4.4.7/bits/deque.tcc' line='463' column='1'/>
            <parameter type-id='type-id-261' filepath='/usr/lib/gcc/x86_64-redhat-linux/4.4.7/../../../../include/c++/4.4.7/bits/deque.tcc' line='464' column='1'/>
            <parameter type-id='type-id-261' filepath='/usr/lib/gcc/x86_64-redhat-linux/4.4.7/../../../../include/c++/4.4.7/bits/deque.tcc' line='464' column='1'/>
            <parameter type-id='type-id-262'/>
            <return type-id='type-id-21'/>
          </function-decl>
        </member-function>
        <member-function access='private'>
          <function-decl name='operator=' mangled-name='_ZNSt5dequeI14vtkPixelExtentSaIS0_EEaSERKS2_' filepath='/usr/lib/gcc/x86_64-redhat-linux/4.4.7/../../../../include/c++/4.4.7/bits/deque.tcc' line='64' column='1' visibility='default' binding='global' size-in-bits='64' elf-symbol-id='_ZNSt5dequeI14vtkPixelExtentSaIS0_EEaSERKS2_' hash='c18a1bad2a0fb218'>
            <parameter type-id='type-id-207' is-artificial='yes'/>
            <parameter type-id='type-id-161'/>
            <return type-id='type-id-33'/>
          </function-decl>
        </member-function>
        <member-function access='protected'>
          <function-decl name='_M_insert_aux&lt;std::_Deque_iterator&lt;vtkPixelExtent, vtkPixelExtent&amp;, vtkPixelExtent*&gt; &gt;' mangled-name='_ZNSt5dequeI14vtkPixelExtentSaIS0_EE13_M_insert_auxISt15_Deque_iteratorIS0_RS0_PS0_EEEvS7_T_S8_m' filepath='/usr/lib/gcc/x86_64-redhat-linux/4.4.7/../../../../include/c++/4.4.7/bits/deque.tcc' line='635' column='1' visibility='default' binding='global' size-in-bits='64' elf-symbol-id='_ZNSt5dequeI14vtkPixelExtentSaIS0_EE13_M_insert_auxISt15_Deque_iteratorIS0_RS0_PS0_EEEvS7_T_S8_m' hash='e0055d99adb0e173'>
            <parameter type-id='type-id-207' is-artificial='yes'/>
            <parameter type-id='type-id-142' filepath='/usr/lib/gcc/x86_64-redhat-linux/4.4.7/../../../../include/c++/4.4.7/bits/deque.tcc' line='636' column='1'/>
            <parameter type-id='type-id-142' filepath='/usr/lib/gcc/x86_64-redhat-linux/4.4.7/../../../../include/c++/4.4.7/bits/deque.tcc' line='637' column='1'/>
            <parameter type-id='type-id-142' filepath='/usr/lib/gcc/x86_64-redhat-linux/4.4.7/../../../../include/c++/4.4.7/bits/deque.tcc' line='637' column='1'/>
            <parameter type-id='type-id-86' filepath='/usr/lib/gcc/x86_64-redhat-linux/4.4.7/../../../../include/c++/4.4.7/bits/deque.tcc' line='638' column='1'/>
            <return type-id='type-id-21'/>
          </function-decl>
        </member-function>
        <member-function access='protected'>
          <function-decl name='_M_range_insert_aux&lt;std::_Deque_iterator&lt;vtkPixelExtent, vtkPixelExtent&amp;, vtkPixelExtent*&gt; &gt;' mangled-name='_ZNSt5dequeI14vtkPixelExtentSaIS0_EE19_M_range_insert_auxISt15_Deque_iteratorIS0_RS0_PS0_EEEvS7_T_S8_St20forward_iterator_tag' filepath='/usr/lib/gcc/x86_64-redhat-linux/4.4.7/../../../../include/c++/4.4.7/bits/deque.tcc' line='462' column='1' visibility='default' binding='global' size-in-bits='64' elf-symbol-id='_ZNSt5dequeI14vtkPixelExtentSaIS0_EE19_M_range_insert_auxISt15_Deque_iteratorIS0_RS0_PS0_EEEvS7_T_S8_St20forward_iterator_tag' hash='7f32ffea222edbe7'>
            <parameter type-id='type-id-207' is-artificial='yes'/>
            <parameter type-id='type-id-142' filepath='/usr/lib/gcc/x86_64-redhat-linux/4.4.7/../../../../include/c++/4.4.7/bits/deque.tcc' line='463' column='1'/>
            <parameter type-id='type-id-142' filepath='/usr/lib/gcc/x86_64-redhat-linux/4.4.7/../../../../include/c++/4.4.7/bits/deque.tcc' line='464' column='1'/>
            <parameter type-id='type-id-142' filepath='/usr/lib/gcc/x86_64-redhat-linux/4.4.7/../../../../include/c++/4.4.7/bits/deque.tcc' line='464' column='1'/>
            <parameter type-id='type-id-262'/>
            <return type-id='type-id-21'/>
          </function-decl>
        </member-function>
        <member-function access='protected'>
          <function-decl name='_M_reserve_map_at_back' mangled-name='_ZNSt5dequeI14vtkPixelExtentSaIS0_EE22_M_reserve_map_at_backEm' filepath='/usr/lib/gcc/x86_64-redhat-linux/4.4.7/../../../../include/c++/4.4.7/bits/stl_deque.h' line='1715' column='1' visibility='default' binding='global' size-in-bits='64' elf-symbol-id='_ZNSt5dequeI14vtkPixelExtentSaIS0_EE22_M_reserve_map_at_backEm' hash='e0055d99adb0e173'>
            <parameter type-id='type-id-207' is-artificial='yes'/>
            <parameter type-id='type-id-86' filepath='/usr/lib/gcc/x86_64-redhat-linux/4.4.7/../../../../include/c++/4.4.7/bits/stl_deque.h' line='1715' column='1'/>
            <return type-id='type-id-21'/>
          </function-decl>
        </member-function>
      </class-decl>
      <enum-decl name='_Ios_Iostate' size-in-bits='32' alignment-in-bits='32' filepath='/usr/lib/gcc/x86_64-redhat-linux/4.4.7/../../../../include/c++/4.4.7/bits/ios_base.h' line='152' column='1' hash='388bbdfd4360e2cc' id='type-id-263'>
        <underlying-type type-id='type-id-108'/>
        <enumerator name='_S_goodbit' value='0'/>
        <enumerator name='_S_badbit' value='1'/>
        <enumerator name='_S_eofbit' value='2'/>
        <enumerator name='_S_failbit' value='4'/>
        <enumerator name='_S_ios_iostate_end' value='65536'/>
      </enum-decl>
      <class-decl name='_Deque_iterator&lt;vtkPixelExtent, vtkPixelExtent&amp;, vtkPixelExtent*&gt;' is-struct='yes' visibility='default' size-in-bits='256' filepath='/usr/lib/gcc/x86_64-redhat-linux/4.4.7/../../../../include/c++/4.4.7/bits/stl_deque.h' line='95' column='1' hash='f8e20e11966447a6#2' id='type-id-142'>
        <data-member access='public' layout-offset-in-bits='0'>
          <var-decl name='_M_cur' type-id='type-id-218' visibility='default' filepath='/usr/lib/gcc/x86_64-redhat-linux/4.4.7/../../../../include/c++/4.4.7/bits/stl_deque.h' line='111' column='1'/>
        </data-member>
        <data-member access='public' layout-offset-in-bits='64'>
          <var-decl name='_M_first' type-id='type-id-218' visibility='default' filepath='/usr/lib/gcc/x86_64-redhat-linux/4.4.7/../../../../include/c++/4.4.7/bits/stl_deque.h' line='112' column='1'/>
        </data-member>
        <data-member access='public' layout-offset-in-bits='128'>
          <var-decl name='_M_last' type-id='type-id-218' visibility='default' filepath='/usr/lib/gcc/x86_64-redhat-linux/4.4.7/../../../../include/c++/4.4.7/bits/stl_deque.h' line='113' column='1'/>
        </data-member>
        <data-member access='public' layout-offset-in-bits='192'>
          <var-decl name='_M_node' type-id='type-id-223' visibility='default' filepath='/usr/lib/gcc/x86_64-redhat-linux/4.4.7/../../../../include/c++/4.4.7/bits/stl_deque.h' line='114' column='1'/>
        </data-member>
        <member-function access='public'>
          <function-decl name='operator+=' mangled-name='_ZNSt15_Deque_iteratorI14vtkPixelExtentRS0_PS0_EpLEl' filepath='/usr/lib/gcc/x86_64-redhat-linux/4.4.7/../../../../include/c++/4.4.7/bits/stl_deque.h' line='176' column='1' declared-inline='yes' visibility='default' binding='global' size-in-bits='64' elf-symbol-id='_ZNSt15_Deque_iteratorI14vtkPixelExtentRS0_PS0_EpLEl' hash='9c3d5f24664993e0'>
            <parameter type-id='type-id-198' is-artificial='yes'/>
            <parameter type-id='type-id-264' filepath='/usr/lib/gcc/x86_64-redhat-linux/4.4.7/../../../../include/c++/4.4.7/bits/stl_deque.h' line='176' column='1'/>
            <return type-id='type-id-197'/>
          </function-decl>
        </member-function>
        <member-function access='public'>
          <function-decl name='operator+' mangled-name='_ZNKSt15_Deque_iteratorI14vtkPixelExtentRS0_PS0_EplEl' filepath='/usr/lib/gcc/x86_64-redhat-linux/4.4.7/../../../../include/c++/4.4.7/bits/stl_deque.h' line='195' column='1' declared-inline='yes' visibility='default' binding='global' size-in-bits='64' elf-symbol-id='_ZNKSt15_Deque_iteratorI14vtkPixelExtentRS0_PS0_EplEl' hash='52c0efb08d2aa513'>
            <parameter type-id='type-id-145' is-artificial='yes'/>
            <parameter type-id='type-id-264' filepath='/usr/lib/gcc/x86_64-redhat-linux/4.4.7/../../../../include/c++/4.4.7/bits/stl_deque.h' line='195' column='1'/>
            <return type-id='type-id-142'/>
          </function-decl>
        </member-function>
      </class-decl>
      <class-decl name='_Destroy_aux&lt;true&gt;' is-struct='yes' visibility='default' size-in-bits='8' filepath='/usr/lib/gcc/x86_64-redhat-linux/4.4.7/../../../../include/c++/4.4.7/bits/stl_construct.h' line='106' column='1' hash='8952cbdd7468e90d#2' id='type-id-265'/>
      <class-decl name='_Setprecision' is-struct='yes' visibility='default' size-in-bits='32' filepath='/usr/lib/gcc/x86_64-redhat-linux/4.4.7/../../../../include/c++/4.4.7/iomanip' line='194' column='1' hash='c19f3469393f96ee#2' id='type-id-266'>
        <data-member access='public' layout-offset-in-bits='0'>
          <var-decl name='_M_n' type-id='type-id-13' visibility='default' filepath='/usr/lib/gcc/x86_64-redhat-linux/4.4.7/../../../../include/c++/4.4.7/iomanip' line='194' column='1'/>
        </data-member>
      </class-decl>
      <class-decl name='_Setw' is-struct='yes' visibility='default' size-in-bits='32' filepath='/usr/lib/gcc/x86_64-redhat-linux/4.4.7/../../../../include/c++/4.4.7/iomanip' line='228' column='1' hash='30b663f4e051bd12#2' id='type-id-267'>
        <data-member access='public' layout-offset-in-bits='0'>
          <var-decl name='_M_n' type-id='type-id-13' visibility='default' filepath='/usr/lib/gcc/x86_64-redhat-linux/4.4.7/../../../../include/c++/4.4.7/iomanip' line='228' column='1'/>
        </data-member>
      </class-decl>
      <class-decl name='__uninitialized_fill&lt;false&gt;' is-struct='yes' visibility='default' size-in-bits='8' filepath='/usr/lib/gcc/x86_64-redhat-linux/4.4.7/../../../../include/c++/4.4.7/bits/stl_uninitialized.h' line='122' column='1' hash='6a30ed7330121359#2' id='type-id-268'/>
      <class-decl name='char_traits&lt;char&gt;' is-struct='yes' visibility='default' size-in-bits='8' filepath='/usr/lib/gcc/x86_64-redhat-linux/4.4.7/../../../../include/c++/4.4.7/bits/char_traits.h' line='238' column='1' hash='fc88b5d70352b916#2' id='type-id-269'>
        <member-type access='public'>
          <typedef-decl name='char_type' type-id='type-id-2' size-in-bits='8' filepath='/usr/lib/gcc/x86_64-redhat-linux/4.4.7/../../../../include/c++/4.4.7/bits/char_traits.h' line='239' column='1' hash='65b2d157027b431a' id='type-id-152'/>
        </member-type>
        <member-type access='public'>
          <typedef-decl name='int_type' type-id='type-id-13' size-in-bits='32' filepath='/usr/lib/gcc/x86_64-redhat-linux/4.4.7/../../../../include/c++/4.4.7/bits/char_traits.h' line='240' column='1' hash='09d17c08f594edc7' id='type-id-156'/>
        </member-type>
      </class-decl>
      <class-decl name='ios_base' visibility='default' is-declaration-only='yes' id='type-id-270'/>
      <class-decl name='reverse_iterator&lt;std::_Deque_iterator&lt;vtkPixelExtent, const vtkPixelExtent&amp;, const vtkPixelExtent*&gt; &gt;' visibility='default' is-declaration-only='yes' id='type-id-271'/>
      <class-decl name='reverse_iterator&lt;std::_Deque_iterator&lt;vtkPixelExtent, vtkPixelExtent&amp;, vtkPixelExtent*&gt; &gt;' visibility='default' is-declaration-only='yes' id='type-id-272'/>
      <class-decl name='_Deque_iterator&lt;vtkPixelExtent, const vtkPixelExtent&amp;, const vtkPixelExtent*&gt;' is-struct='yes' visibility='default' is-declaration-only='yes' id='type-id-273'/>
      <class-decl name='basic_ios&lt;char, std::char_traits&lt;char&gt; &gt;' is-struct='yes' visibility='default' is-declaration-only='yes' id='type-id-256'>
        <member-type access='public'>
          <typedef-decl name='iostate' type-id='type-id-263' size-in-bits='32' alignment-in-bits='32' filepath='/usr/lib/gcc/x86_64-redhat-linux/4.4.7/../../../../include/c++/4.4.7/bits/ios_base.h' line='338' column='1' hash='388bbdfd4360e2cc' id='type-id-274'/>
        </member-type>
      </class-decl>
      <class-decl name='basic_ostream&lt;char, std::char_traits&lt;char&gt; &gt;' is-struct='yes' visibility='default' is-declaration-only='yes' id='type-id-275'/>
      <typedef-decl name='ostream' type-id='type-id-275' filepath='/usr/lib/gcc/x86_64-redhat-linux/4.4.7/../../../../include/c++/4.4.7/iosfwd' line='130' column='1' id='type-id-276'/>
    </namespace-decl>
    <pointer-type-def type-id='type-id-256' size-in-bits='64' id='type-id-277'/>
    <qualified-type-def type-id='type-id-277' const='yes' id='type-id-278'/>
    <reference-type-def kind='lvalue' type-id='type-id-275' size-in-bits='64' id='type-id-279'/>
    <pointer-type-def type-id='type-id-275' size-in-bits='64' id='type-id-280'/>
    <qualified-type-def type-id='type-id-280' const='yes' id='type-id-281'/>
    <reference-type-def kind='lvalue' type-id='type-id-270' size-in-bits='64' id='type-id-282'/>
    <reference-type-def kind='lvalue' type-id='type-id-276' size-in-bits='64' id='type-id-24'/>
    <class-decl name='vtkAbstractArray' is-struct='yes' visibility='default' is-declaration-only='yes' id='type-id-283'/>
    <class-decl name='vtkInformation' is-struct='yes' visibility='default' is-declaration-only='yes' id='type-id-284'/>
    <class-decl name='vtkProgressObserver' is-struct='yes' visibility='default' is-declaration-only='yes' id='type-id-285'/>
    <class-decl name='vtkRenderWindow' is-struct='yes' visibility='default' is-declaration-only='yes' id='type-id-286'/>
    <pointer-type-def type-id='type-id-283' size-in-bits='64' id='type-id-287'/>
    <qualified-type-def type-id='type-id-287' const='yes' id='type-id-288'/>
    <pointer-type-def type-id='type-id-230' size-in-bits='64' id='type-id-231'/>
    <qualified-type-def type-id='type-id-231' const='yes' id='type-id-289'/>
    <pointer-type-def type-id='type-id-234' size-in-bits='64' id='type-id-290'/>
    <qualified-type-def type-id='type-id-290' const='yes' id='type-id-291'/>
    <pointer-type-def type-id='type-id-235' size-in-bits='64' id='type-id-292'/>
    <qualified-type-def type-id='type-id-292' const='yes' id='type-id-293'/>
    <pointer-type-def type-id='type-id-236' size-in-bits='64' id='type-id-232'/>
    <pointer-type-def type-id='type-id-237' size-in-bits='64' id='type-id-294'/>
    <qualified-type-def type-id='type-id-294' const='yes' id='type-id-295'/>
    <pointer-type-def type-id='type-id-238' size-in-bits='64' id='type-id-296'/>
    <pointer-type-def type-id='type-id-240' size-in-bits='64' id='type-id-297'/>
    <pointer-type-def type-id='type-id-246' size-in-bits='64' id='type-id-15'/>
    <pointer-type-def type-id='type-id-284' size-in-bits='64' id='type-id-27'/>
    <pointer-type-def type-id='type-id-247' size-in-bits='64' id='type-id-29'/>
    <pointer-type-def type-id='type-id-29' size-in-bits='64' id='type-id-28'/>
    <pointer-type-def type-id='type-id-250' size-in-bits='64' id='type-id-26'/>
    <qualified-type-def type-id='type-id-26' const='yes' id='type-id-298'/>
    <pointer-type-def type-id='type-id-251' size-in-bits='64' id='type-id-299'/>
    <pointer-type-def type-id='type-id-252' size-in-bits='64' id='type-id-300'/>
    <qualified-type-def type-id='type-id-300' const='yes' id='type-id-301'/>
    <pointer-type-def type-id='type-id-253' size-in-bits='64' id='type-id-302'/>
    <pointer-type-def type-id='type-id-285' size-in-bits='64' id='type-id-233'/>
    <reference-type-def kind='lvalue' type-id='type-id-286' size-in-bits='64' id='type-id-303'/>
    <pointer-type-def type-id='type-id-286' size-in-bits='64' id='type-id-18'/>
    <pointer-type-def type-id='type-id-254' size-in-bits='64' id='type-id-14'/>
    <qualified-type-def type-id='type-id-14' const='yes' id='type-id-304'/>
    <namespace-decl name='__gnu_cxx'>
      <class-decl name='new_allocator&lt;vtkPixelExtent*&gt;' visibility='default' size-in-bits='8' filepath='/usr/lib/gcc/x86_64-redhat-linux/4.4.7/../../../../include/c++/4.4.7/ext/new_allocator.h' line='52' column='1' hash='ced17ecb939b04ec#2' id='type-id-112'/>
      <class-decl name='new_allocator&lt;vtkPixelExtent&gt;' visibility='default' size-in-bits='8' filepath='/usr/lib/gcc/x86_64-redhat-linux/4.4.7/../../../../include/c++/4.4.7/ext/new_allocator.h' line='52' column='1' hash='e20e13b533323f3d#2' id='type-id-115'>
        <member-function access='private'>
          <function-decl name='allocate' mangled-name='_ZN9__gnu_cxx13new_allocatorI14vtkPixelExtentE8allocateEmPKv' filepath='/usr/lib/gcc/x86_64-redhat-linux/4.4.7/../../../../include/c++/4.4.7/ext/new_allocator.h' line='84' column='1' declared-inline='yes' visibility='default' binding='global' size-in-bits='64' elf-symbol-id='_ZN9__gnu_cxx13new_allocatorI14vtkPixelExtentE8allocateEmPKv' hash='01254175fd2867ff'>
            <parameter type-id='type-id-116' is-artificial='yes'/>
            <parameter type-id='type-id-86' filepath='/usr/lib/gcc/x86_64-redhat-linux/4.4.7/../../../../include/c++/4.4.7/ext/new_allocator.h' line='84' column='1'/>
            <parameter type-id='type-id-71'/>
            <return type-id='type-id-218'/>
          </function-decl>
        </member-function>
      </class-decl>
    </namespace-decl>
    <type-decl name='variadic parameter type' id='type-id-305'/>
    <type-decl name='void' id='type-id-21'/>
    <pointer-type-def type-id='type-id-21' id='type-id-71'/>
    <function-type size-in-bits='64' hash='388da3fa973fde78' id='type-id-188'>
      <parameter type-id='type-id-71'/>
      <parameter type-id='type-id-71'/>
      <return type-id='type-id-13'/>
    </function-type>
    <function-type size-in-bits='64' hash='7f32ffea222edbe7' id='type-id-211'>
      <return type-id='type-id-21'/>
    </function-type>
    <function-type method-class-id='type-id-10' const='yes' size-in-bits='64' hash='53885bde0aa65efe' id='type-id-306'>
      <parameter type-id='type-id-22' is-artificial='yes'/>
      <return type-id='type-id-23'/>
    </function-type>
    <function-type method-class-id='type-id-214' const='yes' size-in-bits='64' hash='53885bde0aa65efe' id='type-id-307'>
      <parameter type-id='type-id-244' is-artificial='yes'/>
      <return type-id='type-id-23'/>
    </function-type>
    <function-type method-class-id='type-id-10' size-in-bits='64' hash='14e245f4052d89de' id='type-id-308'>
      <parameter type-id='type-id-17' is-artificial='yes'/>
      <return type-id='type-id-16'/>
    </function-type>
    <function-type method-class-id='type-id-238' size-in-bits='64' hash='388da3fa973fde78' id='type-id-309'>
      <parameter type-id='type-id-239' is-artificial='yes'/>
      <return type-id='type-id-13'/>
    </function-type>
    <function-type method-class-id='type-id-10' size-in-bits='64' hash='388da3fa973fde78' id='type-id-310'>
      <parameter type-id='type-id-17' is-artificial='yes'/>
      <return type-id='type-id-13'/>
    </function-type>
    <function-type method-class-id='type-id-10' size-in-bits='64' hash='e9ea91a7eab8302c' id='type-id-311'>
      <parameter type-id='type-id-17' is-artificial='yes'/>
      <parameter type-id='type-id-23'/>
      <return type-id='type-id-13'/>
    </function-type>
    <function-type method-class-id='type-id-10' size-in-bits='64' hash='d628501fd2223339' id='type-id-312'>
      <parameter type-id='type-id-17' is-artificial='yes'/>
      <parameter type-id='type-id-13'/>
      <parameter type-id='type-id-27'/>
      <return type-id='type-id-13'/>
    </function-type>
    <function-type method-class-id='type-id-10' size-in-bits='64' hash='388da3fa973fde78' id='type-id-313'>
      <parameter type-id='type-id-17' is-artificial='yes'/>
      <parameter type-id='type-id-27'/>
      <parameter type-id='type-id-28'/>
      <parameter type-id='type-id-29'/>
      <return type-id='type-id-13'/>
    </function-type>
    <function-type method-class-id='type-id-10' size-in-bits='64' hash='388da3fa973fde78' id='type-id-314'>
      <parameter type-id='type-id-17' is-artificial='yes'/>
      <parameter type-id='type-id-18'/>
      <return type-id='type-id-13'/>
    </function-type>
    <function-type method-class-id='type-id-214' size-in-bits='64' hash='e9ea91a7eab8302c' id='type-id-315'>
      <parameter type-id='type-id-215' is-artificial='yes'/>
      <parameter type-id='type-id-23'/>
      <return type-id='type-id-13'/>
    </function-type>
    <function-type method-class-id='type-id-214' size-in-bits='64' hash='900b564c0575ecb2' id='type-id-316'>
      <parameter type-id='type-id-215' is-artificial='yes'/>
      <parameter type-id='type-id-13'/>
      <parameter type-id='type-id-13'/>
      <parameter type-id='type-id-13'/>
      <parameter type-id='type-id-20'/>
      <parameter type-id='type-id-20'/>
      <parameter type-id='type-id-13'/>
      <parameter type-id='type-id-13'/>
      <return type-id='type-id-13'/>
    </function-type>
    <function-type method-class-id='type-id-238' size-in-bits='64' hash='c0e4f5f42afc96e0' id='type-id-317'>
      <parameter type-id='type-id-239' is-artificial='yes'/>
      <return type-id='type-id-20'/>
    </function-type>
    <function-type method-class-id='type-id-214' size-in-bits='64' hash='c0e4f5f42afc96e0' id='type-id-318'>
      <parameter type-id='type-id-215' is-artificial='yes'/>
      <return type-id='type-id-20'/>
    </function-type>
    <function-type method-class-id='type-id-159' size-in-bits='64' hash='c18a1bad2a0fb218' id='type-id-319'>
      <parameter type-id='type-id-207' is-artificial='yes'/>
      <parameter type-id='type-id-161'/>
      <return type-id='type-id-33'/>
    </function-type>
    <function-type method-class-id='type-id-138' size-in-bits='64' hash='7f32ffea222edbe7' id='type-id-320'>
      <parameter type-id='type-id-192' is-artificial='yes'/>
      <return type-id='type-id-21'/>
    </function-type>
    <function-type method-class-id='type-id-138' size-in-bits='64' hash='e0055d99adb0e173' id='type-id-321'>
      <parameter type-id='type-id-192' is-artificial='yes'/>
      <parameter type-id='type-id-86' filepath='/usr/lib/gcc/x86_64-redhat-linux/4.4.7/../../../../include/c++/4.4.7/bits/stl_deque.h' line='493' column='1'/>
      <return type-id='type-id-21'/>
    </function-type>
    <function-type method-class-id='type-id-159' size-in-bits='64' hash='9f8026158f06a017' id='type-id-322'>
      <parameter type-id='type-id-207' is-artificial='yes'/>
      <parameter type-id='type-id-161'/>
      <return type-id='type-id-21'/>
    </function-type>
    <function-type method-class-id='type-id-238' size-in-bits='64' hash='54628893627f2e3f' id='type-id-323'>
      <parameter type-id='type-id-239' is-artificial='yes'/>
      <parameter type-id='type-id-189' filepath='/tmp/legendre/spack-stage/spack-stage-R_crTC/VTK-6.1.0/Common/DataModel/vtkExtentTranslator.h' line='44' column='1'/>
      <parameter type-id='type-id-189' filepath='/tmp/legendre/spack-stage/spack-stage-R_crTC/VTK-6.1.0/Common/DataModel/vtkExtentTranslator.h' line='44' column='1'/>
      <parameter type-id='type-id-189' filepath='/tmp/legendre/spack-stage/spack-stage-R_crTC/VTK-6.1.0/Common/DataModel/vtkExtentTranslator.h' line='44' column='1'/>
      <parameter type-id='type-id-189' filepath='/tmp/legendre/spack-stage/spack-stage-R_crTC/VTK-6.1.0/Common/DataModel/vtkExtentTranslator.h' line='44' column='1'/>
      <parameter type-id='type-id-189' filepath='/tmp/legendre/spack-stage/spack-stage-R_crTC/VTK-6.1.0/Common/DataModel/vtkExtentTranslator.h' line='44' column='1'/>
      <parameter type-id='type-id-189' filepath='/tmp/legendre/spack-stage/spack-stage-R_crTC/VTK-6.1.0/Common/DataModel/vtkExtentTranslator.h' line='44' column='1'/>
      <return type-id='type-id-21'/>
    </function-type>
    <function-type method-class-id='type-id-238' size-in-bits='64' hash='388da3fa973fde78' id='type-id-324'>
      <parameter type-id='type-id-239' is-artificial='yes'/>
      <parameter type-id='type-id-13' filepath='/tmp/legendre/spack-stage/spack-stage-R_crTC/VTK-6.1.0/Common/DataModel/vtkExtentTranslator.h' line='47' column='1'/>
      <return type-id='type-id-21'/>
    </function-type>
    <function-type method-class-id='type-id-238' size-in-bits='64' hash='c0e4f5f42afc96e0' id='type-id-325'>
      <parameter type-id='type-id-239' is-artificial='yes'/>
      <parameter type-id='type-id-20' filepath='/tmp/legendre/spack-stage/spack-stage-R_crTC/VTK-6.1.0/Common/DataModel/vtkExtentTranslator.h' line='43' column='1'/>
      <return type-id='type-id-21'/>
    </function-type>
    <function-type method-class-id='type-id-238' size-in-bits='64' hash='37b5e264c3e68043' id='type-id-326'>
      <parameter type-id='type-id-239' is-artificial='yes'/>
      <parameter type-id='type-id-13' filepath='/tmp/legendre/spack-stage/spack-stage-R_crTC/VTK-6.1.0/Common/DataModel/vtkExtentTranslator.h' line='43' column='1'/>
      <parameter type-id='type-id-13' filepath='/tmp/legendre/spack-stage/spack-stage-R_crTC/VTK-6.1.0/Common/DataModel/vtkExtentTranslator.h' line='43' column='1'/>
      <parameter type-id='type-id-13' filepath='/tmp/legendre/spack-stage/spack-stage-R_crTC/VTK-6.1.0/Common/DataModel/vtkExtentTranslator.h' line='43' column='1'/>
      <parameter type-id='type-id-13' filepath='/tmp/legendre/spack-stage/spack-stage-R_crTC/VTK-6.1.0/Common/DataModel/vtkExtentTranslator.h' line='43' column='1'/>
      <parameter type-id='type-id-13' filepath='/tmp/legendre/spack-stage/spack-stage-R_crTC/VTK-6.1.0/Common/DataModel/vtkExtentTranslator.h' line='43' column='1'/>
      <parameter type-id='type-id-13' filepath='/tmp/legendre/spack-stage/spack-stage-R_crTC/VTK-6.1.0/Common/DataModel/vtkExtentTranslator.h' line='43' column='1'/>
      <return type-id='type-id-21'/>
    </function-type>
    <function-type method-class-id='type-id-10' size-in-bits='64' hash='7f32ffea222edbe7' id='type-id-327'>
      <parameter type-id='type-id-17' is-artificial='yes'/>
      <return type-id='type-id-21'/>
    </function-type>
    <function-type method-class-id='type-id-10' size-in-bits='64' hash='3f3e769fbc7ef139' id='type-id-328'>
      <parameter type-id='type-id-17' is-artificial='yes'/>
      <parameter type-id='type-id-19'/>
      <parameter type-id='type-id-19'/>
      <parameter type-id='type-id-20'/>
      <return type-id='type-id-21'/>
    </function-type>
    <function-type method-class-id='type-id-10' size-in-bits='64' hash='14e245f4052d89de' id='type-id-329'>
      <parameter type-id='type-id-17' is-artificial='yes'/>
      <parameter type-id='type-id-16'/>
      <return type-id='type-id-21'/>
    </function-type>
    <function-type method-class-id='type-id-10' size-in-bits='64' hash='388da3fa973fde78' id='type-id-330'>
      <parameter type-id='type-id-17' is-artificial='yes'/>
      <parameter type-id='type-id-13'/>
      <return type-id='type-id-21'/>
    </function-type>
    <function-type method-class-id='type-id-10' size-in-bits='64' hash='7f32ffea222edbe7' id='type-id-331'>
      <parameter type-id='type-id-17' is-artificial='yes'/>
      <parameter type-id='type-id-24'/>
      <parameter type-id='type-id-25'/>
      <return type-id='type-id-21'/>
    </function-type>
    <function-type method-class-id='type-id-214' size-in-bits='64' hash='7f32ffea222edbe7' id='type-id-332'>
      <parameter type-id='type-id-215' is-artificial='yes'/>
      <return type-id='type-id-21'/>
    </function-type>
    <function-type method-class-id='type-id-214' size-in-bits='64' hash='54628893627f2e3f' id='type-id-333'>
      <parameter type-id='type-id-215' is-artificial='yes'/>
      <parameter type-id='type-id-189'/>
      <parameter type-id='type-id-189'/>
      <parameter type-id='type-id-189'/>
      <parameter type-id='type-id-189'/>
      <parameter type-id='type-id-189'/>
      <parameter type-id='type-id-189'/>
      <return type-id='type-id-21'/>
    </function-type>
    <function-type method-class-id='type-id-214' size-in-bits='64' hash='c0e4f5f42afc96e0' id='type-id-334'>
      <parameter type-id='type-id-215' is-artificial='yes'/>
      <parameter type-id='type-id-20'/>
      <return type-id='type-id-21'/>
    </function-type>
    <function-type method-class-id='type-id-214' size-in-bits='64' hash='37b5e264c3e68043' id='type-id-335'>
      <parameter type-id='type-id-215' is-artificial='yes'/>
      <parameter type-id='type-id-13'/>
      <parameter type-id='type-id-13'/>
      <parameter type-id='type-id-13'/>
      <parameter type-id='type-id-13'/>
      <parameter type-id='type-id-13'/>
      <parameter type-id='type-id-13'/>
      <return type-id='type-id-21'/>
    </function-type>
    <function-type method-class-id='type-id-214' size-in-bits='64' hash='7f32ffea222edbe7' id='type-id-336'>
      <parameter type-id='type-id-215' is-artificial='yes'/>
      <parameter type-id='type-id-24'/>
      <parameter type-id='type-id-25'/>
      <return type-id='type-id-21'/>
    </function-type>
    <function-type method-class-id='type-id-214' size-in-bits='64' hash='7f32ffea222edbe7' id='type-id-337'>
      <parameter type-id='type-id-215' is-artificial='yes'/>
      <parameter type-id='type-id-239' filepath='/tmp/legendre/spack-stage/spack-stage-R_crTC/VTK-6.1.0/Rendering/LIC/vtkImageDataLIC2DExtentTranslator.cxx' line='24' column='1'/>
      <return type-id='type-id-21'/>
    </function-type>
    <function-type method-class-id='type-id-214' size-in-bits='64' hash='aa9646e9ffdb061a' id='type-id-338'>
      <parameter type-id='type-id-215' is-artificial='yes'/>
      <parameter type-id='type-id-17' filepath='/tmp/legendre/spack-stage/spack-stage-R_crTC/VTK-6.1.0/Rendering/LIC/vtkImageDataLIC2DExtentTranslator.cxx' line='50' column='1'/>
      <return type-id='type-id-21'/>
    </function-type>
    <function-type method-class-id='type-id-214' size-in-bits='64' hash='7f32ffea222edbe7' id='type-id-339'>
      <parameter type-id='type-id-215' is-artificial='yes'/>
      <return type-id='type-id-239'/>
    </function-type>
    <function-type method-class-id='type-id-10' size-in-bits='64' hash='aa9646e9ffdb061a' id='type-id-340'>
      <return type-id='type-id-17'/>
    </function-type>
    <function-type method-class-id='type-id-214' size-in-bits='64' hash='aa9646e9ffdb061a' id='type-id-341'>
      <parameter type-id='type-id-215' is-artificial='yes'/>
      <return type-id='type-id-17'/>
    </function-type>
    <function-type method-class-id='type-id-214' size-in-bits='64' hash='629c7f199b8f77da' id='type-id-342'>
      <return type-id='type-id-215'/>
    </function-type>
    <function-type method-class-id='type-id-10' const='yes' size-in-bits='64' hash='7f32ffea222edbe7' id='type-id-343'>
      <parameter type-id='type-id-22' is-artificial='yes'/>
      <return type-id='type-id-26'/>
    </function-type>
    <function-type method-class-id='type-id-214' const='yes' size-in-bits='64' hash='7f32ffea222edbe7' id='type-id-344'>
      <parameter type-id='type-id-244' is-artificial='yes'/>
      <return type-id='type-id-245'/>
    </function-type>
    <function-type method-class-id='type-id-115' size-in-bits='64' hash='01254175fd2867ff' id='type-id-345'>
      <parameter type-id='type-id-116' is-artificial='yes'/>
      <parameter type-id='type-id-86' filepath='/usr/lib/gcc/x86_64-redhat-linux/4.4.7/../../../../include/c++/4.4.7/ext/new_allocator.h' line='84' column='1'/>
      <parameter type-id='type-id-71'/>
      <return type-id='type-id-218'/>
    </function-type>
    <function-type method-class-id='type-id-10' size-in-bits='64' hash='7f32ffea222edbe7' id='type-id-346'>
      <parameter type-id='type-id-17' is-artificial='yes'/>
      <return type-id='type-id-18'/>
    </function-type>
  </abi-instr>
  <abi-instr address-size='64' path='/tmp/legendre/spack-stage/spack-stage-R_crTC/VTK-6.1.0/Rendering/LIC/vtkImageDataLIC2DExtentTranslator.cxx' comp-dir-path='/tmp/legendre/spack-stage/spack-stage-R_crTC/VTK-6.1.0/spack-build/Rendering/LIC' language='LANG_C_plus_plus'>
    <class-decl name='vtkWeakPointer&lt;vtkImageDataLIC2D&gt;' visibility='default' size-in-bits='64' filepath='/tmp/legendre/spack-stage/spack-stage-R_crTC/VTK-6.1.0/Common/Core/vtkWeakPointer.h' line='47' column='1' hash='60b053fbf8c60dd5' id='type-id-243'>
      <base-class access='public' layout-offset-in-bits='0' type-id='type-id-72'/>
    </class-decl>
    <array-type-def dimensions='1' type-id='type-id-13' size-in-bits='192' hash='74987b653e27d792' id='type-id-242'>
      <subrange length='6' lower-bound='0' upper-bound='5' type-id='type-id-4' size-in-bits='64' is-anonymous='yes' hash='1c0e592c7ffbdbf5' id='type-id-347'/>
    </array-type-def>
    <qualified-type-def type-id='type-id-214' const='yes' hash='512f78f53c2edcbf' id='type-id-348'/>
    <reference-type-def kind='lvalue' type-id='type-id-348' size-in-bits='64' hash='31599d2c8e1c44a8' id='type-id-349'/>
    <pointer-type-def type-id='type-id-348' size-in-bits='64' hash='2f6c1c98f5b59410' id='type-id-244'/>
    <qualified-type-def type-id='type-id-243' const='yes' hash='0463d3f138db0354' id='type-id-350'/>
    <pointer-type-def type-id='type-id-350' size-in-bits='64' hash='35f06aa323db1f67' id='type-id-351'/>
    <qualified-type-def type-id='type-id-351' const='yes' hash='346274e4ae59dcbb' id='type-id-352'/>
    <pointer-type-def type-id='type-id-353' size-in-bits='64' hash='fd7a63c0c6c822c4' id='type-id-354'/>
    <reference-type-def kind='lvalue' type-id='type-id-10' size-in-bits='64' hash='e24ed9641ade58a6' id='type-id-355'/>
    <qualified-type-def type-id='type-id-215' const='yes' hash='4b161047e4995ac0' id='type-id-356'/>
    <reference-type-def kind='lvalue' type-id='type-id-243' size-in-bits='64' hash='102c26c02cb016e8' id='type-id-357'/>
    <pointer-type-def type-id='type-id-243' size-in-bits='64' hash='74806ab1638c1a85' id='type-id-358'/>
    <qualified-type-def type-id='type-id-358' const='yes' hash='49aa15ead15d3cfb' id='type-id-359'/>
    <class-decl name='vtkExtentTranslator' visibility='default' is-declaration-only='yes' id='type-id-241'>
      <member-function access='private' vtable-offset='20'>
        <function-decl name='SetWholeExtent' mangled-name='_ZN19vtkExtentTranslator14SetWholeExtentEiiiiii' filepath='/tmp/legendre/spack-stage/spack-stage-R_crTC/VTK-6.1.0/Common/DataModel/vtkExtentTranslator.h' line='43' column='1' visibility='default' binding='global' size-in-bits='64' hash='37b5e264c3e68043'>
          <parameter type-id='type-id-239' is-artificial='yes'/>
          <parameter type-id='type-id-13' filepath='/tmp/legendre/spack-stage/spack-stage-R_crTC/VTK-6.1.0/Common/DataModel/vtkExtentTranslator.h' line='43' column='1'/>
          <parameter type-id='type-id-13' filepath='/tmp/legendre/spack-stage/spack-stage-R_crTC/VTK-6.1.0/Common/DataModel/vtkExtentTranslator.h' line='43' column='1'/>
          <parameter type-id='type-id-13' filepath='/tmp/legendre/spack-stage/spack-stage-R_crTC/VTK-6.1.0/Common/DataModel/vtkExtentTranslator.h' line='43' column='1'/>
          <parameter type-id='type-id-13' filepath='/tmp/legendre/spack-stage/spack-stage-R_crTC/VTK-6.1.0/Common/DataModel/vtkExtentTranslator.h' line='43' column='1'/>
          <parameter type-id='type-id-13' filepath='/tmp/legendre/spack-stage/spack-stage-R_crTC/VTK-6.1.0/Common/DataModel/vtkExtentTranslator.h' line='43' column='1'/>
          <parameter type-id='type-id-13' filepath='/tmp/legendre/spack-stage/spack-stage-R_crTC/VTK-6.1.0/Common/DataModel/vtkExtentTranslator.h' line='43' column='1'/>
          <return type-id='type-id-21'/>
        </function-decl>
      </member-function>
      <member-function access='private' vtable-offset='21'>
        <function-decl name='SetWholeExtent' mangled-name='_ZN19vtkExtentTranslator14SetWholeExtentEPi' filepath='/tmp/legendre/spack-stage/spack-stage-R_crTC/VTK-6.1.0/Common/DataModel/vtkExtentTranslator.h' line='43' column='1' visibility='default' binding='global' size-in-bits='64' hash='c0e4f5f42afc96e0'>
          <parameter type-id='type-id-239' is-artificial='yes'/>
          <parameter type-id='type-id-20' filepath='/tmp/legendre/spack-stage/spack-stage-R_crTC/VTK-6.1.0/Common/DataModel/vtkExtentTranslator.h' line='43' column='1'/>
          <return type-id='type-id-21'/>
        </function-decl>
      </member-function>
      <member-function access='private' vtable-offset='22'>
        <function-decl name='GetWholeExtent' mangled-name='_ZN19vtkExtentTranslator14GetWholeExtentEv' filepath='/tmp/legendre/spack-stage/spack-stage-R_crTC/VTK-6.1.0/Common/DataModel/vtkExtentTranslator.h' line='44' column='1' visibility='default' binding='global' size-in-bits='64' hash='c0e4f5f42afc96e0'>
          <parameter type-id='type-id-239' is-artificial='yes'/>
          <return type-id='type-id-20'/>
        </function-decl>
      </member-function>
      <member-function access='private' vtable-offset='23'>
        <function-decl name='GetWholeExtent' mangled-name='_ZN19vtkExtentTranslator14GetWholeExtentERiS0_S0_S0_S0_S0_' filepath='/tmp/legendre/spack-stage/spack-stage-R_crTC/VTK-6.1.0/Common/DataModel/vtkExtentTranslator.h' line='44' column='1' visibility='default' binding='global' size-in-bits='64' hash='54628893627f2e3f'>
          <parameter type-id='type-id-239' is-artificial='yes'/>
          <parameter type-id='type-id-189' filepath='/tmp/legendre/spack-stage/spack-stage-R_crTC/VTK-6.1.0/Common/DataModel/vtkExtentTranslator.h' line='44' column='1'/>
          <parameter type-id='type-id-189' filepath='/tmp/legendre/spack-stage/spack-stage-R_crTC/VTK-6.1.0/Common/DataModel/vtkExtentTranslator.h' line='44' column='1'/>
          <parameter type-id='type-id-189' filepath='/tmp/legendre/spack-stage/spack-stage-R_crTC/VTK-6.1.0/Common/DataModel/vtkExtentTranslator.h' line='44' column='1'/>
          <parameter type-id='type-id-189' filepath='/tmp/legendre/spack-stage/spack-stage-R_crTC/VTK-6.1.0/Common/DataModel/vtkExtentTranslator.h' line='44' column='1'/>
          <parameter type-id='type-id-189' filepath='/tmp/legendre/spack-stage/spack-stage-R_crTC/VTK-6.1.0/Common/DataModel/vtkExtentTranslator.h' line='44' column='1'/>
          <parameter type-id='type-id-189' filepath='/tmp/legendre/spack-stage/spack-stage-R_crTC/VTK-6.1.0/Common/DataModel/vtkExtentTranslator.h' line='44' column='1'/>
          <return type-id='type-id-21'/>
        </function-decl>
      </member-function>
      <member-function access='private' vtable-offset='24'>
        <function-decl name='GetWholeExtent' mangled-name='_ZN19vtkExtentTranslator14GetWholeExtentEPi' filepath='/tmp/legendre/spack-stage/spack-stage-R_crTC/VTK-6.1.0/Common/DataModel/vtkExtentTranslator.h' line='44' column='1' visibility='default' binding='global' size-in-bits='64' hash='c0e4f5f42afc96e0'>
          <parameter type-id='type-id-239' is-artificial='yes'/>
          <parameter type-id='type-id-20' filepath='/tmp/legendre/spack-stage/spack-stage-R_crTC/VTK-6.1.0/Common/DataModel/vtkExtentTranslator.h' line='43' column='1'/>
          <return type-id='type-id-21'/>
        </function-decl>
      </member-function>
      <member-function access='private' vtable-offset='25'>
        <function-decl name='SetExtent' mangled-name='_ZN19vtkExtentTranslator9SetExtentEiiiiii' filepath='/tmp/legendre/spack-stage/spack-stage-R_crTC/VTK-6.1.0/Common/DataModel/vtkExtentTranslator.h' line='45' column='1' visibility='default' binding='global' size-in-bits='64' hash='37b5e264c3e68043'>
          <parameter type-id='type-id-239' is-artificial='yes'/>
          <parameter type-id='type-id-13' filepath='/tmp/legendre/spack-stage/spack-stage-R_crTC/VTK-6.1.0/Common/DataModel/vtkExtentTranslator.h' line='43' column='1'/>
          <parameter type-id='type-id-13' filepath='/tmp/legendre/spack-stage/spack-stage-R_crTC/VTK-6.1.0/Common/DataModel/vtkExtentTranslator.h' line='43' column='1'/>
          <parameter type-id='type-id-13' filepath='/tmp/legendre/spack-stage/spack-stage-R_crTC/VTK-6.1.0/Common/DataModel/vtkExtentTranslator.h' line='43' column='1'/>
          <parameter type-id='type-id-13' filepath='/tmp/legendre/spack-stage/spack-stage-R_crTC/VTK-6.1.0/Common/DataModel/vtkExtentTranslator.h' line='43' column='1'/>
          <parameter type-id='type-id-13' filepath='/tmp/legendre/spack-stage/spack-stage-R_crTC/VTK-6.1.0/Common/DataModel/vtkExtentTranslator.h' line='43' column='1'/>
          <parameter type-id='type-id-13' filepath='/tmp/legendre/spack-stage/spack-stage-R_crTC/VTK-6.1.0/Common/DataModel/vtkExtentTranslator.h' line='43' column='1'/>
          <return type-id='type-id-21'/>
        </function-decl>
      </member-function>
      <member-function access='private' vtable-offset='26'>
        <function-decl name='SetExtent' mangled-name='_ZN19vtkExtentTranslator9SetExtentEPi' filepath='/tmp/legendre/spack-stage/spack-stage-R_crTC/VTK-6.1.0/Common/DataModel/vtkExtentTranslator.h' line='45' column='1' visibility='default' binding='global' size-in-bits='64' hash='c0e4f5f42afc96e0'>
          <parameter type-id='type-id-239' is-artificial='yes'/>
          <parameter type-id='type-id-20' filepath='/tmp/legendre/spack-stage/spack-stage-R_crTC/VTK-6.1.0/Common/DataModel/vtkExtentTranslator.h' line='43' column='1'/>
          <return type-id='type-id-21'/>
        </function-decl>
      </member-function>
      <member-function access='private' vtable-offset='27'>
        <function-decl name='GetExtent' mangled-name='_ZN19vtkExtentTranslator9GetExtentEv' filepath='/tmp/legendre/spack-stage/spack-stage-R_crTC/VTK-6.1.0/Common/DataModel/vtkExtentTranslator.h' line='46' column='1' visibility='default' binding='global' size-in-bits='64' hash='c0e4f5f42afc96e0'>
          <parameter type-id='type-id-239' is-artificial='yes'/>
          <return type-id='type-id-20'/>
        </function-decl>
      </member-function>
      <member-function access='private' vtable-offset='28'>
        <function-decl name='GetExtent' mangled-name='_ZN19vtkExtentTranslator9GetExtentERiS0_S0_S0_S0_S0_' filepath='/tmp/legendre/spack-stage/spack-stage-R_crTC/VTK-6.1.0/Common/DataModel/vtkExtentTranslator.h' line='46' column='1' visibility='default' binding='global' size-in-bits='64' hash='54628893627f2e3f'>
          <parameter type-id='type-id-239' is-artificial='yes'/>
          <parameter type-id='type-id-189' filepath='/tmp/legendre/spack-stage/spack-stage-R_crTC/VTK-6.1.0/Common/DataModel/vtkExtentTranslator.h' line='44' column='1'/>
          <parameter type-id='type-id-189' filepath='/tmp/legendre/spack-stage/spack-stage-R_crTC/VTK-6.1.0/Common/DataModel/vtkExtentTranslator.h' line='44' column='1'/>
          <parameter type-id='type-id-189' filepath='/tmp/legendre/spack-stage/spack-stage-R_crTC/VTK-6.1.0/Common/DataModel/vtkExtentTranslator.h' line='44' column='1'/>
          <parameter type-id='type-id-189' filepath='/tmp/legendre/spack-stage/spack-stage-R_crTC/VTK-6.1.0/Common/DataModel/vtkExtentTranslator.h' line='44' column='1'/>
          <parameter type-id='type-id-189' filepath='/tmp/legendre/spack-stage/spack-stage-R_crTC/VTK-6.1.0/Common/DataModel/vtkExtentTranslator.h' line='44' column='1'/>
          <parameter type-id='type-id-189' filepath='/tmp/legendre/spack-stage/spack-stage-R_crTC/VTK-6.1.0/Common/DataModel/vtkExtentTranslator.h' line='44' column='1'/>
          <return type-id='type-id-21'/>
        </function-decl>
      </member-function>
      <member-function access='private' vtable-offset='29'>
        <function-decl name='GetExtent' mangled-name='_ZN19vtkExtentTranslator9GetExtentEPi' filepath='/tmp/legendre/spack-stage/spack-stage-R_crTC/VTK-6.1.0/Common/DataModel/vtkExtentTranslator.h' line='46' column='1' visibility='default' binding='global' size-in-bits='64' hash='c0e4f5f42afc96e0'>
          <parameter type-id='type-id-239' is-artificial='yes'/>
          <parameter type-id='type-id-20' filepath='/tmp/legendre/spack-stage/spack-stage-R_crTC/VTK-6.1.0/Common/DataModel/vtkExtentTranslator.h' line='43' column='1'/>
          <return type-id='type-id-21'/>
        </function-decl>
      </member-function>
      <member-function access='private' vtable-offset='30'>
        <function-decl name='SetPiece' mangled-name='_ZN19vtkExtentTranslator8SetPieceEi' filepath='/tmp/legendre/spack-stage/spack-stage-R_crTC/VTK-6.1.0/Common/DataModel/vtkExtentTranslator.h' line='47' column='1' visibility='default' binding='global' size-in-bits='64' hash='388da3fa973fde78'>
          <parameter type-id='type-id-239' is-artificial='yes'/>
          <parameter type-id='type-id-13' filepath='/tmp/legendre/spack-stage/spack-stage-R_crTC/VTK-6.1.0/Common/DataModel/vtkExtentTranslator.h' line='47' column='1'/>
          <return type-id='type-id-21'/>
        </function-decl>
      </member-function>
      <member-function access='private' vtable-offset='31'>
        <function-decl name='GetPiece' mangled-name='_ZN19vtkExtentTranslator8GetPieceEv' filepath='/tmp/legendre/spack-stage/spack-stage-R_crTC/VTK-6.1.0/Common/DataModel/vtkExtentTranslator.h' line='48' column='1' visibility='default' binding='global' size-in-bits='64' hash='388da3fa973fde78'>
          <parameter type-id='type-id-239' is-artificial='yes'/>
          <return type-id='type-id-13'/>
        </function-decl>
      </member-function>
      <member-function access='private' vtable-offset='32'>
        <function-decl name='SetNumberOfPieces' mangled-name='_ZN19vtkExtentTranslator17SetNumberOfPiecesEi' filepath='/tmp/legendre/spack-stage/spack-stage-R_crTC/VTK-6.1.0/Common/DataModel/vtkExtentTranslator.h' line='49' column='1' visibility='default' binding='global' size-in-bits='64' hash='388da3fa973fde78'>
          <parameter type-id='type-id-239' is-artificial='yes'/>
          <parameter type-id='type-id-13' filepath='/tmp/legendre/spack-stage/spack-stage-R_crTC/VTK-6.1.0/Common/DataModel/vtkExtentTranslator.h' line='47' column='1'/>
          <return type-id='type-id-21'/>
        </function-decl>
      </member-function>
      <member-function access='private' vtable-offset='33'>
        <function-decl name='GetNumberOfPieces' mangled-name='_ZN19vtkExtentTranslator17GetNumberOfPiecesEv' filepath='/tmp/legendre/spack-stage/spack-stage-R_crTC/VTK-6.1.0/Common/DataModel/vtkExtentTranslator.h' line='50' column='1' visibility='default' binding='global' size-in-bits='64' hash='388da3fa973fde78'>
          <parameter type-id='type-id-239' is-artificial='yes'/>
          <return type-id='type-id-13'/>
        </function-decl>
      </member-function>
      <member-function access='private' vtable-offset='34'>
        <function-decl name='SetGhostLevel' mangled-name='_ZN19vtkExtentTranslator13SetGhostLevelEi' filepath='/tmp/legendre/spack-stage/spack-stage-R_crTC/VTK-6.1.0/Common/DataModel/vtkExtentTranslator.h' line='51' column='1' visibility='default' binding='global' size-in-bits='64' hash='388da3fa973fde78'>
          <parameter type-id='type-id-239' is-artificial='yes'/>
          <parameter type-id='type-id-13' filepath='/tmp/legendre/spack-stage/spack-stage-R_crTC/VTK-6.1.0/Common/DataModel/vtkExtentTranslator.h' line='47' column='1'/>
          <return type-id='type-id-21'/>
        </function-decl>
      </member-function>
      <member-function access='private' vtable-offset='35'>
        <function-decl name='GetGhostLevel' mangled-name='_ZN19vtkExtentTranslator13GetGhostLevelEv' filepath='/tmp/legendre/spack-stage/spack-stage-R_crTC/VTK-6.1.0/Common/DataModel/vtkExtentTranslator.h' line='52' column='1' visibility='default' binding='global' size-in-bits='64' hash='388da3fa973fde78'>
          <parameter type-id='type-id-239' is-artificial='yes'/>
          <return type-id='type-id-13'/>
        </function-decl>
      </member-function>
      <member-function access='private' vtable-offset='39'>
        <function-decl name='GetSplitMode' mangled-name='_ZN19vtkExtentTranslator12GetSplitModeEv' filepath='/tmp/legendre/spack-stage/spack-stage-R_crTC/VTK-6.1.0/Common/DataModel/vtkExtentTranslator.h' line='83' column='1' visibility='default' binding='global' size-in-bits='64' hash='388da3fa973fde78'>
          <parameter type-id='type-id-239' is-artificial='yes'/>
          <return type-id='type-id-13'/>
        </function-decl>
      </member-function>
    </class-decl>
    <class-decl name='vtkObject' visibility='default' is-declaration-only='yes' id='type-id-360'/>
    <class-decl name='vtkObjectBase' visibility='default' is-declaration-only='yes' id='type-id-361'>
      <member-function access='protected' vtable-offset='11'>
        <function-decl name='CollectRevisions' mangled-name='_ZN13vtkObjectBase16CollectRevisionsERSo' filepath='/tmp/legendre/spack-stage/spack-stage-R_crTC/VTK-6.1.0/Common/Core/vtkObjectBase.h' line='163' column='1' visibility='default' binding='global' size-in-bits='64' hash='7f32ffea222edbe7'>
          <parameter type-id='type-id-26' is-artificial='yes'/>
          <parameter type-id='type-id-24'/>
          <return type-id='type-id-21'/>
        </function-decl>
      </member-function>
    </class-decl>
    <qualified-type-def type-id='type-id-362' const='yes' id='type-id-363'/>
    <pointer-type-def type-id='type-id-363' size-in-bits='64' id='type-id-364'/>
    <qualified-type-def type-id='type-id-364' const='yes' id='type-id-365'/>
    <qualified-type-def type-id='type-id-366' const='yes' id='type-id-367'/>
    <reference-type-def kind='lvalue' type-id='type-id-367' size-in-bits='64' id='type-id-368'/>
    <pointer-type-def type-id='type-id-367' size-in-bits='64' id='type-id-369'/>
    <qualified-type-def type-id='type-id-369' const='yes' id='type-id-370'/>
    <namespace-decl name='std'>
      <class-decl name='_Setprecision' is-struct='yes' visibility='default' hash='2a5aede05fe34970' id='type-id-371'/>
      <class-decl name='_Setw' is-struct='yes' visibility='default' hash='be11f1d5628f7aa9' id='type-id-372'/>
      <class-decl name='char_traits&lt;char&gt;' is-struct='yes' visibility='default' hash='458bc359e04e351a' id='type-id-373'/>
      <class-decl name='ctype&lt;char&gt;' visibility='default' is-declaration-only='yes' id='type-id-366'>
        <member-type access='private'>
          <typedef-decl name='char_type' type-id='type-id-2' size-in-bits='8' filepath='/usr/lib/gcc/x86_64-redhat-linux/4.4.7/../../../../include/c++/4.4.7/bits/locale_facets.h' line='679' column='1' hash='65b2d157027b431a' id='type-id-374'/>
        </member-type>
      </class-decl>
      <class-decl name='ios_base' visibility='default' is-declaration-only='yes' id='type-id-375'/>
      <class-decl name='basic_ios&lt;char, std::char_traits&lt;char&gt; &gt;' is-struct='yes' visibility='default' is-declaration-only='yes' id='type-id-362'>
      </class-decl>
      <class-decl name='basic_ostream&lt;char, std::char_traits&lt;char&gt; &gt;' is-struct='yes' visibility='default' is-declaration-only='yes' id='type-id-376'/>
      <typedef-decl name='ostream' type-id='type-id-376' filepath='/usr/lib/gcc/x86_64-redhat-linux/4.4.7/../../../../include/c++/4.4.7/iosfwd' line='130' column='1' id='type-id-377'/>
    </namespace-decl>
    <pointer-type-def type-id='type-id-362' size-in-bits='64' id='type-id-378'/>
    <qualified-type-def type-id='type-id-378' const='yes' id='type-id-379'/>
    <pointer-type-def type-id='type-id-376' size-in-bits='64' id='type-id-380'/>
    <qualified-type-def type-id='type-id-380' const='yes' id='type-id-381'/>
    <pointer-type-def type-id='type-id-241' size-in-bits='64' id='type-id-239'/>
    <qualified-type-def type-id='type-id-239' const='yes' id='type-id-382'/>
    <pointer-type-def type-id='type-id-361' size-in-bits='64' id='type-id-245'/>
    <qualified-type-def type-id='type-id-245' const='yes' id='type-id-383'/>
    <function-type size-in-bits='64' hash='7f32ffea222edbe7' id='type-id-353'>
      <parameter type-id='type-id-279'/>
      <return type-id='type-id-279'/>
    </function-type>
  </abi-instr>
  <abi-instr address-size='64' path='/tmp/legendre/spack-stage/spack-stage-R_crTC/VTK-6.1.0/Rendering/LIC/vtkLineIntegralConvolution2D.cxx' comp-dir-path='/tmp/legendre/spack-stage/spack-stage-R_crTC/VTK-6.1.0/spack-build/Rendering/LIC' language='LANG_C_plus_plus'>
    <array-type-def dimensions='1' type-id='type-id-2' size-in-bits='320' hash='e7f9696e246a3049' id='type-id-384'>
      <subrange length='40' lower-bound='0' upper-bound='39' type-id='type-id-4' size-in-bits='64' is-anonymous='yes' hash='6281bd35fbce8744' id='type-id-385'/>
    </array-type-def>
    <class-decl name='vtkLICPingPongBufferManager' visibility='default' size-in-bits='896' filepath='/tmp/legendre/spack-stage/spack-stage-R_crTC/VTK-6.1.0/Rendering/LIC/vtkLineIntegralConvolution2D.cxx' line='107' column='1' hash='2b01f59a8e4b4368' id='type-id-386'>
      <data-member access='private' layout-offset-in-bits='0'>
        <var-decl name='VectorTexture' type-id='type-id-387' visibility='default' filepath='/tmp/legendre/spack-stage/spack-stage-R_crTC/VTK-6.1.0/Rendering/LIC/vtkLineIntegralConvolution2D.cxx' line='779' column='1'/>
      </data-member>
      <data-member access='private' layout-offset-in-bits='64'>
        <var-decl name='ImageVectorTexture' type-id='type-id-387' visibility='default' filepath='/tmp/legendre/spack-stage/spack-stage-R_crTC/VTK-6.1.0/Rendering/LIC/vtkLineIntegralConvolution2D.cxx' line='780' column='1'/>
      </data-member>
      <data-member access='private' layout-offset-in-bits='128'>
        <var-decl name='MaskVectorTexture' type-id='type-id-387' visibility='default' filepath='/tmp/legendre/spack-stage/spack-stage-R_crTC/VTK-6.1.0/Rendering/LIC/vtkLineIntegralConvolution2D.cxx' line='781' column='1'/>
      </data-member>
      <data-member access='private' layout-offset-in-bits='192'>
        <var-decl name='NoiseTexture' type-id='type-id-387' visibility='default' filepath='/tmp/legendre/spack-stage/spack-stage-R_crTC/VTK-6.1.0/Rendering/LIC/vtkLineIntegralConvolution2D.cxx' line='782' column='1'/>
      </data-member>
      <data-member access='private' layout-offset-in-bits='256'>
        <var-decl name='EETexture' type-id='type-id-387' visibility='default' filepath='/tmp/legendre/spack-stage/spack-stage-R_crTC/VTK-6.1.0/Rendering/LIC/vtkLineIntegralConvolution2D.cxx' line='783' column='1'/>
      </data-member>
      <data-member access='private' layout-offset-in-bits='320'>
        <var-decl name='LICTexture0' type-id='type-id-387' visibility='default' filepath='/tmp/legendre/spack-stage/spack-stage-R_crTC/VTK-6.1.0/Rendering/LIC/vtkLineIntegralConvolution2D.cxx' line='784' column='1'/>
      </data-member>
      <data-member access='private' layout-offset-in-bits='384'>
        <var-decl name='SeedTexture0' type-id='type-id-387' visibility='default' filepath='/tmp/legendre/spack-stage/spack-stage-R_crTC/VTK-6.1.0/Rendering/LIC/vtkLineIntegralConvolution2D.cxx' line='785' column='1'/>
      </data-member>
      <data-member access='private' layout-offset-in-bits='448'>
        <var-decl name='LICTexture1' type-id='type-id-387' visibility='default' filepath='/tmp/legendre/spack-stage/spack-stage-R_crTC/VTK-6.1.0/Rendering/LIC/vtkLineIntegralConvolution2D.cxx' line='786' column='1'/>
      </data-member>
      <data-member access='private' layout-offset-in-bits='512'>
        <var-decl name='SeedTexture1' type-id='type-id-387' visibility='default' filepath='/tmp/legendre/spack-stage/spack-stage-R_crTC/VTK-6.1.0/Rendering/LIC/vtkLineIntegralConvolution2D.cxx' line='787' column='1'/>
      </data-member>
      <data-member access='private' layout-offset-in-bits='576'>
        <var-decl name='MaskVectorUnit' type-id='type-id-13' visibility='default' filepath='/tmp/legendre/spack-stage/spack-stage-R_crTC/VTK-6.1.0/Rendering/LIC/vtkLineIntegralConvolution2D.cxx' line='788' column='1'/>
      </data-member>
      <data-member access='private' layout-offset-in-bits='608'>
        <var-decl name='ReadIndex' type-id='type-id-13' visibility='default' filepath='/tmp/legendre/spack-stage/spack-stage-R_crTC/VTK-6.1.0/Rendering/LIC/vtkLineIntegralConvolution2D.cxx' line='790' column='1'/>
      </data-member>
      <data-member access='private' layout-offset-in-bits='640'>
        <var-decl name='PingTextures' type-id='type-id-388' visibility='default' filepath='/tmp/legendre/spack-stage/spack-stage-R_crTC/VTK-6.1.0/Rendering/LIC/vtkLineIntegralConvolution2D.cxx' line='791' column='1'/>
      </data-member>
      <data-member access='private' layout-offset-in-bits='704'>
        <var-decl name='PongTextures' type-id='type-id-388' visibility='default' filepath='/tmp/legendre/spack-stage/spack-stage-R_crTC/VTK-6.1.0/Rendering/LIC/vtkLineIntegralConvolution2D.cxx' line='792' column='1'/>
      </data-member>
      <data-member access='private' layout-offset-in-bits='768'>
        <var-decl name='Textures' type-id='type-id-389' visibility='default' filepath='/tmp/legendre/spack-stage/spack-stage-R_crTC/VTK-6.1.0/Rendering/LIC/vtkLineIntegralConvolution2D.cxx' line='793' column='1'/>
      </data-member>
    </class-decl>
    <class-decl name='vtkLineIntegralConvolution2D' visibility='default' size-in-bits='1792' filepath='/tmp/legendre/spack-stage/spack-stage-R_crTC/VTK-6.1.0/Rendering/LIC/vtkLineIntegralConvolution2D.h' line='105' column='1' hash='e877bf6880d3f90a' id='type-id-390'>
      <base-class access='public' layout-offset-in-bits='0' type-id='type-id-391'/>
      <member-type access='private'>
        <enum-decl name='__anonymous_enum__' size-in-bits='32' alignment-in-bits='32' is-anonymous='yes' filepath='/tmp/legendre/spack-stage/spack-stage-R_crTC/VTK-6.1.0/Rendering/LIC/vtkLineIntegralConvolution2D.h' line='149' column='1' hash='8d0677bcaa8b90cc#3' id='type-id-392'>
          <underlying-type type-id='type-id-108'/>
          <enumerator name='ENHANCE_CONTRAST_OFF' value='0'/>
          <enumerator name='ENHANCE_CONTRAST_ON' value='1'/>
        </enum-decl>
      </member-type>
      <data-member access='protected' layout-offset-in-bits='384'>
        <var-decl name='Comm' type-id='type-id-393' visibility='default' filepath='/tmp/legendre/spack-stage/spack-stage-R_crTC/VTK-6.1.0/Rendering/LIC/vtkLineIntegralConvolution2D.h' line='362' column='1'/>
      </data-member>
      <data-member access='protected' layout-offset-in-bits='448'>
        <var-decl name='Context' type-id='type-id-12' visibility='default' filepath='/tmp/legendre/spack-stage/spack-stage-R_crTC/VTK-6.1.0/Rendering/LIC/vtkLineIntegralConvolution2D.h' line='364' column='1'/>
      </data-member>
      <data-member access='protected' layout-offset-in-bits='512'>
        <var-decl name='FBO' type-id='type-id-394' visibility='default' filepath='/tmp/legendre/spack-stage/spack-stage-R_crTC/VTK-6.1.0/Rendering/LIC/vtkLineIntegralConvolution2D.h' line='365' column='1'/>
      </data-member>
      <data-member access='protected' layout-offset-in-bits='576'>
        <var-decl name='ShadersNeedBuild' type-id='type-id-13' visibility='default' filepath='/tmp/legendre/spack-stage/spack-stage-R_crTC/VTK-6.1.0/Rendering/LIC/vtkLineIntegralConvolution2D.h' line='367' column='1'/>
      </data-member>
      <data-member access='protected' layout-offset-in-bits='640'>
        <var-decl name='VTShader' type-id='type-id-395' visibility='default' filepath='/tmp/legendre/spack-stage/spack-stage-R_crTC/VTK-6.1.0/Rendering/LIC/vtkLineIntegralConvolution2D.h' line='368' column='1'/>
      </data-member>
      <data-member access='protected' layout-offset-in-bits='704'>
        <var-decl name='LIC0Shader' type-id='type-id-395' visibility='default' filepath='/tmp/legendre/spack-stage/spack-stage-R_crTC/VTK-6.1.0/Rendering/LIC/vtkLineIntegralConvolution2D.h' line='369' column='1'/>
      </data-member>
      <data-member access='protected' layout-offset-in-bits='768'>
        <var-decl name='LICIShader' type-id='type-id-395' visibility='default' filepath='/tmp/legendre/spack-stage/spack-stage-R_crTC/VTK-6.1.0/Rendering/LIC/vtkLineIntegralConvolution2D.h' line='370' column='1'/>
      </data-member>
      <data-member access='protected' layout-offset-in-bits='832'>
        <var-decl name='LICNShader' type-id='type-id-395' visibility='default' filepath='/tmp/legendre/spack-stage/spack-stage-R_crTC/VTK-6.1.0/Rendering/LIC/vtkLineIntegralConvolution2D.h' line='371' column='1'/>
      </data-member>
      <data-member access='protected' layout-offset-in-bits='896'>
        <var-decl name='EEShader' type-id='type-id-395' visibility='default' filepath='/tmp/legendre/spack-stage/spack-stage-R_crTC/VTK-6.1.0/Rendering/LIC/vtkLineIntegralConvolution2D.h' line='372' column='1'/>
      </data-member>
      <data-member access='protected' layout-offset-in-bits='960'>
        <var-decl name='CEShader' type-id='type-id-395' visibility='default' filepath='/tmp/legendre/spack-stage/spack-stage-R_crTC/VTK-6.1.0/Rendering/LIC/vtkLineIntegralConvolution2D.h' line='373' column='1'/>
      </data-member>
      <data-member access='protected' layout-offset-in-bits='1024'>
        <var-decl name='AAHShader' type-id='type-id-395' visibility='default' filepath='/tmp/legendre/spack-stage/spack-stage-R_crTC/VTK-6.1.0/Rendering/LIC/vtkLineIntegralConvolution2D.h' line='374' column='1'/>
      </data-member>
      <data-member access='protected' layout-offset-in-bits='1088'>
        <var-decl name='AAVShader' type-id='type-id-395' visibility='default' filepath='/tmp/legendre/spack-stage/spack-stage-R_crTC/VTK-6.1.0/Rendering/LIC/vtkLineIntegralConvolution2D.h' line='375' column='1'/>
      </data-member>
      <data-member access='protected' layout-offset-in-bits='1152'>
        <var-decl name='NumberOfSteps' type-id='type-id-13' visibility='default' filepath='/tmp/legendre/spack-stage/spack-stage-R_crTC/VTK-6.1.0/Rendering/LIC/vtkLineIntegralConvolution2D.h' line='377' column='1'/>
      </data-member>
      <data-member access='protected' layout-offset-in-bits='1216'>
        <var-decl name='StepSize' type-id='type-id-16' visibility='default' filepath='/tmp/legendre/spack-stage/spack-stage-R_crTC/VTK-6.1.0/Rendering/LIC/vtkLineIntegralConvolution2D.h' line='378' column='1'/>
      </data-member>
      <data-member access='protected' layout-offset-in-bits='1280'>
        <var-decl name='EnhancedLIC' type-id='type-id-13' visibility='default' filepath='/tmp/legendre/spack-stage/spack-stage-R_crTC/VTK-6.1.0/Rendering/LIC/vtkLineIntegralConvolution2D.h' line='379' column='1'/>
      </data-member>
      <data-member access='protected' layout-offset-in-bits='1312'>
        <var-decl name='EnhanceContrast' type-id='type-id-13' visibility='default' filepath='/tmp/legendre/spack-stage/spack-stage-R_crTC/VTK-6.1.0/Rendering/LIC/vtkLineIntegralConvolution2D.h' line='380' column='1'/>
      </data-member>
      <data-member access='protected' layout-offset-in-bits='1344'>
        <var-decl name='LowContrastEnhancementFactor' type-id='type-id-16' visibility='default' filepath='/tmp/legendre/spack-stage/spack-stage-R_crTC/VTK-6.1.0/Rendering/LIC/vtkLineIntegralConvolution2D.h' line='381' column='1'/>
      </data-member>
      <data-member access='protected' layout-offset-in-bits='1408'>
        <var-decl name='HighContrastEnhancementFactor' type-id='type-id-16' visibility='default' filepath='/tmp/legendre/spack-stage/spack-stage-R_crTC/VTK-6.1.0/Rendering/LIC/vtkLineIntegralConvolution2D.h' line='382' column='1'/>
      </data-member>
      <data-member access='protected' layout-offset-in-bits='1472'>
        <var-decl name='AntiAlias' type-id='type-id-13' visibility='default' filepath='/tmp/legendre/spack-stage/spack-stage-R_crTC/VTK-6.1.0/Rendering/LIC/vtkLineIntegralConvolution2D.h' line='383' column='1'/>
      </data-member>
      <data-member access='protected' layout-offset-in-bits='1504'>
        <var-decl name='NoiseTextureLookupCompatibilityMode' type-id='type-id-13' visibility='default' filepath='/tmp/legendre/spack-stage/spack-stage-R_crTC/VTK-6.1.0/Rendering/LIC/vtkLineIntegralConvolution2D.h' line='384' column='1'/>
      </data-member>
      <data-member access='protected' layout-offset-in-bits='1536'>
        <var-decl name='MaskThreshold' type-id='type-id-16' visibility='default' filepath='/tmp/legendre/spack-stage/spack-stage-R_crTC/VTK-6.1.0/Rendering/LIC/vtkLineIntegralConvolution2D.h' line='385' column='1'/>
      </data-member>
      <data-member access='protected' layout-offset-in-bits='1600'>
        <var-decl name='TransformVectors' type-id='type-id-13' visibility='default' filepath='/tmp/legendre/spack-stage/spack-stage-R_crTC/VTK-6.1.0/Rendering/LIC/vtkLineIntegralConvolution2D.h' line='386' column='1'/>
      </data-member>
      <data-member access='protected' layout-offset-in-bits='1632'>
        <var-decl name='NormalizeVectors' type-id='type-id-13' visibility='default' filepath='/tmp/legendre/spack-stage/spack-stage-R_crTC/VTK-6.1.0/Rendering/LIC/vtkLineIntegralConvolution2D.h' line='387' column='1'/>
      </data-member>
      <data-member access='protected' layout-offset-in-bits='1664'>
        <var-decl name='ComponentIds' type-id='type-id-396' visibility='default' filepath='/tmp/legendre/spack-stage/spack-stage-R_crTC/VTK-6.1.0/Rendering/LIC/vtkLineIntegralConvolution2D.h' line='388' column='1'/>
      </data-member>
      <data-member access='protected' layout-offset-in-bits='1728'>
        <var-decl name='MaxNoiseValue' type-id='type-id-16' visibility='default' filepath='/tmp/legendre/spack-stage/spack-stage-R_crTC/VTK-6.1.0/Rendering/LIC/vtkLineIntegralConvolution2D.h' line='389' column='1'/>
      </data-member>
      <member-function access='private'>
        <function-decl name='GetContext' mangled-name='_ZN28vtkLineIntegralConvolution2D10GetContextEv' filepath='/tmp/legendre/spack-stage/spack-stage-R_crTC/VTK-6.1.0/Rendering/LIC/vtkLineIntegralConvolution2D.cxx' line='1024' column='1' visibility='default' binding='global' size-in-bits='64' elf-symbol-id='_ZN28vtkLineIntegralConvolution2D10GetContextEv' hash='7f32ffea222edbe7'>
          <parameter type-id='type-id-397' is-artificial='yes'/>
          <return type-id='type-id-398'/>
        </function-decl>
      </member-function>
      <member-function access='private'>
        <function-decl name='SetComponentIds' mangled-name='_ZN28vtkLineIntegralConvolution2D15SetComponentIdsEii' filepath='/tmp/legendre/spack-stage/spack-stage-R_crTC/VTK-6.1.0/Rendering/LIC/vtkLineIntegralConvolution2D.cxx' line='1115' column='1' visibility='default' binding='global' size-in-bits='64' elf-symbol-id='_ZN28vtkLineIntegralConvolution2D15SetComponentIdsEii' hash='d628501fd2223339'>
          <parameter type-id='type-id-397' is-artificial='yes'/>
          <parameter type-id='type-id-13'/>
          <parameter type-id='type-id-13'/>
          <return type-id='type-id-21'/>
        </function-decl>
      </member-function>
      <member-function access='private'>
        <function-decl name='SetTransformVectors' mangled-name='_ZN28vtkLineIntegralConvolution2D19SetTransformVectorsEi' filepath='/tmp/legendre/spack-stage/spack-stage-R_crTC/VTK-6.1.0/Rendering/LIC/vtkLineIntegralConvolution2D.cxx' line='1128' column='1' visibility='default' binding='global' size-in-bits='64' elf-symbol-id='_ZN28vtkLineIntegralConvolution2D19SetTransformVectorsEi' hash='388da3fa973fde78'>
          <parameter type-id='type-id-397' is-artificial='yes'/>
          <parameter type-id='type-id-13'/>
          <return type-id='type-id-21'/>
        </function-decl>
      </member-function>
      <member-function access='private'>
        <function-decl name='SetNormalizeVectors' mangled-name='_ZN28vtkLineIntegralConvolution2D19SetNormalizeVectorsEi' filepath='/tmp/legendre/spack-stage/spack-stage-R_crTC/VTK-6.1.0/Rendering/LIC/vtkLineIntegralConvolution2D.cxx' line='1142' column='1' visibility='default' binding='global' size-in-bits='64' elf-symbol-id='_ZN28vtkLineIntegralConvolution2D19SetNormalizeVectorsEi' hash='388da3fa973fde78'>
          <parameter type-id='type-id-397' is-artificial='yes'/>
          <parameter type-id='type-id-13'/>
          <return type-id='type-id-21'/>
        </function-decl>
      </member-function>
      <member-function access='protected'>
        <function-decl name='SetVTShader' mangled-name='_ZN28vtkLineIntegralConvolution2D11SetVTShaderEP17vtkShaderProgram2' filepath='/tmp/legendre/spack-stage/spack-stage-R_crTC/VTK-6.1.0/Rendering/LIC/vtkLineIntegralConvolution2D.cxx' line='1156' column='1' visibility='default' binding='global' size-in-bits='64' elf-symbol-id='_ZN28vtkLineIntegralConvolution2D11SetVTShaderEP17vtkShaderProgram2' hash='7f32ffea222edbe7'>
          <parameter type-id='type-id-397' is-artificial='yes'/>
          <parameter type-id='type-id-395'/>
          <return type-id='type-id-21'/>
        </function-decl>
      </member-function>
      <member-function access='protected'>
        <function-decl name='SetLIC0Shader' mangled-name='_ZN28vtkLineIntegralConvolution2D13SetLIC0ShaderEP17vtkShaderProgram2' filepath='/tmp/legendre/spack-stage/spack-stage-R_crTC/VTK-6.1.0/Rendering/LIC/vtkLineIntegralConvolution2D.cxx' line='1162' column='1' visibility='default' binding='global' size-in-bits='64' elf-symbol-id='_ZN28vtkLineIntegralConvolution2D13SetLIC0ShaderEP17vtkShaderProgram2' hash='7f32ffea222edbe7'>
          <parameter type-id='type-id-397' is-artificial='yes'/>
          <parameter type-id='type-id-395'/>
          <return type-id='type-id-21'/>
        </function-decl>
      </member-function>
      <member-function access='protected'>
        <function-decl name='SetLICIShader' mangled-name='_ZN28vtkLineIntegralConvolution2D13SetLICIShaderEP17vtkShaderProgram2' filepath='/tmp/legendre/spack-stage/spack-stage-R_crTC/VTK-6.1.0/Rendering/LIC/vtkLineIntegralConvolution2D.cxx' line='1168' column='1' visibility='default' binding='global' size-in-bits='64' elf-symbol-id='_ZN28vtkLineIntegralConvolution2D13SetLICIShaderEP17vtkShaderProgram2' hash='7f32ffea222edbe7'>
          <parameter type-id='type-id-397' is-artificial='yes'/>
          <parameter type-id='type-id-395'/>
          <return type-id='type-id-21'/>
        </function-decl>
      </member-function>
      <member-function access='protected'>
        <function-decl name='SetLICNShader' mangled-name='_ZN28vtkLineIntegralConvolution2D13SetLICNShaderEP17vtkShaderProgram2' filepath='/tmp/legendre/spack-stage/spack-stage-R_crTC/VTK-6.1.0/Rendering/LIC/vtkLineIntegralConvolution2D.cxx' line='1174' column='1' visibility='default' binding='global' size-in-bits='64' elf-symbol-id='_ZN28vtkLineIntegralConvolution2D13SetLICNShaderEP17vtkShaderProgram2' hash='7f32ffea222edbe7'>
          <parameter type-id='type-id-397' is-artificial='yes'/>
          <parameter type-id='type-id-395'/>
          <return type-id='type-id-21'/>
        </function-decl>
      </member-function>
      <member-function access='protected'>
        <function-decl name='SetEEShader' mangled-name='_ZN28vtkLineIntegralConvolution2D11SetEEShaderEP17vtkShaderProgram2' filepath='/tmp/legendre/spack-stage/spack-stage-R_crTC/VTK-6.1.0/Rendering/LIC/vtkLineIntegralConvolution2D.cxx' line='1180' column='1' visibility='default' binding='global' size-in-bits='64' elf-symbol-id='_ZN28vtkLineIntegralConvolution2D11SetEEShaderEP17vtkShaderProgram2' hash='7f32ffea222edbe7'>
          <parameter type-id='type-id-397' is-artificial='yes'/>
          <parameter type-id='type-id-395'/>
          <return type-id='type-id-21'/>
        </function-decl>
      </member-function>
      <member-function access='protected'>
        <function-decl name='SetCEShader' mangled-name='_ZN28vtkLineIntegralConvolution2D11SetCEShaderEP17vtkShaderProgram2' filepath='/tmp/legendre/spack-stage/spack-stage-R_crTC/VTK-6.1.0/Rendering/LIC/vtkLineIntegralConvolution2D.cxx' line='1185' column='1' visibility='default' binding='global' size-in-bits='64' elf-symbol-id='_ZN28vtkLineIntegralConvolution2D11SetCEShaderEP17vtkShaderProgram2' hash='7f32ffea222edbe7'>
          <parameter type-id='type-id-397' is-artificial='yes'/>
          <parameter type-id='type-id-395'/>
          <return type-id='type-id-21'/>
        </function-decl>
      </member-function>
      <member-function access='protected'>
        <function-decl name='SetAAHShader' mangled-name='_ZN28vtkLineIntegralConvolution2D12SetAAHShaderEP17vtkShaderProgram2' filepath='/tmp/legendre/spack-stage/spack-stage-R_crTC/VTK-6.1.0/Rendering/LIC/vtkLineIntegralConvolution2D.cxx' line='1191' column='1' visibility='default' binding='global' size-in-bits='64' elf-symbol-id='_ZN28vtkLineIntegralConvolution2D12SetAAHShaderEP17vtkShaderProgram2' hash='7f32ffea222edbe7'>
          <parameter type-id='type-id-397' is-artificial='yes'/>
          <parameter type-id='type-id-395'/>
          <return type-id='type-id-21'/>
        </function-decl>
      </member-function>
      <member-function access='protected'>
        <function-decl name='SetAAVShader' mangled-name='_ZN28vtkLineIntegralConvolution2D12SetAAVShaderEP17vtkShaderProgram2' filepath='/tmp/legendre/spack-stage/spack-stage-R_crTC/VTK-6.1.0/Rendering/LIC/vtkLineIntegralConvolution2D.cxx' line='1197' column='1' visibility='default' binding='global' size-in-bits='64' elf-symbol-id='_ZN28vtkLineIntegralConvolution2D12SetAAVShaderEP17vtkShaderProgram2' hash='7f32ffea222edbe7'>
          <parameter type-id='type-id-397' is-artificial='yes'/>
          <parameter type-id='type-id-395'/>
          <return type-id='type-id-21'/>
        </function-decl>
      </member-function>
      <member-function access='private' static='yes'>
        <function-decl name='SetVectorTexParameters' mangled-name='_ZN28vtkLineIntegralConvolution2D22SetVectorTexParametersEP16vtkTextureObject' filepath='/tmp/legendre/spack-stage/spack-stage-R_crTC/VTK-6.1.0/Rendering/LIC/vtkLineIntegralConvolution2D.cxx' line='1099' column='1' visibility='default' binding='global' size-in-bits='64' elf-symbol-id='_ZN28vtkLineIntegralConvolution2D22SetVectorTexParametersEP16vtkTextureObject' hash='7f32ffea222edbe7#2'>
          <parameter type-id='type-id-387'/>
          <return type-id='type-id-21'/>
        </function-decl>
      </member-function>
      <member-function access='private' static='yes'>
        <function-decl name='SetNoiseTexParameters' mangled-name='_ZN28vtkLineIntegralConvolution2D21SetNoiseTexParametersEP16vtkTextureObject' filepath='/tmp/legendre/spack-stage/spack-stage-R_crTC/VTK-6.1.0/Rendering/LIC/vtkLineIntegralConvolution2D.cxx' line='1084' column='1' visibility='default' binding='global' size-in-bits='64' elf-symbol-id='_ZN28vtkLineIntegralConvolution2D21SetNoiseTexParametersEP16vtkTextureObject' hash='7f32ffea222edbe7#2'>
          <parameter type-id='type-id-387'/>
          <return type-id='type-id-21'/>
        </function-decl>
      </member-function>
      <member-function access='private' static='yes'>
        <function-decl name='IsSupported' mangled-name='_ZN28vtkLineIntegralConvolution2D11IsSupportedEP15vtkRenderWindow' filepath='/tmp/legendre/spack-stage/spack-stage-R_crTC/VTK-6.1.0/Rendering/LIC/vtkLineIntegralConvolution2D.cxx' line='1049' column='1' visibility='default' binding='global' size-in-bits='64' elf-symbol-id='_ZN28vtkLineIntegralConvolution2D11IsSupportedEP15vtkRenderWindow' hash='c7c710e908194b91'>
          <parameter type-id='type-id-398'/>
          <return type-id='type-id-1'/>
        </function-decl>
      </member-function>
      <member-function access='private'>
        <function-decl name='SetContext' mangled-name='_ZN28vtkLineIntegralConvolution2D10SetContextEP15vtkRenderWindow' filepath='/tmp/legendre/spack-stage/spack-stage-R_crTC/VTK-6.1.0/Rendering/LIC/vtkLineIntegralConvolution2D.cxx' line='1030' column='1' visibility='default' binding='global' size-in-bits='64' elf-symbol-id='_ZN28vtkLineIntegralConvolution2D10SetContextEP15vtkRenderWindow' hash='7f32ffea222edbe7'>
          <parameter type-id='type-id-397' is-artificial='yes'/>
          <parameter type-id='type-id-398'/>
          <return type-id='type-id-21'/>
        </function-decl>
      </member-function>
      <member-function access='protected' constructor='yes'>
        <function-decl name='vtkLineIntegralConvolution2D' mangled-name='_ZN28vtkLineIntegralConvolution2DC1Ev' filepath='/tmp/legendre/spack-stage/spack-stage-R_crTC/VTK-6.1.0/Rendering/LIC/vtkLineIntegralConvolution2D.cxx' line='959' column='1' visibility='default' binding='global' size-in-bits='64' elf-symbol-id='_ZN28vtkLineIntegralConvolution2DC1Ev' hash='7f32ffea222edbe7'>
          <parameter type-id='type-id-397' is-artificial='yes'/>
          <return type-id='type-id-21'/>
        </function-decl>
      </member-function>
      <member-function access='private' static='yes'>
        <function-decl name='New' mangled-name='_ZN28vtkLineIntegralConvolution2D3NewEv' filepath='/tmp/legendre/spack-stage/spack-stage-R_crTC/VTK-6.1.0/Rendering/LIC/vtkLineIntegralConvolution2D.cxx' line='956' column='1' visibility='default' binding='global' size-in-bits='64' elf-symbol-id='_ZN28vtkLineIntegralConvolution2D3NewEv' hash='4bd61153efe40e7e'>
          <return type-id='type-id-397'/>
        </function-decl>
      </member-function>
      <member-function access='protected'>
        <function-decl name='BuildShaders' mangled-name='_ZN28vtkLineIntegralConvolution2D12BuildShadersEv' filepath='/tmp/legendre/spack-stage/spack-stage-R_crTC/VTK-6.1.0/Rendering/LIC/vtkLineIntegralConvolution2D.cxx' line='1203' column='1' visibility='default' binding='global' size-in-bits='64' elf-symbol-id='_ZN28vtkLineIntegralConvolution2D12BuildShadersEv' hash='7f32ffea222edbe7'>
          <parameter type-id='type-id-397' is-artificial='yes'/>
          <return type-id='type-id-21'/>
        </function-decl>
      </member-function>
      <member-function access='private'>
        <function-decl name='Execute' mangled-name='_ZN28vtkLineIntegralConvolution2D7ExecuteERK14vtkPixelExtentRKSt5dequeIS0_SaIS0_EES7_P16vtkTextureObjectS9_S9_' filepath='/tmp/legendre/spack-stage/spack-stage-R_crTC/VTK-6.1.0/Rendering/LIC/vtkLineIntegralConvolution2D.cxx' line='1453' column='1' visibility='default' binding='global' size-in-bits='64' elf-symbol-id='_ZN28vtkLineIntegralConvolution2D7ExecuteERK14vtkPixelExtentRKSt5dequeIS0_SaIS0_EES7_P16vtkTextureObjectS9_S9_' hash='d60130dfe1a909ff'>
          <parameter type-id='type-id-397' is-artificial='yes'/>
          <parameter type-id='type-id-32'/>
          <parameter type-id='type-id-161'/>
          <parameter type-id='type-id-161'/>
          <parameter type-id='type-id-387'/>
          <parameter type-id='type-id-387'/>
          <parameter type-id='type-id-387'/>
          <return type-id='type-id-387'/>
        </function-decl>
      </member-function>
      <member-function access='private'>
        <function-decl name='Execute' mangled-name='_ZN28vtkLineIntegralConvolution2D7ExecuteEPKiP16vtkTextureObjectS3_' filepath='/tmp/legendre/spack-stage/spack-stage-R_crTC/VTK-6.1.0/Rendering/LIC/vtkLineIntegralConvolution2D.cxx' line='1417' column='1' visibility='default' binding='global' size-in-bits='64' elf-symbol-id='_ZN28vtkLineIntegralConvolution2D7ExecuteEPKiP16vtkTextureObjectS3_' hash='db02317d0e5006f8'>
          <parameter type-id='type-id-397' is-artificial='yes'/>
          <parameter type-id='type-id-19'/>
          <parameter type-id='type-id-387'/>
          <parameter type-id='type-id-387'/>
          <return type-id='type-id-387'/>
        </function-decl>
      </member-function>
      <member-function access='private'>
        <function-decl name='Execute' mangled-name='_ZN28vtkLineIntegralConvolution2D7ExecuteEP16vtkTextureObjectS1_' filepath='/tmp/legendre/spack-stage/spack-stage-R_crTC/VTK-6.1.0/Rendering/LIC/vtkLineIntegralConvolution2D.cxx' line='1399' column='1' visibility='default' binding='global' size-in-bits='64' elf-symbol-id='_ZN28vtkLineIntegralConvolution2D7ExecuteEP16vtkTextureObjectS1_' hash='7f32ffea222edbe7'>
          <parameter type-id='type-id-397' is-artificial='yes'/>
          <parameter type-id='type-id-387'/>
          <parameter type-id='type-id-387'/>
          <return type-id='type-id-387'/>
        </function-decl>
      </member-function>
      <member-function access='protected' destructor='yes' vtable-offset='-1'>
        <function-decl name='~vtkLineIntegralConvolution2D' filepath='/tmp/legendre/spack-stage/spack-stage-R_crTC/VTK-6.1.0/Rendering/LIC/vtkLineIntegralConvolution2D.cxx' line='994' column='1' visibility='default' binding='global' size-in-bits='64' hash='388da3fa973fde78'>
          <parameter type-id='type-id-397' is-artificial='yes'/>
          <parameter type-id='type-id-13'/>
          <return type-id='type-id-21'/>
        </function-decl>
      </member-function>
      <member-function access='protected' destructor='yes' vtable-offset='-1'>
        <function-decl name='~vtkLineIntegralConvolution2D' mangled-name='_ZN28vtkLineIntegralConvolution2DD0Ev' filepath='/tmp/legendre/spack-stage/spack-stage-R_crTC/VTK-6.1.0/Rendering/LIC/vtkLineIntegralConvolution2D.cxx' line='994' column='1' visibility='default' binding='global' size-in-bits='64' elf-symbol-id='_ZN28vtkLineIntegralConvolution2DD0Ev' hash='7f32ffea222edbe7'>
          <parameter type-id='type-id-397' is-artificial='yes'/>
          <return type-id='type-id-21'/>
        </function-decl>
      </member-function>
      <member-function access='protected' destructor='yes' vtable-offset='-1'>
        <function-decl name='~vtkLineIntegralConvolution2D' mangled-name='_ZN28vtkLineIntegralConvolution2DD1Ev' filepath='/tmp/legendre/spack-stage/spack-stage-R_crTC/VTK-6.1.0/Rendering/LIC/vtkLineIntegralConvolution2D.cxx' line='994' column='1' visibility='default' binding='global' size-in-bits='64' elf-symbol-id='_ZN28vtkLineIntegralConvolution2DD1Ev' hash='7f32ffea222edbe7'>
          <parameter type-id='type-id-397' is-artificial='yes'/>
          <return type-id='type-id-21'/>
        </function-decl>
      </member-function>
      <member-function access='private' const='yes' vtable-offset='0'>
        <function-decl name='GetClassNameInternal' mangled-name='_ZNK28vtkLineIntegralConvolution2D20GetClassNameInternalEv' filepath='/tmp/legendre/spack-stage/spack-stage-R_crTC/VTK-6.1.0/Rendering/LIC/vtkLineIntegralConvolution2D.h' line='108' column='1' visibility='default' binding='global' size-in-bits='64' hash='53885bde0aa65efe'>
          <parameter type-id='type-id-399' is-artificial='yes'/>
          <return type-id='type-id-23'/>
        </function-decl>
      </member-function>
      <member-function access='private' vtable-offset='1'>
        <function-decl name='IsA' mangled-name='_ZN28vtkLineIntegralConvolution2D3IsAEPKc' filepath='/tmp/legendre/spack-stage/spack-stage-R_crTC/VTK-6.1.0/Rendering/LIC/vtkLineIntegralConvolution2D.h' line='108' column='1' visibility='default' binding='global' size-in-bits='64' hash='e9ea91a7eab8302c'>
          <parameter type-id='type-id-397' is-artificial='yes'/>
          <parameter type-id='type-id-23'/>
          <return type-id='type-id-13'/>
        </function-decl>
      </member-function>
      <member-function access='private' vtable-offset='4'>
        <function-decl name='PrintSelf' mangled-name='_ZN28vtkLineIntegralConvolution2D9PrintSelfERSo9vtkIndent' filepath='/tmp/legendre/spack-stage/spack-stage-R_crTC/VTK-6.1.0/Rendering/LIC/vtkLineIntegralConvolution2D.cxx' line='2129' column='1' visibility='default' binding='global' size-in-bits='64' elf-symbol-id='_ZN28vtkLineIntegralConvolution2D9PrintSelfERSo9vtkIndent' hash='7f32ffea222edbe7'>
          <parameter type-id='type-id-397' is-artificial='yes'/>
          <parameter type-id='type-id-24'/>
          <parameter type-id='type-id-25'/>
          <return type-id='type-id-21'/>
        </function-decl>
      </member-function>
      <member-function access='protected' const='yes' vtable-offset='15'>
        <function-decl name='NewInstanceInternal' mangled-name='_ZNK28vtkLineIntegralConvolution2D19NewInstanceInternalEv' filepath='/tmp/legendre/spack-stage/spack-stage-R_crTC/VTK-6.1.0/Rendering/LIC/vtkLineIntegralConvolution2D.h' line='108' column='1' visibility='default' binding='global' size-in-bits='64' hash='7f32ffea222edbe7'>
          <parameter type-id='type-id-399' is-artificial='yes'/>
          <return type-id='type-id-400'/>
        </function-decl>
      </member-function>
      <member-function access='private' vtable-offset='20'>
        <function-decl name='SetEnhancedLIC' mangled-name='_ZN28vtkLineIntegralConvolution2D14SetEnhancedLICEi' filepath='/tmp/legendre/spack-stage/spack-stage-R_crTC/VTK-6.1.0/Rendering/LIC/vtkLineIntegralConvolution2D.h' line='125' column='1' visibility='default' binding='global' size-in-bits='64' hash='388da3fa973fde78'>
          <parameter type-id='type-id-397' is-artificial='yes'/>
          <parameter type-id='type-id-13'/>
          <return type-id='type-id-21'/>
        </function-decl>
      </member-function>
      <member-function access='private' vtable-offset='21'>
        <function-decl name='GetEnhancedLICMinValue' mangled-name='_ZN28vtkLineIntegralConvolution2D22GetEnhancedLICMinValueEv' filepath='/tmp/legendre/spack-stage/spack-stage-R_crTC/VTK-6.1.0/Rendering/LIC/vtkLineIntegralConvolution2D.h' line='125' column='1' visibility='default' binding='global' size-in-bits='64' hash='388da3fa973fde78'>
          <parameter type-id='type-id-397' is-artificial='yes'/>
          <return type-id='type-id-13'/>
        </function-decl>
      </member-function>
      <member-function access='private' vtable-offset='22'>
        <function-decl name='GetEnhancedLICMaxValue' mangled-name='_ZN28vtkLineIntegralConvolution2D22GetEnhancedLICMaxValueEv' filepath='/tmp/legendre/spack-stage/spack-stage-R_crTC/VTK-6.1.0/Rendering/LIC/vtkLineIntegralConvolution2D.h' line='125' column='1' visibility='default' binding='global' size-in-bits='64' hash='388da3fa973fde78'>
          <parameter type-id='type-id-397' is-artificial='yes'/>
          <return type-id='type-id-13'/>
        </function-decl>
      </member-function>
      <member-function access='private' vtable-offset='23'>
        <function-decl name='GetEnhancedLIC' mangled-name='_ZN28vtkLineIntegralConvolution2D14GetEnhancedLICEv' filepath='/tmp/legendre/spack-stage/spack-stage-R_crTC/VTK-6.1.0/Rendering/LIC/vtkLineIntegralConvolution2D.h' line='126' column='1' visibility='default' binding='global' size-in-bits='64' hash='388da3fa973fde78'>
          <parameter type-id='type-id-397' is-artificial='yes'/>
          <return type-id='type-id-13'/>
        </function-decl>
      </member-function>
      <member-function access='private' vtable-offset='24'>
        <function-decl name='EnhancedLICOn' mangled-name='_ZN28vtkLineIntegralConvolution2D13EnhancedLICOnEv' filepath='/tmp/legendre/spack-stage/spack-stage-R_crTC/VTK-6.1.0/Rendering/LIC/vtkLineIntegralConvolution2D.h' line='127' column='1' visibility='default' binding='global' size-in-bits='64' hash='7f32ffea222edbe7'>
          <parameter type-id='type-id-397' is-artificial='yes'/>
          <return type-id='type-id-21'/>
        </function-decl>
      </member-function>
      <member-function access='private' vtable-offset='25'>
        <function-decl name='EnhancedLICOff' mangled-name='_ZN28vtkLineIntegralConvolution2D14EnhancedLICOffEv' filepath='/tmp/legendre/spack-stage/spack-stage-R_crTC/VTK-6.1.0/Rendering/LIC/vtkLineIntegralConvolution2D.h' line='127' column='1' visibility='default' binding='global' size-in-bits='64' hash='7f32ffea222edbe7'>
          <parameter type-id='type-id-397' is-artificial='yes'/>
          <return type-id='type-id-21'/>
        </function-decl>
      </member-function>
      <member-function access='private' vtable-offset='26'>
        <function-decl name='SetEnhanceContrast' mangled-name='_ZN28vtkLineIntegralConvolution2D18SetEnhanceContrastEi' filepath='/tmp/legendre/spack-stage/spack-stage-R_crTC/VTK-6.1.0/Rendering/LIC/vtkLineIntegralConvolution2D.h' line='152' column='1' visibility='default' binding='global' size-in-bits='64' hash='388da3fa973fde78'>
          <parameter type-id='type-id-397' is-artificial='yes'/>
          <parameter type-id='type-id-13'/>
          <return type-id='type-id-21'/>
        </function-decl>
      </member-function>
      <member-function access='private' vtable-offset='27'>
        <function-decl name='GetEnhanceContrastMinValue' mangled-name='_ZN28vtkLineIntegralConvolution2D26GetEnhanceContrastMinValueEv' filepath='/tmp/legendre/spack-stage/spack-stage-R_crTC/VTK-6.1.0/Rendering/LIC/vtkLineIntegralConvolution2D.h' line='152' column='1' visibility='default' binding='global' size-in-bits='64' hash='388da3fa973fde78'>
          <parameter type-id='type-id-397' is-artificial='yes'/>
          <return type-id='type-id-13'/>
        </function-decl>
      </member-function>
      <member-function access='private' vtable-offset='28'>
        <function-decl name='GetEnhanceContrastMaxValue' mangled-name='_ZN28vtkLineIntegralConvolution2D26GetEnhanceContrastMaxValueEv' filepath='/tmp/legendre/spack-stage/spack-stage-R_crTC/VTK-6.1.0/Rendering/LIC/vtkLineIntegralConvolution2D.h' line='152' column='1' visibility='default' binding='global' size-in-bits='64' hash='388da3fa973fde78'>
          <parameter type-id='type-id-397' is-artificial='yes'/>
          <return type-id='type-id-13'/>
        </function-decl>
      </member-function>
      <member-function access='private' vtable-offset='29'>
        <function-decl name='GetEnhanceContrast' mangled-name='_ZN28vtkLineIntegralConvolution2D18GetEnhanceContrastEv' filepath='/tmp/legendre/spack-stage/spack-stage-R_crTC/VTK-6.1.0/Rendering/LIC/vtkLineIntegralConvolution2D.h' line='153' column='1' visibility='default' binding='global' size-in-bits='64' hash='388da3fa973fde78'>
          <parameter type-id='type-id-397' is-artificial='yes'/>
          <return type-id='type-id-13'/>
        </function-decl>
      </member-function>
      <member-function access='private' vtable-offset='30'>
        <function-decl name='EnhanceContrastOn' mangled-name='_ZN28vtkLineIntegralConvolution2D17EnhanceContrastOnEv' filepath='/tmp/legendre/spack-stage/spack-stage-R_crTC/VTK-6.1.0/Rendering/LIC/vtkLineIntegralConvolution2D.h' line='154' column='1' visibility='default' binding='global' size-in-bits='64' hash='7f32ffea222edbe7'>
          <parameter type-id='type-id-397' is-artificial='yes'/>
          <return type-id='type-id-21'/>
        </function-decl>
      </member-function>
      <member-function access='private' vtable-offset='31'>
        <function-decl name='EnhanceContrastOff' mangled-name='_ZN28vtkLineIntegralConvolution2D18EnhanceContrastOffEv' filepath='/tmp/legendre/spack-stage/spack-stage-R_crTC/VTK-6.1.0/Rendering/LIC/vtkLineIntegralConvolution2D.h' line='154' column='1' visibility='default' binding='global' size-in-bits='64' hash='7f32ffea222edbe7'>
          <parameter type-id='type-id-397' is-artificial='yes'/>
          <return type-id='type-id-21'/>
        </function-decl>
      </member-function>
      <member-function access='private' vtable-offset='32'>
        <function-decl name='SetLowContrastEnhancementFactor' mangled-name='_ZN28vtkLineIntegralConvolution2D31SetLowContrastEnhancementFactorEd' filepath='/tmp/legendre/spack-stage/spack-stage-R_crTC/VTK-6.1.0/Rendering/LIC/vtkLineIntegralConvolution2D.h' line='172' column='1' visibility='default' binding='global' size-in-bits='64' hash='14e245f4052d89de'>
          <parameter type-id='type-id-397' is-artificial='yes'/>
          <parameter type-id='type-id-16'/>
          <return type-id='type-id-21'/>
        </function-decl>
      </member-function>
      <member-function access='private' vtable-offset='33'>
        <function-decl name='GetLowContrastEnhancementFactorMinValue' mangled-name='_ZN28vtkLineIntegralConvolution2D39GetLowContrastEnhancementFactorMinValueEv' filepath='/tmp/legendre/spack-stage/spack-stage-R_crTC/VTK-6.1.0/Rendering/LIC/vtkLineIntegralConvolution2D.h' line='172' column='1' visibility='default' binding='global' size-in-bits='64' hash='14e245f4052d89de'>
          <parameter type-id='type-id-397' is-artificial='yes'/>
          <return type-id='type-id-16'/>
        </function-decl>
      </member-function>
      <member-function access='private' vtable-offset='34'>
        <function-decl name='GetLowContrastEnhancementFactorMaxValue' mangled-name='_ZN28vtkLineIntegralConvolution2D39GetLowContrastEnhancementFactorMaxValueEv' filepath='/tmp/legendre/spack-stage/spack-stage-R_crTC/VTK-6.1.0/Rendering/LIC/vtkLineIntegralConvolution2D.h' line='172' column='1' visibility='default' binding='global' size-in-bits='64' hash='14e245f4052d89de'>
          <parameter type-id='type-id-397' is-artificial='yes'/>
          <return type-id='type-id-16'/>
        </function-decl>
      </member-function>
      <member-function access='private' vtable-offset='35'>
        <function-decl name='GetLowContrastEnhancementFactor' mangled-name='_ZN28vtkLineIntegralConvolution2D31GetLowContrastEnhancementFactorEv' filepath='/tmp/legendre/spack-stage/spack-stage-R_crTC/VTK-6.1.0/Rendering/LIC/vtkLineIntegralConvolution2D.h' line='173' column='1' visibility='default' binding='global' size-in-bits='64' hash='14e245f4052d89de'>
          <parameter type-id='type-id-397' is-artificial='yes'/>
          <return type-id='type-id-16'/>
        </function-decl>
      </member-function>
      <member-function access='private' vtable-offset='36'>
        <function-decl name='SetHighContrastEnhancementFactor' mangled-name='_ZN28vtkLineIntegralConvolution2D32SetHighContrastEnhancementFactorEd' filepath='/tmp/legendre/spack-stage/spack-stage-R_crTC/VTK-6.1.0/Rendering/LIC/vtkLineIntegralConvolution2D.h' line='174' column='1' visibility='default' binding='global' size-in-bits='64' hash='14e245f4052d89de'>
          <parameter type-id='type-id-397' is-artificial='yes'/>
          <parameter type-id='type-id-16'/>
          <return type-id='type-id-21'/>
        </function-decl>
      </member-function>
      <member-function access='private' vtable-offset='37'>
        <function-decl name='GetHighContrastEnhancementFactorMinValue' mangled-name='_ZN28vtkLineIntegralConvolution2D40GetHighContrastEnhancementFactorMinValueEv' filepath='/tmp/legendre/spack-stage/spack-stage-R_crTC/VTK-6.1.0/Rendering/LIC/vtkLineIntegralConvolution2D.h' line='174' column='1' visibility='default' binding='global' size-in-bits='64' hash='14e245f4052d89de'>
          <parameter type-id='type-id-397' is-artificial='yes'/>
          <return type-id='type-id-16'/>
        </function-decl>
      </member-function>
      <member-function access='private' vtable-offset='38'>
        <function-decl name='GetHighContrastEnhancementFactorMaxValue' mangled-name='_ZN28vtkLineIntegralConvolution2D40GetHighContrastEnhancementFactorMaxValueEv' filepath='/tmp/legendre/spack-stage/spack-stage-R_crTC/VTK-6.1.0/Rendering/LIC/vtkLineIntegralConvolution2D.h' line='174' column='1' visibility='default' binding='global' size-in-bits='64' hash='14e245f4052d89de'>
          <parameter type-id='type-id-397' is-artificial='yes'/>
          <return type-id='type-id-16'/>
        </function-decl>
      </member-function>
      <member-function access='private' vtable-offset='39'>
        <function-decl name='GetHighContrastEnhancementFactor' mangled-name='_ZN28vtkLineIntegralConvolution2D32GetHighContrastEnhancementFactorEv' filepath='/tmp/legendre/spack-stage/spack-stage-R_crTC/VTK-6.1.0/Rendering/LIC/vtkLineIntegralConvolution2D.h' line='175' column='1' visibility='default' binding='global' size-in-bits='64' hash='14e245f4052d89de'>
          <parameter type-id='type-id-397' is-artificial='yes'/>
          <return type-id='type-id-16'/>
        </function-decl>
      </member-function>
      <member-function access='private' vtable-offset='40'>
        <function-decl name='SetAntiAlias' mangled-name='_ZN28vtkLineIntegralConvolution2D12SetAntiAliasEi' filepath='/tmp/legendre/spack-stage/spack-stage-R_crTC/VTK-6.1.0/Rendering/LIC/vtkLineIntegralConvolution2D.h' line='182' column='1' visibility='default' binding='global' size-in-bits='64' hash='388da3fa973fde78'>
          <parameter type-id='type-id-397' is-artificial='yes'/>
          <parameter type-id='type-id-13'/>
          <return type-id='type-id-21'/>
        </function-decl>
      </member-function>
      <member-function access='private' vtable-offset='41'>
        <function-decl name='GetAntiAliasMinValue' mangled-name='_ZN28vtkLineIntegralConvolution2D20GetAntiAliasMinValueEv' filepath='/tmp/legendre/spack-stage/spack-stage-R_crTC/VTK-6.1.0/Rendering/LIC/vtkLineIntegralConvolution2D.h' line='182' column='1' visibility='default' binding='global' size-in-bits='64' hash='388da3fa973fde78'>
          <parameter type-id='type-id-397' is-artificial='yes'/>
          <return type-id='type-id-13'/>
        </function-decl>
      </member-function>
      <member-function access='private' vtable-offset='42'>
        <function-decl name='GetAntiAliasMaxValue' mangled-name='_ZN28vtkLineIntegralConvolution2D20GetAntiAliasMaxValueEv' filepath='/tmp/legendre/spack-stage/spack-stage-R_crTC/VTK-6.1.0/Rendering/LIC/vtkLineIntegralConvolution2D.h' line='182' column='1' visibility='default' binding='global' size-in-bits='64' hash='388da3fa973fde78'>
          <parameter type-id='type-id-397' is-artificial='yes'/>
          <return type-id='type-id-13'/>
        </function-decl>
      </member-function>
      <member-function access='private' vtable-offset='43'>
        <function-decl name='GetAntiAlias' mangled-name='_ZN28vtkLineIntegralConvolution2D12GetAntiAliasEv' filepath='/tmp/legendre/spack-stage/spack-stage-R_crTC/VTK-6.1.0/Rendering/LIC/vtkLineIntegralConvolution2D.h' line='183' column='1' visibility='default' binding='global' size-in-bits='64' hash='388da3fa973fde78'>
          <parameter type-id='type-id-397' is-artificial='yes'/>
          <return type-id='type-id-13'/>
        </function-decl>
      </member-function>
      <member-function access='private' vtable-offset='44'>
        <function-decl name='AntiAliasOn' mangled-name='_ZN28vtkLineIntegralConvolution2D11AntiAliasOnEv' filepath='/tmp/legendre/spack-stage/spack-stage-R_crTC/VTK-6.1.0/Rendering/LIC/vtkLineIntegralConvolution2D.h' line='184' column='1' visibility='default' binding='global' size-in-bits='64' hash='7f32ffea222edbe7'>
          <parameter type-id='type-id-397' is-artificial='yes'/>
          <return type-id='type-id-21'/>
        </function-decl>
      </member-function>
      <member-function access='private' vtable-offset='45'>
        <function-decl name='AntiAliasOff' mangled-name='_ZN28vtkLineIntegralConvolution2D12AntiAliasOffEv' filepath='/tmp/legendre/spack-stage/spack-stage-R_crTC/VTK-6.1.0/Rendering/LIC/vtkLineIntegralConvolution2D.h' line='184' column='1' visibility='default' binding='global' size-in-bits='64' hash='7f32ffea222edbe7'>
          <parameter type-id='type-id-397' is-artificial='yes'/>
          <return type-id='type-id-21'/>
        </function-decl>
      </member-function>
      <member-function access='private' vtable-offset='46'>
        <function-decl name='SetNumberOfSteps' mangled-name='_ZN28vtkLineIntegralConvolution2D16SetNumberOfStepsEi' filepath='/tmp/legendre/spack-stage/spack-stage-R_crTC/VTK-6.1.0/Rendering/LIC/vtkLineIntegralConvolution2D.h' line='189' column='1' visibility='default' binding='global' size-in-bits='64' hash='388da3fa973fde78'>
          <parameter type-id='type-id-397' is-artificial='yes'/>
          <parameter type-id='type-id-13'/>
          <return type-id='type-id-21'/>
        </function-decl>
      </member-function>
      <member-function access='private' vtable-offset='47'>
        <function-decl name='GetNumberOfStepsMinValue' mangled-name='_ZN28vtkLineIntegralConvolution2D24GetNumberOfStepsMinValueEv' filepath='/tmp/legendre/spack-stage/spack-stage-R_crTC/VTK-6.1.0/Rendering/LIC/vtkLineIntegralConvolution2D.h' line='189' column='1' visibility='default' binding='global' size-in-bits='64' hash='388da3fa973fde78'>
          <parameter type-id='type-id-397' is-artificial='yes'/>
          <return type-id='type-id-13'/>
        </function-decl>
      </member-function>
      <member-function access='private' vtable-offset='48'>
        <function-decl name='GetNumberOfStepsMaxValue' mangled-name='_ZN28vtkLineIntegralConvolution2D24GetNumberOfStepsMaxValueEv' filepath='/tmp/legendre/spack-stage/spack-stage-R_crTC/VTK-6.1.0/Rendering/LIC/vtkLineIntegralConvolution2D.h' line='189' column='1' visibility='default' binding='global' size-in-bits='64' hash='388da3fa973fde78'>
          <parameter type-id='type-id-397' is-artificial='yes'/>
          <return type-id='type-id-13'/>
        </function-decl>
      </member-function>
      <member-function access='private' vtable-offset='49'>
        <function-decl name='GetNumberOfSteps' mangled-name='_ZN28vtkLineIntegralConvolution2D16GetNumberOfStepsEv' filepath='/tmp/legendre/spack-stage/spack-stage-R_crTC/VTK-6.1.0/Rendering/LIC/vtkLineIntegralConvolution2D.h' line='190' column='1' visibility='default' binding='global' size-in-bits='64' hash='388da3fa973fde78'>
          <parameter type-id='type-id-397' is-artificial='yes'/>
          <return type-id='type-id-13'/>
        </function-decl>
      </member-function>
      <member-function access='private' vtable-offset='50'>
        <function-decl name='SetStepSize' mangled-name='_ZN28vtkLineIntegralConvolution2D11SetStepSizeEd' filepath='/tmp/legendre/spack-stage/spack-stage-R_crTC/VTK-6.1.0/Rendering/LIC/vtkLineIntegralConvolution2D.h' line='198' column='1' visibility='default' binding='global' size-in-bits='64' hash='14e245f4052d89de'>
          <parameter type-id='type-id-397' is-artificial='yes'/>
          <parameter type-id='type-id-16'/>
          <return type-id='type-id-21'/>
        </function-decl>
      </member-function>
      <member-function access='private' vtable-offset='51'>
        <function-decl name='GetStepSizeMinValue' mangled-name='_ZN28vtkLineIntegralConvolution2D19GetStepSizeMinValueEv' filepath='/tmp/legendre/spack-stage/spack-stage-R_crTC/VTK-6.1.0/Rendering/LIC/vtkLineIntegralConvolution2D.h' line='198' column='1' visibility='default' binding='global' size-in-bits='64' hash='14e245f4052d89de'>
          <parameter type-id='type-id-397' is-artificial='yes'/>
          <return type-id='type-id-16'/>
        </function-decl>
      </member-function>
      <member-function access='private' vtable-offset='52'>
        <function-decl name='GetStepSizeMaxValue' mangled-name='_ZN28vtkLineIntegralConvolution2D19GetStepSizeMaxValueEv' filepath='/tmp/legendre/spack-stage/spack-stage-R_crTC/VTK-6.1.0/Rendering/LIC/vtkLineIntegralConvolution2D.h' line='198' column='1' visibility='default' binding='global' size-in-bits='64' hash='14e245f4052d89de'>
          <parameter type-id='type-id-397' is-artificial='yes'/>
          <return type-id='type-id-16'/>
        </function-decl>
      </member-function>
      <member-function access='private' vtable-offset='53'>
        <function-decl name='GetStepSize' mangled-name='_ZN28vtkLineIntegralConvolution2D11GetStepSizeEv' filepath='/tmp/legendre/spack-stage/spack-stage-R_crTC/VTK-6.1.0/Rendering/LIC/vtkLineIntegralConvolution2D.h' line='199' column='1' visibility='default' binding='global' size-in-bits='64' hash='14e245f4052d89de'>
          <parameter type-id='type-id-397' is-artificial='yes'/>
          <return type-id='type-id-16'/>
        </function-decl>
      </member-function>
      <member-function access='private' vtable-offset='54'>
        <function-decl name='GetComponentIds' mangled-name='_ZN28vtkLineIntegralConvolution2D15GetComponentIdsEv' filepath='/tmp/legendre/spack-stage/spack-stage-R_crTC/VTK-6.1.0/Rendering/LIC/vtkLineIntegralConvolution2D.h' line='207' column='1' visibility='default' binding='global' size-in-bits='64' hash='c0e4f5f42afc96e0'>
          <parameter type-id='type-id-397' is-artificial='yes'/>
          <return type-id='type-id-20'/>
        </function-decl>
      </member-function>
      <member-function access='private' vtable-offset='55'>
        <function-decl name='GetComponentIds' mangled-name='_ZN28vtkLineIntegralConvolution2D15GetComponentIdsERiS0_' filepath='/tmp/legendre/spack-stage/spack-stage-R_crTC/VTK-6.1.0/Rendering/LIC/vtkLineIntegralConvolution2D.h' line='207' column='1' visibility='default' binding='global' size-in-bits='64' hash='8f7cb110d87bf667'>
          <parameter type-id='type-id-397' is-artificial='yes'/>
          <parameter type-id='type-id-189'/>
          <parameter type-id='type-id-189'/>
          <return type-id='type-id-21'/>
        </function-decl>
      </member-function>
      <member-function access='private' vtable-offset='56'>
        <function-decl name='GetComponentIds' mangled-name='_ZN28vtkLineIntegralConvolution2D15GetComponentIdsEPi' filepath='/tmp/legendre/spack-stage/spack-stage-R_crTC/VTK-6.1.0/Rendering/LIC/vtkLineIntegralConvolution2D.h' line='207' column='1' visibility='default' binding='global' size-in-bits='64' hash='c0e4f5f42afc96e0'>
          <parameter type-id='type-id-397' is-artificial='yes'/>
          <parameter type-id='type-id-20'/>
          <return type-id='type-id-21'/>
        </function-decl>
      </member-function>
      <member-function access='private' vtable-offset='57'>
        <function-decl name='SetMaxNoiseValue' mangled-name='_ZN28vtkLineIntegralConvolution2D16SetMaxNoiseValueEd' filepath='/tmp/legendre/spack-stage/spack-stage-R_crTC/VTK-6.1.0/Rendering/LIC/vtkLineIntegralConvolution2D.h' line='213' column='1' visibility='default' binding='global' size-in-bits='64' hash='14e245f4052d89de'>
          <parameter type-id='type-id-397' is-artificial='yes'/>
          <parameter type-id='type-id-16'/>
          <return type-id='type-id-21'/>
        </function-decl>
      </member-function>
      <member-function access='private' vtable-offset='58'>
        <function-decl name='GetMaxNoiseValueMinValue' mangled-name='_ZN28vtkLineIntegralConvolution2D24GetMaxNoiseValueMinValueEv' filepath='/tmp/legendre/spack-stage/spack-stage-R_crTC/VTK-6.1.0/Rendering/LIC/vtkLineIntegralConvolution2D.h' line='213' column='1' visibility='default' binding='global' size-in-bits='64' hash='14e245f4052d89de'>
          <parameter type-id='type-id-397' is-artificial='yes'/>
          <return type-id='type-id-16'/>
        </function-decl>
      </member-function>
      <member-function access='private' vtable-offset='59'>
        <function-decl name='GetMaxNoiseValueMaxValue' mangled-name='_ZN28vtkLineIntegralConvolution2D24GetMaxNoiseValueMaxValueEv' filepath='/tmp/legendre/spack-stage/spack-stage-R_crTC/VTK-6.1.0/Rendering/LIC/vtkLineIntegralConvolution2D.h' line='213' column='1' visibility='default' binding='global' size-in-bits='64' hash='14e245f4052d89de'>
          <parameter type-id='type-id-397' is-artificial='yes'/>
          <return type-id='type-id-16'/>
        </function-decl>
      </member-function>
      <member-function access='private' vtable-offset='60'>
        <function-decl name='GetMaxNoiseValue' mangled-name='_ZN28vtkLineIntegralConvolution2D16GetMaxNoiseValueEv' filepath='/tmp/legendre/spack-stage/spack-stage-R_crTC/VTK-6.1.0/Rendering/LIC/vtkLineIntegralConvolution2D.h' line='214' column='1' visibility='default' binding='global' size-in-bits='64' hash='14e245f4052d89de'>
          <parameter type-id='type-id-397' is-artificial='yes'/>
          <return type-id='type-id-16'/>
        </function-decl>
      </member-function>
      <member-function access='private' vtable-offset='61'>
        <function-decl name='GetTransformVectors' mangled-name='_ZN28vtkLineIntegralConvolution2D19GetTransformVectorsEv' filepath='/tmp/legendre/spack-stage/spack-stage-R_crTC/VTK-6.1.0/Rendering/LIC/vtkLineIntegralConvolution2D.h' line='222' column='1' visibility='default' binding='global' size-in-bits='64' hash='388da3fa973fde78'>
          <parameter type-id='type-id-397' is-artificial='yes'/>
          <return type-id='type-id-13'/>
        </function-decl>
      </member-function>
      <member-function access='private' vtable-offset='62'>
        <function-decl name='GetNormalizeVectors' mangled-name='_ZN28vtkLineIntegralConvolution2D19GetNormalizeVectorsEv' filepath='/tmp/legendre/spack-stage/spack-stage-R_crTC/VTK-6.1.0/Rendering/LIC/vtkLineIntegralConvolution2D.h' line='243' column='1' visibility='default' binding='global' size-in-bits='64' hash='388da3fa973fde78'>
          <parameter type-id='type-id-397' is-artificial='yes'/>
          <return type-id='type-id-13'/>
        </function-decl>
      </member-function>
      <member-function access='private' vtable-offset='63'>
        <function-decl name='SetMaskThreshold' mangled-name='_ZN28vtkLineIntegralConvolution2D16SetMaskThresholdEd' filepath='/tmp/legendre/spack-stage/spack-stage-R_crTC/VTK-6.1.0/Rendering/LIC/vtkLineIntegralConvolution2D.h' line='253' column='1' visibility='default' binding='global' size-in-bits='64' hash='14e245f4052d89de'>
          <parameter type-id='type-id-397' is-artificial='yes'/>
          <parameter type-id='type-id-16'/>
          <return type-id='type-id-21'/>
        </function-decl>
      </member-function>
      <member-function access='private' vtable-offset='64'>
        <function-decl name='GetMaskThresholdMinValue' mangled-name='_ZN28vtkLineIntegralConvolution2D24GetMaskThresholdMinValueEv' filepath='/tmp/legendre/spack-stage/spack-stage-R_crTC/VTK-6.1.0/Rendering/LIC/vtkLineIntegralConvolution2D.h' line='253' column='1' visibility='default' binding='global' size-in-bits='64' hash='14e245f4052d89de'>
          <parameter type-id='type-id-397' is-artificial='yes'/>
          <return type-id='type-id-16'/>
        </function-decl>
      </member-function>
      <member-function access='private' vtable-offset='65'>
        <function-decl name='GetMaskThresholdMaxValue' mangled-name='_ZN28vtkLineIntegralConvolution2D24GetMaskThresholdMaxValueEv' filepath='/tmp/legendre/spack-stage/spack-stage-R_crTC/VTK-6.1.0/Rendering/LIC/vtkLineIntegralConvolution2D.h' line='253' column='1' visibility='default' binding='global' size-in-bits='64' hash='14e245f4052d89de'>
          <parameter type-id='type-id-397' is-artificial='yes'/>
          <return type-id='type-id-16'/>
        </function-decl>
      </member-function>
      <member-function access='private' vtable-offset='66'>
        <function-decl name='GetMaskThreshold' mangled-name='_ZN28vtkLineIntegralConvolution2D16GetMaskThresholdEv' filepath='/tmp/legendre/spack-stage/spack-stage-R_crTC/VTK-6.1.0/Rendering/LIC/vtkLineIntegralConvolution2D.h' line='254' column='1' visibility='default' binding='global' size-in-bits='64' hash='14e245f4052d89de'>
          <parameter type-id='type-id-397' is-artificial='yes'/>
          <return type-id='type-id-16'/>
        </function-decl>
      </member-function>
      <member-function access='private' vtable-offset='67'>
        <function-decl name='SetCommunicator' mangled-name='_ZN28vtkLineIntegralConvolution2D15SetCommunicatorEP22vtkPainterCommunicator' filepath='/tmp/legendre/spack-stage/spack-stage-R_crTC/VTK-6.1.0/Rendering/LIC/vtkLineIntegralConvolution2D.h' line='308' column='1' visibility='default' binding='global' size-in-bits='64' hash='891ebe0802172c91'>
          <parameter type-id='type-id-397' is-artificial='yes'/>
          <parameter type-id='type-id-393'/>
          <return type-id='type-id-21'/>
        </function-decl>
      </member-function>
      <member-function access='private' vtable-offset='68'>
        <function-decl name='GetCommunicator' mangled-name='_ZN28vtkLineIntegralConvolution2D15GetCommunicatorEv' filepath='/tmp/legendre/spack-stage/spack-stage-R_crTC/VTK-6.1.0/Rendering/LIC/vtkLineIntegralConvolution2D.cxx' line='1014' column='1' visibility='default' binding='global' size-in-bits='64' elf-symbol-id='_ZN28vtkLineIntegralConvolution2D15GetCommunicatorEv' hash='891ebe0802172c91'>
          <parameter type-id='type-id-397' is-artificial='yes'/>
          <return type-id='type-id-393'/>
        </function-decl>
      </member-function>
      <member-function access='private' vtable-offset='69'>
        <function-decl name='GetGlobalMinMax' mangled-name='_ZN28vtkLineIntegralConvolution2D15GetGlobalMinMaxEP22vtkPainterCommunicatorRfS2_' filepath='/tmp/legendre/spack-stage/spack-stage-R_crTC/VTK-6.1.0/Rendering/LIC/vtkLineIntegralConvolution2D.h' line='314' column='1' visibility='default' binding='global' size-in-bits='64' hash='896ca2c5370be4d8'>
          <parameter type-id='type-id-397' is-artificial='yes'/>
          <parameter type-id='type-id-393'/>
          <parameter type-id='type-id-401'/>
          <parameter type-id='type-id-401'/>
          <return type-id='type-id-21'/>
        </function-decl>
      </member-function>
      <member-function access='private' vtable-offset='70'>
        <function-decl name='WriteTimerLog' mangled-name='_ZN28vtkLineIntegralConvolution2D13WriteTimerLogEPKc' filepath='/tmp/legendre/spack-stage/spack-stage-R_crTC/VTK-6.1.0/Rendering/LIC/vtkLineIntegralConvolution2D.h' line='325' column='1' visibility='default' binding='global' size-in-bits='64' hash='53885bde0aa65efe'>
          <parameter type-id='type-id-397' is-artificial='yes'/>
          <parameter type-id='type-id-23'/>
          <return type-id='type-id-21'/>
        </function-decl>
      </member-function>
      <member-function access='protected' vtable-offset='71'>
        <function-decl name='StartTimerEvent' mangled-name='_ZN28vtkLineIntegralConvolution2D15StartTimerEventEPKc' filepath='/tmp/legendre/spack-stage/spack-stage-R_crTC/VTK-6.1.0/Rendering/LIC/vtkLineIntegralConvolution2D.h' line='358' column='1' visibility='default' binding='global' size-in-bits='64' hash='53885bde0aa65efe'>
          <parameter type-id='type-id-397' is-artificial='yes'/>
          <parameter type-id='type-id-23'/>
          <return type-id='type-id-21'/>
        </function-decl>
      </member-function>
      <member-function access='protected' vtable-offset='72'>
        <function-decl name='EndTimerEvent' mangled-name='_ZN28vtkLineIntegralConvolution2D13EndTimerEventEPKc' filepath='/tmp/legendre/spack-stage/spack-stage-R_crTC/VTK-6.1.0/Rendering/LIC/vtkLineIntegralConvolution2D.h' line='359' column='1' visibility='default' binding='global' size-in-bits='64' hash='53885bde0aa65efe'>
          <parameter type-id='type-id-397' is-artificial='yes'/>
          <parameter type-id='type-id-23'/>
          <return type-id='type-id-21'/>
        </function-decl>
      </member-function>
    </class-decl>
    <class-decl name='vtkPainterCommunicator' visibility='default' size-in-bits='64' filepath='/tmp/legendre/spack-stage/spack-stage-R_crTC/VTK-6.1.0/Rendering/LIC/vtkPainterCommunicator.h' line='30' column='1' hash='8ed836e77576c269' id='type-id-402'>
      <member-function access='private' destructor='yes' vtable-offset='-1'>
        <function-decl name='~vtkPainterCommunicator' filepath='/tmp/legendre/spack-stage/spack-stage-R_crTC/VTK-6.1.0/Rendering/LIC/vtkPainterCommunicator.h' line='33' column='1' visibility='default' binding='global' size-in-bits='64' hash='388da3fa973fde78'>
          <parameter type-id='type-id-393' is-artificial='yes'/>
          <parameter type-id='type-id-13' is-artificial='yes'/>
          <return type-id='type-id-21'/>
        </function-decl>
      </member-function>
      <member-function access='private' vtable-offset='2'>
        <function-decl name='Copy' mangled-name='_ZN22vtkPainterCommunicator4CopyEPKS_b' filepath='/tmp/legendre/spack-stage/spack-stage-R_crTC/VTK-6.1.0/Rendering/LIC/vtkPainterCommunicator.h' line='48' column='1' visibility='default' binding='global' size-in-bits='64' hash='7d6634ad89dd0ea7'>
          <parameter type-id='type-id-393' is-artificial='yes'/>
          <parameter type-id='type-id-403'/>
          <parameter type-id='type-id-1'/>
          <return type-id='type-id-21'/>
        </function-decl>
      </member-function>
      <member-function access='private' vtable-offset='3'>
        <function-decl name='Duplicate' mangled-name='_ZN22vtkPainterCommunicator9DuplicateEPKS_' filepath='/tmp/legendre/spack-stage/spack-stage-R_crTC/VTK-6.1.0/Rendering/LIC/vtkPainterCommunicator.h' line='52' column='1' visibility='default' binding='global' size-in-bits='64' hash='5c5217ed2c20aed1'>
          <parameter type-id='type-id-393' is-artificial='yes'/>
          <parameter type-id='type-id-403'/>
          <return type-id='type-id-21'/>
        </function-decl>
      </member-function>
      <member-function access='private' vtable-offset='4'>
        <function-decl name='GetRank' mangled-name='_ZN22vtkPainterCommunicator7GetRankEv' filepath='/tmp/legendre/spack-stage/spack-stage-R_crTC/VTK-6.1.0/Rendering/LIC/vtkPainterCommunicator.h' line='56' column='1' visibility='default' binding='global' size-in-bits='64' hash='388da3fa973fde78'>
          <parameter type-id='type-id-393' is-artificial='yes'/>
          <return type-id='type-id-13'/>
        </function-decl>
      </member-function>
      <member-function access='private' vtable-offset='5'>
        <function-decl name='GetSize' mangled-name='_ZN22vtkPainterCommunicator7GetSizeEv' filepath='/tmp/legendre/spack-stage/spack-stage-R_crTC/VTK-6.1.0/Rendering/LIC/vtkPainterCommunicator.h' line='57' column='1' visibility='default' binding='global' size-in-bits='64' hash='388da3fa973fde78'>
          <parameter type-id='type-id-393' is-artificial='yes'/>
          <return type-id='type-id-13'/>
        </function-decl>
      </member-function>
      <member-function access='private' vtable-offset='6'>
        <function-decl name='GetIsNull' mangled-name='_ZN22vtkPainterCommunicator9GetIsNullEv' filepath='/tmp/legendre/spack-stage/spack-stage-R_crTC/VTK-6.1.0/Rendering/LIC/vtkPainterCommunicator.h' line='58' column='1' visibility='default' binding='global' size-in-bits='64' hash='c7c710e908194b91'>
          <parameter type-id='type-id-393' is-artificial='yes'/>
          <return type-id='type-id-1'/>
        </function-decl>
      </member-function>
      <member-function access='private' vtable-offset='7'>
        <function-decl name='GetWorldRank' mangled-name='_ZN22vtkPainterCommunicator12GetWorldRankEv' filepath='/tmp/legendre/spack-stage/spack-stage-R_crTC/VTK-6.1.0/Rendering/LIC/vtkPainterCommunicator.h' line='62' column='1' visibility='default' binding='global' size-in-bits='64' hash='388da3fa973fde78'>
          <parameter type-id='type-id-393' is-artificial='yes'/>
          <return type-id='type-id-13'/>
        </function-decl>
      </member-function>
      <member-function access='private' vtable-offset='8'>
        <function-decl name='GetWorldSize' mangled-name='_ZN22vtkPainterCommunicator12GetWorldSizeEv' filepath='/tmp/legendre/spack-stage/spack-stage-R_crTC/VTK-6.1.0/Rendering/LIC/vtkPainterCommunicator.h' line='63' column='1' visibility='default' binding='global' size-in-bits='64' hash='388da3fa973fde78'>
          <parameter type-id='type-id-393' is-artificial='yes'/>
          <return type-id='type-id-13'/>
        </function-decl>
      </member-function>
      <member-function access='private' vtable-offset='9'>
        <function-decl name='GetMPIInitialized' mangled-name='_ZN22vtkPainterCommunicator17GetMPIInitializedEv' filepath='/tmp/legendre/spack-stage/spack-stage-R_crTC/VTK-6.1.0/Rendering/LIC/vtkPainterCommunicator.h' line='67' column='1' visibility='default' binding='global' size-in-bits='64' hash='c7c710e908194b91'>
          <parameter type-id='type-id-393' is-artificial='yes'/>
          <return type-id='type-id-1'/>
        </function-decl>
      </member-function>
      <member-function access='private' vtable-offset='10'>
        <function-decl name='GetMPIFinalized' mangled-name='_ZN22vtkPainterCommunicator15GetMPIFinalizedEv' filepath='/tmp/legendre/spack-stage/spack-stage-R_crTC/VTK-6.1.0/Rendering/LIC/vtkPainterCommunicator.h' line='68' column='1' visibility='default' binding='global' size-in-bits='64' hash='c7c710e908194b91'>
          <parameter type-id='type-id-393' is-artificial='yes'/>
          <return type-id='type-id-1'/>
        </function-decl>
      </member-function>
    </class-decl>
    <array-type-def dimensions='1' type-id='type-id-13' size-in-bits='64' hash='8198620b8b558cae' id='type-id-396'>
      <subrange length='2' lower-bound='0' upper-bound='1' type-id='type-id-4' size-in-bits='64' is-anonymous='yes' hash='95f31efc53154467' id='type-id-404'/>
    </array-type-def>
    <class-decl name='__pthread_internal_list' is-struct='yes' visibility='default' size-in-bits='128' filepath='/usr/include/bits/pthreadtypes.h' line='62' column='1' hash='5bcfb7f1ab39fa47' id='type-id-405'>
      <data-member access='public' layout-offset-in-bits='0'>
        <var-decl name='__prev' type-id='type-id-406' visibility='default' filepath='/usr/include/bits/pthreadtypes.h' line='63' column='1'/>
      </data-member>
      <data-member access='public' layout-offset-in-bits='64'>
        <var-decl name='__next' type-id='type-id-406' visibility='default' filepath='/usr/include/bits/pthreadtypes.h' line='64' column='1'/>
      </data-member>
    </class-decl>
    <typedef-decl name='__gthread_mutex_t' type-id='type-id-407' size-in-bits='320' filepath='/usr/lib/gcc/x86_64-redhat-linux/4.4.7/../../../../include/c++/4.4.7/x86_64-redhat-linux/bits/gthr-default.h' line='47' column='1' id='type-id-408'/>
    <typedef-decl name='__pthread_list_t' type-id='type-id-405' size-in-bits='128' filepath='/usr/include/bits/pthreadtypes.h' line='65' column='1' id='type-id-409'/>
    <typedef-decl name='ptrdiff_t' type-id='type-id-41' size-in-bits='64' filepath='/usr/lib/gcc/x86_64-redhat-linux/4.4.7/include/stddef.h' line='149' column='1' hash='b119fe0931d2ee10' id='type-id-264'/>
    <union-decl name='pthread_mutex_t' visibility='default' size-in-bits='320' filepath='/usr/include/bits/pthreadtypes.h' line='77' column='1' hash='8e3e5ddbcaed875f' id='type-id-407'>
      <member-type access='public'>
        <class-decl name='__pthread_mutex_s' is-struct='yes' visibility='default' size-in-bits='320' filepath='/usr/include/bits/pthreadtypes.h' line='79' column='1' hash='990722c309ed7e68' id='type-id-410'>
          <data-member access='public' layout-offset-in-bits='0'>
            <var-decl name='__lock' type-id='type-id-13' visibility='default' filepath='/usr/include/bits/pthreadtypes.h' line='80' column='1'/>
          </data-member>
          <data-member access='public' layout-offset-in-bits='32'>
            <var-decl name='__count' type-id='type-id-51' visibility='default' filepath='/usr/include/bits/pthreadtypes.h' line='81' column='1'/>
          </data-member>
          <data-member access='public' layout-offset-in-bits='64'>
            <var-decl name='__owner' type-id='type-id-13' visibility='default' filepath='/usr/include/bits/pthreadtypes.h' line='82' column='1'/>
          </data-member>
          <data-member access='public' layout-offset-in-bits='96'>
            <var-decl name='__nusers' type-id='type-id-51' visibility='default' filepath='/usr/include/bits/pthreadtypes.h' line='84' column='1'/>
          </data-member>
          <data-member access='public' layout-offset-in-bits='128'>
            <var-decl name='__kind' type-id='type-id-13' visibility='default' filepath='/usr/include/bits/pthreadtypes.h' line='88' column='1'/>
          </data-member>
          <data-member access='public' layout-offset-in-bits='160'>
            <var-decl name='__spins' type-id='type-id-13' visibility='default' filepath='/usr/include/bits/pthreadtypes.h' line='90' column='1'/>
          </data-member>
          <data-member access='public' layout-offset-in-bits='192'>
            <var-decl name='__list' type-id='type-id-409' visibility='default' filepath='/usr/include/bits/pthreadtypes.h' line='91' column='1'/>
          </data-member>
        </class-decl>
      </member-type>
      <data-member access='public'>
        <var-decl name='__data' type-id='type-id-410' visibility='default' filepath='/usr/include/bits/pthreadtypes.h' line='101' column='1'/>
      </data-member>
      <data-member access='public'>
        <var-decl name='__size' type-id='type-id-384' visibility='default' filepath='/usr/include/bits/pthreadtypes.h' line='102' column='1'/>
      </data-member>
      <data-member access='public'>
        <var-decl name='__align' type-id='type-id-41' visibility='default' filepath='/usr/include/bits/pthreadtypes.h' line='103' column='1'/>
      </data-member>
    </union-decl>
    <array-type-def dimensions='1' type-id='type-id-210' size-in-bits='128' hash='79b244763ca96cca' id='type-id-389'>
      <subrange length='2' lower-bound='0' upper-bound='1' type-id='type-id-4' size-in-bits='64' is-anonymous='yes' hash='95f31efc53154467' id='type-id-404'/>
    </array-type-def>
    <array-type-def dimensions='1' type-id='type-id-51' size-in-bits='64' hash='27faccd2350aa96c' id='type-id-388'>
      <subrange length='2' lower-bound='0' upper-bound='1' type-id='type-id-4' size-in-bits='64' is-anonymous='yes' hash='95f31efc53154467' id='type-id-404'/>
    </array-type-def>
    <pointer-type-def type-id='type-id-411' size-in-bits='64' hash='608f46af5d93b320' id='type-id-412'/>
    <qualified-type-def type-id='type-id-412' const='yes' hash='e44adfc70c429f12' id='type-id-413'/>
    <pointer-type-def type-id='type-id-414' size-in-bits='64' hash='2415fc81f6bf633d' id='type-id-415'/>
    <qualified-type-def type-id='type-id-415' const='yes' hash='e99b106d22ff2d76' id='type-id-416'/>
    <pointer-type-def type-id='type-id-417' size-in-bits='64' hash='387cfe0e91182a4d' id='type-id-418'/>
    <qualified-type-def type-id='type-id-418' const='yes' hash='7e57a54e6142f4d4' id='type-id-419'/>
    <pointer-type-def type-id='type-id-405' size-in-bits='64' hash='b83eb2deac70d470' id='type-id-406'/>
    <reference-type-def kind='lvalue' type-id='type-id-2' size-in-bits='64' hash='ffc913127619398d' id='type-id-420'/>
    <qualified-type-def type-id='type-id-81' const='yes' hash='351aa155d9983c83' id='type-id-421'/>
    <reference-type-def kind='lvalue' type-id='type-id-421' size-in-bits='64' hash='a28c6f0c263296f1' id='type-id-422'/>
    <qualified-type-def type-id='type-id-411' const='yes' hash='d0c896a319e39135' id='type-id-423'/>
    <reference-type-def kind='lvalue' type-id='type-id-423' size-in-bits='64' hash='9a4f67b0de72c33d' id='type-id-424'/>
    <pointer-type-def type-id='type-id-423' size-in-bits='64' hash='0481e4c0dbe5485f' id='type-id-425'/>
    <qualified-type-def type-id='type-id-414' const='yes' hash='a146dea00920c5ba' id='type-id-426'/>
    <reference-type-def kind='lvalue' type-id='type-id-426' size-in-bits='64' hash='8e6309c703b8358c' id='type-id-427'/>
    <pointer-type-def type-id='type-id-426' size-in-bits='64' hash='89a19ecd204280a7' id='type-id-428'/>
    <qualified-type-def type-id='type-id-428' const='yes' hash='70cde0d5b0e74f96' id='type-id-429'/>
    <qualified-type-def type-id='type-id-417' const='yes' hash='e80f7450c0e5b700' id='type-id-430'/>
    <reference-type-def kind='lvalue' type-id='type-id-430' size-in-bits='64' hash='72753b8fcd3f6da1' id='type-id-431'/>
    <pointer-type-def type-id='type-id-430' size-in-bits='64' hash='2da354971d09f10d' id='type-id-432'/>
    <qualified-type-def type-id='type-id-432' const='yes' hash='1df711d244c0cea3' id='type-id-433'/>
    <reference-type-def kind='lvalue' type-id='type-id-128' size-in-bits='64' hash='78bf127c69ae91c1' id='type-id-434'/>
    <qualified-type-def type-id='type-id-38' const='yes' hash='03855f78902f9a2e' id='type-id-435'/>
    <reference-type-def kind='lvalue' type-id='type-id-435' size-in-bits='64' hash='96a7a7ed7855d676' id='type-id-436'/>
    <pointer-type-def type-id='type-id-435' size-in-bits='64' hash='4f94bb6e36fd449b' id='type-id-437'/>
    <qualified-type-def type-id='type-id-145' const='yes' hash='3ee19b0d1dffd662' id='type-id-438'/>
    <qualified-type-def type-id='type-id-439' const='yes' hash='617fcc8007cdc5f8' id='type-id-440'/>
    <pointer-type-def type-id='type-id-440' size-in-bits='64' hash='07e6804161f7edf7' id='type-id-441'/>
    <qualified-type-def type-id='type-id-442' const='yes' hash='bee04dc4348f7225' id='type-id-443'/>
    <pointer-type-def type-id='type-id-443' size-in-bits='64' hash='b49d75ed02064316' id='type-id-444'/>
    <qualified-type-def type-id='type-id-445' const='yes' hash='6e0de6a971e9c8d7' id='type-id-446'/>
    <pointer-type-def type-id='type-id-446' size-in-bits='64' hash='aca46a1747dd7958' id='type-id-447'/>
    <qualified-type-def type-id='type-id-448' const='yes' hash='902ffeb42efa2254' id='type-id-449'/>
    <reference-type-def kind='lvalue' type-id='type-id-449' size-in-bits='64' hash='7d4280c016344b59' id='type-id-450'/>
    <qualified-type-def type-id='type-id-451' const='yes' hash='5611aa7217b401b3' id='type-id-452'/>
    <reference-type-def kind='lvalue' type-id='type-id-452' size-in-bits='64' hash='b78ccf7dd06f41d5' id='type-id-453'/>
    <qualified-type-def type-id='type-id-454' const='yes' hash='ceba6610dcf268db' id='type-id-455'/>
    <reference-type-def kind='lvalue' type-id='type-id-455' size-in-bits='64' hash='7b2a729c35668ee3' id='type-id-456'/>
    <qualified-type-def type-id='type-id-457' const='yes' hash='42938116911f2585' id='type-id-458'/>
    <reference-type-def kind='lvalue' type-id='type-id-458' size-in-bits='64' hash='ebc94b0648ba0254' id='type-id-459'/>
